; Listing generated by Microsoft (R) Optimizing Compiler Version 18.00.21005.1 

	TITLE	F:\Cavestory\Cavestory\Cavestory\Input.cpp
	.686P
	.XMM
	include listing.inc
	.model	flat

INCLUDELIB MSVCRTD
INCLUDELIB OLDNAMES

PUBLIC	?is_signed@?$numeric_limits@J@std@@2_NB		; std::numeric_limits<long>::is_signed
PUBLIC	?digits@?$numeric_limits@J@std@@2HB		; std::numeric_limits<long>::digits
PUBLIC	?digits10@?$numeric_limits@J@std@@2HB		; std::numeric_limits<long>::digits10
PUBLIC	?is_signed@?$numeric_limits@K@std@@2_NB		; std::numeric_limits<unsigned long>::is_signed
PUBLIC	?digits@?$numeric_limits@K@std@@2HB		; std::numeric_limits<unsigned long>::digits
PUBLIC	?digits10@?$numeric_limits@K@std@@2HB		; std::numeric_limits<unsigned long>::digits10
PUBLIC	?is_signed@?$numeric_limits@_J@std@@2_NB	; std::numeric_limits<__int64>::is_signed
PUBLIC	?digits@?$numeric_limits@_J@std@@2HB		; std::numeric_limits<__int64>::digits
PUBLIC	?digits10@?$numeric_limits@_J@std@@2HB		; std::numeric_limits<__int64>::digits10
PUBLIC	?is_signed@?$numeric_limits@_K@std@@2_NB	; std::numeric_limits<unsigned __int64>::is_signed
PUBLIC	?digits@?$numeric_limits@_K@std@@2HB		; std::numeric_limits<unsigned __int64>::digits
PUBLIC	?digits10@?$numeric_limits@_K@std@@2HB		; std::numeric_limits<unsigned __int64>::digits10
PUBLIC	?digits@?$numeric_limits@M@std@@2HB		; std::numeric_limits<float>::digits
PUBLIC	?digits10@?$numeric_limits@M@std@@2HB		; std::numeric_limits<float>::digits10
PUBLIC	?max_digits10@?$numeric_limits@M@std@@2HB	; std::numeric_limits<float>::max_digits10
PUBLIC	?max_exponent@?$numeric_limits@M@std@@2HB	; std::numeric_limits<float>::max_exponent
PUBLIC	?max_exponent10@?$numeric_limits@M@std@@2HB	; std::numeric_limits<float>::max_exponent10
PUBLIC	?min_exponent@?$numeric_limits@M@std@@2HB	; std::numeric_limits<float>::min_exponent
PUBLIC	?min_exponent10@?$numeric_limits@M@std@@2HB	; std::numeric_limits<float>::min_exponent10
PUBLIC	?digits@?$numeric_limits@N@std@@2HB		; std::numeric_limits<double>::digits
PUBLIC	?digits10@?$numeric_limits@N@std@@2HB		; std::numeric_limits<double>::digits10
PUBLIC	?max_digits10@?$numeric_limits@N@std@@2HB	; std::numeric_limits<double>::max_digits10
PUBLIC	?max_exponent@?$numeric_limits@N@std@@2HB	; std::numeric_limits<double>::max_exponent
PUBLIC	?value@?$integral_constant@I$07@std@@2IB	; std::integral_constant<unsigned int,8>::value
PUBLIC	?max_exponent10@?$numeric_limits@N@std@@2HB	; std::numeric_limits<double>::max_exponent10
PUBLIC	?min_exponent@?$numeric_limits@N@std@@2HB	; std::numeric_limits<double>::min_exponent
PUBLIC	?min_exponent10@?$numeric_limits@N@std@@2HB	; std::numeric_limits<double>::min_exponent10
PUBLIC	?digits@?$numeric_limits@O@std@@2HB		; std::numeric_limits<long double>::digits
PUBLIC	?digits10@?$numeric_limits@O@std@@2HB		; std::numeric_limits<long double>::digits10
PUBLIC	?max_digits10@?$numeric_limits@O@std@@2HB	; std::numeric_limits<long double>::max_digits10
PUBLIC	?max_exponent@?$numeric_limits@O@std@@2HB	; std::numeric_limits<long double>::max_exponent
PUBLIC	?max_exponent10@?$numeric_limits@O@std@@2HB	; std::numeric_limits<long double>::max_exponent10
PUBLIC	?min_exponent@?$numeric_limits@O@std@@2HB	; std::numeric_limits<long double>::min_exponent
PUBLIC	?value@?$integral_constant@I$03@std@@2IB	; std::integral_constant<unsigned int,4>::value
PUBLIC	?min_exponent10@?$numeric_limits@O@std@@2HB	; std::numeric_limits<long double>::min_exponent10
PUBLIC	?_Mysize@?$tuple@ABW4SDL_Scancode@@@std@@2IB	; std::tuple<enum SDL_Scancode const &>::_Mysize
PUBLIC	?value@?$integral_constant@I$01@std@@2IB	; std::integral_constant<unsigned int,2>::value
PUBLIC	?value@?$integral_constant@I$00@std@@2IB	; std::integral_constant<unsigned int,1>::value
PUBLIC	?value@?$_Maximum@$S@std@@2IB			; std::_Maximum<>::value
PUBLIC	?value@?$integral_constant@I$0A@@std@@2IB	; std::integral_constant<unsigned int,0>::value
PUBLIC	?has_denorm@_Num_base@std@@2W4float_denorm_style@2@B ; std::_Num_base::has_denorm
PUBLIC	?has_denorm_loss@_Num_base@std@@2_NB		; std::_Num_base::has_denorm_loss
PUBLIC	?has_infinity@_Num_base@std@@2_NB		; std::_Num_base::has_infinity
PUBLIC	?has_quiet_NaN@_Num_base@std@@2_NB		; std::_Num_base::has_quiet_NaN
PUBLIC	?has_signaling_NaN@_Num_base@std@@2_NB		; std::_Num_base::has_signaling_NaN
PUBLIC	?is_bounded@_Num_base@std@@2_NB			; std::_Num_base::is_bounded
PUBLIC	?is_exact@_Num_base@std@@2_NB			; std::_Num_base::is_exact
PUBLIC	?is_iec559@_Num_base@std@@2_NB			; std::_Num_base::is_iec559
PUBLIC	?is_integer@_Num_base@std@@2_NB			; std::_Num_base::is_integer
PUBLIC	?is_modulo@_Num_base@std@@2_NB			; std::_Num_base::is_modulo
PUBLIC	?value@?$integral_constant@_N$0A@@std@@2_NB	; std::integral_constant<bool,0>::value
PUBLIC	?is_signed@_Num_base@std@@2_NB			; std::_Num_base::is_signed
PUBLIC	?is_specialized@_Num_base@std@@2_NB		; std::_Num_base::is_specialized
PUBLIC	?tinyness_before@_Num_base@std@@2_NB		; std::_Num_base::tinyness_before
PUBLIC	?traps@_Num_base@std@@2_NB			; std::_Num_base::traps
PUBLIC	?round_style@_Num_base@std@@2W4float_round_style@2@B ; std::_Num_base::round_style
PUBLIC	?value@?$integral_constant@_N$00@std@@2_NB	; std::integral_constant<bool,1>::value
PUBLIC	?digits@_Num_base@std@@2HB			; std::_Num_base::digits
PUBLIC	?digits10@_Num_base@std@@2HB			; std::_Num_base::digits10
PUBLIC	?max_digits10@_Num_base@std@@2HB		; std::_Num_base::max_digits10
PUBLIC	?max_exponent@_Num_base@std@@2HB		; std::_Num_base::max_exponent
PUBLIC	?max_exponent10@_Num_base@std@@2HB		; std::_Num_base::max_exponent10
PUBLIC	?min_exponent@_Num_base@std@@2HB		; std::_Num_base::min_exponent
PUBLIC	?min_exponent10@_Num_base@std@@2HB		; std::_Num_base::min_exponent10
PUBLIC	?radix@_Num_base@std@@2HB			; std::_Num_base::radix
PUBLIC	?is_bounded@_Num_int_base@std@@2_NB		; std::_Num_int_base::is_bounded
PUBLIC	?is_exact@_Num_int_base@std@@2_NB		; std::_Num_int_base::is_exact
PUBLIC	?is_integer@_Num_int_base@std@@2_NB		; std::_Num_int_base::is_integer
PUBLIC	?is_modulo@_Num_int_base@std@@2_NB		; std::_Num_int_base::is_modulo
PUBLIC	?is_specialized@_Num_int_base@std@@2_NB		; std::_Num_int_base::is_specialized
PUBLIC	?radix@_Num_int_base@std@@2HB			; std::_Num_int_base::radix
PUBLIC	?has_denorm@_Num_float_base@std@@2W4float_denorm_style@2@B ; std::_Num_float_base::has_denorm
PUBLIC	?has_denorm_loss@_Num_float_base@std@@2_NB	; std::_Num_float_base::has_denorm_loss
PUBLIC	?has_infinity@_Num_float_base@std@@2_NB		; std::_Num_float_base::has_infinity
PUBLIC	?has_quiet_NaN@_Num_float_base@std@@2_NB	; std::_Num_float_base::has_quiet_NaN
PUBLIC	?has_signaling_NaN@_Num_float_base@std@@2_NB	; std::_Num_float_base::has_signaling_NaN
PUBLIC	?is_bounded@_Num_float_base@std@@2_NB		; std::_Num_float_base::is_bounded
PUBLIC	?is_exact@_Num_float_base@std@@2_NB		; std::_Num_float_base::is_exact
PUBLIC	?is_iec559@_Num_float_base@std@@2_NB		; std::_Num_float_base::is_iec559
PUBLIC	?is_integer@_Num_float_base@std@@2_NB		; std::_Num_float_base::is_integer
PUBLIC	?is_modulo@_Num_float_base@std@@2_NB		; std::_Num_float_base::is_modulo
PUBLIC	?is_signed@_Num_float_base@std@@2_NB		; std::_Num_float_base::is_signed
PUBLIC	?is_specialized@_Num_float_base@std@@2_NB	; std::_Num_float_base::is_specialized
PUBLIC	?tinyness_before@_Num_float_base@std@@2_NB	; std::_Num_float_base::tinyness_before
PUBLIC	?traps@_Num_float_base@std@@2_NB		; std::_Num_float_base::traps
PUBLIC	?round_style@_Num_float_base@std@@2W4float_round_style@2@B ; std::_Num_float_base::round_style
PUBLIC	?radix@_Num_float_base@std@@2HB			; std::_Num_float_base::radix
PUBLIC	?is_signed@?$numeric_limits@D@std@@2_NB		; std::numeric_limits<char>::is_signed
PUBLIC	?digits@?$numeric_limits@D@std@@2HB		; std::numeric_limits<char>::digits
PUBLIC	?digits10@?$numeric_limits@D@std@@2HB		; std::numeric_limits<char>::digits10
PUBLIC	?is_signed@?$numeric_limits@_W@std@@2_NB	; std::numeric_limits<wchar_t>::is_signed
PUBLIC	?digits@?$numeric_limits@_W@std@@2HB		; std::numeric_limits<wchar_t>::digits
PUBLIC	?digits10@?$numeric_limits@_W@std@@2HB		; std::numeric_limits<wchar_t>::digits10
PUBLIC	?is_modulo@?$numeric_limits@_N@std@@2_NB	; std::numeric_limits<bool>::is_modulo
PUBLIC	?is_signed@?$numeric_limits@_N@std@@2_NB	; std::numeric_limits<bool>::is_signed
PUBLIC	?digits@?$numeric_limits@_N@std@@2HB		; std::numeric_limits<bool>::digits
PUBLIC	?digits10@?$numeric_limits@_N@std@@2HB		; std::numeric_limits<bool>::digits10
PUBLIC	?is_signed@?$numeric_limits@C@std@@2_NB		; std::numeric_limits<signed char>::is_signed
PUBLIC	?digits@?$numeric_limits@C@std@@2HB		; std::numeric_limits<signed char>::digits
PUBLIC	?digits10@?$numeric_limits@C@std@@2HB		; std::numeric_limits<signed char>::digits10
PUBLIC	?is_signed@?$numeric_limits@E@std@@2_NB		; std::numeric_limits<unsigned char>::is_signed
PUBLIC	?digits@?$numeric_limits@E@std@@2HB		; std::numeric_limits<unsigned char>::digits
PUBLIC	?digits10@?$numeric_limits@E@std@@2HB		; std::numeric_limits<unsigned char>::digits10
PUBLIC	?is_signed@?$numeric_limits@F@std@@2_NB		; std::numeric_limits<short>::is_signed
PUBLIC	?digits@?$numeric_limits@F@std@@2HB		; std::numeric_limits<short>::digits
PUBLIC	?digits10@?$numeric_limits@F@std@@2HB		; std::numeric_limits<short>::digits10
PUBLIC	?is_signed@?$numeric_limits@G@std@@2_NB		; std::numeric_limits<unsigned short>::is_signed
PUBLIC	?digits@?$numeric_limits@G@std@@2HB		; std::numeric_limits<unsigned short>::digits
PUBLIC	?digits10@?$numeric_limits@G@std@@2HB		; std::numeric_limits<unsigned short>::digits10
PUBLIC	?is_signed@?$numeric_limits@H@std@@2_NB		; std::numeric_limits<int>::is_signed
PUBLIC	?digits@?$numeric_limits@H@std@@2HB		; std::numeric_limits<int>::digits
PUBLIC	?digits10@?$numeric_limits@H@std@@2HB		; std::numeric_limits<int>::digits10
PUBLIC	?is_signed@?$numeric_limits@I@std@@2_NB		; std::numeric_limits<unsigned int>::is_signed
PUBLIC	?digits@?$numeric_limits@I@std@@2HB		; std::numeric_limits<unsigned int>::digits
PUBLIC	?digits10@?$numeric_limits@I@std@@2HB		; std::numeric_limits<unsigned int>::digits10
;	COMDAT ?digits10@?$numeric_limits@I@std@@2HB
CONST	SEGMENT
?digits10@?$numeric_limits@I@std@@2HB DD 09H		; std::numeric_limits<unsigned int>::digits10
CONST	ENDS
;	COMDAT ?digits@?$numeric_limits@I@std@@2HB
CONST	SEGMENT
?digits@?$numeric_limits@I@std@@2HB DD 020H		; std::numeric_limits<unsigned int>::digits
CONST	ENDS
;	COMDAT ?is_signed@?$numeric_limits@I@std@@2_NB
CONST	SEGMENT
?is_signed@?$numeric_limits@I@std@@2_NB DB 00H		; std::numeric_limits<unsigned int>::is_signed
CONST	ENDS
;	COMDAT ?digits10@?$numeric_limits@H@std@@2HB
CONST	SEGMENT
?digits10@?$numeric_limits@H@std@@2HB DD 09H		; std::numeric_limits<int>::digits10
CONST	ENDS
;	COMDAT ?digits@?$numeric_limits@H@std@@2HB
CONST	SEGMENT
?digits@?$numeric_limits@H@std@@2HB DD 01fH		; std::numeric_limits<int>::digits
CONST	ENDS
;	COMDAT ?is_signed@?$numeric_limits@H@std@@2_NB
CONST	SEGMENT
?is_signed@?$numeric_limits@H@std@@2_NB DB 01H		; std::numeric_limits<int>::is_signed
CONST	ENDS
;	COMDAT ?digits10@?$numeric_limits@G@std@@2HB
CONST	SEGMENT
?digits10@?$numeric_limits@G@std@@2HB DD 04H		; std::numeric_limits<unsigned short>::digits10
CONST	ENDS
;	COMDAT ?digits@?$numeric_limits@G@std@@2HB
CONST	SEGMENT
?digits@?$numeric_limits@G@std@@2HB DD 010H		; std::numeric_limits<unsigned short>::digits
CONST	ENDS
;	COMDAT ?is_signed@?$numeric_limits@G@std@@2_NB
CONST	SEGMENT
?is_signed@?$numeric_limits@G@std@@2_NB DB 00H		; std::numeric_limits<unsigned short>::is_signed
CONST	ENDS
;	COMDAT ?digits10@?$numeric_limits@F@std@@2HB
CONST	SEGMENT
?digits10@?$numeric_limits@F@std@@2HB DD 04H		; std::numeric_limits<short>::digits10
CONST	ENDS
;	COMDAT ?digits@?$numeric_limits@F@std@@2HB
CONST	SEGMENT
?digits@?$numeric_limits@F@std@@2HB DD 0fH		; std::numeric_limits<short>::digits
CONST	ENDS
;	COMDAT ?is_signed@?$numeric_limits@F@std@@2_NB
CONST	SEGMENT
?is_signed@?$numeric_limits@F@std@@2_NB DB 01H		; std::numeric_limits<short>::is_signed
CONST	ENDS
;	COMDAT ?digits10@?$numeric_limits@E@std@@2HB
CONST	SEGMENT
?digits10@?$numeric_limits@E@std@@2HB DD 02H		; std::numeric_limits<unsigned char>::digits10
CONST	ENDS
;	COMDAT ?digits@?$numeric_limits@E@std@@2HB
CONST	SEGMENT
?digits@?$numeric_limits@E@std@@2HB DD 08H		; std::numeric_limits<unsigned char>::digits
CONST	ENDS
;	COMDAT ?is_signed@?$numeric_limits@E@std@@2_NB
CONST	SEGMENT
?is_signed@?$numeric_limits@E@std@@2_NB DB 00H		; std::numeric_limits<unsigned char>::is_signed
CONST	ENDS
;	COMDAT ?digits10@?$numeric_limits@C@std@@2HB
CONST	SEGMENT
?digits10@?$numeric_limits@C@std@@2HB DD 02H		; std::numeric_limits<signed char>::digits10
CONST	ENDS
;	COMDAT ?digits@?$numeric_limits@C@std@@2HB
CONST	SEGMENT
?digits@?$numeric_limits@C@std@@2HB DD 07H		; std::numeric_limits<signed char>::digits
CONST	ENDS
;	COMDAT ?is_signed@?$numeric_limits@C@std@@2_NB
CONST	SEGMENT
?is_signed@?$numeric_limits@C@std@@2_NB DB 01H		; std::numeric_limits<signed char>::is_signed
CONST	ENDS
;	COMDAT ?digits10@?$numeric_limits@_N@std@@2HB
CONST	SEGMENT
?digits10@?$numeric_limits@_N@std@@2HB DD 00H		; std::numeric_limits<bool>::digits10
CONST	ENDS
;	COMDAT ?digits@?$numeric_limits@_N@std@@2HB
CONST	SEGMENT
?digits@?$numeric_limits@_N@std@@2HB DD 01H		; std::numeric_limits<bool>::digits
CONST	ENDS
;	COMDAT ?is_signed@?$numeric_limits@_N@std@@2_NB
CONST	SEGMENT
?is_signed@?$numeric_limits@_N@std@@2_NB DB 00H		; std::numeric_limits<bool>::is_signed
CONST	ENDS
;	COMDAT ?is_modulo@?$numeric_limits@_N@std@@2_NB
CONST	SEGMENT
?is_modulo@?$numeric_limits@_N@std@@2_NB DB 00H		; std::numeric_limits<bool>::is_modulo
CONST	ENDS
;	COMDAT ?digits10@?$numeric_limits@_W@std@@2HB
CONST	SEGMENT
?digits10@?$numeric_limits@_W@std@@2HB DD 04H		; std::numeric_limits<wchar_t>::digits10
CONST	ENDS
;	COMDAT ?digits@?$numeric_limits@_W@std@@2HB
CONST	SEGMENT
?digits@?$numeric_limits@_W@std@@2HB DD 010H		; std::numeric_limits<wchar_t>::digits
CONST	ENDS
;	COMDAT ?is_signed@?$numeric_limits@_W@std@@2_NB
CONST	SEGMENT
?is_signed@?$numeric_limits@_W@std@@2_NB DB 00H		; std::numeric_limits<wchar_t>::is_signed
CONST	ENDS
;	COMDAT ?digits10@?$numeric_limits@D@std@@2HB
CONST	SEGMENT
?digits10@?$numeric_limits@D@std@@2HB DD 02H		; std::numeric_limits<char>::digits10
CONST	ENDS
;	COMDAT ?digits@?$numeric_limits@D@std@@2HB
CONST	SEGMENT
?digits@?$numeric_limits@D@std@@2HB DD 07H		; std::numeric_limits<char>::digits
CONST	ENDS
;	COMDAT ?is_signed@?$numeric_limits@D@std@@2_NB
CONST	SEGMENT
?is_signed@?$numeric_limits@D@std@@2_NB DB 01H		; std::numeric_limits<char>::is_signed
CONST	ENDS
;	COMDAT ?radix@_Num_float_base@std@@2HB
CONST	SEGMENT
?radix@_Num_float_base@std@@2HB DD 02H			; std::_Num_float_base::radix
CONST	ENDS
;	COMDAT ?round_style@_Num_float_base@std@@2W4float_round_style@2@B
CONST	SEGMENT
?round_style@_Num_float_base@std@@2W4float_round_style@2@B DD 01H ; std::_Num_float_base::round_style
CONST	ENDS
;	COMDAT ?traps@_Num_float_base@std@@2_NB
CONST	SEGMENT
?traps@_Num_float_base@std@@2_NB DB 00H			; std::_Num_float_base::traps
CONST	ENDS
;	COMDAT ?tinyness_before@_Num_float_base@std@@2_NB
CONST	SEGMENT
?tinyness_before@_Num_float_base@std@@2_NB DB 01H	; std::_Num_float_base::tinyness_before
CONST	ENDS
;	COMDAT ?is_specialized@_Num_float_base@std@@2_NB
CONST	SEGMENT
?is_specialized@_Num_float_base@std@@2_NB DB 01H	; std::_Num_float_base::is_specialized
CONST	ENDS
;	COMDAT ?is_signed@_Num_float_base@std@@2_NB
CONST	SEGMENT
?is_signed@_Num_float_base@std@@2_NB DB 01H		; std::_Num_float_base::is_signed
CONST	ENDS
;	COMDAT ?is_modulo@_Num_float_base@std@@2_NB
CONST	SEGMENT
?is_modulo@_Num_float_base@std@@2_NB DB 00H		; std::_Num_float_base::is_modulo
CONST	ENDS
;	COMDAT ?is_integer@_Num_float_base@std@@2_NB
CONST	SEGMENT
?is_integer@_Num_float_base@std@@2_NB DB 00H		; std::_Num_float_base::is_integer
CONST	ENDS
;	COMDAT ?is_iec559@_Num_float_base@std@@2_NB
CONST	SEGMENT
?is_iec559@_Num_float_base@std@@2_NB DB 01H		; std::_Num_float_base::is_iec559
CONST	ENDS
;	COMDAT ?is_exact@_Num_float_base@std@@2_NB
CONST	SEGMENT
?is_exact@_Num_float_base@std@@2_NB DB 00H		; std::_Num_float_base::is_exact
CONST	ENDS
;	COMDAT ?is_bounded@_Num_float_base@std@@2_NB
CONST	SEGMENT
?is_bounded@_Num_float_base@std@@2_NB DB 01H		; std::_Num_float_base::is_bounded
CONST	ENDS
;	COMDAT ?has_signaling_NaN@_Num_float_base@std@@2_NB
CONST	SEGMENT
?has_signaling_NaN@_Num_float_base@std@@2_NB DB 01H	; std::_Num_float_base::has_signaling_NaN
CONST	ENDS
;	COMDAT ?has_quiet_NaN@_Num_float_base@std@@2_NB
CONST	SEGMENT
?has_quiet_NaN@_Num_float_base@std@@2_NB DB 01H		; std::_Num_float_base::has_quiet_NaN
CONST	ENDS
;	COMDAT ?has_infinity@_Num_float_base@std@@2_NB
CONST	SEGMENT
?has_infinity@_Num_float_base@std@@2_NB DB 01H		; std::_Num_float_base::has_infinity
CONST	ENDS
;	COMDAT ?has_denorm_loss@_Num_float_base@std@@2_NB
CONST	SEGMENT
?has_denorm_loss@_Num_float_base@std@@2_NB DB 01H	; std::_Num_float_base::has_denorm_loss
CONST	ENDS
;	COMDAT ?has_denorm@_Num_float_base@std@@2W4float_denorm_style@2@B
CONST	SEGMENT
?has_denorm@_Num_float_base@std@@2W4float_denorm_style@2@B DD 01H ; std::_Num_float_base::has_denorm
CONST	ENDS
;	COMDAT ?radix@_Num_int_base@std@@2HB
CONST	SEGMENT
?radix@_Num_int_base@std@@2HB DD 02H			; std::_Num_int_base::radix
CONST	ENDS
;	COMDAT ?is_specialized@_Num_int_base@std@@2_NB
CONST	SEGMENT
?is_specialized@_Num_int_base@std@@2_NB DB 01H		; std::_Num_int_base::is_specialized
CONST	ENDS
;	COMDAT ?is_modulo@_Num_int_base@std@@2_NB
CONST	SEGMENT
?is_modulo@_Num_int_base@std@@2_NB DB 01H		; std::_Num_int_base::is_modulo
CONST	ENDS
;	COMDAT ?is_integer@_Num_int_base@std@@2_NB
CONST	SEGMENT
?is_integer@_Num_int_base@std@@2_NB DB 01H		; std::_Num_int_base::is_integer
CONST	ENDS
;	COMDAT ?is_exact@_Num_int_base@std@@2_NB
CONST	SEGMENT
?is_exact@_Num_int_base@std@@2_NB DB 01H		; std::_Num_int_base::is_exact
CONST	ENDS
;	COMDAT ?is_bounded@_Num_int_base@std@@2_NB
CONST	SEGMENT
?is_bounded@_Num_int_base@std@@2_NB DB 01H		; std::_Num_int_base::is_bounded
CONST	ENDS
;	COMDAT ?radix@_Num_base@std@@2HB
CONST	SEGMENT
?radix@_Num_base@std@@2HB DD 00H			; std::_Num_base::radix
CONST	ENDS
;	COMDAT ?min_exponent10@_Num_base@std@@2HB
CONST	SEGMENT
?min_exponent10@_Num_base@std@@2HB DD 00H		; std::_Num_base::min_exponent10
CONST	ENDS
;	COMDAT ?min_exponent@_Num_base@std@@2HB
CONST	SEGMENT
?min_exponent@_Num_base@std@@2HB DD 00H			; std::_Num_base::min_exponent
CONST	ENDS
;	COMDAT ?max_exponent10@_Num_base@std@@2HB
CONST	SEGMENT
?max_exponent10@_Num_base@std@@2HB DD 00H		; std::_Num_base::max_exponent10
CONST	ENDS
;	COMDAT ?max_exponent@_Num_base@std@@2HB
CONST	SEGMENT
?max_exponent@_Num_base@std@@2HB DD 00H			; std::_Num_base::max_exponent
CONST	ENDS
;	COMDAT ?max_digits10@_Num_base@std@@2HB
CONST	SEGMENT
?max_digits10@_Num_base@std@@2HB DD 00H			; std::_Num_base::max_digits10
CONST	ENDS
;	COMDAT ?digits10@_Num_base@std@@2HB
CONST	SEGMENT
?digits10@_Num_base@std@@2HB DD 00H			; std::_Num_base::digits10
CONST	ENDS
;	COMDAT ?digits@_Num_base@std@@2HB
CONST	SEGMENT
?digits@_Num_base@std@@2HB DD 00H			; std::_Num_base::digits
CONST	ENDS
;	COMDAT ?value@?$integral_constant@_N$00@std@@2_NB
CONST	SEGMENT
?value@?$integral_constant@_N$00@std@@2_NB DB 01H	; std::integral_constant<bool,1>::value
CONST	ENDS
;	COMDAT ?round_style@_Num_base@std@@2W4float_round_style@2@B
CONST	SEGMENT
?round_style@_Num_base@std@@2W4float_round_style@2@B DD 00H ; std::_Num_base::round_style
CONST	ENDS
;	COMDAT ?traps@_Num_base@std@@2_NB
CONST	SEGMENT
?traps@_Num_base@std@@2_NB DB 00H			; std::_Num_base::traps
CONST	ENDS
;	COMDAT ?tinyness_before@_Num_base@std@@2_NB
CONST	SEGMENT
?tinyness_before@_Num_base@std@@2_NB DB 00H		; std::_Num_base::tinyness_before
CONST	ENDS
;	COMDAT ?is_specialized@_Num_base@std@@2_NB
CONST	SEGMENT
?is_specialized@_Num_base@std@@2_NB DB 00H		; std::_Num_base::is_specialized
CONST	ENDS
;	COMDAT ?is_signed@_Num_base@std@@2_NB
CONST	SEGMENT
?is_signed@_Num_base@std@@2_NB DB 00H			; std::_Num_base::is_signed
CONST	ENDS
;	COMDAT ?value@?$integral_constant@_N$0A@@std@@2_NB
CONST	SEGMENT
?value@?$integral_constant@_N$0A@@std@@2_NB DB 00H	; std::integral_constant<bool,0>::value
CONST	ENDS
;	COMDAT ?is_modulo@_Num_base@std@@2_NB
CONST	SEGMENT
?is_modulo@_Num_base@std@@2_NB DB 00H			; std::_Num_base::is_modulo
CONST	ENDS
;	COMDAT ?is_integer@_Num_base@std@@2_NB
CONST	SEGMENT
?is_integer@_Num_base@std@@2_NB DB 00H			; std::_Num_base::is_integer
CONST	ENDS
;	COMDAT ?is_iec559@_Num_base@std@@2_NB
CONST	SEGMENT
?is_iec559@_Num_base@std@@2_NB DB 00H			; std::_Num_base::is_iec559
CONST	ENDS
;	COMDAT ?is_exact@_Num_base@std@@2_NB
CONST	SEGMENT
?is_exact@_Num_base@std@@2_NB DB 00H			; std::_Num_base::is_exact
CONST	ENDS
;	COMDAT ?is_bounded@_Num_base@std@@2_NB
CONST	SEGMENT
?is_bounded@_Num_base@std@@2_NB DB 00H			; std::_Num_base::is_bounded
CONST	ENDS
;	COMDAT ?has_signaling_NaN@_Num_base@std@@2_NB
CONST	SEGMENT
?has_signaling_NaN@_Num_base@std@@2_NB DB 00H		; std::_Num_base::has_signaling_NaN
CONST	ENDS
;	COMDAT ?has_quiet_NaN@_Num_base@std@@2_NB
CONST	SEGMENT
?has_quiet_NaN@_Num_base@std@@2_NB DB 00H		; std::_Num_base::has_quiet_NaN
CONST	ENDS
;	COMDAT ?has_infinity@_Num_base@std@@2_NB
CONST	SEGMENT
?has_infinity@_Num_base@std@@2_NB DB 00H		; std::_Num_base::has_infinity
CONST	ENDS
;	COMDAT ?has_denorm_loss@_Num_base@std@@2_NB
CONST	SEGMENT
?has_denorm_loss@_Num_base@std@@2_NB DB 00H		; std::_Num_base::has_denorm_loss
CONST	ENDS
;	COMDAT ?has_denorm@_Num_base@std@@2W4float_denorm_style@2@B
CONST	SEGMENT
?has_denorm@_Num_base@std@@2W4float_denorm_style@2@B DD 00H ; std::_Num_base::has_denorm
CONST	ENDS
;	COMDAT ?value@?$integral_constant@I$0A@@std@@2IB
CONST	SEGMENT
?value@?$integral_constant@I$0A@@std@@2IB DD 00H	; std::integral_constant<unsigned int,0>::value
CONST	ENDS
;	COMDAT ?value@?$_Maximum@$S@std@@2IB
CONST	SEGMENT
?value@?$_Maximum@$S@std@@2IB DD 00H			; std::_Maximum<>::value
CONST	ENDS
;	COMDAT ?value@?$integral_constant@I$00@std@@2IB
CONST	SEGMENT
?value@?$integral_constant@I$00@std@@2IB DD 01H		; std::integral_constant<unsigned int,1>::value
CONST	ENDS
;	COMDAT ?value@?$integral_constant@I$01@std@@2IB
CONST	SEGMENT
?value@?$integral_constant@I$01@std@@2IB DD 02H		; std::integral_constant<unsigned int,2>::value
CONST	ENDS
;	COMDAT ?_Mysize@?$tuple@ABW4SDL_Scancode@@@std@@2IB
CONST	SEGMENT
?_Mysize@?$tuple@ABW4SDL_Scancode@@@std@@2IB DD 01H	; std::tuple<enum SDL_Scancode const &>::_Mysize
CONST	ENDS
;	COMDAT ?min_exponent10@?$numeric_limits@O@std@@2HB
CONST	SEGMENT
?min_exponent10@?$numeric_limits@O@std@@2HB DD 0fffffecdH ; std::numeric_limits<long double>::min_exponent10
CONST	ENDS
;	COMDAT ?value@?$integral_constant@I$03@std@@2IB
CONST	SEGMENT
?value@?$integral_constant@I$03@std@@2IB DD 04H		; std::integral_constant<unsigned int,4>::value
CONST	ENDS
;	COMDAT ?min_exponent@?$numeric_limits@O@std@@2HB
CONST	SEGMENT
?min_exponent@?$numeric_limits@O@std@@2HB DD 0fffffc03H	; std::numeric_limits<long double>::min_exponent
CONST	ENDS
;	COMDAT ?max_exponent10@?$numeric_limits@O@std@@2HB
CONST	SEGMENT
?max_exponent10@?$numeric_limits@O@std@@2HB DD 0134H	; std::numeric_limits<long double>::max_exponent10
CONST	ENDS
;	COMDAT ?max_exponent@?$numeric_limits@O@std@@2HB
CONST	SEGMENT
?max_exponent@?$numeric_limits@O@std@@2HB DD 0400H	; std::numeric_limits<long double>::max_exponent
CONST	ENDS
;	COMDAT ?max_digits10@?$numeric_limits@O@std@@2HB
CONST	SEGMENT
?max_digits10@?$numeric_limits@O@std@@2HB DD 011H	; std::numeric_limits<long double>::max_digits10
CONST	ENDS
;	COMDAT ?digits10@?$numeric_limits@O@std@@2HB
CONST	SEGMENT
?digits10@?$numeric_limits@O@std@@2HB DD 0fH		; std::numeric_limits<long double>::digits10
CONST	ENDS
;	COMDAT ?digits@?$numeric_limits@O@std@@2HB
CONST	SEGMENT
?digits@?$numeric_limits@O@std@@2HB DD 035H		; std::numeric_limits<long double>::digits
CONST	ENDS
;	COMDAT ?min_exponent10@?$numeric_limits@N@std@@2HB
CONST	SEGMENT
?min_exponent10@?$numeric_limits@N@std@@2HB DD 0fffffecdH ; std::numeric_limits<double>::min_exponent10
CONST	ENDS
;	COMDAT ?min_exponent@?$numeric_limits@N@std@@2HB
CONST	SEGMENT
?min_exponent@?$numeric_limits@N@std@@2HB DD 0fffffc03H	; std::numeric_limits<double>::min_exponent
CONST	ENDS
;	COMDAT ?max_exponent10@?$numeric_limits@N@std@@2HB
CONST	SEGMENT
?max_exponent10@?$numeric_limits@N@std@@2HB DD 0134H	; std::numeric_limits<double>::max_exponent10
CONST	ENDS
;	COMDAT ?value@?$integral_constant@I$07@std@@2IB
CONST	SEGMENT
?value@?$integral_constant@I$07@std@@2IB DD 08H		; std::integral_constant<unsigned int,8>::value
CONST	ENDS
;	COMDAT ?max_exponent@?$numeric_limits@N@std@@2HB
CONST	SEGMENT
?max_exponent@?$numeric_limits@N@std@@2HB DD 0400H	; std::numeric_limits<double>::max_exponent
CONST	ENDS
;	COMDAT ?max_digits10@?$numeric_limits@N@std@@2HB
CONST	SEGMENT
?max_digits10@?$numeric_limits@N@std@@2HB DD 011H	; std::numeric_limits<double>::max_digits10
CONST	ENDS
;	COMDAT ?digits10@?$numeric_limits@N@std@@2HB
CONST	SEGMENT
?digits10@?$numeric_limits@N@std@@2HB DD 0fH		; std::numeric_limits<double>::digits10
CONST	ENDS
;	COMDAT ?digits@?$numeric_limits@N@std@@2HB
CONST	SEGMENT
?digits@?$numeric_limits@N@std@@2HB DD 035H		; std::numeric_limits<double>::digits
CONST	ENDS
;	COMDAT ?min_exponent10@?$numeric_limits@M@std@@2HB
CONST	SEGMENT
?min_exponent10@?$numeric_limits@M@std@@2HB DD 0ffffffdbH ; std::numeric_limits<float>::min_exponent10
CONST	ENDS
;	COMDAT ?min_exponent@?$numeric_limits@M@std@@2HB
CONST	SEGMENT
?min_exponent@?$numeric_limits@M@std@@2HB DD 0ffffff83H	; std::numeric_limits<float>::min_exponent
CONST	ENDS
;	COMDAT ?max_exponent10@?$numeric_limits@M@std@@2HB
CONST	SEGMENT
?max_exponent10@?$numeric_limits@M@std@@2HB DD 026H	; std::numeric_limits<float>::max_exponent10
CONST	ENDS
;	COMDAT ?max_exponent@?$numeric_limits@M@std@@2HB
CONST	SEGMENT
?max_exponent@?$numeric_limits@M@std@@2HB DD 080H	; std::numeric_limits<float>::max_exponent
CONST	ENDS
;	COMDAT ?max_digits10@?$numeric_limits@M@std@@2HB
CONST	SEGMENT
?max_digits10@?$numeric_limits@M@std@@2HB DD 09H	; std::numeric_limits<float>::max_digits10
CONST	ENDS
;	COMDAT ?digits10@?$numeric_limits@M@std@@2HB
CONST	SEGMENT
?digits10@?$numeric_limits@M@std@@2HB DD 06H		; std::numeric_limits<float>::digits10
CONST	ENDS
;	COMDAT ?digits@?$numeric_limits@M@std@@2HB
CONST	SEGMENT
?digits@?$numeric_limits@M@std@@2HB DD 018H		; std::numeric_limits<float>::digits
CONST	ENDS
;	COMDAT ?digits10@?$numeric_limits@_K@std@@2HB
CONST	SEGMENT
?digits10@?$numeric_limits@_K@std@@2HB DD 013H		; std::numeric_limits<unsigned __int64>::digits10
CONST	ENDS
;	COMDAT ?digits@?$numeric_limits@_K@std@@2HB
CONST	SEGMENT
?digits@?$numeric_limits@_K@std@@2HB DD 040H		; std::numeric_limits<unsigned __int64>::digits
CONST	ENDS
;	COMDAT ?is_signed@?$numeric_limits@_K@std@@2_NB
CONST	SEGMENT
?is_signed@?$numeric_limits@_K@std@@2_NB DB 00H		; std::numeric_limits<unsigned __int64>::is_signed
CONST	ENDS
;	COMDAT ?digits10@?$numeric_limits@_J@std@@2HB
CONST	SEGMENT
?digits10@?$numeric_limits@_J@std@@2HB DD 012H		; std::numeric_limits<__int64>::digits10
CONST	ENDS
;	COMDAT ?digits@?$numeric_limits@_J@std@@2HB
CONST	SEGMENT
?digits@?$numeric_limits@_J@std@@2HB DD 03fH		; std::numeric_limits<__int64>::digits
CONST	ENDS
;	COMDAT ?is_signed@?$numeric_limits@_J@std@@2_NB
CONST	SEGMENT
?is_signed@?$numeric_limits@_J@std@@2_NB DB 01H		; std::numeric_limits<__int64>::is_signed
CONST	ENDS
;	COMDAT ?digits10@?$numeric_limits@K@std@@2HB
CONST	SEGMENT
?digits10@?$numeric_limits@K@std@@2HB DD 09H		; std::numeric_limits<unsigned long>::digits10
CONST	ENDS
;	COMDAT ?digits@?$numeric_limits@K@std@@2HB
CONST	SEGMENT
?digits@?$numeric_limits@K@std@@2HB DD 020H		; std::numeric_limits<unsigned long>::digits
CONST	ENDS
;	COMDAT ?is_signed@?$numeric_limits@K@std@@2_NB
CONST	SEGMENT
?is_signed@?$numeric_limits@K@std@@2_NB DB 00H		; std::numeric_limits<unsigned long>::is_signed
CONST	ENDS
;	COMDAT ?digits10@?$numeric_limits@J@std@@2HB
CONST	SEGMENT
?digits10@?$numeric_limits@J@std@@2HB DD 09H		; std::numeric_limits<long>::digits10
CONST	ENDS
;	COMDAT ?digits@?$numeric_limits@J@std@@2HB
CONST	SEGMENT
?digits@?$numeric_limits@J@std@@2HB DD 01fH		; std::numeric_limits<long>::digits
CONST	ENDS
;	COMDAT ?is_signed@?$numeric_limits@J@std@@2_NB
CONST	SEGMENT
?is_signed@?$numeric_limits@J@std@@2_NB DB 01H		; std::numeric_limits<long>::is_signed
CONST	ENDS
PUBLIC	_hypot
PUBLIC	??2@YAPAXIPAX@Z					; operator new
PUBLIC	??3@YAXPAX0@Z					; operator delete
PUBLIC	??0_Iterator_base12@std@@QAE@XZ			; std::_Iterator_base12::_Iterator_base12
PUBLIC	??0_Iterator_base12@std@@QAE@ABU01@@Z		; std::_Iterator_base12::_Iterator_base12
PUBLIC	??4_Iterator_base12@std@@QAEAAU01@ABU01@@Z	; std::_Iterator_base12::operator=
PUBLIC	??1_Iterator_base12@std@@QAE@XZ			; std::_Iterator_base12::~_Iterator_base12
PUBLIC	?_Adopt@_Iterator_base12@std@@QAEXPBU_Container_base12@2@@Z ; std::_Iterator_base12::_Adopt
PUBLIC	?_Clrcont@_Iterator_base12@std@@QAEXXZ		; std::_Iterator_base12::_Clrcont
PUBLIC	?_Getcont@_Iterator_base12@std@@QBEPBU_Container_base12@2@XZ ; std::_Iterator_base12::_Getcont
PUBLIC	?_Getpnext@_Iterator_base12@std@@QAEPAPAU12@XZ	; std::_Iterator_base12::_Getpnext
PUBLIC	?_Orphan_me@_Iterator_base12@std@@QAEXXZ	; std::_Iterator_base12::_Orphan_me
PUBLIC	??0_Ignore@std@@QAE@XZ				; std::_Ignore::_Ignore
PUBLIC	??0?$tuple@$$$V@std@@QAE@XZ			; std::tuple<>::tuple<>
PUBLIC	??0?$tuple@$$$V@std@@QAE@ABV01@@Z		; std::tuple<>::tuple<>
PUBLIC	?Update@Input@@QAEXXZ				; Input::Update
PUBLIC	?KeyUpEvent@Input@@QAEXABTSDL_Event@@@Z		; Input::KeyUpEvent
PUBLIC	?KeyDownEvent@Input@@QAEXABTSDL_Event@@@Z	; Input::KeyDownEvent
PUBLIC	?WasKeyPressed@Input@@QAE_NW4SDL_Scancode@@@Z	; Input::WasKeyPressed
PUBLIC	?WasKeyReleased@Input@@QAE_NW4SDL_Scancode@@@Z	; Input::WasKeyReleased
PUBLIC	?IsKeyHeld@Input@@QAE_NW4SDL_Scancode@@@Z	; Input::IsKeyHeld
PUBLIC	??R?$less@W4SDL_Scancode@@@std@@QBE_NABW4SDL_Scancode@@0@Z ; std::less<enum SDL_Scancode>::operator()
PUBLIC	??0?$allocator@U?$_Tree_node@U?$pair@$$CBW4SDL_Scancode@@_N@std@@PAX@std@@@std@@QAE@XZ ; std::allocator<std::_Tree_node<std::pair<enum SDL_Scancode const ,bool>,void *> >::allocator<std::_Tree_node<std::pair<enum SDL_Scancode const ,bool>,void *> >
PUBLIC	?deallocate@?$allocator@U?$_Tree_node@U?$pair@$$CBW4SDL_Scancode@@_N@std@@PAX@std@@@std@@QAEXPAU?$_Tree_node@U?$pair@$$CBW4SDL_Scancode@@_N@std@@PAX@2@I@Z ; std::allocator<std::_Tree_node<std::pair<enum SDL_Scancode const ,bool>,void *> >::deallocate
PUBLIC	?allocate@?$allocator@U?$_Tree_node@U?$pair@$$CBW4SDL_Scancode@@_N@std@@PAX@std@@@std@@QAEPAU?$_Tree_node@U?$pair@$$CBW4SDL_Scancode@@_N@std@@PAX@2@I@Z ; std::allocator<std::_Tree_node<std::pair<enum SDL_Scancode const ,bool>,void *> >::allocate
PUBLIC	?max_size@?$allocator@U?$_Tree_node@U?$pair@$$CBW4SDL_Scancode@@_N@std@@PAX@std@@@std@@QBEIXZ ; std::allocator<std::_Tree_node<std::pair<enum SDL_Scancode const ,bool>,void *> >::max_size
PUBLIC	?max_size@?$allocator_traits@V?$allocator@U?$_Tree_node@U?$pair@$$CBW4SDL_Scancode@@_N@std@@PAX@std@@@std@@@std@@SAIABV?$allocator@U?$_Tree_node@U?$pair@$$CBW4SDL_Scancode@@_N@std@@PAX@std@@@2@@Z ; std::allocator_traits<std::allocator<std::_Tree_node<std::pair<enum SDL_Scancode const ,bool>,void *> > >::max_size
PUBLIC	??0?$_Wrap_alloc@V?$allocator@U?$_Tree_node@U?$pair@$$CBW4SDL_Scancode@@_N@std@@PAX@std@@@std@@@std@@QAE@XZ ; std::_Wrap_alloc<std::allocator<std::_Tree_node<std::pair<enum SDL_Scancode const ,bool>,void *> > >::_Wrap_alloc<std::allocator<std::_Tree_node<std::pair<enum SDL_Scancode const ,bool>,void *> > >
PUBLIC	?allocate@?$_Wrap_alloc@V?$allocator@U?$_Tree_node@U?$pair@$$CBW4SDL_Scancode@@_N@std@@PAX@std@@@std@@@std@@QAEPAU?$_Tree_node@U?$pair@$$CBW4SDL_Scancode@@_N@std@@PAX@2@I@Z ; std::_Wrap_alloc<std::allocator<std::_Tree_node<std::pair<enum SDL_Scancode const ,bool>,void *> > >::allocate
PUBLIC	?deallocate@?$_Wrap_alloc@V?$allocator@U?$_Tree_node@U?$pair@$$CBW4SDL_Scancode@@_N@std@@PAX@std@@@std@@@std@@QAEXPAU?$_Tree_node@U?$pair@$$CBW4SDL_Scancode@@_N@std@@PAX@2@I@Z ; std::_Wrap_alloc<std::allocator<std::_Tree_node<std::pair<enum SDL_Scancode const ,bool>,void *> > >::deallocate
PUBLIC	?max_size@?$_Wrap_alloc@V?$allocator@U?$_Tree_node@U?$pair@$$CBW4SDL_Scancode@@_N@std@@PAX@std@@@std@@@std@@QBEIXZ ; std::_Wrap_alloc<std::allocator<std::_Tree_node<std::pair<enum SDL_Scancode const ,bool>,void *> > >::max_size
PUBLIC	?_Color@?$_Tree_val@U?$_Tree_simple_types@U?$pair@$$CBW4SDL_Scancode@@_N@std@@@std@@@std@@SAAADPAU?$_Tree_node@U?$pair@$$CBW4SDL_Scancode@@_N@std@@PAX@2@@Z ; std::_Tree_val<std::_Tree_simple_types<std::pair<enum SDL_Scancode const ,bool> > >::_Color
PUBLIC	?_Isnil@?$_Tree_val@U?$_Tree_simple_types@U?$pair@$$CBW4SDL_Scancode@@_N@std@@@std@@@std@@SAAADPAU?$_Tree_node@U?$pair@$$CBW4SDL_Scancode@@_N@std@@PAX@2@@Z ; std::_Tree_val<std::_Tree_simple_types<std::pair<enum SDL_Scancode const ,bool> > >::_Isnil
PUBLIC	?_Left@?$_Tree_val@U?$_Tree_simple_types@U?$pair@$$CBW4SDL_Scancode@@_N@std@@@std@@@std@@SAAAPAU?$_Tree_node@U?$pair@$$CBW4SDL_Scancode@@_N@std@@PAX@2@PAU32@@Z ; std::_Tree_val<std::_Tree_simple_types<std::pair<enum SDL_Scancode const ,bool> > >::_Left
PUBLIC	?_Parent@?$_Tree_val@U?$_Tree_simple_types@U?$pair@$$CBW4SDL_Scancode@@_N@std@@@std@@@std@@SAAAPAU?$_Tree_node@U?$pair@$$CBW4SDL_Scancode@@_N@std@@PAX@2@PAU32@@Z ; std::_Tree_val<std::_Tree_simple_types<std::pair<enum SDL_Scancode const ,bool> > >::_Parent
PUBLIC	?_Right@?$_Tree_val@U?$_Tree_simple_types@U?$pair@$$CBW4SDL_Scancode@@_N@std@@@std@@@std@@SAAAPAU?$_Tree_node@U?$pair@$$CBW4SDL_Scancode@@_N@std@@PAX@2@PAU32@@Z ; std::_Tree_val<std::_Tree_simple_types<std::pair<enum SDL_Scancode const ,bool> > >::_Right
PUBLIC	?_Myval@?$_Tree_val@U?$_Tree_simple_types@U?$pair@$$CBW4SDL_Scancode@@_N@std@@@std@@@std@@SAAAU?$pair@$$CBW4SDL_Scancode@@_N@2@PAU?$_Tree_node@U?$pair@$$CBW4SDL_Scancode@@_N@std@@PAX@2@@Z ; std::_Tree_val<std::_Tree_simple_types<std::pair<enum SDL_Scancode const ,bool> > >::_Myval
PUBLIC	?_Max@?$_Tree_val@U?$_Tree_simple_types@U?$pair@$$CBW4SDL_Scancode@@_N@std@@@std@@@std@@SAPAU?$_Tree_node@U?$pair@$$CBW4SDL_Scancode@@_N@std@@PAX@2@PAU32@@Z ; std::_Tree_val<std::_Tree_simple_types<std::pair<enum SDL_Scancode const ,bool> > >::_Max
PUBLIC	?_Min@?$_Tree_val@U?$_Tree_simple_types@U?$pair@$$CBW4SDL_Scancode@@_N@std@@@std@@@std@@SAPAU?$_Tree_node@U?$pair@$$CBW4SDL_Scancode@@_N@std@@PAX@2@PAU32@@Z ; std::_Tree_val<std::_Tree_simple_types<std::pair<enum SDL_Scancode const ,bool> > >::_Min
PUBLIC	?_Getal@?$_Tree_alloc@$0A@U?$_Tree_base_types@U?$pair@$$CBW4SDL_Scancode@@_N@std@@V?$allocator@U?$pair@$$CBW4SDL_Scancode@@_N@std@@@2@@std@@@std@@QBE?AU?$_Wrap_alloc@V?$allocator@U?$_Tree_node@U?$pair@$$CBW4SDL_Scancode@@_N@std@@PAX@std@@@std@@@2@XZ ; std::_Tree_alloc<0,std::_Tree_base_types<std::pair<enum SDL_Scancode const ,bool>,std::allocator<std::pair<enum SDL_Scancode const ,bool> > > >::_Getal
PUBLIC	?_Buynode0@?$_Tree_buy@U?$pair@$$CBW4SDL_Scancode@@_N@std@@V?$allocator@U?$pair@$$CBW4SDL_Scancode@@_N@std@@@2@@std@@QAEPAU?$_Tree_node@U?$pair@$$CBW4SDL_Scancode@@_N@std@@PAX@2@XZ ; std::_Tree_buy<std::pair<enum SDL_Scancode const ,bool>,std::allocator<std::pair<enum SDL_Scancode const ,bool> > >::_Buynode0
PUBLIC	?_Freenode0@?$_Tree_buy@U?$pair@$$CBW4SDL_Scancode@@_N@std@@V?$allocator@U?$pair@$$CBW4SDL_Scancode@@_N@std@@@2@@std@@QAEXPAU?$_Tree_node@U?$pair@$$CBW4SDL_Scancode@@_N@std@@PAX@2@@Z ; std::_Tree_buy<std::pair<enum SDL_Scancode const ,bool>,std::allocator<std::pair<enum SDL_Scancode const ,bool> > >::_Freenode0
PUBLIC	?_Getcomp@?$_Tree_comp@$0A@V?$_Tmap_traits@W4SDL_Scancode@@_NU?$less@W4SDL_Scancode@@@std@@V?$allocator@U?$pair@$$CBW4SDL_Scancode@@_N@std@@@3@$0A@@std@@@std@@QBE?AU?$less@W4SDL_Scancode@@@2@XZ ; std::_Tree_comp<0,std::_Tmap_traits<enum SDL_Scancode,bool,std::less<enum SDL_Scancode>,std::allocator<std::pair<enum SDL_Scancode const ,bool> >,0> >::_Getcomp
PUBLIC	?begin@?$_Tree@V?$_Tmap_traits@W4SDL_Scancode@@_NU?$less@W4SDL_Scancode@@@std@@V?$allocator@U?$pair@$$CBW4SDL_Scancode@@_N@std@@@3@$0A@@std@@@std@@QAE?AV?$_Tree_iterator@V?$_Tree_val@U?$_Tree_simple_types@U?$pair@$$CBW4SDL_Scancode@@_N@std@@@std@@@std@@@2@XZ ; std::_Tree<std::_Tmap_traits<enum SDL_Scancode,bool,std::less<enum SDL_Scancode>,std::allocator<std::pair<enum SDL_Scancode const ,bool> >,0> >::begin
PUBLIC	?end@?$_Tree@V?$_Tmap_traits@W4SDL_Scancode@@_NU?$less@W4SDL_Scancode@@@std@@V?$allocator@U?$pair@$$CBW4SDL_Scancode@@_N@std@@@3@$0A@@std@@@std@@QAE?AV?$_Tree_iterator@V?$_Tree_val@U?$_Tree_simple_types@U?$pair@$$CBW4SDL_Scancode@@_N@std@@@std@@@std@@@2@XZ ; std::_Tree<std::_Tmap_traits<enum SDL_Scancode,bool,std::less<enum SDL_Scancode>,std::allocator<std::pair<enum SDL_Scancode const ,bool> >,0> >::end
PUBLIC	?size@?$_Tree@V?$_Tmap_traits@W4SDL_Scancode@@_NU?$less@W4SDL_Scancode@@@std@@V?$allocator@U?$pair@$$CBW4SDL_Scancode@@_N@std@@@3@$0A@@std@@@std@@QBEIXZ ; std::_Tree<std::_Tmap_traits<enum SDL_Scancode,bool,std::less<enum SDL_Scancode>,std::allocator<std::pair<enum SDL_Scancode const ,bool> >,0> >::size
PUBLIC	?max_size@?$_Tree@V?$_Tmap_traits@W4SDL_Scancode@@_NU?$less@W4SDL_Scancode@@@std@@V?$allocator@U?$pair@$$CBW4SDL_Scancode@@_N@std@@@3@$0A@@std@@@std@@QBEIXZ ; std::_Tree<std::_Tmap_traits<enum SDL_Scancode,bool,std::less<enum SDL_Scancode>,std::allocator<std::pair<enum SDL_Scancode const ,bool> >,0> >::max_size
PUBLIC	?clear@?$_Tree@V?$_Tmap_traits@W4SDL_Scancode@@_NU?$less@W4SDL_Scancode@@@std@@V?$allocator@U?$pair@$$CBW4SDL_Scancode@@_N@std@@@3@$0A@@std@@@std@@QAEXXZ ; std::_Tree<std::_Tmap_traits<enum SDL_Scancode,bool,std::less<enum SDL_Scancode>,std::allocator<std::pair<enum SDL_Scancode const ,bool> >,0> >::clear
PUBLIC	?lower_bound@?$_Tree@V?$_Tmap_traits@W4SDL_Scancode@@_NU?$less@W4SDL_Scancode@@@std@@V?$allocator@U?$pair@$$CBW4SDL_Scancode@@_N@std@@@3@$0A@@std@@@std@@QAE?AV?$_Tree_iterator@V?$_Tree_val@U?$_Tree_simple_types@U?$pair@$$CBW4SDL_Scancode@@_N@std@@@std@@@std@@@2@ABW4SDL_Scancode@@@Z ; std::_Tree<std::_Tmap_traits<enum SDL_Scancode,bool,std::less<enum SDL_Scancode>,std::allocator<std::pair<enum SDL_Scancode const ,bool> >,0> >::lower_bound
PUBLIC	?_Destroy_if_not_nil@?$_Tree@V?$_Tmap_traits@W4SDL_Scancode@@_NU?$less@W4SDL_Scancode@@@std@@V?$allocator@U?$pair@$$CBW4SDL_Scancode@@_N@std@@@3@$0A@@std@@@std@@IAEXPAU?$_Tree_node@U?$pair@$$CBW4SDL_Scancode@@_N@std@@PAX@2@@Z ; std::_Tree<std::_Tmap_traits<enum SDL_Scancode,bool,std::less<enum SDL_Scancode>,std::allocator<std::pair<enum SDL_Scancode const ,bool> >,0> >::_Destroy_if_not_nil
PUBLIC	?_Erase@?$_Tree@V?$_Tmap_traits@W4SDL_Scancode@@_NU?$less@W4SDL_Scancode@@@std@@V?$allocator@U?$pair@$$CBW4SDL_Scancode@@_N@std@@@3@$0A@@std@@@std@@IAEXPAU?$_Tree_node@U?$pair@$$CBW4SDL_Scancode@@_N@std@@PAX@2@@Z ; std::_Tree<std::_Tmap_traits<enum SDL_Scancode,bool,std::less<enum SDL_Scancode>,std::allocator<std::pair<enum SDL_Scancode const ,bool> >,0> >::_Erase
PUBLIC	?_Lbound@?$_Tree@V?$_Tmap_traits@W4SDL_Scancode@@_NU?$less@W4SDL_Scancode@@@std@@V?$allocator@U?$pair@$$CBW4SDL_Scancode@@_N@std@@@3@$0A@@std@@@std@@IAEPAU?$_Tree_node@U?$pair@$$CBW4SDL_Scancode@@_N@std@@PAX@2@ABW4SDL_Scancode@@@Z ; std::_Tree<std::_Tmap_traits<enum SDL_Scancode,bool,std::less<enum SDL_Scancode>,std::allocator<std::pair<enum SDL_Scancode const ,bool> >,0> >::_Lbound
PUBLIC	?_Lmost@?$_Tree@V?$_Tmap_traits@W4SDL_Scancode@@_NU?$less@W4SDL_Scancode@@@std@@V?$allocator@U?$pair@$$CBW4SDL_Scancode@@_N@std@@@3@$0A@@std@@@std@@IBEAAPAU?$_Tree_node@U?$pair@$$CBW4SDL_Scancode@@_N@std@@PAX@2@XZ ; std::_Tree<std::_Tmap_traits<enum SDL_Scancode,bool,std::less<enum SDL_Scancode>,std::allocator<std::pair<enum SDL_Scancode const ,bool> >,0> >::_Lmost
PUBLIC	?_Lrotate@?$_Tree@V?$_Tmap_traits@W4SDL_Scancode@@_NU?$less@W4SDL_Scancode@@@std@@V?$allocator@U?$pair@$$CBW4SDL_Scancode@@_N@std@@@3@$0A@@std@@@std@@IAEXPAU?$_Tree_node@U?$pair@$$CBW4SDL_Scancode@@_N@std@@PAX@2@@Z ; std::_Tree<std::_Tmap_traits<enum SDL_Scancode,bool,std::less<enum SDL_Scancode>,std::allocator<std::pair<enum SDL_Scancode const ,bool> >,0> >::_Lrotate
PUBLIC	?_Rmost@?$_Tree@V?$_Tmap_traits@W4SDL_Scancode@@_NU?$less@W4SDL_Scancode@@@std@@V?$allocator@U?$pair@$$CBW4SDL_Scancode@@_N@std@@@3@$0A@@std@@@std@@IBEAAPAU?$_Tree_node@U?$pair@$$CBW4SDL_Scancode@@_N@std@@PAX@2@XZ ; std::_Tree<std::_Tmap_traits<enum SDL_Scancode,bool,std::less<enum SDL_Scancode>,std::allocator<std::pair<enum SDL_Scancode const ,bool> >,0> >::_Rmost
PUBLIC	?_Root@?$_Tree@V?$_Tmap_traits@W4SDL_Scancode@@_NU?$less@W4SDL_Scancode@@@std@@V?$allocator@U?$pair@$$CBW4SDL_Scancode@@_N@std@@@3@$0A@@std@@@std@@IBEAAPAU?$_Tree_node@U?$pair@$$CBW4SDL_Scancode@@_N@std@@PAX@2@XZ ; std::_Tree<std::_Tmap_traits<enum SDL_Scancode,bool,std::less<enum SDL_Scancode>,std::allocator<std::pair<enum SDL_Scancode const ,bool> >,0> >::_Root
PUBLIC	?_Rrotate@?$_Tree@V?$_Tmap_traits@W4SDL_Scancode@@_NU?$less@W4SDL_Scancode@@@std@@V?$allocator@U?$pair@$$CBW4SDL_Scancode@@_N@std@@@3@$0A@@std@@@std@@IAEXPAU?$_Tree_node@U?$pair@$$CBW4SDL_Scancode@@_N@std@@PAX@2@@Z ; std::_Tree<std::_Tmap_traits<enum SDL_Scancode,bool,std::less<enum SDL_Scancode>,std::allocator<std::pair<enum SDL_Scancode const ,bool> >,0> >::_Rrotate
PUBLIC	?_Orphan_ptr@?$_Tree@V?$_Tmap_traits@W4SDL_Scancode@@_NU?$less@W4SDL_Scancode@@@std@@V?$allocator@U?$pair@$$CBW4SDL_Scancode@@_N@std@@@3@$0A@@std@@@std@@IBEXAAV12@PAU?$_Tree_node@U?$pair@$$CBW4SDL_Scancode@@_N@std@@PAX@2@@Z ; std::_Tree<std::_Tmap_traits<enum SDL_Scancode,bool,std::less<enum SDL_Scancode>,std::allocator<std::pair<enum SDL_Scancode const ,bool> >,0> >::_Orphan_ptr
PUBLIC	?_Kfn@?$_Tree@V?$_Tmap_traits@W4SDL_Scancode@@_NU?$less@W4SDL_Scancode@@@std@@V?$allocator@U?$pair@$$CBW4SDL_Scancode@@_N@std@@@3@$0A@@std@@@std@@IBEABW4SDL_Scancode@@ABU?$pair@$$CBW4SDL_Scancode@@_N@2@@Z ; std::_Tree<std::_Tmap_traits<enum SDL_Scancode,bool,std::less<enum SDL_Scancode>,std::allocator<std::pair<enum SDL_Scancode const ,bool> >,0> >::_Kfn
PUBLIC	?_Key@?$_Tree@V?$_Tmap_traits@W4SDL_Scancode@@_NU?$less@W4SDL_Scancode@@@std@@V?$allocator@U?$pair@$$CBW4SDL_Scancode@@_N@std@@@3@$0A@@std@@@std@@IBEABW4SDL_Scancode@@PAU?$_Tree_node@U?$pair@$$CBW4SDL_Scancode@@_N@std@@PAX@2@@Z ; std::_Tree<std::_Tmap_traits<enum SDL_Scancode,bool,std::less<enum SDL_Scancode>,std::allocator<std::pair<enum SDL_Scancode const ,bool> >,0> >::_Key
PUBLIC	??A?$map@W4SDL_Scancode@@_NU?$less@W4SDL_Scancode@@@std@@V?$allocator@U?$pair@$$CBW4SDL_Scancode@@_N@std@@@3@@std@@QAEAA_NABW4SDL_Scancode@@@Z ; std::map<enum SDL_Scancode,bool,std::less<enum SDL_Scancode>,std::allocator<std::pair<enum SDL_Scancode const ,bool> > >::operator[]
PUBLIC	??0?$_Iterator012@Ubidirectional_iterator_tag@std@@U?$pair@$$CBW4SDL_Scancode@@_N@2@HPBU32@ABU32@U_Iterator_base12@2@@std@@QAE@XZ ; std::_Iterator012<std::bidirectional_iterator_tag,std::pair<enum SDL_Scancode const ,bool>,int,std::pair<enum SDL_Scancode const ,bool> const *,std::pair<enum SDL_Scancode const ,bool> const &,std::_Iterator_base12>::_Iterator012<std::bidirectional_iterator_tag,std::pair<enum SDL_Scancode const ,bool>,int,std::pair<enum SDL_Scancode const ,bool> const *,std::pair<enum SDL_Scancode const ,bool> const &,std::_Iterator_base12>
PUBLIC	??1?$_Iterator012@Ubidirectional_iterator_tag@std@@U?$pair@$$CBW4SDL_Scancode@@_N@2@HPBU32@ABU32@U_Iterator_base12@2@@std@@QAE@XZ ; std::_Iterator012<std::bidirectional_iterator_tag,std::pair<enum SDL_Scancode const ,bool>,int,std::pair<enum SDL_Scancode const ,bool> const *,std::pair<enum SDL_Scancode const ,bool> const &,std::_Iterator_base12>::~_Iterator012<std::bidirectional_iterator_tag,std::pair<enum SDL_Scancode const ,bool>,int,std::pair<enum SDL_Scancode const ,bool> const *,std::pair<enum SDL_Scancode const ,bool> const &,std::_Iterator_base12>
PUBLIC	??0?$_Iterator012@Ubidirectional_iterator_tag@std@@U?$pair@$$CBW4SDL_Scancode@@_N@2@HPBU32@ABU32@U_Iterator_base12@2@@std@@QAE@ABU01@@Z ; std::_Iterator012<std::bidirectional_iterator_tag,std::pair<enum SDL_Scancode const ,bool>,int,std::pair<enum SDL_Scancode const ,bool> const *,std::pair<enum SDL_Scancode const ,bool> const &,std::_Iterator_base12>::_Iterator012<std::bidirectional_iterator_tag,std::pair<enum SDL_Scancode const ,bool>,int,std::pair<enum SDL_Scancode const ,bool> const *,std::pair<enum SDL_Scancode const ,bool> const &,std::_Iterator_base12>
PUBLIC	??4?$_Iterator012@Ubidirectional_iterator_tag@std@@U?$pair@$$CBW4SDL_Scancode@@_N@2@HPBU32@ABU32@U_Iterator_base12@2@@std@@QAEAAU01@ABU01@@Z ; std::_Iterator012<std::bidirectional_iterator_tag,std::pair<enum SDL_Scancode const ,bool>,int,std::pair<enum SDL_Scancode const ,bool> const *,std::pair<enum SDL_Scancode const ,bool> const &,std::_Iterator_base12>::operator=
PUBLIC	??0?$_Tree_unchecked_const_iterator@V?$_Tree_val@U?$_Tree_simple_types@U?$pair@$$CBW4SDL_Scancode@@_N@std@@@std@@@std@@U_Iterator_base12@2@@std@@QAE@XZ ; std::_Tree_unchecked_const_iterator<std::_Tree_val<std::_Tree_simple_types<std::pair<enum SDL_Scancode const ,bool> > >,std::_Iterator_base12>::_Tree_unchecked_const_iterator<std::_Tree_val<std::_Tree_simple_types<std::pair<enum SDL_Scancode const ,bool> > >,std::_Iterator_base12>
PUBLIC	??0?$_Tree_unchecked_const_iterator@V?$_Tree_val@U?$_Tree_simple_types@U?$pair@$$CBW4SDL_Scancode@@_N@std@@@std@@@std@@U_Iterator_base12@2@@std@@QAE@PAU?$_Tree_node@U?$pair@$$CBW4SDL_Scancode@@_N@std@@PAX@1@PBV?$_Tree_val@U?$_Tree_simple_types@U?$pair@$$CBW4SDL_Scancode@@_N@std@@@std@@@1@@Z ; std::_Tree_unchecked_const_iterator<std::_Tree_val<std::_Tree_simple_types<std::pair<enum SDL_Scancode const ,bool> > >,std::_Iterator_base12>::_Tree_unchecked_const_iterator<std::_Tree_val<std::_Tree_simple_types<std::pair<enum SDL_Scancode const ,bool> > >,std::_Iterator_base12>
PUBLIC	??E?$_Tree_unchecked_const_iterator@V?$_Tree_val@U?$_Tree_simple_types@U?$pair@$$CBW4SDL_Scancode@@_N@std@@@std@@@std@@U_Iterator_base12@2@@std@@QAEAAV01@XZ ; std::_Tree_unchecked_const_iterator<std::_Tree_val<std::_Tree_simple_types<std::pair<enum SDL_Scancode const ,bool> > >,std::_Iterator_base12>::operator++
PUBLIC	??F?$_Tree_unchecked_const_iterator@V?$_Tree_val@U?$_Tree_simple_types@U?$pair@$$CBW4SDL_Scancode@@_N@std@@@std@@@std@@U_Iterator_base12@2@@std@@QAEAAV01@XZ ; std::_Tree_unchecked_const_iterator<std::_Tree_val<std::_Tree_simple_types<std::pair<enum SDL_Scancode const ,bool> > >,std::_Iterator_base12>::operator--
PUBLIC	?_Mynode@?$_Tree_unchecked_const_iterator@V?$_Tree_val@U?$_Tree_simple_types@U?$pair@$$CBW4SDL_Scancode@@_N@std@@@std@@@std@@U_Iterator_base12@2@@std@@QBEPAU?$_Tree_node@U?$pair@$$CBW4SDL_Scancode@@_N@std@@PAX@2@XZ ; std::_Tree_unchecked_const_iterator<std::_Tree_val<std::_Tree_simple_types<std::pair<enum SDL_Scancode const ,bool> > >,std::_Iterator_base12>::_Mynode
PUBLIC	??1?$_Tree_unchecked_const_iterator@V?$_Tree_val@U?$_Tree_simple_types@U?$pair@$$CBW4SDL_Scancode@@_N@std@@@std@@@std@@U_Iterator_base12@2@@std@@QAE@XZ ; std::_Tree_unchecked_const_iterator<std::_Tree_val<std::_Tree_simple_types<std::pair<enum SDL_Scancode const ,bool> > >,std::_Iterator_base12>::~_Tree_unchecked_const_iterator<std::_Tree_val<std::_Tree_simple_types<std::pair<enum SDL_Scancode const ,bool> > >,std::_Iterator_base12>
PUBLIC	??0?$_Tree_unchecked_const_iterator@V?$_Tree_val@U?$_Tree_simple_types@U?$pair@$$CBW4SDL_Scancode@@_N@std@@@std@@@std@@U_Iterator_base12@2@@std@@QAE@ABV01@@Z ; std::_Tree_unchecked_const_iterator<std::_Tree_val<std::_Tree_simple_types<std::pair<enum SDL_Scancode const ,bool> > >,std::_Iterator_base12>::_Tree_unchecked_const_iterator<std::_Tree_val<std::_Tree_simple_types<std::pair<enum SDL_Scancode const ,bool> > >,std::_Iterator_base12>
PUBLIC	??4?$_Tree_unchecked_const_iterator@V?$_Tree_val@U?$_Tree_simple_types@U?$pair@$$CBW4SDL_Scancode@@_N@std@@@std@@@std@@U_Iterator_base12@2@@std@@QAEAAV01@ABV01@@Z ; std::_Tree_unchecked_const_iterator<std::_Tree_val<std::_Tree_simple_types<std::pair<enum SDL_Scancode const ,bool> > >,std::_Iterator_base12>::operator=
PUBLIC	??0?$_Tree_const_iterator@V?$_Tree_val@U?$_Tree_simple_types@U?$pair@$$CBW4SDL_Scancode@@_N@std@@@std@@@std@@@std@@QAE@XZ ; std::_Tree_const_iterator<std::_Tree_val<std::_Tree_simple_types<std::pair<enum SDL_Scancode const ,bool> > > >::_Tree_const_iterator<std::_Tree_val<std::_Tree_simple_types<std::pair<enum SDL_Scancode const ,bool> > > >
PUBLIC	??0?$_Tree_const_iterator@V?$_Tree_val@U?$_Tree_simple_types@U?$pair@$$CBW4SDL_Scancode@@_N@std@@@std@@@std@@@std@@QAE@PAU?$_Tree_node@U?$pair@$$CBW4SDL_Scancode@@_N@std@@PAX@1@PBV?$_Tree_val@U?$_Tree_simple_types@U?$pair@$$CBW4SDL_Scancode@@_N@std@@@std@@@1@@Z ; std::_Tree_const_iterator<std::_Tree_val<std::_Tree_simple_types<std::pair<enum SDL_Scancode const ,bool> > > >::_Tree_const_iterator<std::_Tree_val<std::_Tree_simple_types<std::pair<enum SDL_Scancode const ,bool> > > >
PUBLIC	??D?$_Tree_const_iterator@V?$_Tree_val@U?$_Tree_simple_types@U?$pair@$$CBW4SDL_Scancode@@_N@std@@@std@@@std@@@std@@QBEABU?$pair@$$CBW4SDL_Scancode@@_N@1@XZ ; std::_Tree_const_iterator<std::_Tree_val<std::_Tree_simple_types<std::pair<enum SDL_Scancode const ,bool> > > >::operator*
PUBLIC	??E?$_Tree_const_iterator@V?$_Tree_val@U?$_Tree_simple_types@U?$pair@$$CBW4SDL_Scancode@@_N@std@@@std@@@std@@@std@@QAEAAV01@XZ ; std::_Tree_const_iterator<std::_Tree_val<std::_Tree_simple_types<std::pair<enum SDL_Scancode const ,bool> > > >::operator++
PUBLIC	??F?$_Tree_const_iterator@V?$_Tree_val@U?$_Tree_simple_types@U?$pair@$$CBW4SDL_Scancode@@_N@std@@@std@@@std@@@std@@QAEAAV01@XZ ; std::_Tree_const_iterator<std::_Tree_val<std::_Tree_simple_types<std::pair<enum SDL_Scancode const ,bool> > > >::operator--
PUBLIC	??8?$_Tree_const_iterator@V?$_Tree_val@U?$_Tree_simple_types@U?$pair@$$CBW4SDL_Scancode@@_N@std@@@std@@@std@@@std@@QBE_NABV01@@Z ; std::_Tree_const_iterator<std::_Tree_val<std::_Tree_simple_types<std::pair<enum SDL_Scancode const ,bool> > > >::operator==
PUBLIC	??1?$_Tree_const_iterator@V?$_Tree_val@U?$_Tree_simple_types@U?$pair@$$CBW4SDL_Scancode@@_N@std@@@std@@@std@@@std@@QAE@XZ ; std::_Tree_const_iterator<std::_Tree_val<std::_Tree_simple_types<std::pair<enum SDL_Scancode const ,bool> > > >::~_Tree_const_iterator<std::_Tree_val<std::_Tree_simple_types<std::pair<enum SDL_Scancode const ,bool> > > >
PUBLIC	??0?$_Tree_const_iterator@V?$_Tree_val@U?$_Tree_simple_types@U?$pair@$$CBW4SDL_Scancode@@_N@std@@@std@@@std@@@std@@QAE@ABV01@@Z ; std::_Tree_const_iterator<std::_Tree_val<std::_Tree_simple_types<std::pair<enum SDL_Scancode const ,bool> > > >::_Tree_const_iterator<std::_Tree_val<std::_Tree_simple_types<std::pair<enum SDL_Scancode const ,bool> > > >
PUBLIC	??4?$_Tree_const_iterator@V?$_Tree_val@U?$_Tree_simple_types@U?$pair@$$CBW4SDL_Scancode@@_N@std@@@std@@@std@@@std@@QAEAAV01@ABV01@@Z ; std::_Tree_const_iterator<std::_Tree_val<std::_Tree_simple_types<std::pair<enum SDL_Scancode const ,bool> > > >::operator=
PUBLIC	?__autoclassinit2@?$_Tree_const_iterator@V?$_Tree_val@U?$_Tree_simple_types@U?$pair@$$CBW4SDL_Scancode@@_N@std@@@std@@@std@@@std@@QAEXI@Z ; std::_Tree_const_iterator<std::_Tree_val<std::_Tree_simple_types<std::pair<enum SDL_Scancode const ,bool> > > >::__autoclassinit2
PUBLIC	??0?$_Tree_iterator@V?$_Tree_val@U?$_Tree_simple_types@U?$pair@$$CBW4SDL_Scancode@@_N@std@@@std@@@std@@@std@@QAE@PAU?$_Tree_node@U?$pair@$$CBW4SDL_Scancode@@_N@std@@PAX@1@PBV?$_Tree_val@U?$_Tree_simple_types@U?$pair@$$CBW4SDL_Scancode@@_N@std@@@std@@@1@@Z ; std::_Tree_iterator<std::_Tree_val<std::_Tree_simple_types<std::pair<enum SDL_Scancode const ,bool> > > >::_Tree_iterator<std::_Tree_val<std::_Tree_simple_types<std::pair<enum SDL_Scancode const ,bool> > > >
PUBLIC	??D?$_Tree_iterator@V?$_Tree_val@U?$_Tree_simple_types@U?$pair@$$CBW4SDL_Scancode@@_N@std@@@std@@@std@@@std@@QBEAAU?$pair@$$CBW4SDL_Scancode@@_N@1@XZ ; std::_Tree_iterator<std::_Tree_val<std::_Tree_simple_types<std::pair<enum SDL_Scancode const ,bool> > > >::operator*
PUBLIC	??C?$_Tree_iterator@V?$_Tree_val@U?$_Tree_simple_types@U?$pair@$$CBW4SDL_Scancode@@_N@std@@@std@@@std@@@std@@QBEPAU?$pair@$$CBW4SDL_Scancode@@_N@1@XZ ; std::_Tree_iterator<std::_Tree_val<std::_Tree_simple_types<std::pair<enum SDL_Scancode const ,bool> > > >::operator->
PUBLIC	??F?$_Tree_iterator@V?$_Tree_val@U?$_Tree_simple_types@U?$pair@$$CBW4SDL_Scancode@@_N@std@@@std@@@std@@@std@@QAEAAV01@XZ ; std::_Tree_iterator<std::_Tree_val<std::_Tree_simple_types<std::pair<enum SDL_Scancode const ,bool> > > >::operator--
PUBLIC	??1?$_Tree_iterator@V?$_Tree_val@U?$_Tree_simple_types@U?$pair@$$CBW4SDL_Scancode@@_N@std@@@std@@@std@@@std@@QAE@XZ ; std::_Tree_iterator<std::_Tree_val<std::_Tree_simple_types<std::pair<enum SDL_Scancode const ,bool> > > >::~_Tree_iterator<std::_Tree_val<std::_Tree_simple_types<std::pair<enum SDL_Scancode const ,bool> > > >
PUBLIC	??0?$_Tree_iterator@V?$_Tree_val@U?$_Tree_simple_types@U?$pair@$$CBW4SDL_Scancode@@_N@std@@@std@@@std@@@std@@QAE@ABV01@@Z ; std::_Tree_iterator<std::_Tree_val<std::_Tree_simple_types<std::pair<enum SDL_Scancode const ,bool> > > >::_Tree_iterator<std::_Tree_val<std::_Tree_simple_types<std::pair<enum SDL_Scancode const ,bool> > > >
PUBLIC	??4?$_Tree_iterator@V?$_Tree_val@U?$_Tree_simple_types@U?$pair@$$CBW4SDL_Scancode@@_N@std@@@std@@@std@@@std@@QAEAAV01@ABV01@@Z ; std::_Tree_iterator<std::_Tree_val<std::_Tree_simple_types<std::pair<enum SDL_Scancode const ,bool> > > >::operator=
PUBLIC	?__autoclassinit2@?$_Tree_iterator@V?$_Tree_val@U?$_Tree_simple_types@U?$pair@$$CBW4SDL_Scancode@@_N@std@@@std@@@std@@@std@@QAEXI@Z ; std::_Tree_iterator<std::_Tree_val<std::_Tree_simple_types<std::pair<enum SDL_Scancode const ,bool> > > >::__autoclassinit2
PUBLIC	??$forward_as_tuple@ABW4SDL_Scancode@@@std@@YA?AV?$tuple@ABW4SDL_Scancode@@@0@ABW4SDL_Scancode@@@Z ; std::forward_as_tuple<enum SDL_Scancode const &>
PUBLIC	??0?$tuple@ABW4SDL_Scancode@@@std@@QAE@ABW4SDL_Scancode@@@Z ; std::tuple<enum SDL_Scancode const &>::tuple<enum SDL_Scancode const &>
PUBLIC	?_Get_rest@?$tuple@ABW4SDL_Scancode@@@std@@QAEAAV?$tuple@$$$V@2@XZ ; std::tuple<enum SDL_Scancode const &>::_Get_rest
PUBLIC	??$emplace_hint@ABUpiecewise_construct_t@std@@V?$tuple@ABW4SDL_Scancode@@@2@V?$tuple@$$$V@2@@?$_Tree@V?$_Tmap_traits@W4SDL_Scancode@@_NU?$less@W4SDL_Scancode@@@std@@V?$allocator@U?$pair@$$CBW4SDL_Scancode@@_N@std@@@3@$0A@@std@@@std@@QAE?AV?$_Tree_iterator@V?$_Tree_val@U?$_Tree_simple_types@U?$pair@$$CBW4SDL_Scancode@@_N@std@@@std@@@std@@@1@V?$_Tree_const_iterator@V?$_Tree_val@U?$_Tree_simple_types@U?$pair@$$CBW4SDL_Scancode@@_N@std@@@std@@@std@@@1@ABUpiecewise_construct_t@1@$$QAV?$tuple@ABW4SDL_Scancode@@@1@$$QAV?$tuple@$$$V@1@@Z ; std::_Tree<std::_Tmap_traits<enum SDL_Scancode,bool,std::less<enum SDL_Scancode>,std::allocator<std::pair<enum SDL_Scancode const ,bool> >,0> >::emplace_hint<std::piecewise_construct_t const &,std::tuple<enum SDL_Scancode const &>,std::tuple<> >
PUBLIC	??$addressof@U?$pair@$$CBW4SDL_Scancode@@_N@std@@@std@@YAPAU?$pair@$$CBW4SDL_Scancode@@_N@0@AAU10@@Z ; std::addressof<std::pair<enum SDL_Scancode const ,bool> >
PUBLIC	??$destroy@U?$pair@$$CBW4SDL_Scancode@@_N@std@@@?$_Wrap_alloc@V?$allocator@U?$_Tree_node@U?$pair@$$CBW4SDL_Scancode@@_N@std@@PAX@std@@@std@@@std@@QAEXPAU?$pair@$$CBW4SDL_Scancode@@_N@1@@Z ; std::_Wrap_alloc<std::allocator<std::_Tree_node<std::pair<enum SDL_Scancode const ,bool>,void *> > >::destroy<std::pair<enum SDL_Scancode const ,bool> >
PUBLIC	?pointer_to@?$pointer_traits@PAU?$pair@$$CBW4SDL_Scancode@@_N@std@@@std@@SAPAU?$pair@$$CBW4SDL_Scancode@@_N@2@AAU32@@Z ; std::pointer_traits<std::pair<enum SDL_Scancode const ,bool> *>::pointer_to
PUBLIC	??$_Debug_lt_pred@U?$less@W4SDL_Scancode@@@std@@ABW4SDL_Scancode@@ABW43@@std@@YA_NU?$less@W4SDL_Scancode@@@0@ABW4SDL_Scancode@@1PB_WI@Z ; std::_Debug_lt_pred<std::less<enum SDL_Scancode>,enum SDL_Scancode const &,enum SDL_Scancode const &>
PUBLIC	??$_Kfn@$$CBW4SDL_Scancode@@_N@?$_Tmap_traits@W4SDL_Scancode@@_NU?$less@W4SDL_Scancode@@@std@@V?$allocator@U?$pair@$$CBW4SDL_Scancode@@_N@std@@@3@$0A@@std@@SAABW4SDL_Scancode@@ABU?$pair@$$CBW4SDL_Scancode@@_N@1@@Z ; std::_Tmap_traits<enum SDL_Scancode,bool,std::less<enum SDL_Scancode>,std::allocator<std::pair<enum SDL_Scancode const ,bool> >,0>::_Kfn<enum SDL_Scancode const ,bool>
PUBLIC	??$forward@ABW4SDL_Scancode@@@std@@YAABW4SDL_Scancode@@ABW41@@Z ; std::forward<enum SDL_Scancode const &>
PUBLIC	??$?0ABW4SDL_Scancode@@PAPAX@?$tuple@ABW4SDL_Scancode@@@std@@QAE@$$QAV01@@Z ; std::tuple<enum SDL_Scancode const &>::tuple<enum SDL_Scancode const &><enum SDL_Scancode const &,void * *>
PUBLIC	??$forward@ABUpiecewise_construct_t@std@@@std@@YAABUpiecewise_construct_t@0@ABU10@@Z ; std::forward<std::piecewise_construct_t const &>
PUBLIC	??$forward@V?$tuple@ABW4SDL_Scancode@@@std@@@std@@YA$$QAV?$tuple@ABW4SDL_Scancode@@@0@AAV10@@Z ; std::forward<std::tuple<enum SDL_Scancode const &> >
PUBLIC	??$forward@V?$tuple@$$$V@std@@@std@@YA$$QAV?$tuple@$$$V@0@AAV10@@Z ; std::forward<std::tuple<> >
PUBLIC	??$_Buynode@ABUpiecewise_construct_t@std@@V?$tuple@ABW4SDL_Scancode@@@2@V?$tuple@$$$V@2@@?$_Tree_buy@U?$pair@$$CBW4SDL_Scancode@@_N@std@@V?$allocator@U?$pair@$$CBW4SDL_Scancode@@_N@std@@@2@@std@@QAEPAU?$_Tree_node@U?$pair@$$CBW4SDL_Scancode@@_N@std@@PAX@1@ABUpiecewise_construct_t@1@$$QAV?$tuple@ABW4SDL_Scancode@@@1@$$QAV?$tuple@$$$V@1@@Z ; std::_Tree_buy<std::pair<enum SDL_Scancode const ,bool>,std::allocator<std::pair<enum SDL_Scancode const ,bool> > >::_Buynode<std::piecewise_construct_t const &,std::tuple<enum SDL_Scancode const &>,std::tuple<> >
PUBLIC	??$_Insert_hint@AAU?$pair@$$CBW4SDL_Scancode@@_N@std@@PAU?$_Tree_node@U?$pair@$$CBW4SDL_Scancode@@_N@std@@PAX@2@@?$_Tree@V?$_Tmap_traits@W4SDL_Scancode@@_NU?$less@W4SDL_Scancode@@@std@@V?$allocator@U?$pair@$$CBW4SDL_Scancode@@_N@std@@@3@$0A@@std@@@std@@IAE?AV?$_Tree_iterator@V?$_Tree_val@U?$_Tree_simple_types@U?$pair@$$CBW4SDL_Scancode@@_N@std@@@std@@@std@@@1@V?$_Tree_const_iterator@V?$_Tree_val@U?$_Tree_simple_types@U?$pair@$$CBW4SDL_Scancode@@_N@std@@@std@@@std@@@1@AAU?$pair@$$CBW4SDL_Scancode@@_N@1@PAU?$_Tree_node@U?$pair@$$CBW4SDL_Scancode@@_N@std@@PAX@1@@Z ; std::_Tree<std::_Tmap_traits<enum SDL_Scancode,bool,std::less<enum SDL_Scancode>,std::allocator<std::pair<enum SDL_Scancode const ,bool> >,0> >::_Insert_hint<std::pair<enum SDL_Scancode const ,bool> &,std::_Tree_node<std::pair<enum SDL_Scancode const ,bool>,void *> *>
PUBLIC	??$destroy@U?$pair@$$CBW4SDL_Scancode@@_N@std@@@?$allocator_traits@V?$allocator@U?$_Tree_node@U?$pair@$$CBW4SDL_Scancode@@_N@std@@PAX@std@@@std@@@std@@SAXAAV?$allocator@U?$_Tree_node@U?$pair@$$CBW4SDL_Scancode@@_N@std@@PAX@std@@@1@PAU?$pair@$$CBW4SDL_Scancode@@_N@1@@Z ; std::allocator_traits<std::allocator<std::_Tree_node<std::pair<enum SDL_Scancode const ,bool>,void *> > >::destroy<std::pair<enum SDL_Scancode const ,bool> >
PUBLIC	??$?0ABW4SDL_Scancode@@@?$_Tuple_val@ABW4SDL_Scancode@@@std@@QAE@ABW4SDL_Scancode@@@Z ; std::_Tuple_val<enum SDL_Scancode const &>::_Tuple_val<enum SDL_Scancode const &><enum SDL_Scancode const &>
PUBLIC	??$construct@U?$pair@$$CBW4SDL_Scancode@@_N@std@@ABUpiecewise_construct_t@2@V?$tuple@ABW4SDL_Scancode@@@2@V?$tuple@$$$V@2@@?$_Wrap_alloc@V?$allocator@U?$_Tree_node@U?$pair@$$CBW4SDL_Scancode@@_N@std@@PAX@std@@@std@@@std@@QAEXPAU?$pair@$$CBW4SDL_Scancode@@_N@1@ABUpiecewise_construct_t@1@$$QAV?$tuple@ABW4SDL_Scancode@@@1@$$QAV?$tuple@$$$V@1@@Z ; std::_Wrap_alloc<std::allocator<std::_Tree_node<std::pair<enum SDL_Scancode const ,bool>,void *> > >::construct<std::pair<enum SDL_Scancode const ,bool>,std::piecewise_construct_t const &,std::tuple<enum SDL_Scancode const &>,std::tuple<> >
PUBLIC	??$forward@AAU?$pair@$$CBW4SDL_Scancode@@_N@std@@@std@@YAAAU?$pair@$$CBW4SDL_Scancode@@_N@0@AAU10@@Z ; std::forward<std::pair<enum SDL_Scancode const ,bool> &>
PUBLIC	??$_Insert_at@AAU?$pair@$$CBW4SDL_Scancode@@_N@std@@PAU?$_Tree_node@U?$pair@$$CBW4SDL_Scancode@@_N@std@@PAX@2@@?$_Tree@V?$_Tmap_traits@W4SDL_Scancode@@_NU?$less@W4SDL_Scancode@@@std@@V?$allocator@U?$pair@$$CBW4SDL_Scancode@@_N@std@@@3@$0A@@std@@@std@@IAE?AV?$_Tree_iterator@V?$_Tree_val@U?$_Tree_simple_types@U?$pair@$$CBW4SDL_Scancode@@_N@std@@@std@@@std@@@1@_NPAU?$_Tree_node@U?$pair@$$CBW4SDL_Scancode@@_N@std@@PAX@1@AAU?$pair@$$CBW4SDL_Scancode@@_N@1@1@Z ; std::_Tree<std::_Tmap_traits<enum SDL_Scancode,bool,std::less<enum SDL_Scancode>,std::allocator<std::pair<enum SDL_Scancode const ,bool> >,0> >::_Insert_at<std::pair<enum SDL_Scancode const ,bool> &,std::_Tree_node<std::pair<enum SDL_Scancode const ,bool>,void *> *>
PUBLIC	??$_Insert_nohint@AAU?$pair@$$CBW4SDL_Scancode@@_N@std@@PAU?$_Tree_node@U?$pair@$$CBW4SDL_Scancode@@_N@std@@PAX@2@@?$_Tree@V?$_Tmap_traits@W4SDL_Scancode@@_NU?$less@W4SDL_Scancode@@@std@@V?$allocator@U?$pair@$$CBW4SDL_Scancode@@_N@std@@@3@$0A@@std@@@std@@IAE?AU?$pair@V?$_Tree_iterator@V?$_Tree_val@U?$_Tree_simple_types@U?$pair@$$CBW4SDL_Scancode@@_N@std@@@std@@@std@@@std@@_N@1@_NAAU?$pair@$$CBW4SDL_Scancode@@_N@1@PAU?$_Tree_node@U?$pair@$$CBW4SDL_Scancode@@_N@std@@PAX@1@@Z ; std::_Tree<std::_Tmap_traits<enum SDL_Scancode,bool,std::less<enum SDL_Scancode>,std::allocator<std::pair<enum SDL_Scancode const ,bool> >,0> >::_Insert_nohint<std::pair<enum SDL_Scancode const ,bool> &,std::_Tree_node<std::pair<enum SDL_Scancode const ,bool>,void *> *>
PUBLIC	??1?$pair@V?$_Tree_iterator@V?$_Tree_val@U?$_Tree_simple_types@U?$pair@$$CBW4SDL_Scancode@@_N@std@@@std@@@std@@@std@@_N@std@@QAE@XZ ; std::pair<std::_Tree_iterator<std::_Tree_val<std::_Tree_simple_types<std::pair<enum SDL_Scancode const ,bool> > > >,bool>::~pair<std::_Tree_iterator<std::_Tree_val<std::_Tree_simple_types<std::pair<enum SDL_Scancode const ,bool> > > >,bool>
PUBLIC	??$destroy@U?$pair@$$CBW4SDL_Scancode@@_N@std@@@?$allocator@U?$_Tree_node@U?$pair@$$CBW4SDL_Scancode@@_N@std@@PAX@std@@@std@@QAEXPAU?$pair@$$CBW4SDL_Scancode@@_N@1@@Z ; std::allocator<std::_Tree_node<std::pair<enum SDL_Scancode const ,bool>,void *> >::destroy<std::pair<enum SDL_Scancode const ,bool> >
PUBLIC	??$addressof@PAU?$_Tree_node@U?$pair@$$CBW4SDL_Scancode@@_N@std@@PAX@std@@@std@@YAPAPAU?$_Tree_node@U?$pair@$$CBW4SDL_Scancode@@_N@std@@PAX@0@AAPAU10@@Z ; std::addressof<std::_Tree_node<std::pair<enum SDL_Scancode const ,bool>,void *> *>
PUBLIC	??$construct@PAU?$_Tree_node@U?$pair@$$CBW4SDL_Scancode@@_N@std@@PAX@std@@AAPAU12@@?$_Wrap_alloc@V?$allocator@U?$_Tree_node@U?$pair@$$CBW4SDL_Scancode@@_N@std@@PAX@std@@@std@@@std@@QAEXPAPAU?$_Tree_node@U?$pair@$$CBW4SDL_Scancode@@_N@std@@PAX@1@AAPAU21@@Z ; std::_Wrap_alloc<std::allocator<std::_Tree_node<std::pair<enum SDL_Scancode const ,bool>,void *> > >::construct<std::_Tree_node<std::pair<enum SDL_Scancode const ,bool>,void *> *,std::_Tree_node<std::pair<enum SDL_Scancode const ,bool>,void *> * &>
PUBLIC	??$destroy@PAU?$_Tree_node@U?$pair@$$CBW4SDL_Scancode@@_N@std@@PAX@std@@@?$_Wrap_alloc@V?$allocator@U?$_Tree_node@U?$pair@$$CBW4SDL_Scancode@@_N@std@@PAX@std@@@std@@@std@@QAEXPAPAU?$_Tree_node@U?$pair@$$CBW4SDL_Scancode@@_N@std@@PAX@1@@Z ; std::_Wrap_alloc<std::allocator<std::_Tree_node<std::pair<enum SDL_Scancode const ,bool>,void *> > >::destroy<std::_Tree_node<std::pair<enum SDL_Scancode const ,bool>,void *> *>
PUBLIC	??$_Allocate@U?$_Tree_node@U?$pair@$$CBW4SDL_Scancode@@_N@std@@PAX@std@@@std@@YAPAU?$_Tree_node@U?$pair@$$CBW4SDL_Scancode@@_N@std@@PAX@0@IPAU10@@Z ; std::_Allocate<std::_Tree_node<std::pair<enum SDL_Scancode const ,bool>,void *> >
PUBLIC	??$construct@U?$pair@$$CBW4SDL_Scancode@@_N@std@@ABUpiecewise_construct_t@2@V?$tuple@ABW4SDL_Scancode@@@2@V?$tuple@$$$V@2@@?$allocator_traits@V?$allocator@U?$_Tree_node@U?$pair@$$CBW4SDL_Scancode@@_N@std@@PAX@std@@@std@@@std@@SAXAAV?$allocator@U?$_Tree_node@U?$pair@$$CBW4SDL_Scancode@@_N@std@@PAX@std@@@1@PAU?$pair@$$CBW4SDL_Scancode@@_N@1@ABUpiecewise_construct_t@1@$$QAV?$tuple@ABW4SDL_Scancode@@@1@$$QAV?$tuple@$$$V@1@@Z ; std::allocator_traits<std::allocator<std::_Tree_node<std::pair<enum SDL_Scancode const ,bool>,void *> > >::construct<std::pair<enum SDL_Scancode const ,bool>,std::piecewise_construct_t const &,std::tuple<enum SDL_Scancode const &>,std::tuple<> >
PUBLIC	??$_Buynode_if_nil@AAU?$pair@$$CBW4SDL_Scancode@@_N@std@@@?$_Tree@V?$_Tmap_traits@W4SDL_Scancode@@_NU?$less@W4SDL_Scancode@@@std@@V?$allocator@U?$pair@$$CBW4SDL_Scancode@@_N@std@@@3@$0A@@std@@@std@@IAEPAU?$_Tree_node@U?$pair@$$CBW4SDL_Scancode@@_N@std@@PAX@1@PAU21@AAU?$pair@$$CBW4SDL_Scancode@@_N@1@@Z ; std::_Tree<std::_Tmap_traits<enum SDL_Scancode,bool,std::less<enum SDL_Scancode>,std::allocator<std::pair<enum SDL_Scancode const ,bool> >,0> >::_Buynode_if_nil<std::pair<enum SDL_Scancode const ,bool> &>
PUBLIC	??$?0V?$_Tree_iterator@V?$_Tree_val@U?$_Tree_simple_types@U?$pair@$$CBW4SDL_Scancode@@_N@std@@@std@@@std@@@std@@_NX@?$pair@V?$_Tree_iterator@V?$_Tree_val@U?$_Tree_simple_types@U?$pair@$$CBW4SDL_Scancode@@_N@std@@@std@@@std@@@std@@_N@std@@QAE@$$QAV?$_Tree_iterator@V?$_Tree_val@U?$_Tree_simple_types@U?$pair@$$CBW4SDL_Scancode@@_N@std@@@std@@@std@@@1@$$QA_N@Z ; std::pair<std::_Tree_iterator<std::_Tree_val<std::_Tree_simple_types<std::pair<enum SDL_Scancode const ,bool> > > >,bool>::pair<std::_Tree_iterator<std::_Tree_val<std::_Tree_simple_types<std::pair<enum SDL_Scancode const ,bool> > > >,bool><std::_Tree_iterator<std::_Tree_val<std::_Tree_simple_types<std::pair<enum SDL_Scancode const ,bool> > > >,bool,void>
PUBLIC	??$?0AAV?$_Tree_iterator@V?$_Tree_val@U?$_Tree_simple_types@U?$pair@$$CBW4SDL_Scancode@@_N@std@@@std@@@std@@@std@@_NX@?$pair@V?$_Tree_iterator@V?$_Tree_val@U?$_Tree_simple_types@U?$pair@$$CBW4SDL_Scancode@@_N@std@@@std@@@std@@@std@@_N@std@@QAE@AAV?$_Tree_iterator@V?$_Tree_val@U?$_Tree_simple_types@U?$pair@$$CBW4SDL_Scancode@@_N@std@@@std@@@std@@@1@$$QA_N@Z ; std::pair<std::_Tree_iterator<std::_Tree_val<std::_Tree_simple_types<std::pair<enum SDL_Scancode const ,bool> > > >,bool>::pair<std::_Tree_iterator<std::_Tree_val<std::_Tree_simple_types<std::pair<enum SDL_Scancode const ,bool> > > >,bool><std::_Tree_iterator<std::_Tree_val<std::_Tree_simple_types<std::pair<enum SDL_Scancode const ,bool> > > > &,bool,void>
PUBLIC	??$forward@AAPAU?$_Tree_node@U?$pair@$$CBW4SDL_Scancode@@_N@std@@PAX@std@@@std@@YAAAPAU?$_Tree_node@U?$pair@$$CBW4SDL_Scancode@@_N@std@@PAX@0@AAPAU10@@Z ; std::forward<std::_Tree_node<std::pair<enum SDL_Scancode const ,bool>,void *> * &>
PUBLIC	??$construct@PAU?$_Tree_node@U?$pair@$$CBW4SDL_Scancode@@_N@std@@PAX@std@@AAPAU12@@?$allocator_traits@V?$allocator@U?$_Tree_node@U?$pair@$$CBW4SDL_Scancode@@_N@std@@PAX@std@@@std@@@std@@SAXAAV?$allocator@U?$_Tree_node@U?$pair@$$CBW4SDL_Scancode@@_N@std@@PAX@std@@@1@PAPAU?$_Tree_node@U?$pair@$$CBW4SDL_Scancode@@_N@std@@PAX@1@AAPAU31@@Z ; std::allocator_traits<std::allocator<std::_Tree_node<std::pair<enum SDL_Scancode const ,bool>,void *> > >::construct<std::_Tree_node<std::pair<enum SDL_Scancode const ,bool>,void *> *,std::_Tree_node<std::pair<enum SDL_Scancode const ,bool>,void *> * &>
PUBLIC	??$destroy@PAU?$_Tree_node@U?$pair@$$CBW4SDL_Scancode@@_N@std@@PAX@std@@@?$allocator_traits@V?$allocator@U?$_Tree_node@U?$pair@$$CBW4SDL_Scancode@@_N@std@@PAX@std@@@std@@@std@@SAXAAV?$allocator@U?$_Tree_node@U?$pair@$$CBW4SDL_Scancode@@_N@std@@PAX@std@@@1@PAPAU?$_Tree_node@U?$pair@$$CBW4SDL_Scancode@@_N@std@@PAX@1@@Z ; std::allocator_traits<std::allocator<std::_Tree_node<std::pair<enum SDL_Scancode const ,bool>,void *> > >::destroy<std::_Tree_node<std::pair<enum SDL_Scancode const ,bool>,void *> *>
PUBLIC	??$construct@U?$pair@$$CBW4SDL_Scancode@@_N@std@@ABUpiecewise_construct_t@2@V?$tuple@ABW4SDL_Scancode@@@2@V?$tuple@$$$V@2@@?$allocator@U?$_Tree_node@U?$pair@$$CBW4SDL_Scancode@@_N@std@@PAX@std@@@std@@QAEXPAU?$pair@$$CBW4SDL_Scancode@@_N@1@ABUpiecewise_construct_t@1@$$QAV?$tuple@ABW4SDL_Scancode@@@1@$$QAV?$tuple@$$$V@1@@Z ; std::allocator<std::_Tree_node<std::pair<enum SDL_Scancode const ,bool>,void *> >::construct<std::pair<enum SDL_Scancode const ,bool>,std::piecewise_construct_t const &,std::tuple<enum SDL_Scancode const &>,std::tuple<> >
PUBLIC	??$forward@V?$_Tree_iterator@V?$_Tree_val@U?$_Tree_simple_types@U?$pair@$$CBW4SDL_Scancode@@_N@std@@@std@@@std@@@std@@@std@@YA$$QAV?$_Tree_iterator@V?$_Tree_val@U?$_Tree_simple_types@U?$pair@$$CBW4SDL_Scancode@@_N@std@@@std@@@std@@@0@AAV10@@Z ; std::forward<std::_Tree_iterator<std::_Tree_val<std::_Tree_simple_types<std::pair<enum SDL_Scancode const ,bool> > > > >
PUBLIC	??$forward@_N@std@@YA$$QA_NAA_N@Z		; std::forward<bool>
PUBLIC	??$forward@AAV?$_Tree_iterator@V?$_Tree_val@U?$_Tree_simple_types@U?$pair@$$CBW4SDL_Scancode@@_N@std@@@std@@@std@@@std@@@std@@YAAAV?$_Tree_iterator@V?$_Tree_val@U?$_Tree_simple_types@U?$pair@$$CBW4SDL_Scancode@@_N@std@@@std@@@std@@@0@AAV10@@Z ; std::forward<std::_Tree_iterator<std::_Tree_val<std::_Tree_simple_types<std::pair<enum SDL_Scancode const ,bool> > > > &>
PUBLIC	??$construct@PAU?$_Tree_node@U?$pair@$$CBW4SDL_Scancode@@_N@std@@PAX@std@@AAPAU12@@?$allocator@U?$_Tree_node@U?$pair@$$CBW4SDL_Scancode@@_N@std@@PAX@std@@@std@@QAEXPAPAU?$_Tree_node@U?$pair@$$CBW4SDL_Scancode@@_N@std@@PAX@1@AAPAU21@@Z ; std::allocator<std::_Tree_node<std::pair<enum SDL_Scancode const ,bool>,void *> >::construct<std::_Tree_node<std::pair<enum SDL_Scancode const ,bool>,void *> *,std::_Tree_node<std::pair<enum SDL_Scancode const ,bool>,void *> * &>
PUBLIC	??$destroy@PAU?$_Tree_node@U?$pair@$$CBW4SDL_Scancode@@_N@std@@PAX@std@@@?$allocator@U?$_Tree_node@U?$pair@$$CBW4SDL_Scancode@@_N@std@@PAX@std@@@std@@QAEXPAPAU?$_Tree_node@U?$pair@$$CBW4SDL_Scancode@@_N@std@@PAX@1@@Z ; std::allocator<std::_Tree_node<std::pair<enum SDL_Scancode const ,bool>,void *> >::destroy<std::_Tree_node<std::pair<enum SDL_Scancode const ,bool>,void *> *>
PUBLIC	??$?0ABW4SDL_Scancode@@$$$V@?$pair@$$CBW4SDL_Scancode@@_N@std@@QAE@Upiecewise_construct_t@1@V?$tuple@ABW4SDL_Scancode@@@1@V?$tuple@$$$V@1@@Z ; std::pair<enum SDL_Scancode const ,bool>::pair<enum SDL_Scancode const ,bool><enum SDL_Scancode const &>
PUBLIC	??$?0V?$tuple@ABW4SDL_Scancode@@@std@@V?$tuple@$$$V@1@$0A@$S@?$pair@$$CBW4SDL_Scancode@@_N@std@@QAE@AAV?$tuple@ABW4SDL_Scancode@@@1@AAV?$tuple@$$$V@1@U?$_Arg_idx@$0A@@1@U?$_Arg_idx@$S@1@@Z ; std::pair<enum SDL_Scancode const ,bool>::pair<enum SDL_Scancode const ,bool><std::tuple<enum SDL_Scancode const &>,std::tuple<>,0>
PUBLIC	??$move@AAV?$tuple@ABW4SDL_Scancode@@@std@@@std@@YA$$QAV?$tuple@ABW4SDL_Scancode@@@0@AAV10@@Z ; std::move<std::tuple<enum SDL_Scancode const &> &>
PUBLIC	??$get@$0A@ABW4SDL_Scancode@@@std@@YAABW4SDL_Scancode@@$$QAV?$tuple@ABW4SDL_Scancode@@@0@@Z ; std::get<0,enum SDL_Scancode const &>
PUBLIC	??_C@_1JA@EKKHPHED@?$AAc?$AA?3?$AA?2?$AAp?$AAr?$AAo?$AAg?$AAr?$AAa?$AAm?$AA?5?$AAf?$AAi?$AAl?$AAe?$AAs?$AA?5?$AA?$CI?$AAx?$AA8?$AA6?$AA?$CJ?$AA?2?$AAm?$AAi?$AAc?$AAr?$AAo?$AAs?$AAo?$AAf?$AAt@ ; `string'
PUBLIC	??_C@_1DC@POOIKBAO@?$AAI?$AAT?$AAE?$AAR?$AAA?$AAT?$AAO?$AAR?$AA?5?$AAL?$AAI?$AAS?$AAT?$AA?5?$AAC?$AAO?$AAR?$AAR?$AAU?$AAP?$AAT?$AAE?$AAD?$AA?$CB?$AA?$AA@ ; `string'
PUBLIC	??_C@_1IK@HBAODOLH@?$AAc?$AA?3?$AA?2?$AAp?$AAr?$AAo?$AAg?$AAr?$AAa?$AAm?$AA?5?$AAf?$AAi?$AAl?$AAe?$AAs?$AA?5?$AA?$CI?$AAx?$AA8?$AA6?$AA?$CJ?$AA?2?$AAm?$AAi?$AAc?$AAr?$AAo?$AAs?$AAo?$AAf?$AAt@ ; `string'
PUBLIC	??_C@_1DO@CFEEPGGJ@?$AAm?$AAa?$AAp?$AA?1?$AAs?$AAe?$AAt?$AA?5?$AAi?$AAt?$AAe?$AAr?$AAa?$AAt?$AAo?$AAr?$AAs?$AA?5?$AAi?$AAn?$AAc?$AAo?$AAm?$AAp?$AAa?$AAt?$AAi?$AAb?$AAl?$AAe?$AA?$AA@ ; `string'
PUBLIC	??_C@_0CI@FNPHFCCM@Standard?5C?$CL?$CL?5Libraries?5Invalid?5A@ ; `string'
PUBLIC	??_C@_1FO@GJIHNDLM@?$AA?$CC?$AAS?$AAt?$AAa?$AAn?$AAd?$AAa?$AAr?$AAd?$AA?5?$AAC?$AA?$CL?$AA?$CL?$AA?5?$AAL?$AAi?$AAb?$AAr?$AAa?$AAr?$AAi?$AAe?$AAs?$AA?5?$AAI?$AAn?$AAv?$AAa?$AAl?$AAi?$AAd?$AA?5@ ; `string'
PUBLIC	??_C@_15GANGMFKL@?$AA?$CF?$AAs?$AA?$AA@		; `string'
PUBLIC	??_C@_1BCC@CENCGII@?$AAs?$AAt?$AAd?$AA?3?$AA?3?$AA_?$AAT?$AAr?$AAe?$AAe?$AA_?$AAc?$AAo?$AAn?$AAs?$AAt?$AA_?$AAi?$AAt?$AAe?$AAr?$AAa?$AAt?$AAo?$AAr?$AA?$DM?$AAc?$AAl?$AAa?$AAs?$AAs?$AA?5@ ; `string'
PUBLIC	??_C@_1CG@JNLFBNGN@?$AA?$CC?$AAi?$AAn?$AAv?$AAa?$AAl?$AAi?$AAd?$AA?5?$AAa?$AAr?$AAg?$AAu?$AAm?$AAe?$AAn?$AAt?$AA?$CC?$AA?$AA@ ; `string'
PUBLIC	??_C@_1EI@FHEHNNNM@?$AAm?$AAa?$AAp?$AA?1?$AAs?$AAe?$AAt?$AA?5?$AAi?$AAt?$AAe?$AAr?$AAa?$AAt?$AAo?$AAr?$AA?5?$AAn?$AAo?$AAt?$AA?5?$AAd?$AAe?$AAr?$AAe?$AAf?$AAe?$AAr?$AAe?$AAn?$AAc?$AAa@ ; `string'
PUBLIC	??_C@_0CE@OFMIGAMM@Standard?5C?$CL?$CL?5Libraries?5Out?5of?5Ra@ ; `string'
PUBLIC	??_C@_1FG@IBPIFFN@?$AA?$CC?$AAS?$AAt?$AAa?$AAn?$AAd?$AAa?$AAr?$AAd?$AA?5?$AAC?$AA?$CL?$AA?$CL?$AA?5?$AAL?$AAi?$AAb?$AAr?$AAa?$AAr?$AAi?$AAe?$AAs?$AA?5?$AAO?$AAu?$AAt?$AA?5?$AAo?$AAf?$AA?5?$AAR@ ; `string'
PUBLIC	??_C@_1BCA@HNCBFHON@?$AAs?$AAt?$AAd?$AA?3?$AA?3?$AA_?$AAT?$AAr?$AAe?$AAe?$AA_?$AAc?$AAo?$AAn?$AAs?$AAt?$AA_?$AAi?$AAt?$AAe?$AAr?$AAa?$AAt?$AAo?$AAr?$AA?$DM?$AAc?$AAl?$AAa?$AAs?$AAs?$AA?5@ ; `string'
PUBLIC	??_C@_1BO@MEPPHOO@?$AA?$CC?$AAo?$AAu?$AAt?$AA?5?$AAo?$AAf?$AA?5?$AAr?$AAa?$AAn?$AAg?$AAe?$AA?$CC?$AA?$AA@ ; `string'
PUBLIC	??_C@_1CE@IGJMOCCK@?$AAi?$AAn?$AAv?$AAa?$AAl?$AAi?$AAd?$AA?5?$AAo?$AAp?$AAe?$AAr?$AAa?$AAt?$AAo?$AAr?$AA?$DM?$AA?$AA@ ; `string'
PUBLIC	??_C@_1EM@MHOKKPFH@?$AAm?$AAa?$AAp?$AA?1?$AAs?$AAe?$AAt?$AA?5?$AAi?$AAn?$AAs?$AAe?$AAr?$AAt?$AA?5?$AAi?$AAt?$AAe?$AAr?$AAa?$AAt?$AAo?$AAr?$AA?5?$AAo?$AAu?$AAt?$AAs?$AAi?$AAd?$AAe?$AA?5@ ; `string'
PUBLIC	??_C@_1EG@EHJFMBHJ@?$AAm?$AAa?$AAp?$AA?1?$AAs?$AAe?$AAt?$AA?5?$AAi?$AAt?$AAe?$AAr?$AAa?$AAt?$AAo?$AAr?$AA?5?$AAn?$AAo?$AAt?$AA?5?$AAi?$AAn?$AAc?$AAr?$AAe?$AAm?$AAe?$AAn?$AAt?$AAa?$AAb@ ; `string'
PUBLIC	??_C@_1BCC@KCLAMPEN@?$AAs?$AAt?$AAd?$AA?3?$AA?3?$AA_?$AAT?$AAr?$AAe?$AAe?$AA_?$AAc?$AAo?$AAn?$AAs?$AAt?$AA_?$AAi?$AAt?$AAe?$AAr?$AAa?$AAt?$AAo?$AAr?$AA?$DM?$AAc?$AAl?$AAa?$AAs?$AAs?$AA?5@ ; `string'
PUBLIC	??_C@_1EG@OKCGOALM@?$AAm?$AAa?$AAp?$AA?1?$AAs?$AAe?$AAt?$AA?5?$AAi?$AAt?$AAe?$AAr?$AAa?$AAt?$AAo?$AAr?$AA?5?$AAn?$AAo?$AAt?$AA?5?$AAd?$AAe?$AAc?$AAr?$AAe?$AAm?$AAe?$AAn?$AAt?$AAa?$AAb@ ; `string'
PUBLIC	??_C@_1BCC@FBICHDIM@?$AAs?$AAt?$AAd?$AA?3?$AA?3?$AA_?$AAT?$AAr?$AAe?$AAe?$AA_?$AAc?$AAo?$AAn?$AAs?$AAt?$AA_?$AAi?$AAt?$AAe?$AAr?$AAa?$AAt?$AAo?$AAr?$AA?$DM?$AAc?$AAl?$AAa?$AAs?$AAs?$AA?5@ ; `string'
PUBLIC	??_C@_0BE@JONHPENG@map?1set?$DMT?$DO?5too?5long?$AA@ ; `string'
EXTRN	??2@YAPAXI@Z:PROC				; operator new
EXTRN	??3@YAXPAX@Z:PROC				; operator delete
EXTRN	__imp___invalid_parameter:PROC
EXTRN	__imp_??0_Lockit@std@@QAE@H@Z:PROC
EXTRN	__imp_??1_Lockit@std@@QAE@XZ:PROC
EXTRN	__imp___hypot:PROC
EXTRN	__imp___CrtDbgReportW:PROC
EXTRN	__imp_?_Debug_message@std@@YAXPB_W0I@Z:PROC
EXTRN	__imp_?_Getpfirst@_Container_base12@std@@QBEPAPAU_Iterator_base12@2@XZ:PROC
EXTRN	__imp_?_Xbad_alloc@std@@YAXXZ:PROC
EXTRN	__imp_?_Xlength_error@std@@YAXPBD@Z:PROC
EXTRN	@_RTC_CheckStackVars@8:PROC
EXTRN	@__security_check_cookie@4:PROC
EXTRN	__CxxThrowException@8:PROC
EXTRN	__RTC_CheckEsp:PROC
EXTRN	__RTC_InitBase:PROC
EXTRN	__RTC_Shutdown:PROC
EXTRN	___CxxFrameHandler3:PROC
EXTRN	_memset:PROC
EXTRN	___security_cookie:DWORD
EXTRN	__fltused:DWORD
_BSS	SEGMENT
_piecewise_construct DB 01H DUP (?)
_allocator_arg DB 01H DUP (?)
_ignore	DB	01H DUP (?)
__Tuple_alloc DB 01H DUP (?)
_BSS	ENDS
CRT$XCU	SEGMENT
_piecewise_construct$initializer$ DD FLAT:??__Epiecewise_construct@std@@YAXXZ
CRT$XCU	ENDS
;	COMDAT rtc$TMZ
rtc$TMZ	SEGMENT
__RTC_Shutdown.rtc$TMZ DD FLAT:__RTC_Shutdown
rtc$TMZ	ENDS
;	COMDAT rtc$IMZ
rtc$IMZ	SEGMENT
__RTC_InitBase.rtc$IMZ DD FLAT:__RTC_InitBase
rtc$IMZ	ENDS
;	COMDAT ??_C@_0BE@JONHPENG@map?1set?$DMT?$DO?5too?5long?$AA@
CONST	SEGMENT
??_C@_0BE@JONHPENG@map?1set?$DMT?$DO?5too?5long?$AA@ DB 'map/set<T> too l'
	DB	'ong', 00H					; `string'
CONST	ENDS
;	COMDAT ??_C@_1BCC@FBICHDIM@?$AAs?$AAt?$AAd?$AA?3?$AA?3?$AA_?$AAT?$AAr?$AAe?$AAe?$AA_?$AAc?$AAo?$AAn?$AAs?$AAt?$AA_?$AAi?$AAt?$AAe?$AAr?$AAa?$AAt?$AAo?$AAr?$AA?$DM?$AAc?$AAl?$AAa?$AAs?$AAs?$AA?5@
CONST	SEGMENT
??_C@_1BCC@FBICHDIM@?$AAs?$AAt?$AAd?$AA?3?$AA?3?$AA_?$AAT?$AAr?$AAe?$AAe?$AA_?$AAc?$AAo?$AAn?$AAs?$AAt?$AA_?$AAi?$AAt?$AAe?$AAr?$AAa?$AAt?$AAo?$AAr?$AA?$DM?$AAc?$AAl?$AAa?$AAs?$AAs?$AA?5@ DB 's'
	DB	00H, 't', 00H, 'd', 00H, ':', 00H, ':', 00H, '_', 00H, 'T', 00H
	DB	'r', 00H, 'e', 00H, 'e', 00H, '_', 00H, 'c', 00H, 'o', 00H, 'n'
	DB	00H, 's', 00H, 't', 00H, '_', 00H, 'i', 00H, 't', 00H, 'e', 00H
	DB	'r', 00H, 'a', 00H, 't', 00H, 'o', 00H, 'r', 00H, '<', 00H, 'c'
	DB	00H, 'l', 00H, 'a', 00H, 's', 00H, 's', 00H, ' ', 00H, 's', 00H
	DB	't', 00H, 'd', 00H, ':', 00H, ':', 00H, '_', 00H, 'T', 00H, 'r'
	DB	00H, 'e', 00H, 'e', 00H, '_', 00H, 'v', 00H, 'a', 00H, 'l', 00H
	DB	'<', 00H, 's', 00H, 't', 00H, 'r', 00H, 'u', 00H, 'c', 00H, 't'
	DB	00H, ' ', 00H, 's', 00H, 't', 00H, 'd', 00H, ':', 00H, ':', 00H
	DB	'_', 00H, 'T', 00H, 'r', 00H, 'e', 00H, 'e', 00H, '_', 00H, 's'
	DB	00H, 'i', 00H, 'm', 00H, 'p', 00H, 'l', 00H, 'e', 00H, '_', 00H
	DB	't', 00H, 'y', 00H, 'p', 00H, 'e', 00H, 's', 00H, '<', 00H, 's'
	DB	00H, 't', 00H, 'r', 00H, 'u', 00H, 'c', 00H, 't', 00H, ' ', 00H
	DB	's', 00H, 't', 00H, 'd', 00H, ':', 00H, ':', 00H, 'p', 00H, 'a'
	DB	00H, 'i', 00H, 'r', 00H, '<', 00H, 'e', 00H, 'n', 00H, 'u', 00H
	DB	'm', 00H, ' ', 00H, 'S', 00H, 'D', 00H, 'L', 00H, '_', 00H, 'S'
	DB	00H, 'c', 00H, 'a', 00H, 'n', 00H, 'c', 00H, 'o', 00H, 'd', 00H
	DB	'e', 00H, ' ', 00H, 'c', 00H, 'o', 00H, 'n', 00H, 's', 00H, 't'
	DB	00H, ' ', 00H, ',', 00H, 'b', 00H, 'o', 00H, 'o', 00H, 'l', 00H
	DB	'>', 00H, ' ', 00H, '>', 00H, ' ', 00H, '>', 00H, ' ', 00H, '>'
	DB	00H, ':', 00H, ':', 00H, 'o', 00H, 'p', 00H, 'e', 00H, 'r', 00H
	DB	'a', 00H, 't', 00H, 'o', 00H, 'r', 00H, ' ', 00H, '-', 00H, '-'
	DB	00H, 00H, 00H				; `string'
CONST	ENDS
;	COMDAT ??_C@_1EG@OKCGOALM@?$AAm?$AAa?$AAp?$AA?1?$AAs?$AAe?$AAt?$AA?5?$AAi?$AAt?$AAe?$AAr?$AAa?$AAt?$AAo?$AAr?$AA?5?$AAn?$AAo?$AAt?$AA?5?$AAd?$AAe?$AAc?$AAr?$AAe?$AAm?$AAe?$AAn?$AAt?$AAa?$AAb@
CONST	SEGMENT
??_C@_1EG@OKCGOALM@?$AAm?$AAa?$AAp?$AA?1?$AAs?$AAe?$AAt?$AA?5?$AAi?$AAt?$AAe?$AAr?$AAa?$AAt?$AAo?$AAr?$AA?5?$AAn?$AAo?$AAt?$AA?5?$AAd?$AAe?$AAc?$AAr?$AAe?$AAm?$AAe?$AAn?$AAt?$AAa?$AAb@ DB 'm'
	DB	00H, 'a', 00H, 'p', 00H, '/', 00H, 's', 00H, 'e', 00H, 't', 00H
	DB	' ', 00H, 'i', 00H, 't', 00H, 'e', 00H, 'r', 00H, 'a', 00H, 't'
	DB	00H, 'o', 00H, 'r', 00H, ' ', 00H, 'n', 00H, 'o', 00H, 't', 00H
	DB	' ', 00H, 'd', 00H, 'e', 00H, 'c', 00H, 'r', 00H, 'e', 00H, 'm'
	DB	00H, 'e', 00H, 'n', 00H, 't', 00H, 'a', 00H, 'b', 00H, 'l', 00H
	DB	'e', 00H, 00H, 00H				; `string'
CONST	ENDS
;	COMDAT ??_C@_1BCC@KCLAMPEN@?$AAs?$AAt?$AAd?$AA?3?$AA?3?$AA_?$AAT?$AAr?$AAe?$AAe?$AA_?$AAc?$AAo?$AAn?$AAs?$AAt?$AA_?$AAi?$AAt?$AAe?$AAr?$AAa?$AAt?$AAo?$AAr?$AA?$DM?$AAc?$AAl?$AAa?$AAs?$AAs?$AA?5@
CONST	SEGMENT
??_C@_1BCC@KCLAMPEN@?$AAs?$AAt?$AAd?$AA?3?$AA?3?$AA_?$AAT?$AAr?$AAe?$AAe?$AA_?$AAc?$AAo?$AAn?$AAs?$AAt?$AA_?$AAi?$AAt?$AAe?$AAr?$AAa?$AAt?$AAo?$AAr?$AA?$DM?$AAc?$AAl?$AAa?$AAs?$AAs?$AA?5@ DB 's'
	DB	00H, 't', 00H, 'd', 00H, ':', 00H, ':', 00H, '_', 00H, 'T', 00H
	DB	'r', 00H, 'e', 00H, 'e', 00H, '_', 00H, 'c', 00H, 'o', 00H, 'n'
	DB	00H, 's', 00H, 't', 00H, '_', 00H, 'i', 00H, 't', 00H, 'e', 00H
	DB	'r', 00H, 'a', 00H, 't', 00H, 'o', 00H, 'r', 00H, '<', 00H, 'c'
	DB	00H, 'l', 00H, 'a', 00H, 's', 00H, 's', 00H, ' ', 00H, 's', 00H
	DB	't', 00H, 'd', 00H, ':', 00H, ':', 00H, '_', 00H, 'T', 00H, 'r'
	DB	00H, 'e', 00H, 'e', 00H, '_', 00H, 'v', 00H, 'a', 00H, 'l', 00H
	DB	'<', 00H, 's', 00H, 't', 00H, 'r', 00H, 'u', 00H, 'c', 00H, 't'
	DB	00H, ' ', 00H, 's', 00H, 't', 00H, 'd', 00H, ':', 00H, ':', 00H
	DB	'_', 00H, 'T', 00H, 'r', 00H, 'e', 00H, 'e', 00H, '_', 00H, 's'
	DB	00H, 'i', 00H, 'm', 00H, 'p', 00H, 'l', 00H, 'e', 00H, '_', 00H
	DB	't', 00H, 'y', 00H, 'p', 00H, 'e', 00H, 's', 00H, '<', 00H, 's'
	DB	00H, 't', 00H, 'r', 00H, 'u', 00H, 'c', 00H, 't', 00H, ' ', 00H
	DB	's', 00H, 't', 00H, 'd', 00H, ':', 00H, ':', 00H, 'p', 00H, 'a'
	DB	00H, 'i', 00H, 'r', 00H, '<', 00H, 'e', 00H, 'n', 00H, 'u', 00H
	DB	'm', 00H, ' ', 00H, 'S', 00H, 'D', 00H, 'L', 00H, '_', 00H, 'S'
	DB	00H, 'c', 00H, 'a', 00H, 'n', 00H, 'c', 00H, 'o', 00H, 'd', 00H
	DB	'e', 00H, ' ', 00H, 'c', 00H, 'o', 00H, 'n', 00H, 's', 00H, 't'
	DB	00H, ' ', 00H, ',', 00H, 'b', 00H, 'o', 00H, 'o', 00H, 'l', 00H
	DB	'>', 00H, ' ', 00H, '>', 00H, ' ', 00H, '>', 00H, ' ', 00H, '>'
	DB	00H, ':', 00H, ':', 00H, 'o', 00H, 'p', 00H, 'e', 00H, 'r', 00H
	DB	'a', 00H, 't', 00H, 'o', 00H, 'r', 00H, ' ', 00H, '+', 00H, '+'
	DB	00H, 00H, 00H				; `string'
CONST	ENDS
;	COMDAT ??_C@_1EG@EHJFMBHJ@?$AAm?$AAa?$AAp?$AA?1?$AAs?$AAe?$AAt?$AA?5?$AAi?$AAt?$AAe?$AAr?$AAa?$AAt?$AAo?$AAr?$AA?5?$AAn?$AAo?$AAt?$AA?5?$AAi?$AAn?$AAc?$AAr?$AAe?$AAm?$AAe?$AAn?$AAt?$AAa?$AAb@
CONST	SEGMENT
??_C@_1EG@EHJFMBHJ@?$AAm?$AAa?$AAp?$AA?1?$AAs?$AAe?$AAt?$AA?5?$AAi?$AAt?$AAe?$AAr?$AAa?$AAt?$AAo?$AAr?$AA?5?$AAn?$AAo?$AAt?$AA?5?$AAi?$AAn?$AAc?$AAr?$AAe?$AAm?$AAe?$AAn?$AAt?$AAa?$AAb@ DB 'm'
	DB	00H, 'a', 00H, 'p', 00H, '/', 00H, 's', 00H, 'e', 00H, 't', 00H
	DB	' ', 00H, 'i', 00H, 't', 00H, 'e', 00H, 'r', 00H, 'a', 00H, 't'
	DB	00H, 'o', 00H, 'r', 00H, ' ', 00H, 'n', 00H, 'o', 00H, 't', 00H
	DB	' ', 00H, 'i', 00H, 'n', 00H, 'c', 00H, 'r', 00H, 'e', 00H, 'm'
	DB	00H, 'e', 00H, 'n', 00H, 't', 00H, 'a', 00H, 'b', 00H, 'l', 00H
	DB	'e', 00H, 00H, 00H				; `string'
CONST	ENDS
;	COMDAT ??_C@_1EM@MHOKKPFH@?$AAm?$AAa?$AAp?$AA?1?$AAs?$AAe?$AAt?$AA?5?$AAi?$AAn?$AAs?$AAe?$AAr?$AAt?$AA?5?$AAi?$AAt?$AAe?$AAr?$AAa?$AAt?$AAo?$AAr?$AA?5?$AAo?$AAu?$AAt?$AAs?$AAi?$AAd?$AAe?$AA?5@
CONST	SEGMENT
??_C@_1EM@MHOKKPFH@?$AAm?$AAa?$AAp?$AA?1?$AAs?$AAe?$AAt?$AA?5?$AAi?$AAn?$AAs?$AAe?$AAr?$AAt?$AA?5?$AAi?$AAt?$AAe?$AAr?$AAa?$AAt?$AAo?$AAr?$AA?5?$AAo?$AAu?$AAt?$AAs?$AAi?$AAd?$AAe?$AA?5@ DB 'm'
	DB	00H, 'a', 00H, 'p', 00H, '/', 00H, 's', 00H, 'e', 00H, 't', 00H
	DB	' ', 00H, 'i', 00H, 'n', 00H, 's', 00H, 'e', 00H, 'r', 00H, 't'
	DB	00H, ' ', 00H, 'i', 00H, 't', 00H, 'e', 00H, 'r', 00H, 'a', 00H
	DB	't', 00H, 'o', 00H, 'r', 00H, ' ', 00H, 'o', 00H, 'u', 00H, 't'
	DB	00H, 's', 00H, 'i', 00H, 'd', 00H, 'e', 00H, ' ', 00H, 'r', 00H
	DB	'a', 00H, 'n', 00H, 'g', 00H, 'e', 00H, 00H, 00H ; `string'
CONST	ENDS
;	COMDAT ??_C@_1CE@IGJMOCCK@?$AAi?$AAn?$AAv?$AAa?$AAl?$AAi?$AAd?$AA?5?$AAo?$AAp?$AAe?$AAr?$AAa?$AAt?$AAo?$AAr?$AA?$DM?$AA?$AA@
CONST	SEGMENT
??_C@_1CE@IGJMOCCK@?$AAi?$AAn?$AAv?$AAa?$AAl?$AAi?$AAd?$AA?5?$AAo?$AAp?$AAe?$AAr?$AAa?$AAt?$AAo?$AAr?$AA?$DM?$AA?$AA@ DB 'i'
	DB	00H, 'n', 00H, 'v', 00H, 'a', 00H, 'l', 00H, 'i', 00H, 'd', 00H
	DB	' ', 00H, 'o', 00H, 'p', 00H, 'e', 00H, 'r', 00H, 'a', 00H, 't'
	DB	00H, 'o', 00H, 'r', 00H, '<', 00H, 00H, 00H	; `string'
CONST	ENDS
;	COMDAT ??_C@_1BO@MEPPHOO@?$AA?$CC?$AAo?$AAu?$AAt?$AA?5?$AAo?$AAf?$AA?5?$AAr?$AAa?$AAn?$AAg?$AAe?$AA?$CC?$AA?$AA@
CONST	SEGMENT
??_C@_1BO@MEPPHOO@?$AA?$CC?$AAo?$AAu?$AAt?$AA?5?$AAo?$AAf?$AA?5?$AAr?$AAa?$AAn?$AAg?$AAe?$AA?$CC?$AA?$AA@ DB '"'
	DB	00H, 'o', 00H, 'u', 00H, 't', 00H, ' ', 00H, 'o', 00H, 'f', 00H
	DB	' ', 00H, 'r', 00H, 'a', 00H, 'n', 00H, 'g', 00H, 'e', 00H, '"'
	DB	00H, 00H, 00H				; `string'
CONST	ENDS
;	COMDAT ??_C@_1BCA@HNCBFHON@?$AAs?$AAt?$AAd?$AA?3?$AA?3?$AA_?$AAT?$AAr?$AAe?$AAe?$AA_?$AAc?$AAo?$AAn?$AAs?$AAt?$AA_?$AAi?$AAt?$AAe?$AAr?$AAa?$AAt?$AAo?$AAr?$AA?$DM?$AAc?$AAl?$AAa?$AAs?$AAs?$AA?5@
CONST	SEGMENT
??_C@_1BCA@HNCBFHON@?$AAs?$AAt?$AAd?$AA?3?$AA?3?$AA_?$AAT?$AAr?$AAe?$AAe?$AA_?$AAc?$AAo?$AAn?$AAs?$AAt?$AA_?$AAi?$AAt?$AAe?$AAr?$AAa?$AAt?$AAo?$AAr?$AA?$DM?$AAc?$AAl?$AAa?$AAs?$AAs?$AA?5@ DB 's'
	DB	00H, 't', 00H, 'd', 00H, ':', 00H, ':', 00H, '_', 00H, 'T', 00H
	DB	'r', 00H, 'e', 00H, 'e', 00H, '_', 00H, 'c', 00H, 'o', 00H, 'n'
	DB	00H, 's', 00H, 't', 00H, '_', 00H, 'i', 00H, 't', 00H, 'e', 00H
	DB	'r', 00H, 'a', 00H, 't', 00H, 'o', 00H, 'r', 00H, '<', 00H, 'c'
	DB	00H, 'l', 00H, 'a', 00H, 's', 00H, 's', 00H, ' ', 00H, 's', 00H
	DB	't', 00H, 'd', 00H, ':', 00H, ':', 00H, '_', 00H, 'T', 00H, 'r'
	DB	00H, 'e', 00H, 'e', 00H, '_', 00H, 'v', 00H, 'a', 00H, 'l', 00H
	DB	'<', 00H, 's', 00H, 't', 00H, 'r', 00H, 'u', 00H, 'c', 00H, 't'
	DB	00H, ' ', 00H, 's', 00H, 't', 00H, 'd', 00H, ':', 00H, ':', 00H
	DB	'_', 00H, 'T', 00H, 'r', 00H, 'e', 00H, 'e', 00H, '_', 00H, 's'
	DB	00H, 'i', 00H, 'm', 00H, 'p', 00H, 'l', 00H, 'e', 00H, '_', 00H
	DB	't', 00H, 'y', 00H, 'p', 00H, 'e', 00H, 's', 00H, '<', 00H, 's'
	DB	00H, 't', 00H, 'r', 00H, 'u', 00H, 'c', 00H, 't', 00H, ' ', 00H
	DB	's', 00H, 't', 00H, 'd', 00H, ':', 00H, ':', 00H, 'p', 00H, 'a'
	DB	00H, 'i', 00H, 'r', 00H, '<', 00H, 'e', 00H, 'n', 00H, 'u', 00H
	DB	'm', 00H, ' ', 00H, 'S', 00H, 'D', 00H, 'L', 00H, '_', 00H, 'S'
	DB	00H, 'c', 00H, 'a', 00H, 'n', 00H, 'c', 00H, 'o', 00H, 'd', 00H
	DB	'e', 00H, ' ', 00H, 'c', 00H, 'o', 00H, 'n', 00H, 's', 00H, 't'
	DB	00H, ' ', 00H, ',', 00H, 'b', 00H, 'o', 00H, 'o', 00H, 'l', 00H
	DB	'>', 00H, ' ', 00H, '>', 00H, ' ', 00H, '>', 00H, ' ', 00H, '>'
	DB	00H, ':', 00H, ':', 00H, 'o', 00H, 'p', 00H, 'e', 00H, 'r', 00H
	DB	'a', 00H, 't', 00H, 'o', 00H, 'r', 00H, ' ', 00H, '*', 00H, 00H
	DB	00H						; `string'
CONST	ENDS
;	COMDAT ??_C@_1FG@IBPIFFN@?$AA?$CC?$AAS?$AAt?$AAa?$AAn?$AAd?$AAa?$AAr?$AAd?$AA?5?$AAC?$AA?$CL?$AA?$CL?$AA?5?$AAL?$AAi?$AAb?$AAr?$AAa?$AAr?$AAi?$AAe?$AAs?$AA?5?$AAO?$AAu?$AAt?$AA?5?$AAo?$AAf?$AA?5?$AAR@
CONST	SEGMENT
??_C@_1FG@IBPIFFN@?$AA?$CC?$AAS?$AAt?$AAa?$AAn?$AAd?$AAa?$AAr?$AAd?$AA?5?$AAC?$AA?$CL?$AA?$CL?$AA?5?$AAL?$AAi?$AAb?$AAr?$AAa?$AAr?$AAi?$AAe?$AAs?$AA?5?$AAO?$AAu?$AAt?$AA?5?$AAo?$AAf?$AA?5?$AAR@ DB '"'
	DB	00H, 'S', 00H, 't', 00H, 'a', 00H, 'n', 00H, 'd', 00H, 'a', 00H
	DB	'r', 00H, 'd', 00H, ' ', 00H, 'C', 00H, '+', 00H, '+', 00H, ' '
	DB	00H, 'L', 00H, 'i', 00H, 'b', 00H, 'r', 00H, 'a', 00H, 'r', 00H
	DB	'i', 00H, 'e', 00H, 's', 00H, ' ', 00H, 'O', 00H, 'u', 00H, 't'
	DB	00H, ' ', 00H, 'o', 00H, 'f', 00H, ' ', 00H, 'R', 00H, 'a', 00H
	DB	'n', 00H, 'g', 00H, 'e', 00H, '"', 00H, ' ', 00H, '&', 00H, '&'
	DB	00H, ' ', 00H, '0', 00H, 00H, 00H		; `string'
CONST	ENDS
;	COMDAT ??_C@_0CE@OFMIGAMM@Standard?5C?$CL?$CL?5Libraries?5Out?5of?5Ra@
CONST	SEGMENT
??_C@_0CE@OFMIGAMM@Standard?5C?$CL?$CL?5Libraries?5Out?5of?5Ra@ DB 'Stand'
	DB	'ard C++ Libraries Out of Range', 00H	; `string'
CONST	ENDS
;	COMDAT ??_C@_1EI@FHEHNNNM@?$AAm?$AAa?$AAp?$AA?1?$AAs?$AAe?$AAt?$AA?5?$AAi?$AAt?$AAe?$AAr?$AAa?$AAt?$AAo?$AAr?$AA?5?$AAn?$AAo?$AAt?$AA?5?$AAd?$AAe?$AAr?$AAe?$AAf?$AAe?$AAr?$AAe?$AAn?$AAc?$AAa@
CONST	SEGMENT
??_C@_1EI@FHEHNNNM@?$AAm?$AAa?$AAp?$AA?1?$AAs?$AAe?$AAt?$AA?5?$AAi?$AAt?$AAe?$AAr?$AAa?$AAt?$AAo?$AAr?$AA?5?$AAn?$AAo?$AAt?$AA?5?$AAd?$AAe?$AAr?$AAe?$AAf?$AAe?$AAr?$AAe?$AAn?$AAc?$AAa@ DB 'm'
	DB	00H, 'a', 00H, 'p', 00H, '/', 00H, 's', 00H, 'e', 00H, 't', 00H
	DB	' ', 00H, 'i', 00H, 't', 00H, 'e', 00H, 'r', 00H, 'a', 00H, 't'
	DB	00H, 'o', 00H, 'r', 00H, ' ', 00H, 'n', 00H, 'o', 00H, 't', 00H
	DB	' ', 00H, 'd', 00H, 'e', 00H, 'r', 00H, 'e', 00H, 'f', 00H, 'e'
	DB	00H, 'r', 00H, 'e', 00H, 'n', 00H, 'c', 00H, 'a', 00H, 'b', 00H
	DB	'l', 00H, 'e', 00H, 00H, 00H			; `string'
CONST	ENDS
;	COMDAT ??_C@_1CG@JNLFBNGN@?$AA?$CC?$AAi?$AAn?$AAv?$AAa?$AAl?$AAi?$AAd?$AA?5?$AAa?$AAr?$AAg?$AAu?$AAm?$AAe?$AAn?$AAt?$AA?$CC?$AA?$AA@
CONST	SEGMENT
??_C@_1CG@JNLFBNGN@?$AA?$CC?$AAi?$AAn?$AAv?$AAa?$AAl?$AAi?$AAd?$AA?5?$AAa?$AAr?$AAg?$AAu?$AAm?$AAe?$AAn?$AAt?$AA?$CC?$AA?$AA@ DB '"'
	DB	00H, 'i', 00H, 'n', 00H, 'v', 00H, 'a', 00H, 'l', 00H, 'i', 00H
	DB	'd', 00H, ' ', 00H, 'a', 00H, 'r', 00H, 'g', 00H, 'u', 00H, 'm'
	DB	00H, 'e', 00H, 'n', 00H, 't', 00H, '"', 00H, 00H, 00H ; `string'
CONST	ENDS
;	COMDAT ??_C@_1BCC@CENCGII@?$AAs?$AAt?$AAd?$AA?3?$AA?3?$AA_?$AAT?$AAr?$AAe?$AAe?$AA_?$AAc?$AAo?$AAn?$AAs?$AAt?$AA_?$AAi?$AAt?$AAe?$AAr?$AAa?$AAt?$AAo?$AAr?$AA?$DM?$AAc?$AAl?$AAa?$AAs?$AAs?$AA?5@
CONST	SEGMENT
??_C@_1BCC@CENCGII@?$AAs?$AAt?$AAd?$AA?3?$AA?3?$AA_?$AAT?$AAr?$AAe?$AAe?$AA_?$AAc?$AAo?$AAn?$AAs?$AAt?$AA_?$AAi?$AAt?$AAe?$AAr?$AAa?$AAt?$AAo?$AAr?$AA?$DM?$AAc?$AAl?$AAa?$AAs?$AAs?$AA?5@ DB 's'
	DB	00H, 't', 00H, 'd', 00H, ':', 00H, ':', 00H, '_', 00H, 'T', 00H
	DB	'r', 00H, 'e', 00H, 'e', 00H, '_', 00H, 'c', 00H, 'o', 00H, 'n'
	DB	00H, 's', 00H, 't', 00H, '_', 00H, 'i', 00H, 't', 00H, 'e', 00H
	DB	'r', 00H, 'a', 00H, 't', 00H, 'o', 00H, 'r', 00H, '<', 00H, 'c'
	DB	00H, 'l', 00H, 'a', 00H, 's', 00H, 's', 00H, ' ', 00H, 's', 00H
	DB	't', 00H, 'd', 00H, ':', 00H, ':', 00H, '_', 00H, 'T', 00H, 'r'
	DB	00H, 'e', 00H, 'e', 00H, '_', 00H, 'v', 00H, 'a', 00H, 'l', 00H
	DB	'<', 00H, 's', 00H, 't', 00H, 'r', 00H, 'u', 00H, 'c', 00H, 't'
	DB	00H, ' ', 00H, 's', 00H, 't', 00H, 'd', 00H, ':', 00H, ':', 00H
	DB	'_', 00H, 'T', 00H, 'r', 00H, 'e', 00H, 'e', 00H, '_', 00H, 's'
	DB	00H, 'i', 00H, 'm', 00H, 'p', 00H, 'l', 00H, 'e', 00H, '_', 00H
	DB	't', 00H, 'y', 00H, 'p', 00H, 'e', 00H, 's', 00H, '<', 00H, 's'
	DB	00H, 't', 00H, 'r', 00H, 'u', 00H, 'c', 00H, 't', 00H, ' ', 00H
	DB	's', 00H, 't', 00H, 'd', 00H, ':', 00H, ':', 00H, 'p', 00H, 'a'
	DB	00H, 'i', 00H, 'r', 00H, '<', 00H, 'e', 00H, 'n', 00H, 'u', 00H
	DB	'm', 00H, ' ', 00H, 'S', 00H, 'D', 00H, 'L', 00H, '_', 00H, 'S'
	DB	00H, 'c', 00H, 'a', 00H, 'n', 00H, 'c', 00H, 'o', 00H, 'd', 00H
	DB	'e', 00H, ' ', 00H, 'c', 00H, 'o', 00H, 'n', 00H, 's', 00H, 't'
	DB	00H, ' ', 00H, ',', 00H, 'b', 00H, 'o', 00H, 'o', 00H, 'l', 00H
	DB	'>', 00H, ' ', 00H, '>', 00H, ' ', 00H, '>', 00H, ' ', 00H, '>'
	DB	00H, ':', 00H, ':', 00H, 'o', 00H, 'p', 00H, 'e', 00H, 'r', 00H
	DB	'a', 00H, 't', 00H, 'o', 00H, 'r', 00H, ' ', 00H, '=', 00H, '='
	DB	00H, 00H, 00H				; `string'
CONST	ENDS
;	COMDAT ??_C@_15GANGMFKL@?$AA?$CF?$AAs?$AA?$AA@
CONST	SEGMENT
??_C@_15GANGMFKL@?$AA?$CF?$AAs?$AA?$AA@ DB '%', 00H, 's', 00H, 00H, 00H ; `string'
CONST	ENDS
;	COMDAT ??_C@_1FO@GJIHNDLM@?$AA?$CC?$AAS?$AAt?$AAa?$AAn?$AAd?$AAa?$AAr?$AAd?$AA?5?$AAC?$AA?$CL?$AA?$CL?$AA?5?$AAL?$AAi?$AAb?$AAr?$AAa?$AAr?$AAi?$AAe?$AAs?$AA?5?$AAI?$AAn?$AAv?$AAa?$AAl?$AAi?$AAd?$AA?5@
CONST	SEGMENT
??_C@_1FO@GJIHNDLM@?$AA?$CC?$AAS?$AAt?$AAa?$AAn?$AAd?$AAa?$AAr?$AAd?$AA?5?$AAC?$AA?$CL?$AA?$CL?$AA?5?$AAL?$AAi?$AAb?$AAr?$AAa?$AAr?$AAi?$AAe?$AAs?$AA?5?$AAI?$AAn?$AAv?$AAa?$AAl?$AAi?$AAd?$AA?5@ DB '"'
	DB	00H, 'S', 00H, 't', 00H, 'a', 00H, 'n', 00H, 'd', 00H, 'a', 00H
	DB	'r', 00H, 'd', 00H, ' ', 00H, 'C', 00H, '+', 00H, '+', 00H, ' '
	DB	00H, 'L', 00H, 'i', 00H, 'b', 00H, 'r', 00H, 'a', 00H, 'r', 00H
	DB	'i', 00H, 'e', 00H, 's', 00H, ' ', 00H, 'I', 00H, 'n', 00H, 'v'
	DB	00H, 'a', 00H, 'l', 00H, 'i', 00H, 'd', 00H, ' ', 00H, 'A', 00H
	DB	'r', 00H, 'g', 00H, 'u', 00H, 'm', 00H, 'e', 00H, 'n', 00H, 't'
	DB	00H, '"', 00H, ' ', 00H, '&', 00H, '&', 00H, ' ', 00H, '0', 00H
	DB	00H, 00H					; `string'
CONST	ENDS
;	COMDAT ??_C@_0CI@FNPHFCCM@Standard?5C?$CL?$CL?5Libraries?5Invalid?5A@
CONST	SEGMENT
??_C@_0CI@FNPHFCCM@Standard?5C?$CL?$CL?5Libraries?5Invalid?5A@ DB 'Standa'
	DB	'rd C++ Libraries Invalid Argument', 00H	; `string'
CONST	ENDS
;	COMDAT ??_C@_1DO@CFEEPGGJ@?$AAm?$AAa?$AAp?$AA?1?$AAs?$AAe?$AAt?$AA?5?$AAi?$AAt?$AAe?$AAr?$AAa?$AAt?$AAo?$AAr?$AAs?$AA?5?$AAi?$AAn?$AAc?$AAo?$AAm?$AAp?$AAa?$AAt?$AAi?$AAb?$AAl?$AAe?$AA?$AA@
CONST	SEGMENT
??_C@_1DO@CFEEPGGJ@?$AAm?$AAa?$AAp?$AA?1?$AAs?$AAe?$AAt?$AA?5?$AAi?$AAt?$AAe?$AAr?$AAa?$AAt?$AAo?$AAr?$AAs?$AA?5?$AAi?$AAn?$AAc?$AAo?$AAm?$AAp?$AAa?$AAt?$AAi?$AAb?$AAl?$AAe?$AA?$AA@ DB 'm'
	DB	00H, 'a', 00H, 'p', 00H, '/', 00H, 's', 00H, 'e', 00H, 't', 00H
	DB	' ', 00H, 'i', 00H, 't', 00H, 'e', 00H, 'r', 00H, 'a', 00H, 't'
	DB	00H, 'o', 00H, 'r', 00H, 's', 00H, ' ', 00H, 'i', 00H, 'n', 00H
	DB	'c', 00H, 'o', 00H, 'm', 00H, 'p', 00H, 'a', 00H, 't', 00H, 'i'
	DB	00H, 'b', 00H, 'l', 00H, 'e', 00H, 00H, 00H	; `string'
CONST	ENDS
;	COMDAT ??_C@_1IK@HBAODOLH@?$AAc?$AA?3?$AA?2?$AAp?$AAr?$AAo?$AAg?$AAr?$AAa?$AAm?$AA?5?$AAf?$AAi?$AAl?$AAe?$AAs?$AA?5?$AA?$CI?$AAx?$AA8?$AA6?$AA?$CJ?$AA?2?$AAm?$AAi?$AAc?$AAr?$AAo?$AAs?$AAo?$AAf?$AAt@
CONST	SEGMENT
??_C@_1IK@HBAODOLH@?$AAc?$AA?3?$AA?2?$AAp?$AAr?$AAo?$AAg?$AAr?$AAa?$AAm?$AA?5?$AAf?$AAi?$AAl?$AAe?$AAs?$AA?5?$AA?$CI?$AAx?$AA8?$AA6?$AA?$CJ?$AA?2?$AAm?$AAi?$AAc?$AAr?$AAo?$AAs?$AAo?$AAf?$AAt@ DB 'c'
	DB	00H, ':', 00H, '\', 00H, 'p', 00H, 'r', 00H, 'o', 00H, 'g', 00H
	DB	'r', 00H, 'a', 00H, 'm', 00H, ' ', 00H, 'f', 00H, 'i', 00H, 'l'
	DB	00H, 'e', 00H, 's', 00H, ' ', 00H, '(', 00H, 'x', 00H, '8', 00H
	DB	'6', 00H, ')', 00H, '\', 00H, 'm', 00H, 'i', 00H, 'c', 00H, 'r'
	DB	00H, 'o', 00H, 's', 00H, 'o', 00H, 'f', 00H, 't', 00H, ' ', 00H
	DB	'v', 00H, 'i', 00H, 's', 00H, 'u', 00H, 'a', 00H, 'l', 00H, ' '
	DB	00H, 's', 00H, 't', 00H, 'u', 00H, 'd', 00H, 'i', 00H, 'o', 00H
	DB	' ', 00H, '1', 00H, '2', 00H, '.', 00H, '0', 00H, '\', 00H, 'v'
	DB	00H, 'c', 00H, '\', 00H, 'i', 00H, 'n', 00H, 'c', 00H, 'l', 00H
	DB	'u', 00H, 'd', 00H, 'e', 00H, '\', 00H, 'x', 00H, 't', 00H, 'r'
	DB	00H, 'e', 00H, 'e', 00H, 00H, 00H		; `string'
CONST	ENDS
;	COMDAT ??_C@_1DC@POOIKBAO@?$AAI?$AAT?$AAE?$AAR?$AAA?$AAT?$AAO?$AAR?$AA?5?$AAL?$AAI?$AAS?$AAT?$AA?5?$AAC?$AAO?$AAR?$AAR?$AAU?$AAP?$AAT?$AAE?$AAD?$AA?$CB?$AA?$AA@
CONST	SEGMENT
??_C@_1DC@POOIKBAO@?$AAI?$AAT?$AAE?$AAR?$AAA?$AAT?$AAO?$AAR?$AA?5?$AAL?$AAI?$AAS?$AAT?$AA?5?$AAC?$AAO?$AAR?$AAR?$AAU?$AAP?$AAT?$AAE?$AAD?$AA?$CB?$AA?$AA@ DB 'I'
	DB	00H, 'T', 00H, 'E', 00H, 'R', 00H, 'A', 00H, 'T', 00H, 'O', 00H
	DB	'R', 00H, ' ', 00H, 'L', 00H, 'I', 00H, 'S', 00H, 'T', 00H, ' '
	DB	00H, 'C', 00H, 'O', 00H, 'R', 00H, 'R', 00H, 'U', 00H, 'P', 00H
	DB	'T', 00H, 'E', 00H, 'D', 00H, '!', 00H, 00H, 00H ; `string'
CONST	ENDS
;	COMDAT ??_C@_1JA@EKKHPHED@?$AAc?$AA?3?$AA?2?$AAp?$AAr?$AAo?$AAg?$AAr?$AAa?$AAm?$AA?5?$AAf?$AAi?$AAl?$AAe?$AAs?$AA?5?$AA?$CI?$AAx?$AA8?$AA6?$AA?$CJ?$AA?2?$AAm?$AAi?$AAc?$AAr?$AAo?$AAs?$AAo?$AAf?$AAt@
CONST	SEGMENT
??_C@_1JA@EKKHPHED@?$AAc?$AA?3?$AA?2?$AAp?$AAr?$AAo?$AAg?$AAr?$AAa?$AAm?$AA?5?$AAf?$AAi?$AAl?$AAe?$AAs?$AA?5?$AA?$CI?$AAx?$AA8?$AA6?$AA?$CJ?$AA?2?$AAm?$AAi?$AAc?$AAr?$AAo?$AAs?$AAo?$AAf?$AAt@ DB 'c'
	DB	00H, ':', 00H, '\', 00H, 'p', 00H, 'r', 00H, 'o', 00H, 'g', 00H
	DB	'r', 00H, 'a', 00H, 'm', 00H, ' ', 00H, 'f', 00H, 'i', 00H, 'l'
	DB	00H, 'e', 00H, 's', 00H, ' ', 00H, '(', 00H, 'x', 00H, '8', 00H
	DB	'6', 00H, ')', 00H, '\', 00H, 'm', 00H, 'i', 00H, 'c', 00H, 'r'
	DB	00H, 'o', 00H, 's', 00H, 'o', 00H, 'f', 00H, 't', 00H, ' ', 00H
	DB	'v', 00H, 'i', 00H, 's', 00H, 'u', 00H, 'a', 00H, 'l', 00H, ' '
	DB	00H, 's', 00H, 't', 00H, 'u', 00H, 'd', 00H, 'i', 00H, 'o', 00H
	DB	' ', 00H, '1', 00H, '2', 00H, '.', 00H, '0', 00H, '\', 00H, 'v'
	DB	00H, 'c', 00H, '\', 00H, 'i', 00H, 'n', 00H, 'c', 00H, 'l', 00H
	DB	'u', 00H, 'd', 00H, 'e', 00H, '\', 00H, 'x', 00H, 'u', 00H, 't'
	DB	00H, 'i', 00H, 'l', 00H, 'i', 00H, 't', 00H, 'y', 00H, 00H, 00H ; `string'
CONST	ENDS
;	COMDAT xdata$x
xdata$x	SEGMENT
__unwindtable$??$construct@PAU?$_Tree_node@U?$pair@$$CBW4SDL_Scancode@@_N@std@@PAX@std@@AAPAU12@@?$allocator@U?$_Tree_node@U?$pair@$$CBW4SDL_Scancode@@_N@std@@PAX@std@@@std@@QAEXPAPAU?$_Tree_node@U?$pair@$$CBW4SDL_Scancode@@_N@std@@PAX@1@AAPAU21@@Z DD 0ffffffffH
	DD	FLAT:__unwindfunclet$??$construct@PAU?$_Tree_node@U?$pair@$$CBW4SDL_Scancode@@_N@std@@PAX@std@@AAPAU12@@?$allocator@U?$_Tree_node@U?$pair@$$CBW4SDL_Scancode@@_N@std@@PAX@std@@@std@@QAEXPAPAU?$_Tree_node@U?$pair@$$CBW4SDL_Scancode@@_N@std@@PAX@1@AAPAU21@@Z$0
__ehfuncinfo$??$construct@PAU?$_Tree_node@U?$pair@$$CBW4SDL_Scancode@@_N@std@@PAX@std@@AAPAU12@@?$allocator@U?$_Tree_node@U?$pair@$$CBW4SDL_Scancode@@_N@std@@PAX@std@@@std@@QAEXPAPAU?$_Tree_node@U?$pair@$$CBW4SDL_Scancode@@_N@std@@PAX@1@AAPAU21@@Z DD 019930522H
	DD	01H
	DD	FLAT:__unwindtable$??$construct@PAU?$_Tree_node@U?$pair@$$CBW4SDL_Scancode@@_N@std@@PAX@std@@AAPAU12@@?$allocator@U?$_Tree_node@U?$pair@$$CBW4SDL_Scancode@@_N@std@@PAX@std@@@std@@QAEXPAPAU?$_Tree_node@U?$pair@$$CBW4SDL_Scancode@@_N@std@@PAX@1@AAPAU21@@Z
	DD	2 DUP(00H)
	DD	2 DUP(00H)
	DD	00H
	DD	01H
xdata$x	ENDS
;	COMDAT xdata$x
xdata$x	SEGMENT
__unwindtable$??$construct@U?$pair@$$CBW4SDL_Scancode@@_N@std@@ABUpiecewise_construct_t@2@V?$tuple@ABW4SDL_Scancode@@@2@V?$tuple@$$$V@2@@?$allocator@U?$_Tree_node@U?$pair@$$CBW4SDL_Scancode@@_N@std@@PAX@std@@@std@@QAEXPAU?$pair@$$CBW4SDL_Scancode@@_N@1@ABUpiecewise_construct_t@1@$$QAV?$tuple@ABW4SDL_Scancode@@@1@$$QAV?$tuple@$$$V@1@@Z DD 0ffffffffH
	DD	FLAT:__unwindfunclet$??$construct@U?$pair@$$CBW4SDL_Scancode@@_N@std@@ABUpiecewise_construct_t@2@V?$tuple@ABW4SDL_Scancode@@@2@V?$tuple@$$$V@2@@?$allocator@U?$_Tree_node@U?$pair@$$CBW4SDL_Scancode@@_N@std@@PAX@std@@@std@@QAEXPAU?$pair@$$CBW4SDL_Scancode@@_N@1@ABUpiecewise_construct_t@1@$$QAV?$tuple@ABW4SDL_Scancode@@@1@$$QAV?$tuple@$$$V@1@@Z$0
__ehfuncinfo$??$construct@U?$pair@$$CBW4SDL_Scancode@@_N@std@@ABUpiecewise_construct_t@2@V?$tuple@ABW4SDL_Scancode@@@2@V?$tuple@$$$V@2@@?$allocator@U?$_Tree_node@U?$pair@$$CBW4SDL_Scancode@@_N@std@@PAX@std@@@std@@QAEXPAU?$pair@$$CBW4SDL_Scancode@@_N@1@ABUpiecewise_construct_t@1@$$QAV?$tuple@ABW4SDL_Scancode@@@1@$$QAV?$tuple@$$$V@1@@Z DD 019930522H
	DD	01H
	DD	FLAT:__unwindtable$??$construct@U?$pair@$$CBW4SDL_Scancode@@_N@std@@ABUpiecewise_construct_t@2@V?$tuple@ABW4SDL_Scancode@@@2@V?$tuple@$$$V@2@@?$allocator@U?$_Tree_node@U?$pair@$$CBW4SDL_Scancode@@_N@std@@PAX@std@@@std@@QAEXPAU?$pair@$$CBW4SDL_Scancode@@_N@1@ABUpiecewise_construct_t@1@$$QAV?$tuple@ABW4SDL_Scancode@@@1@$$QAV?$tuple@$$$V@1@@Z
	DD	2 DUP(00H)
	DD	2 DUP(00H)
	DD	00H
	DD	01H
xdata$x	ENDS
;	COMDAT xdata$x
xdata$x	SEGMENT
__unwindtable$??$?0AAV?$_Tree_iterator@V?$_Tree_val@U?$_Tree_simple_types@U?$pair@$$CBW4SDL_Scancode@@_N@std@@@std@@@std@@@std@@_NX@?$pair@V?$_Tree_iterator@V?$_Tree_val@U?$_Tree_simple_types@U?$pair@$$CBW4SDL_Scancode@@_N@std@@@std@@@std@@@std@@_N@std@@QAE@AAV?$_Tree_iterator@V?$_Tree_val@U?$_Tree_simple_types@U?$pair@$$CBW4SDL_Scancode@@_N@std@@@std@@@std@@@1@$$QA_N@Z DD 0ffffffffH
	DD	FLAT:__unwindfunclet$??$?0AAV?$_Tree_iterator@V?$_Tree_val@U?$_Tree_simple_types@U?$pair@$$CBW4SDL_Scancode@@_N@std@@@std@@@std@@@std@@_NX@?$pair@V?$_Tree_iterator@V?$_Tree_val@U?$_Tree_simple_types@U?$pair@$$CBW4SDL_Scancode@@_N@std@@@std@@@std@@@std@@_N@std@@QAE@AAV?$_Tree_iterator@V?$_Tree_val@U?$_Tree_simple_types@U?$pair@$$CBW4SDL_Scancode@@_N@std@@@std@@@std@@@1@$$QA_N@Z$0
__ehfuncinfo$??$?0AAV?$_Tree_iterator@V?$_Tree_val@U?$_Tree_simple_types@U?$pair@$$CBW4SDL_Scancode@@_N@std@@@std@@@std@@@std@@_NX@?$pair@V?$_Tree_iterator@V?$_Tree_val@U?$_Tree_simple_types@U?$pair@$$CBW4SDL_Scancode@@_N@std@@@std@@@std@@@std@@_N@std@@QAE@AAV?$_Tree_iterator@V?$_Tree_val@U?$_Tree_simple_types@U?$pair@$$CBW4SDL_Scancode@@_N@std@@@std@@@std@@@1@$$QA_N@Z DD 019930522H
	DD	01H
	DD	FLAT:__unwindtable$??$?0AAV?$_Tree_iterator@V?$_Tree_val@U?$_Tree_simple_types@U?$pair@$$CBW4SDL_Scancode@@_N@std@@@std@@@std@@@std@@_NX@?$pair@V?$_Tree_iterator@V?$_Tree_val@U?$_Tree_simple_types@U?$pair@$$CBW4SDL_Scancode@@_N@std@@@std@@@std@@@std@@_N@std@@QAE@AAV?$_Tree_iterator@V?$_Tree_val@U?$_Tree_simple_types@U?$pair@$$CBW4SDL_Scancode@@_N@std@@@std@@@std@@@1@$$QA_N@Z
	DD	2 DUP(00H)
	DD	2 DUP(00H)
	DD	00H
	DD	01H
xdata$x	ENDS
;	COMDAT xdata$x
xdata$x	SEGMENT
__unwindtable$??$?0V?$_Tree_iterator@V?$_Tree_val@U?$_Tree_simple_types@U?$pair@$$CBW4SDL_Scancode@@_N@std@@@std@@@std@@@std@@_NX@?$pair@V?$_Tree_iterator@V?$_Tree_val@U?$_Tree_simple_types@U?$pair@$$CBW4SDL_Scancode@@_N@std@@@std@@@std@@@std@@_N@std@@QAE@$$QAV?$_Tree_iterator@V?$_Tree_val@U?$_Tree_simple_types@U?$pair@$$CBW4SDL_Scancode@@_N@std@@@std@@@std@@@1@$$QA_N@Z DD 0ffffffffH
	DD	FLAT:__unwindfunclet$??$?0V?$_Tree_iterator@V?$_Tree_val@U?$_Tree_simple_types@U?$pair@$$CBW4SDL_Scancode@@_N@std@@@std@@@std@@@std@@_NX@?$pair@V?$_Tree_iterator@V?$_Tree_val@U?$_Tree_simple_types@U?$pair@$$CBW4SDL_Scancode@@_N@std@@@std@@@std@@@std@@_N@std@@QAE@$$QAV?$_Tree_iterator@V?$_Tree_val@U?$_Tree_simple_types@U?$pair@$$CBW4SDL_Scancode@@_N@std@@@std@@@std@@@1@$$QA_N@Z$0
__ehfuncinfo$??$?0V?$_Tree_iterator@V?$_Tree_val@U?$_Tree_simple_types@U?$pair@$$CBW4SDL_Scancode@@_N@std@@@std@@@std@@@std@@_NX@?$pair@V?$_Tree_iterator@V?$_Tree_val@U?$_Tree_simple_types@U?$pair@$$CBW4SDL_Scancode@@_N@std@@@std@@@std@@@std@@_N@std@@QAE@$$QAV?$_Tree_iterator@V?$_Tree_val@U?$_Tree_simple_types@U?$pair@$$CBW4SDL_Scancode@@_N@std@@@std@@@std@@@1@$$QA_N@Z DD 019930522H
	DD	01H
	DD	FLAT:__unwindtable$??$?0V?$_Tree_iterator@V?$_Tree_val@U?$_Tree_simple_types@U?$pair@$$CBW4SDL_Scancode@@_N@std@@@std@@@std@@@std@@_NX@?$pair@V?$_Tree_iterator@V?$_Tree_val@U?$_Tree_simple_types@U?$pair@$$CBW4SDL_Scancode@@_N@std@@@std@@@std@@@std@@_N@std@@QAE@$$QAV?$_Tree_iterator@V?$_Tree_val@U?$_Tree_simple_types@U?$pair@$$CBW4SDL_Scancode@@_N@std@@@std@@@std@@@1@$$QA_N@Z
	DD	2 DUP(00H)
	DD	2 DUP(00H)
	DD	00H
	DD	01H
xdata$x	ENDS
;	COMDAT xdata$x
xdata$x	SEGMENT
__catchsym$??$_Insert_nohint@AAU?$pair@$$CBW4SDL_Scancode@@_N@std@@PAU?$_Tree_node@U?$pair@$$CBW4SDL_Scancode@@_N@std@@PAX@2@@?$_Tree@V?$_Tmap_traits@W4SDL_Scancode@@_NU?$less@W4SDL_Scancode@@@std@@V?$allocator@U?$pair@$$CBW4SDL_Scancode@@_N@std@@@3@$0A@@std@@@std@@IAE?AU?$pair@V?$_Tree_iterator@V?$_Tree_val@U?$_Tree_simple_types@U?$pair@$$CBW4SDL_Scancode@@_N@std@@@std@@@std@@@std@@_N@1@_NAAU?$pair@$$CBW4SDL_Scancode@@_N@1@PAU?$_Tree_node@U?$pair@$$CBW4SDL_Scancode@@_N@std@@PAX@1@@Z$8 DD 040H
	DD	00H
	DD	00H
	DD	FLAT:__catch$??$_Insert_nohint@AAU?$pair@$$CBW4SDL_Scancode@@_N@std@@PAU?$_Tree_node@U?$pair@$$CBW4SDL_Scancode@@_N@std@@PAX@2@@?$_Tree@V?$_Tmap_traits@W4SDL_Scancode@@_NU?$less@W4SDL_Scancode@@@std@@V?$allocator@U?$pair@$$CBW4SDL_Scancode@@_N@std@@@3@$0A@@std@@@std@@IAE?AU?$pair@V?$_Tree_iterator@V?$_Tree_val@U?$_Tree_simple_types@U?$pair@$$CBW4SDL_Scancode@@_N@std@@@std@@@std@@@std@@_N@1@_NAAU?$pair@$$CBW4SDL_Scancode@@_N@1@PAU?$_Tree_node@U?$pair@$$CBW4SDL_Scancode@@_N@std@@PAX@1@@Z$0
__tryblocktable$??$_Insert_nohint@AAU?$pair@$$CBW4SDL_Scancode@@_N@std@@PAU?$_Tree_node@U?$pair@$$CBW4SDL_Scancode@@_N@std@@PAX@2@@?$_Tree@V?$_Tmap_traits@W4SDL_Scancode@@_NU?$less@W4SDL_Scancode@@@std@@V?$allocator@U?$pair@$$CBW4SDL_Scancode@@_N@std@@@3@$0A@@std@@@std@@IAE?AU?$pair@V?$_Tree_iterator@V?$_Tree_val@U?$_Tree_simple_types@U?$pair@$$CBW4SDL_Scancode@@_N@std@@@std@@@std@@@std@@_N@1@_NAAU?$pair@$$CBW4SDL_Scancode@@_N@1@PAU?$_Tree_node@U?$pair@$$CBW4SDL_Scancode@@_N@std@@PAX@1@@Z DD 00H
	DD	05H
	DD	06H
	DD	01H
	DD	FLAT:__catchsym$??$_Insert_nohint@AAU?$pair@$$CBW4SDL_Scancode@@_N@std@@PAU?$_Tree_node@U?$pair@$$CBW4SDL_Scancode@@_N@std@@PAX@2@@?$_Tree@V?$_Tmap_traits@W4SDL_Scancode@@_NU?$less@W4SDL_Scancode@@@std@@V?$allocator@U?$pair@$$CBW4SDL_Scancode@@_N@std@@@3@$0A@@std@@@std@@IAE?AU?$pair@V?$_Tree_iterator@V?$_Tree_val@U?$_Tree_simple_types@U?$pair@$$CBW4SDL_Scancode@@_N@std@@@std@@@std@@@std@@_N@1@_NAAU?$pair@$$CBW4SDL_Scancode@@_N@1@PAU?$_Tree_node@U?$pair@$$CBW4SDL_Scancode@@_N@std@@PAX@1@@Z$8
__ehfuncinfo$??$_Insert_nohint@AAU?$pair@$$CBW4SDL_Scancode@@_N@std@@PAU?$_Tree_node@U?$pair@$$CBW4SDL_Scancode@@_N@std@@PAX@2@@?$_Tree@V?$_Tmap_traits@W4SDL_Scancode@@_NU?$less@W4SDL_Scancode@@@std@@V?$allocator@U?$pair@$$CBW4SDL_Scancode@@_N@std@@@3@$0A@@std@@@std@@IAE?AU?$pair@V?$_Tree_iterator@V?$_Tree_val@U?$_Tree_simple_types@U?$pair@$$CBW4SDL_Scancode@@_N@std@@@std@@@std@@@std@@_N@1@_NAAU?$pair@$$CBW4SDL_Scancode@@_N@1@PAU?$_Tree_node@U?$pair@$$CBW4SDL_Scancode@@_N@std@@PAX@1@@Z DD 019930522H
	DD	07H
	DD	FLAT:__unwindtable$??$_Insert_nohint@AAU?$pair@$$CBW4SDL_Scancode@@_N@std@@PAU?$_Tree_node@U?$pair@$$CBW4SDL_Scancode@@_N@std@@PAX@2@@?$_Tree@V?$_Tmap_traits@W4SDL_Scancode@@_NU?$less@W4SDL_Scancode@@@std@@V?$allocator@U?$pair@$$CBW4SDL_Scancode@@_N@std@@@3@$0A@@std@@@std@@IAE?AU?$pair@V?$_Tree_iterator@V?$_Tree_val@U?$_Tree_simple_types@U?$pair@$$CBW4SDL_Scancode@@_N@std@@@std@@@std@@@std@@_N@1@_NAAU?$pair@$$CBW4SDL_Scancode@@_N@1@PAU?$_Tree_node@U?$pair@$$CBW4SDL_Scancode@@_N@std@@PAX@1@@Z
	DD	01H
	DD	FLAT:__tryblocktable$??$_Insert_nohint@AAU?$pair@$$CBW4SDL_Scancode@@_N@std@@PAU?$_Tree_node@U?$pair@$$CBW4SDL_Scancode@@_N@std@@PAX@2@@?$_Tree@V?$_Tmap_traits@W4SDL_Scancode@@_NU?$less@W4SDL_Scancode@@@std@@V?$allocator@U?$pair@$$CBW4SDL_Scancode@@_N@std@@@3@$0A@@std@@@std@@IAE?AU?$pair@V?$_Tree_iterator@V?$_Tree_val@U?$_Tree_simple_types@U?$pair@$$CBW4SDL_Scancode@@_N@std@@@std@@@std@@@std@@_N@1@_NAAU?$pair@$$CBW4SDL_Scancode@@_N@1@PAU?$_Tree_node@U?$pair@$$CBW4SDL_Scancode@@_N@std@@PAX@1@@Z
	DD	2 DUP(00H)
	DD	00H
	DD	01H
__unwindtable$??$_Insert_nohint@AAU?$pair@$$CBW4SDL_Scancode@@_N@std@@PAU?$_Tree_node@U?$pair@$$CBW4SDL_Scancode@@_N@std@@PAX@2@@?$_Tree@V?$_Tmap_traits@W4SDL_Scancode@@_NU?$less@W4SDL_Scancode@@@std@@V?$allocator@U?$pair@$$CBW4SDL_Scancode@@_N@std@@@3@$0A@@std@@@std@@IAE?AU?$pair@V?$_Tree_iterator@V?$_Tree_val@U?$_Tree_simple_types@U?$pair@$$CBW4SDL_Scancode@@_N@std@@@std@@@std@@@std@@_N@1@_NAAU?$pair@$$CBW4SDL_Scancode@@_N@1@PAU?$_Tree_node@U?$pair@$$CBW4SDL_Scancode@@_N@std@@PAX@1@@Z DD 0ffffffffH
	DD	00H
	DD	00H
	DD	FLAT:__unwindfunclet$??$_Insert_nohint@AAU?$pair@$$CBW4SDL_Scancode@@_N@std@@PAU?$_Tree_node@U?$pair@$$CBW4SDL_Scancode@@_N@std@@PAX@2@@?$_Tree@V?$_Tmap_traits@W4SDL_Scancode@@_NU?$less@W4SDL_Scancode@@@std@@V?$allocator@U?$pair@$$CBW4SDL_Scancode@@_N@std@@@3@$0A@@std@@@std@@IAE?AU?$pair@V?$_Tree_iterator@V?$_Tree_val@U?$_Tree_simple_types@U?$pair@$$CBW4SDL_Scancode@@_N@std@@@std@@@std@@@std@@_N@1@_NAAU?$pair@$$CBW4SDL_Scancode@@_N@1@PAU?$_Tree_node@U?$pair@$$CBW4SDL_Scancode@@_N@std@@PAX@1@@Z$2
	DD	00H
	DD	FLAT:__unwindfunclet$??$_Insert_nohint@AAU?$pair@$$CBW4SDL_Scancode@@_N@std@@PAU?$_Tree_node@U?$pair@$$CBW4SDL_Scancode@@_N@std@@PAX@2@@?$_Tree@V?$_Tmap_traits@W4SDL_Scancode@@_NU?$less@W4SDL_Scancode@@@std@@V?$allocator@U?$pair@$$CBW4SDL_Scancode@@_N@std@@@3@$0A@@std@@@std@@IAE?AU?$pair@V?$_Tree_iterator@V?$_Tree_val@U?$_Tree_simple_types@U?$pair@$$CBW4SDL_Scancode@@_N@std@@@std@@@std@@@std@@_N@1@_NAAU?$pair@$$CBW4SDL_Scancode@@_N@1@PAU?$_Tree_node@U?$pair@$$CBW4SDL_Scancode@@_N@std@@PAX@1@@Z$4
	DD	02H
	DD	FLAT:__unwindfunclet$??$_Insert_nohint@AAU?$pair@$$CBW4SDL_Scancode@@_N@std@@PAU?$_Tree_node@U?$pair@$$CBW4SDL_Scancode@@_N@std@@PAX@2@@?$_Tree@V?$_Tmap_traits@W4SDL_Scancode@@_NU?$less@W4SDL_Scancode@@@std@@V?$allocator@U?$pair@$$CBW4SDL_Scancode@@_N@std@@@3@$0A@@std@@@std@@IAE?AU?$pair@V?$_Tree_iterator@V?$_Tree_val@U?$_Tree_simple_types@U?$pair@$$CBW4SDL_Scancode@@_N@std@@@std@@@std@@@std@@_N@1@_NAAU?$pair@$$CBW4SDL_Scancode@@_N@1@PAU?$_Tree_node@U?$pair@$$CBW4SDL_Scancode@@_N@std@@PAX@1@@Z$5
	DD	02H
	DD	FLAT:__unwindfunclet$??$_Insert_nohint@AAU?$pair@$$CBW4SDL_Scancode@@_N@std@@PAU?$_Tree_node@U?$pair@$$CBW4SDL_Scancode@@_N@std@@PAX@2@@?$_Tree@V?$_Tmap_traits@W4SDL_Scancode@@_NU?$less@W4SDL_Scancode@@@std@@V?$allocator@U?$pair@$$CBW4SDL_Scancode@@_N@std@@@3@$0A@@std@@@std@@IAE?AU?$pair@V?$_Tree_iterator@V?$_Tree_val@U?$_Tree_simple_types@U?$pair@$$CBW4SDL_Scancode@@_N@std@@@std@@@std@@@std@@_N@1@_NAAU?$pair@$$CBW4SDL_Scancode@@_N@1@PAU?$_Tree_node@U?$pair@$$CBW4SDL_Scancode@@_N@std@@PAX@1@@Z$6
	DD	02H
	DD	FLAT:__unwindfunclet$??$_Insert_nohint@AAU?$pair@$$CBW4SDL_Scancode@@_N@std@@PAU?$_Tree_node@U?$pair@$$CBW4SDL_Scancode@@_N@std@@PAX@2@@?$_Tree@V?$_Tmap_traits@W4SDL_Scancode@@_NU?$less@W4SDL_Scancode@@@std@@V?$allocator@U?$pair@$$CBW4SDL_Scancode@@_N@std@@@3@$0A@@std@@@std@@IAE?AU?$pair@V?$_Tree_iterator@V?$_Tree_val@U?$_Tree_simple_types@U?$pair@$$CBW4SDL_Scancode@@_N@std@@@std@@@std@@@std@@_N@1@_NAAU?$pair@$$CBW4SDL_Scancode@@_N@1@PAU?$_Tree_node@U?$pair@$$CBW4SDL_Scancode@@_N@std@@PAX@1@@Z$7
	DD	0ffffffffH
	DD	00H
xdata$x	ENDS
;	COMDAT xdata$x
xdata$x	SEGMENT
__catchsym$??$_Insert_hint@AAU?$pair@$$CBW4SDL_Scancode@@_N@std@@PAU?$_Tree_node@U?$pair@$$CBW4SDL_Scancode@@_N@std@@PAX@2@@?$_Tree@V?$_Tmap_traits@W4SDL_Scancode@@_NU?$less@W4SDL_Scancode@@@std@@V?$allocator@U?$pair@$$CBW4SDL_Scancode@@_N@std@@@3@$0A@@std@@@std@@IAE?AV?$_Tree_iterator@V?$_Tree_val@U?$_Tree_simple_types@U?$pair@$$CBW4SDL_Scancode@@_N@std@@@std@@@std@@@1@V?$_Tree_const_iterator@V?$_Tree_val@U?$_Tree_simple_types@U?$pair@$$CBW4SDL_Scancode@@_N@std@@@std@@@std@@@1@AAU?$pair@$$CBW4SDL_Scancode@@_N@1@PAU?$_Tree_node@U?$pair@$$CBW4SDL_Scancode@@_N@std@@PAX@1@@Z$12 DD 040H
	DD	00H
	DD	00H
	DD	FLAT:__catch$??$_Insert_hint@AAU?$pair@$$CBW4SDL_Scancode@@_N@std@@PAU?$_Tree_node@U?$pair@$$CBW4SDL_Scancode@@_N@std@@PAX@2@@?$_Tree@V?$_Tmap_traits@W4SDL_Scancode@@_NU?$less@W4SDL_Scancode@@@std@@V?$allocator@U?$pair@$$CBW4SDL_Scancode@@_N@std@@@3@$0A@@std@@@std@@IAE?AV?$_Tree_iterator@V?$_Tree_val@U?$_Tree_simple_types@U?$pair@$$CBW4SDL_Scancode@@_N@std@@@std@@@std@@@1@V?$_Tree_const_iterator@V?$_Tree_val@U?$_Tree_simple_types@U?$pair@$$CBW4SDL_Scancode@@_N@std@@@std@@@std@@@1@AAU?$pair@$$CBW4SDL_Scancode@@_N@1@PAU?$_Tree_node@U?$pair@$$CBW4SDL_Scancode@@_N@std@@PAX@1@@Z$0
__tryblocktable$??$_Insert_hint@AAU?$pair@$$CBW4SDL_Scancode@@_N@std@@PAU?$_Tree_node@U?$pair@$$CBW4SDL_Scancode@@_N@std@@PAX@2@@?$_Tree@V?$_Tmap_traits@W4SDL_Scancode@@_NU?$less@W4SDL_Scancode@@@std@@V?$allocator@U?$pair@$$CBW4SDL_Scancode@@_N@std@@@3@$0A@@std@@@std@@IAE?AV?$_Tree_iterator@V?$_Tree_val@U?$_Tree_simple_types@U?$pair@$$CBW4SDL_Scancode@@_N@std@@@std@@@std@@@1@V?$_Tree_const_iterator@V?$_Tree_val@U?$_Tree_simple_types@U?$pair@$$CBW4SDL_Scancode@@_N@std@@@std@@@std@@@1@AAU?$pair@$$CBW4SDL_Scancode@@_N@1@PAU?$_Tree_node@U?$pair@$$CBW4SDL_Scancode@@_N@std@@PAX@1@@Z DD 02H
	DD	08H
	DD	09H
	DD	01H
	DD	FLAT:__catchsym$??$_Insert_hint@AAU?$pair@$$CBW4SDL_Scancode@@_N@std@@PAU?$_Tree_node@U?$pair@$$CBW4SDL_Scancode@@_N@std@@PAX@2@@?$_Tree@V?$_Tmap_traits@W4SDL_Scancode@@_NU?$less@W4SDL_Scancode@@@std@@V?$allocator@U?$pair@$$CBW4SDL_Scancode@@_N@std@@@3@$0A@@std@@@std@@IAE?AV?$_Tree_iterator@V?$_Tree_val@U?$_Tree_simple_types@U?$pair@$$CBW4SDL_Scancode@@_N@std@@@std@@@std@@@1@V?$_Tree_const_iterator@V?$_Tree_val@U?$_Tree_simple_types@U?$pair@$$CBW4SDL_Scancode@@_N@std@@@std@@@std@@@1@AAU?$pair@$$CBW4SDL_Scancode@@_N@1@PAU?$_Tree_node@U?$pair@$$CBW4SDL_Scancode@@_N@std@@PAX@1@@Z$12
__ehfuncinfo$??$_Insert_hint@AAU?$pair@$$CBW4SDL_Scancode@@_N@std@@PAU?$_Tree_node@U?$pair@$$CBW4SDL_Scancode@@_N@std@@PAX@2@@?$_Tree@V?$_Tmap_traits@W4SDL_Scancode@@_NU?$less@W4SDL_Scancode@@@std@@V?$allocator@U?$pair@$$CBW4SDL_Scancode@@_N@std@@@3@$0A@@std@@@std@@IAE?AV?$_Tree_iterator@V?$_Tree_val@U?$_Tree_simple_types@U?$pair@$$CBW4SDL_Scancode@@_N@std@@@std@@@std@@@1@V?$_Tree_const_iterator@V?$_Tree_val@U?$_Tree_simple_types@U?$pair@$$CBW4SDL_Scancode@@_N@std@@@std@@@std@@@1@AAU?$pair@$$CBW4SDL_Scancode@@_N@1@PAU?$_Tree_node@U?$pair@$$CBW4SDL_Scancode@@_N@std@@PAX@1@@Z DD 019930522H
	DD	0bH
	DD	FLAT:__unwindtable$??$_Insert_hint@AAU?$pair@$$CBW4SDL_Scancode@@_N@std@@PAU?$_Tree_node@U?$pair@$$CBW4SDL_Scancode@@_N@std@@PAX@2@@?$_Tree@V?$_Tmap_traits@W4SDL_Scancode@@_NU?$less@W4SDL_Scancode@@@std@@V?$allocator@U?$pair@$$CBW4SDL_Scancode@@_N@std@@@3@$0A@@std@@@std@@IAE?AV?$_Tree_iterator@V?$_Tree_val@U?$_Tree_simple_types@U?$pair@$$CBW4SDL_Scancode@@_N@std@@@std@@@std@@@1@V?$_Tree_const_iterator@V?$_Tree_val@U?$_Tree_simple_types@U?$pair@$$CBW4SDL_Scancode@@_N@std@@@std@@@std@@@1@AAU?$pair@$$CBW4SDL_Scancode@@_N@1@PAU?$_Tree_node@U?$pair@$$CBW4SDL_Scancode@@_N@std@@PAX@1@@Z
	DD	01H
	DD	FLAT:__tryblocktable$??$_Insert_hint@AAU?$pair@$$CBW4SDL_Scancode@@_N@std@@PAU?$_Tree_node@U?$pair@$$CBW4SDL_Scancode@@_N@std@@PAX@2@@?$_Tree@V?$_Tmap_traits@W4SDL_Scancode@@_NU?$less@W4SDL_Scancode@@@std@@V?$allocator@U?$pair@$$CBW4SDL_Scancode@@_N@std@@@3@$0A@@std@@@std@@IAE?AV?$_Tree_iterator@V?$_Tree_val@U?$_Tree_simple_types@U?$pair@$$CBW4SDL_Scancode@@_N@std@@@std@@@std@@@1@V?$_Tree_const_iterator@V?$_Tree_val@U?$_Tree_simple_types@U?$pair@$$CBW4SDL_Scancode@@_N@std@@@std@@@std@@@1@AAU?$pair@$$CBW4SDL_Scancode@@_N@1@PAU?$_Tree_node@U?$pair@$$CBW4SDL_Scancode@@_N@std@@PAX@1@@Z
	DD	2 DUP(00H)
	DD	00H
	DD	01H
__unwindtable$??$_Insert_hint@AAU?$pair@$$CBW4SDL_Scancode@@_N@std@@PAU?$_Tree_node@U?$pair@$$CBW4SDL_Scancode@@_N@std@@PAX@2@@?$_Tree@V?$_Tmap_traits@W4SDL_Scancode@@_NU?$less@W4SDL_Scancode@@@std@@V?$allocator@U?$pair@$$CBW4SDL_Scancode@@_N@std@@@3@$0A@@std@@@std@@IAE?AV?$_Tree_iterator@V?$_Tree_val@U?$_Tree_simple_types@U?$pair@$$CBW4SDL_Scancode@@_N@std@@@std@@@std@@@1@V?$_Tree_const_iterator@V?$_Tree_val@U?$_Tree_simple_types@U?$pair@$$CBW4SDL_Scancode@@_N@std@@@std@@@std@@@1@AAU?$pair@$$CBW4SDL_Scancode@@_N@1@PAU?$_Tree_node@U?$pair@$$CBW4SDL_Scancode@@_N@std@@PAX@1@@Z DD 0ffffffffH
	DD	FLAT:__unwindfunclet$??$_Insert_hint@AAU?$pair@$$CBW4SDL_Scancode@@_N@std@@PAU?$_Tree_node@U?$pair@$$CBW4SDL_Scancode@@_N@std@@PAX@2@@?$_Tree@V?$_Tmap_traits@W4SDL_Scancode@@_NU?$less@W4SDL_Scancode@@@std@@V?$allocator@U?$pair@$$CBW4SDL_Scancode@@_N@std@@@3@$0A@@std@@@std@@IAE?AV?$_Tree_iterator@V?$_Tree_val@U?$_Tree_simple_types@U?$pair@$$CBW4SDL_Scancode@@_N@std@@@std@@@std@@@1@V?$_Tree_const_iterator@V?$_Tree_val@U?$_Tree_simple_types@U?$pair@$$CBW4SDL_Scancode@@_N@std@@@std@@@std@@@1@AAU?$pair@$$CBW4SDL_Scancode@@_N@1@PAU?$_Tree_node@U?$pair@$$CBW4SDL_Scancode@@_N@std@@PAX@1@@Z$2
	DD	00H
	DD	FLAT:__unwindfunclet$??$_Insert_hint@AAU?$pair@$$CBW4SDL_Scancode@@_N@std@@PAU?$_Tree_node@U?$pair@$$CBW4SDL_Scancode@@_N@std@@PAX@2@@?$_Tree@V?$_Tmap_traits@W4SDL_Scancode@@_NU?$less@W4SDL_Scancode@@@std@@V?$allocator@U?$pair@$$CBW4SDL_Scancode@@_N@std@@@3@$0A@@std@@@std@@IAE?AV?$_Tree_iterator@V?$_Tree_val@U?$_Tree_simple_types@U?$pair@$$CBW4SDL_Scancode@@_N@std@@@std@@@std@@@1@V?$_Tree_const_iterator@V?$_Tree_val@U?$_Tree_simple_types@U?$pair@$$CBW4SDL_Scancode@@_N@std@@@std@@@std@@@1@AAU?$pair@$$CBW4SDL_Scancode@@_N@1@PAU?$_Tree_node@U?$pair@$$CBW4SDL_Scancode@@_N@std@@PAX@1@@Z$3
	DD	01H
	DD	00H
	DD	02H
	DD	FLAT:__unwindfunclet$??$_Insert_hint@AAU?$pair@$$CBW4SDL_Scancode@@_N@std@@PAU?$_Tree_node@U?$pair@$$CBW4SDL_Scancode@@_N@std@@PAX@2@@?$_Tree@V?$_Tmap_traits@W4SDL_Scancode@@_NU?$less@W4SDL_Scancode@@@std@@V?$allocator@U?$pair@$$CBW4SDL_Scancode@@_N@std@@@3@$0A@@std@@@std@@IAE?AV?$_Tree_iterator@V?$_Tree_val@U?$_Tree_simple_types@U?$pair@$$CBW4SDL_Scancode@@_N@std@@@std@@@std@@@1@V?$_Tree_const_iterator@V?$_Tree_val@U?$_Tree_simple_types@U?$pair@$$CBW4SDL_Scancode@@_N@std@@@std@@@std@@@1@AAU?$pair@$$CBW4SDL_Scancode@@_N@1@PAU?$_Tree_node@U?$pair@$$CBW4SDL_Scancode@@_N@std@@PAX@1@@Z$5
	DD	02H
	DD	FLAT:__unwindfunclet$??$_Insert_hint@AAU?$pair@$$CBW4SDL_Scancode@@_N@std@@PAU?$_Tree_node@U?$pair@$$CBW4SDL_Scancode@@_N@std@@PAX@2@@?$_Tree@V?$_Tmap_traits@W4SDL_Scancode@@_NU?$less@W4SDL_Scancode@@@std@@V?$allocator@U?$pair@$$CBW4SDL_Scancode@@_N@std@@@3@$0A@@std@@@std@@IAE?AV?$_Tree_iterator@V?$_Tree_val@U?$_Tree_simple_types@U?$pair@$$CBW4SDL_Scancode@@_N@std@@@std@@@std@@@1@V?$_Tree_const_iterator@V?$_Tree_val@U?$_Tree_simple_types@U?$pair@$$CBW4SDL_Scancode@@_N@std@@@std@@@std@@@1@AAU?$pair@$$CBW4SDL_Scancode@@_N@1@PAU?$_Tree_node@U?$pair@$$CBW4SDL_Scancode@@_N@std@@PAX@1@@Z$6
	DD	02H
	DD	FLAT:__unwindfunclet$??$_Insert_hint@AAU?$pair@$$CBW4SDL_Scancode@@_N@std@@PAU?$_Tree_node@U?$pair@$$CBW4SDL_Scancode@@_N@std@@PAX@2@@?$_Tree@V?$_Tmap_traits@W4SDL_Scancode@@_NU?$less@W4SDL_Scancode@@@std@@V?$allocator@U?$pair@$$CBW4SDL_Scancode@@_N@std@@@3@$0A@@std@@@std@@IAE?AV?$_Tree_iterator@V?$_Tree_val@U?$_Tree_simple_types@U?$pair@$$CBW4SDL_Scancode@@_N@std@@@std@@@std@@@1@V?$_Tree_const_iterator@V?$_Tree_val@U?$_Tree_simple_types@U?$pair@$$CBW4SDL_Scancode@@_N@std@@@std@@@std@@@1@AAU?$pair@$$CBW4SDL_Scancode@@_N@1@PAU?$_Tree_node@U?$pair@$$CBW4SDL_Scancode@@_N@std@@PAX@1@@Z$7
	DD	02H
	DD	FLAT:__unwindfunclet$??$_Insert_hint@AAU?$pair@$$CBW4SDL_Scancode@@_N@std@@PAU?$_Tree_node@U?$pair@$$CBW4SDL_Scancode@@_N@std@@PAX@2@@?$_Tree@V?$_Tmap_traits@W4SDL_Scancode@@_NU?$less@W4SDL_Scancode@@@std@@V?$allocator@U?$pair@$$CBW4SDL_Scancode@@_N@std@@@3@$0A@@std@@@std@@IAE?AV?$_Tree_iterator@V?$_Tree_val@U?$_Tree_simple_types@U?$pair@$$CBW4SDL_Scancode@@_N@std@@@std@@@std@@@1@V?$_Tree_const_iterator@V?$_Tree_val@U?$_Tree_simple_types@U?$pair@$$CBW4SDL_Scancode@@_N@std@@@std@@@std@@@1@AAU?$pair@$$CBW4SDL_Scancode@@_N@1@PAU?$_Tree_node@U?$pair@$$CBW4SDL_Scancode@@_N@std@@PAX@1@@Z$8
	DD	02H
	DD	FLAT:__unwindfunclet$??$_Insert_hint@AAU?$pair@$$CBW4SDL_Scancode@@_N@std@@PAU?$_Tree_node@U?$pair@$$CBW4SDL_Scancode@@_N@std@@PAX@2@@?$_Tree@V?$_Tmap_traits@W4SDL_Scancode@@_NU?$less@W4SDL_Scancode@@@std@@V?$allocator@U?$pair@$$CBW4SDL_Scancode@@_N@std@@@3@$0A@@std@@@std@@IAE?AV?$_Tree_iterator@V?$_Tree_val@U?$_Tree_simple_types@U?$pair@$$CBW4SDL_Scancode@@_N@std@@@std@@@std@@@1@V?$_Tree_const_iterator@V?$_Tree_val@U?$_Tree_simple_types@U?$pair@$$CBW4SDL_Scancode@@_N@std@@@std@@@std@@@1@AAU?$pair@$$CBW4SDL_Scancode@@_N@1@PAU?$_Tree_node@U?$pair@$$CBW4SDL_Scancode@@_N@std@@PAX@1@@Z$9
	DD	02H
	DD	FLAT:__unwindfunclet$??$_Insert_hint@AAU?$pair@$$CBW4SDL_Scancode@@_N@std@@PAU?$_Tree_node@U?$pair@$$CBW4SDL_Scancode@@_N@std@@PAX@2@@?$_Tree@V?$_Tmap_traits@W4SDL_Scancode@@_NU?$less@W4SDL_Scancode@@@std@@V?$allocator@U?$pair@$$CBW4SDL_Scancode@@_N@std@@@3@$0A@@std@@@std@@IAE?AV?$_Tree_iterator@V?$_Tree_val@U?$_Tree_simple_types@U?$pair@$$CBW4SDL_Scancode@@_N@std@@@std@@@std@@@1@V?$_Tree_const_iterator@V?$_Tree_val@U?$_Tree_simple_types@U?$pair@$$CBW4SDL_Scancode@@_N@std@@@std@@@std@@@1@AAU?$pair@$$CBW4SDL_Scancode@@_N@1@PAU?$_Tree_node@U?$pair@$$CBW4SDL_Scancode@@_N@std@@PAX@1@@Z$10
	DD	01H
	DD	00H
	DD	01H
	DD	FLAT:__unwindfunclet$??$_Insert_hint@AAU?$pair@$$CBW4SDL_Scancode@@_N@std@@PAU?$_Tree_node@U?$pair@$$CBW4SDL_Scancode@@_N@std@@PAX@2@@?$_Tree@V?$_Tmap_traits@W4SDL_Scancode@@_NU?$less@W4SDL_Scancode@@@std@@V?$allocator@U?$pair@$$CBW4SDL_Scancode@@_N@std@@@3@$0A@@std@@@std@@IAE?AV?$_Tree_iterator@V?$_Tree_val@U?$_Tree_simple_types@U?$pair@$$CBW4SDL_Scancode@@_N@std@@@std@@@std@@@1@V?$_Tree_const_iterator@V?$_Tree_val@U?$_Tree_simple_types@U?$pair@$$CBW4SDL_Scancode@@_N@std@@@std@@@std@@@1@AAU?$pair@$$CBW4SDL_Scancode@@_N@1@PAU?$_Tree_node@U?$pair@$$CBW4SDL_Scancode@@_N@std@@PAX@1@@Z$11
xdata$x	ENDS
;	COMDAT xdata$x
xdata$x	SEGMENT
__catchsym$??$_Buynode@ABUpiecewise_construct_t@std@@V?$tuple@ABW4SDL_Scancode@@@2@V?$tuple@$$$V@2@@?$_Tree_buy@U?$pair@$$CBW4SDL_Scancode@@_N@std@@V?$allocator@U?$pair@$$CBW4SDL_Scancode@@_N@std@@@2@@std@@QAEPAU?$_Tree_node@U?$pair@$$CBW4SDL_Scancode@@_N@std@@PAX@1@ABUpiecewise_construct_t@1@$$QAV?$tuple@ABW4SDL_Scancode@@@1@$$QAV?$tuple@$$$V@1@@Z$2 DD 040H
	DD	00H
	DD	00H
	DD	FLAT:__catch$??$_Buynode@ABUpiecewise_construct_t@std@@V?$tuple@ABW4SDL_Scancode@@@2@V?$tuple@$$$V@2@@?$_Tree_buy@U?$pair@$$CBW4SDL_Scancode@@_N@std@@V?$allocator@U?$pair@$$CBW4SDL_Scancode@@_N@std@@@2@@std@@QAEPAU?$_Tree_node@U?$pair@$$CBW4SDL_Scancode@@_N@std@@PAX@1@ABUpiecewise_construct_t@1@$$QAV?$tuple@ABW4SDL_Scancode@@@1@$$QAV?$tuple@$$$V@1@@Z$0
__unwindtable$??$_Buynode@ABUpiecewise_construct_t@std@@V?$tuple@ABW4SDL_Scancode@@@2@V?$tuple@$$$V@2@@?$_Tree_buy@U?$pair@$$CBW4SDL_Scancode@@_N@std@@V?$allocator@U?$pair@$$CBW4SDL_Scancode@@_N@std@@@2@@std@@QAEPAU?$_Tree_node@U?$pair@$$CBW4SDL_Scancode@@_N@std@@PAX@1@ABUpiecewise_construct_t@1@$$QAV?$tuple@ABW4SDL_Scancode@@@1@$$QAV?$tuple@$$$V@1@@Z DD 0ffffffffH
	DD	00H
	DD	0ffffffffH
	DD	00H
__tryblocktable$??$_Buynode@ABUpiecewise_construct_t@std@@V?$tuple@ABW4SDL_Scancode@@@2@V?$tuple@$$$V@2@@?$_Tree_buy@U?$pair@$$CBW4SDL_Scancode@@_N@std@@V?$allocator@U?$pair@$$CBW4SDL_Scancode@@_N@std@@@2@@std@@QAEPAU?$_Tree_node@U?$pair@$$CBW4SDL_Scancode@@_N@std@@PAX@1@ABUpiecewise_construct_t@1@$$QAV?$tuple@ABW4SDL_Scancode@@@1@$$QAV?$tuple@$$$V@1@@Z DD 00H
	DD	00H
	DD	01H
	DD	01H
	DD	FLAT:__catchsym$??$_Buynode@ABUpiecewise_construct_t@std@@V?$tuple@ABW4SDL_Scancode@@@2@V?$tuple@$$$V@2@@?$_Tree_buy@U?$pair@$$CBW4SDL_Scancode@@_N@std@@V?$allocator@U?$pair@$$CBW4SDL_Scancode@@_N@std@@@2@@std@@QAEPAU?$_Tree_node@U?$pair@$$CBW4SDL_Scancode@@_N@std@@PAX@1@ABUpiecewise_construct_t@1@$$QAV?$tuple@ABW4SDL_Scancode@@@1@$$QAV?$tuple@$$$V@1@@Z$2
__ehfuncinfo$??$_Buynode@ABUpiecewise_construct_t@std@@V?$tuple@ABW4SDL_Scancode@@@2@V?$tuple@$$$V@2@@?$_Tree_buy@U?$pair@$$CBW4SDL_Scancode@@_N@std@@V?$allocator@U?$pair@$$CBW4SDL_Scancode@@_N@std@@@2@@std@@QAEPAU?$_Tree_node@U?$pair@$$CBW4SDL_Scancode@@_N@std@@PAX@1@ABUpiecewise_construct_t@1@$$QAV?$tuple@ABW4SDL_Scancode@@@1@$$QAV?$tuple@$$$V@1@@Z DD 019930522H
	DD	02H
	DD	FLAT:__unwindtable$??$_Buynode@ABUpiecewise_construct_t@std@@V?$tuple@ABW4SDL_Scancode@@@2@V?$tuple@$$$V@2@@?$_Tree_buy@U?$pair@$$CBW4SDL_Scancode@@_N@std@@V?$allocator@U?$pair@$$CBW4SDL_Scancode@@_N@std@@@2@@std@@QAEPAU?$_Tree_node@U?$pair@$$CBW4SDL_Scancode@@_N@std@@PAX@1@ABUpiecewise_construct_t@1@$$QAV?$tuple@ABW4SDL_Scancode@@@1@$$QAV?$tuple@$$$V@1@@Z
	DD	01H
	DD	FLAT:__tryblocktable$??$_Buynode@ABUpiecewise_construct_t@std@@V?$tuple@ABW4SDL_Scancode@@@2@V?$tuple@$$$V@2@@?$_Tree_buy@U?$pair@$$CBW4SDL_Scancode@@_N@std@@V?$allocator@U?$pair@$$CBW4SDL_Scancode@@_N@std@@@2@@std@@QAEPAU?$_Tree_node@U?$pair@$$CBW4SDL_Scancode@@_N@std@@PAX@1@ABUpiecewise_construct_t@1@$$QAV?$tuple@ABW4SDL_Scancode@@@1@$$QAV?$tuple@$$$V@1@@Z
	DD	2 DUP(00H)
	DD	00H
	DD	01H
xdata$x	ENDS
;	COMDAT xdata$x
xdata$x	SEGMENT
__unwindtable$??$emplace_hint@ABUpiecewise_construct_t@std@@V?$tuple@ABW4SDL_Scancode@@@2@V?$tuple@$$$V@2@@?$_Tree@V?$_Tmap_traits@W4SDL_Scancode@@_NU?$less@W4SDL_Scancode@@@std@@V?$allocator@U?$pair@$$CBW4SDL_Scancode@@_N@std@@@3@$0A@@std@@@std@@QAE?AV?$_Tree_iterator@V?$_Tree_val@U?$_Tree_simple_types@U?$pair@$$CBW4SDL_Scancode@@_N@std@@@std@@@std@@@1@V?$_Tree_const_iterator@V?$_Tree_val@U?$_Tree_simple_types@U?$pair@$$CBW4SDL_Scancode@@_N@std@@@std@@@std@@@1@ABUpiecewise_construct_t@1@$$QAV?$tuple@ABW4SDL_Scancode@@@1@$$QAV?$tuple@$$$V@1@@Z DD 0ffffffffH
	DD	FLAT:__unwindfunclet$??$emplace_hint@ABUpiecewise_construct_t@std@@V?$tuple@ABW4SDL_Scancode@@@2@V?$tuple@$$$V@2@@?$_Tree@V?$_Tmap_traits@W4SDL_Scancode@@_NU?$less@W4SDL_Scancode@@@std@@V?$allocator@U?$pair@$$CBW4SDL_Scancode@@_N@std@@@3@$0A@@std@@@std@@QAE?AV?$_Tree_iterator@V?$_Tree_val@U?$_Tree_simple_types@U?$pair@$$CBW4SDL_Scancode@@_N@std@@@std@@@std@@@1@V?$_Tree_const_iterator@V?$_Tree_val@U?$_Tree_simple_types@U?$pair@$$CBW4SDL_Scancode@@_N@std@@@std@@@std@@@1@ABUpiecewise_construct_t@1@$$QAV?$tuple@ABW4SDL_Scancode@@@1@$$QAV?$tuple@$$$V@1@@Z$0
__ehfuncinfo$??$emplace_hint@ABUpiecewise_construct_t@std@@V?$tuple@ABW4SDL_Scancode@@@2@V?$tuple@$$$V@2@@?$_Tree@V?$_Tmap_traits@W4SDL_Scancode@@_NU?$less@W4SDL_Scancode@@@std@@V?$allocator@U?$pair@$$CBW4SDL_Scancode@@_N@std@@@3@$0A@@std@@@std@@QAE?AV?$_Tree_iterator@V?$_Tree_val@U?$_Tree_simple_types@U?$pair@$$CBW4SDL_Scancode@@_N@std@@@std@@@std@@@1@V?$_Tree_const_iterator@V?$_Tree_val@U?$_Tree_simple_types@U?$pair@$$CBW4SDL_Scancode@@_N@std@@@std@@@std@@@1@ABUpiecewise_construct_t@1@$$QAV?$tuple@ABW4SDL_Scancode@@@1@$$QAV?$tuple@$$$V@1@@Z DD 019930522H
	DD	01H
	DD	FLAT:__unwindtable$??$emplace_hint@ABUpiecewise_construct_t@std@@V?$tuple@ABW4SDL_Scancode@@@2@V?$tuple@$$$V@2@@?$_Tree@V?$_Tmap_traits@W4SDL_Scancode@@_NU?$less@W4SDL_Scancode@@@std@@V?$allocator@U?$pair@$$CBW4SDL_Scancode@@_N@std@@@3@$0A@@std@@@std@@QAE?AV?$_Tree_iterator@V?$_Tree_val@U?$_Tree_simple_types@U?$pair@$$CBW4SDL_Scancode@@_N@std@@@std@@@std@@@1@V?$_Tree_const_iterator@V?$_Tree_val@U?$_Tree_simple_types@U?$pair@$$CBW4SDL_Scancode@@_N@std@@@std@@@std@@@1@ABUpiecewise_construct_t@1@$$QAV?$tuple@ABW4SDL_Scancode@@@1@$$QAV?$tuple@$$$V@1@@Z
	DD	2 DUP(00H)
	DD	2 DUP(00H)
	DD	00H
	DD	01H
xdata$x	ENDS
;	COMDAT xdata$x
xdata$x	SEGMENT
__unwindtable$??0?$_Tree_unchecked_const_iterator@V?$_Tree_val@U?$_Tree_simple_types@U?$pair@$$CBW4SDL_Scancode@@_N@std@@@std@@@std@@U_Iterator_base12@2@@std@@QAE@PAU?$_Tree_node@U?$pair@$$CBW4SDL_Scancode@@_N@std@@PAX@1@PBV?$_Tree_val@U?$_Tree_simple_types@U?$pair@$$CBW4SDL_Scancode@@_N@std@@@std@@@1@@Z DD 0ffffffffH
	DD	FLAT:__unwindfunclet$??0?$_Tree_unchecked_const_iterator@V?$_Tree_val@U?$_Tree_simple_types@U?$pair@$$CBW4SDL_Scancode@@_N@std@@@std@@@std@@U_Iterator_base12@2@@std@@QAE@PAU?$_Tree_node@U?$pair@$$CBW4SDL_Scancode@@_N@std@@PAX@1@PBV?$_Tree_val@U?$_Tree_simple_types@U?$pair@$$CBW4SDL_Scancode@@_N@std@@@std@@@1@@Z$0
__ehfuncinfo$??0?$_Tree_unchecked_const_iterator@V?$_Tree_val@U?$_Tree_simple_types@U?$pair@$$CBW4SDL_Scancode@@_N@std@@@std@@@std@@U_Iterator_base12@2@@std@@QAE@PAU?$_Tree_node@U?$pair@$$CBW4SDL_Scancode@@_N@std@@PAX@1@PBV?$_Tree_val@U?$_Tree_simple_types@U?$pair@$$CBW4SDL_Scancode@@_N@std@@@std@@@1@@Z DD 019930522H
	DD	01H
	DD	FLAT:__unwindtable$??0?$_Tree_unchecked_const_iterator@V?$_Tree_val@U?$_Tree_simple_types@U?$pair@$$CBW4SDL_Scancode@@_N@std@@@std@@@std@@U_Iterator_base12@2@@std@@QAE@PAU?$_Tree_node@U?$pair@$$CBW4SDL_Scancode@@_N@std@@PAX@1@PBV?$_Tree_val@U?$_Tree_simple_types@U?$pair@$$CBW4SDL_Scancode@@_N@std@@@std@@@1@@Z
	DD	2 DUP(00H)
	DD	2 DUP(00H)
	DD	00H
	DD	01H
xdata$x	ENDS
;	COMDAT xdata$x
xdata$x	SEGMENT
__unwindtable$??A?$map@W4SDL_Scancode@@_NU?$less@W4SDL_Scancode@@@std@@V?$allocator@U?$pair@$$CBW4SDL_Scancode@@_N@std@@@3@@std@@QAEAA_NABW4SDL_Scancode@@@Z DD 0ffffffffH
	DD	FLAT:__unwindfunclet$??A?$map@W4SDL_Scancode@@_NU?$less@W4SDL_Scancode@@@std@@V?$allocator@U?$pair@$$CBW4SDL_Scancode@@_N@std@@@3@@std@@QAEAA_NABW4SDL_Scancode@@@Z$0
	DD	00H
	DD	FLAT:__unwindfunclet$??A?$map@W4SDL_Scancode@@_NU?$less@W4SDL_Scancode@@@std@@V?$allocator@U?$pair@$$CBW4SDL_Scancode@@_N@std@@@3@@std@@QAEAA_NABW4SDL_Scancode@@@Z$1
	DD	00H
	DD	FLAT:__unwindfunclet$??A?$map@W4SDL_Scancode@@_NU?$less@W4SDL_Scancode@@@std@@V?$allocator@U?$pair@$$CBW4SDL_Scancode@@_N@std@@@3@@std@@QAEAA_NABW4SDL_Scancode@@@Z$3
__ehfuncinfo$??A?$map@W4SDL_Scancode@@_NU?$less@W4SDL_Scancode@@@std@@V?$allocator@U?$pair@$$CBW4SDL_Scancode@@_N@std@@@3@@std@@QAEAA_NABW4SDL_Scancode@@@Z DD 019930522H
	DD	03H
	DD	FLAT:__unwindtable$??A?$map@W4SDL_Scancode@@_NU?$less@W4SDL_Scancode@@@std@@V?$allocator@U?$pair@$$CBW4SDL_Scancode@@_N@std@@@3@@std@@QAEAA_NABW4SDL_Scancode@@@Z
	DD	2 DUP(00H)
	DD	2 DUP(00H)
	DD	00H
	DD	01H
xdata$x	ENDS
;	COMDAT xdata$x
xdata$x	SEGMENT
__unwindtable$?_Orphan_ptr@?$_Tree@V?$_Tmap_traits@W4SDL_Scancode@@_NU?$less@W4SDL_Scancode@@@std@@V?$allocator@U?$pair@$$CBW4SDL_Scancode@@_N@std@@@3@$0A@@std@@@std@@IBEXAAV12@PAU?$_Tree_node@U?$pair@$$CBW4SDL_Scancode@@_N@std@@PAX@2@@Z DD 0ffffffffH
	DD	FLAT:__unwindfunclet$?_Orphan_ptr@?$_Tree@V?$_Tmap_traits@W4SDL_Scancode@@_NU?$less@W4SDL_Scancode@@@std@@V?$allocator@U?$pair@$$CBW4SDL_Scancode@@_N@std@@@3@$0A@@std@@@std@@IBEXAAV12@PAU?$_Tree_node@U?$pair@$$CBW4SDL_Scancode@@_N@std@@PAX@2@@Z$0
__ehfuncinfo$?_Orphan_ptr@?$_Tree@V?$_Tmap_traits@W4SDL_Scancode@@_NU?$less@W4SDL_Scancode@@@std@@V?$allocator@U?$pair@$$CBW4SDL_Scancode@@_N@std@@@3@$0A@@std@@@std@@IBEXAAV12@PAU?$_Tree_node@U?$pair@$$CBW4SDL_Scancode@@_N@std@@PAX@2@@Z DD 019930522H
	DD	01H
	DD	FLAT:__unwindtable$?_Orphan_ptr@?$_Tree@V?$_Tmap_traits@W4SDL_Scancode@@_NU?$less@W4SDL_Scancode@@@std@@V?$allocator@U?$pair@$$CBW4SDL_Scancode@@_N@std@@@3@$0A@@std@@@std@@IBEXAAV12@PAU?$_Tree_node@U?$pair@$$CBW4SDL_Scancode@@_N@std@@PAX@2@@Z
	DD	2 DUP(00H)
	DD	2 DUP(00H)
	DD	00H
	DD	01H
xdata$x	ENDS
;	COMDAT xdata$x
xdata$x	SEGMENT
__catchsym$?_Buynode0@?$_Tree_buy@U?$pair@$$CBW4SDL_Scancode@@_N@std@@V?$allocator@U?$pair@$$CBW4SDL_Scancode@@_N@std@@@2@@std@@QAEPAU?$_Tree_node@U?$pair@$$CBW4SDL_Scancode@@_N@std@@PAX@2@XZ$2 DD 040H
	DD	00H
	DD	00H
	DD	FLAT:__catch$?_Buynode0@?$_Tree_buy@U?$pair@$$CBW4SDL_Scancode@@_N@std@@V?$allocator@U?$pair@$$CBW4SDL_Scancode@@_N@std@@@2@@std@@QAEPAU?$_Tree_node@U?$pair@$$CBW4SDL_Scancode@@_N@std@@PAX@2@XZ$0
__unwindtable$?_Buynode0@?$_Tree_buy@U?$pair@$$CBW4SDL_Scancode@@_N@std@@V?$allocator@U?$pair@$$CBW4SDL_Scancode@@_N@std@@@2@@std@@QAEPAU?$_Tree_node@U?$pair@$$CBW4SDL_Scancode@@_N@std@@PAX@2@XZ DD 0ffffffffH
	DD	00H
	DD	0ffffffffH
	DD	00H
__tryblocktable$?_Buynode0@?$_Tree_buy@U?$pair@$$CBW4SDL_Scancode@@_N@std@@V?$allocator@U?$pair@$$CBW4SDL_Scancode@@_N@std@@@2@@std@@QAEPAU?$_Tree_node@U?$pair@$$CBW4SDL_Scancode@@_N@std@@PAX@2@XZ DD 00H
	DD	00H
	DD	01H
	DD	01H
	DD	FLAT:__catchsym$?_Buynode0@?$_Tree_buy@U?$pair@$$CBW4SDL_Scancode@@_N@std@@V?$allocator@U?$pair@$$CBW4SDL_Scancode@@_N@std@@@2@@std@@QAEPAU?$_Tree_node@U?$pair@$$CBW4SDL_Scancode@@_N@std@@PAX@2@XZ$2
__ehfuncinfo$?_Buynode0@?$_Tree_buy@U?$pair@$$CBW4SDL_Scancode@@_N@std@@V?$allocator@U?$pair@$$CBW4SDL_Scancode@@_N@std@@@2@@std@@QAEPAU?$_Tree_node@U?$pair@$$CBW4SDL_Scancode@@_N@std@@PAX@2@XZ DD 019930522H
	DD	02H
	DD	FLAT:__unwindtable$?_Buynode0@?$_Tree_buy@U?$pair@$$CBW4SDL_Scancode@@_N@std@@V?$allocator@U?$pair@$$CBW4SDL_Scancode@@_N@std@@@2@@std@@QAEPAU?$_Tree_node@U?$pair@$$CBW4SDL_Scancode@@_N@std@@PAX@2@XZ
	DD	01H
	DD	FLAT:__tryblocktable$?_Buynode0@?$_Tree_buy@U?$pair@$$CBW4SDL_Scancode@@_N@std@@V?$allocator@U?$pair@$$CBW4SDL_Scancode@@_N@std@@@2@@std@@QAEPAU?$_Tree_node@U?$pair@$$CBW4SDL_Scancode@@_N@std@@PAX@2@XZ
	DD	2 DUP(00H)
	DD	00H
	DD	01H
xdata$x	ENDS
;	COMDAT xdata$x
xdata$x	SEGMENT
__unwindtable$?_Adopt@_Iterator_base12@std@@QAEXPBU_Container_base12@2@@Z DD 0ffffffffH
	DD	FLAT:__unwindfunclet$?_Adopt@_Iterator_base12@std@@QAEXPBU_Container_base12@2@@Z$0
	DD	0ffffffffH
	DD	FLAT:__unwindfunclet$?_Adopt@_Iterator_base12@std@@QAEXPBU_Container_base12@2@@Z$1
__ehfuncinfo$?_Adopt@_Iterator_base12@std@@QAEXPBU_Container_base12@2@@Z DD 019930522H
	DD	02H
	DD	FLAT:__unwindtable$?_Adopt@_Iterator_base12@std@@QAEXPBU_Container_base12@2@@Z
	DD	2 DUP(00H)
	DD	2 DUP(00H)
	DD	00H
	DD	01H
xdata$x	ENDS
;	COMDAT xdata$x
xdata$x	SEGMENT
__unwindtable$??4_Iterator_base12@std@@QAEAAU01@ABU01@@Z DD 0ffffffffH
	DD	FLAT:__unwindfunclet$??4_Iterator_base12@std@@QAEAAU01@ABU01@@Z$0
__ehfuncinfo$??4_Iterator_base12@std@@QAEAAU01@ABU01@@Z DD 019930522H
	DD	01H
	DD	FLAT:__unwindtable$??4_Iterator_base12@std@@QAEAAU01@ABU01@@Z
	DD	2 DUP(00H)
	DD	2 DUP(00H)
	DD	00H
	DD	01H
xdata$x	ENDS
CRT$XCU	SEGMENT
_allocator_arg$initializer$ DD FLAT:??__Eallocator_arg@std@@YAXXZ
CRT$XCU	ENDS
CRT$XCU	SEGMENT
_ignore$initializer$ DD FLAT:??__Eignore@std@@YAXXZ
CRT$XCU	ENDS
CRT$XCU	SEGMENT
__Tuple_alloc$initializer$ DD FLAT:??__E_Tuple_alloc@std@@YAXXZ
CRT$XCU	ENDS
; Function compile flags: /Odtp /RTCsu /ZI
;	COMDAT ??$get@$0A@ABW4SDL_Scancode@@@std@@YAABW4SDL_Scancode@@$$QAV?$tuple@ABW4SDL_Scancode@@@0@@Z
_TEXT	SEGMENT
__Tuple$ = 8						; size = 4
??$get@$0A@ABW4SDL_Scancode@@@std@@YAABW4SDL_Scancode@@$$QAV?$tuple@ABW4SDL_Scancode@@@0@@Z PROC ; std::get<0,enum SDL_Scancode const &>, COMDAT
; File c:\program files (x86)\microsoft visual studio 12.0\vc\include\tuple
; Line 596
  00000	55		 push	 ebp
  00001	8b ec		 mov	 ebp, esp
  00003	81 ec c0 00 00
	00		 sub	 esp, 192		; 000000c0H
  00009	53		 push	 ebx
  0000a	56		 push	 esi
  0000b	57		 push	 edi
  0000c	8d bd 40 ff ff
	ff		 lea	 edi, DWORD PTR [ebp-192]
  00012	b9 30 00 00 00	 mov	 ecx, 48			; 00000030H
  00017	b8 cc cc cc cc	 mov	 eax, -858993460		; ccccccccH
  0001c	f3 ab		 rep stosd
; Line 601
  0001e	8b 45 08	 mov	 eax, DWORD PTR __Tuple$[ebp]
  00021	8b 08		 mov	 ecx, DWORD PTR [eax]
  00023	51		 push	 ecx
  00024	e8 00 00 00 00	 call	 ??$forward@ABW4SDL_Scancode@@@std@@YAABW4SDL_Scancode@@ABW41@@Z ; std::forward<enum SDL_Scancode const &>
  00029	83 c4 04	 add	 esp, 4
; Line 602
  0002c	5f		 pop	 edi
  0002d	5e		 pop	 esi
  0002e	5b		 pop	 ebx
  0002f	81 c4 c0 00 00
	00		 add	 esp, 192		; 000000c0H
  00035	3b ec		 cmp	 ebp, esp
  00037	e8 00 00 00 00	 call	 __RTC_CheckEsp
  0003c	8b e5		 mov	 esp, ebp
  0003e	5d		 pop	 ebp
  0003f	c3		 ret	 0
??$get@$0A@ABW4SDL_Scancode@@@std@@YAABW4SDL_Scancode@@$$QAV?$tuple@ABW4SDL_Scancode@@@0@@Z ENDP ; std::get<0,enum SDL_Scancode const &>
_TEXT	ENDS
; Function compile flags: /Odtp /RTCsu /ZI
;	COMDAT ??$move@AAV?$tuple@ABW4SDL_Scancode@@@std@@@std@@YA$$QAV?$tuple@ABW4SDL_Scancode@@@0@AAV10@@Z
_TEXT	SEGMENT
__Arg$ = 8						; size = 4
??$move@AAV?$tuple@ABW4SDL_Scancode@@@std@@@std@@YA$$QAV?$tuple@ABW4SDL_Scancode@@@0@AAV10@@Z PROC ; std::move<std::tuple<enum SDL_Scancode const &> &>, COMDAT
; File c:\program files (x86)\microsoft visual studio 12.0\vc\include\type_traits
; Line 1519
  00000	55		 push	 ebp
  00001	8b ec		 mov	 ebp, esp
  00003	81 ec c0 00 00
	00		 sub	 esp, 192		; 000000c0H
  00009	53		 push	 ebx
  0000a	56		 push	 esi
  0000b	57		 push	 edi
  0000c	8d bd 40 ff ff
	ff		 lea	 edi, DWORD PTR [ebp-192]
  00012	b9 30 00 00 00	 mov	 ecx, 48			; 00000030H
  00017	b8 cc cc cc cc	 mov	 eax, -858993460		; ccccccccH
  0001c	f3 ab		 rep stosd
; Line 1520
  0001e	8b 45 08	 mov	 eax, DWORD PTR __Arg$[ebp]
; Line 1521
  00021	5f		 pop	 edi
  00022	5e		 pop	 esi
  00023	5b		 pop	 ebx
  00024	8b e5		 mov	 esp, ebp
  00026	5d		 pop	 ebp
  00027	c3		 ret	 0
??$move@AAV?$tuple@ABW4SDL_Scancode@@@std@@@std@@YA$$QAV?$tuple@ABW4SDL_Scancode@@@0@AAV10@@Z ENDP ; std::move<std::tuple<enum SDL_Scancode const &> &>
_TEXT	ENDS
; Function compile flags: /Odtp /RTCsu /ZI
;	COMDAT ??$?0V?$tuple@ABW4SDL_Scancode@@@std@@V?$tuple@$$$V@1@$0A@$S@?$pair@$$CBW4SDL_Scancode@@_N@std@@QAE@AAV?$tuple@ABW4SDL_Scancode@@@1@AAV?$tuple@$$$V@1@U?$_Arg_idx@$0A@@1@U?$_Arg_idx@$S@1@@Z
_TEXT	SEGMENT
_this$ = -8						; size = 4
__Val1$ = 8						; size = 4
__Val2$ = 12						; size = 4
___formal$ = 16						; size = 1
___formal$ = 20						; size = 1
??$?0V?$tuple@ABW4SDL_Scancode@@@std@@V?$tuple@$$$V@1@$0A@$S@?$pair@$$CBW4SDL_Scancode@@_N@std@@QAE@AAV?$tuple@ABW4SDL_Scancode@@@1@AAV?$tuple@$$$V@1@U?$_Arg_idx@$0A@@1@U?$_Arg_idx@$S@1@@Z PROC ; std::pair<enum SDL_Scancode const ,bool>::pair<enum SDL_Scancode const ,bool><std::tuple<enum SDL_Scancode const &>,std::tuple<>,0>, COMDAT
; _this$ = ecx
; File c:\program files (x86)\microsoft visual studio 12.0\vc\include\tuple
; Line 746
  00000	55		 push	 ebp
  00001	8b ec		 mov	 ebp, esp
  00003	81 ec cc 00 00
	00		 sub	 esp, 204		; 000000ccH
  00009	53		 push	 ebx
  0000a	56		 push	 esi
  0000b	57		 push	 edi
  0000c	51		 push	 ecx
  0000d	8d bd 34 ff ff
	ff		 lea	 edi, DWORD PTR [ebp-204]
  00013	b9 33 00 00 00	 mov	 ecx, 51			; 00000033H
  00018	b8 cc cc cc cc	 mov	 eax, -858993460		; ccccccccH
  0001d	f3 ab		 rep stosd
  0001f	59		 pop	 ecx
  00020	89 4d f8	 mov	 DWORD PTR _this$[ebp], ecx
  00023	8b 45 08	 mov	 eax, DWORD PTR __Val1$[ebp]
  00026	50		 push	 eax
  00027	e8 00 00 00 00	 call	 ??$move@AAV?$tuple@ABW4SDL_Scancode@@@std@@@std@@YA$$QAV?$tuple@ABW4SDL_Scancode@@@0@AAV10@@Z ; std::move<std::tuple<enum SDL_Scancode const &> &>
  0002c	83 c4 04	 add	 esp, 4
  0002f	50		 push	 eax
  00030	e8 00 00 00 00	 call	 ??$get@$0A@ABW4SDL_Scancode@@@std@@YAABW4SDL_Scancode@@$$QAV?$tuple@ABW4SDL_Scancode@@@0@@Z ; std::get<0,enum SDL_Scancode const &>
  00035	83 c4 04	 add	 esp, 4
  00038	8b 4d f8	 mov	 ecx, DWORD PTR _this$[ebp]
  0003b	8b 10		 mov	 edx, DWORD PTR [eax]
  0003d	89 11		 mov	 DWORD PTR [ecx], edx
  0003f	8b 45 f8	 mov	 eax, DWORD PTR _this$[ebp]
  00042	c6 40 04 00	 mov	 BYTE PTR [eax+4], 0
; Line 747
  00046	8b 45 f8	 mov	 eax, DWORD PTR _this$[ebp]
  00049	5f		 pop	 edi
  0004a	5e		 pop	 esi
  0004b	5b		 pop	 ebx
  0004c	81 c4 cc 00 00
	00		 add	 esp, 204		; 000000ccH
  00052	3b ec		 cmp	 ebp, esp
  00054	e8 00 00 00 00	 call	 __RTC_CheckEsp
  00059	8b e5		 mov	 esp, ebp
  0005b	5d		 pop	 ebp
  0005c	c2 10 00	 ret	 16			; 00000010H
??$?0V?$tuple@ABW4SDL_Scancode@@@std@@V?$tuple@$$$V@1@$0A@$S@?$pair@$$CBW4SDL_Scancode@@_N@std@@QAE@AAV?$tuple@ABW4SDL_Scancode@@@1@AAV?$tuple@$$$V@1@U?$_Arg_idx@$0A@@1@U?$_Arg_idx@$S@1@@Z ENDP ; std::pair<enum SDL_Scancode const ,bool>::pair<enum SDL_Scancode const ,bool><std::tuple<enum SDL_Scancode const &>,std::tuple<>,0>
_TEXT	ENDS
; Function compile flags: /Odtp /RTCsu /ZI
;	COMDAT ??$?0ABW4SDL_Scancode@@$$$V@?$pair@$$CBW4SDL_Scancode@@_N@std@@QAE@Upiecewise_construct_t@1@V?$tuple@ABW4SDL_Scancode@@@1@V?$tuple@$$$V@1@@Z
_TEXT	SEGMENT
$T1 = -221						; size = 1
$T2 = -209						; size = 1
_this$ = -8						; size = 4
___formal$ = 8						; size = 1
__Val1$ = 12						; size = 4
__Val2$ = 16						; size = 1
??$?0ABW4SDL_Scancode@@$$$V@?$pair@$$CBW4SDL_Scancode@@_N@std@@QAE@Upiecewise_construct_t@1@V?$tuple@ABW4SDL_Scancode@@@1@V?$tuple@$$$V@1@@Z PROC ; std::pair<enum SDL_Scancode const ,bool>::pair<enum SDL_Scancode const ,bool><enum SDL_Scancode const &>, COMDAT
; _this$ = ecx
; File c:\program files (x86)\microsoft visual studio 12.0\vc\include\tuple
; Line 762
  00000	55		 push	 ebp
  00001	8b ec		 mov	 ebp, esp
  00003	81 ec e4 00 00
	00		 sub	 esp, 228		; 000000e4H
  00009	53		 push	 ebx
  0000a	56		 push	 esi
  0000b	57		 push	 edi
  0000c	51		 push	 ecx
  0000d	8d bd 1c ff ff
	ff		 lea	 edi, DWORD PTR [ebp-228]
  00013	b9 39 00 00 00	 mov	 ecx, 57			; 00000039H
  00018	b8 cc cc cc cc	 mov	 eax, -858993460		; ccccccccH
  0001d	f3 ab		 rep stosd
  0001f	59		 pop	 ecx
  00020	89 4d f8	 mov	 DWORD PTR _this$[ebp], ecx
  00023	33 c0		 xor	 eax, eax
  00025	88 85 23 ff ff
	ff		 mov	 BYTE PTR $T1[ebp], al
  0002b	33 c9		 xor	 ecx, ecx
  0002d	88 8d 2f ff ff
	ff		 mov	 BYTE PTR $T2[ebp], cl
  00033	0f b6 95 23 ff
	ff ff		 movzx	 edx, BYTE PTR $T1[ebp]
  0003a	52		 push	 edx
  0003b	0f b6 85 2f ff
	ff ff		 movzx	 eax, BYTE PTR $T2[ebp]
  00042	50		 push	 eax
  00043	8d 4d 10	 lea	 ecx, DWORD PTR __Val2$[ebp]
  00046	51		 push	 ecx
  00047	8d 55 0c	 lea	 edx, DWORD PTR __Val1$[ebp]
  0004a	52		 push	 edx
  0004b	8b 4d f8	 mov	 ecx, DWORD PTR _this$[ebp]
  0004e	e8 00 00 00 00	 call	 ??$?0V?$tuple@ABW4SDL_Scancode@@@std@@V?$tuple@$$$V@1@$0A@$S@?$pair@$$CBW4SDL_Scancode@@_N@std@@QAE@AAV?$tuple@ABW4SDL_Scancode@@@1@AAV?$tuple@$$$V@1@U?$_Arg_idx@$0A@@1@U?$_Arg_idx@$S@1@@Z ; std::pair<enum SDL_Scancode const ,bool>::pair<enum SDL_Scancode const ,bool><std::tuple<enum SDL_Scancode const &>,std::tuple<>,0>
; Line 763
  00053	8b 45 f8	 mov	 eax, DWORD PTR _this$[ebp]
  00056	5f		 pop	 edi
  00057	5e		 pop	 esi
  00058	5b		 pop	 ebx
  00059	81 c4 e4 00 00
	00		 add	 esp, 228		; 000000e4H
  0005f	3b ec		 cmp	 ebp, esp
  00061	e8 00 00 00 00	 call	 __RTC_CheckEsp
  00066	8b e5		 mov	 esp, ebp
  00068	5d		 pop	 ebp
  00069	c2 0c 00	 ret	 12			; 0000000cH
??$?0ABW4SDL_Scancode@@$$$V@?$pair@$$CBW4SDL_Scancode@@_N@std@@QAE@Upiecewise_construct_t@1@V?$tuple@ABW4SDL_Scancode@@@1@V?$tuple@$$$V@1@@Z ENDP ; std::pair<enum SDL_Scancode const ,bool>::pair<enum SDL_Scancode const ,bool><enum SDL_Scancode const &>
_TEXT	ENDS
; Function compile flags: /Odtp /RTCsu /ZI
;	COMDAT ??$destroy@PAU?$_Tree_node@U?$pair@$$CBW4SDL_Scancode@@_N@std@@PAX@std@@@?$allocator@U?$_Tree_node@U?$pair@$$CBW4SDL_Scancode@@_N@std@@PAX@std@@@std@@QAEXPAPAU?$_Tree_node@U?$pair@$$CBW4SDL_Scancode@@_N@std@@PAX@1@@Z
_TEXT	SEGMENT
_this$ = -8						; size = 4
__Ptr$ = 8						; size = 4
??$destroy@PAU?$_Tree_node@U?$pair@$$CBW4SDL_Scancode@@_N@std@@PAX@std@@@?$allocator@U?$_Tree_node@U?$pair@$$CBW4SDL_Scancode@@_N@std@@PAX@std@@@std@@QAEXPAPAU?$_Tree_node@U?$pair@$$CBW4SDL_Scancode@@_N@std@@PAX@1@@Z PROC ; std::allocator<std::_Tree_node<std::pair<enum SDL_Scancode const ,bool>,void *> >::destroy<std::_Tree_node<std::pair<enum SDL_Scancode const ,bool>,void *> *>, COMDAT
; _this$ = ecx
; File c:\program files (x86)\microsoft visual studio 12.0\vc\include\xmemory0
; Line 605
  00000	55		 push	 ebp
  00001	8b ec		 mov	 ebp, esp
  00003	81 ec cc 00 00
	00		 sub	 esp, 204		; 000000ccH
  00009	53		 push	 ebx
  0000a	56		 push	 esi
  0000b	57		 push	 edi
  0000c	51		 push	 ecx
  0000d	8d bd 34 ff ff
	ff		 lea	 edi, DWORD PTR [ebp-204]
  00013	b9 33 00 00 00	 mov	 ecx, 51			; 00000033H
  00018	b8 cc cc cc cc	 mov	 eax, -858993460		; ccccccccH
  0001d	f3 ab		 rep stosd
  0001f	59		 pop	 ecx
  00020	89 4d f8	 mov	 DWORD PTR _this$[ebp], ecx
; Line 608
  00023	5f		 pop	 edi
  00024	5e		 pop	 esi
  00025	5b		 pop	 ebx
  00026	8b e5		 mov	 esp, ebp
  00028	5d		 pop	 ebp
  00029	c2 04 00	 ret	 4
??$destroy@PAU?$_Tree_node@U?$pair@$$CBW4SDL_Scancode@@_N@std@@PAX@std@@@?$allocator@U?$_Tree_node@U?$pair@$$CBW4SDL_Scancode@@_N@std@@PAX@std@@@std@@QAEXPAPAU?$_Tree_node@U?$pair@$$CBW4SDL_Scancode@@_N@std@@PAX@1@@Z ENDP ; std::allocator<std::_Tree_node<std::pair<enum SDL_Scancode const ,bool>,void *> >::destroy<std::_Tree_node<std::pair<enum SDL_Scancode const ,bool>,void *> *>
_TEXT	ENDS
; Function compile flags: /Odtp /RTCsu /ZI
;	COMDAT ??$construct@PAU?$_Tree_node@U?$pair@$$CBW4SDL_Scancode@@_N@std@@PAX@std@@AAPAU12@@?$allocator@U?$_Tree_node@U?$pair@$$CBW4SDL_Scancode@@_N@std@@PAX@std@@@std@@QAEXPAPAU?$_Tree_node@U?$pair@$$CBW4SDL_Scancode@@_N@std@@PAX@1@AAPAU21@@Z
_TEXT	SEGMENT
tv73 = -244						; size = 4
$T2 = -236						; size = 4
$T3 = -224						; size = 4
_this$ = -20						; size = 4
__$EHRec$ = -12						; size = 12
__Ptr$ = 8						; size = 4
_<_Args_0>$ = 12					; size = 4
??$construct@PAU?$_Tree_node@U?$pair@$$CBW4SDL_Scancode@@_N@std@@PAX@std@@AAPAU12@@?$allocator@U?$_Tree_node@U?$pair@$$CBW4SDL_Scancode@@_N@std@@PAX@std@@@std@@QAEXPAPAU?$_Tree_node@U?$pair@$$CBW4SDL_Scancode@@_N@std@@PAX@1@AAPAU21@@Z PROC ; std::allocator<std::_Tree_node<std::pair<enum SDL_Scancode const ,bool>,void *> >::construct<std::_Tree_node<std::pair<enum SDL_Scancode const ,bool>,void *> *,std::_Tree_node<std::pair<enum SDL_Scancode const ,bool>,void *> * &>, COMDAT
; _this$ = ecx
; File c:\program files (x86)\microsoft visual studio 12.0\vc\include\xmemory0
; Line 598
  00000	55		 push	 ebp
  00001	8b ec		 mov	 ebp, esp
  00003	6a ff		 push	 -1
  00005	68 00 00 00 00	 push	 __ehhandler$??$construct@PAU?$_Tree_node@U?$pair@$$CBW4SDL_Scancode@@_N@std@@PAX@std@@AAPAU12@@?$allocator@U?$_Tree_node@U?$pair@$$CBW4SDL_Scancode@@_N@std@@PAX@std@@@std@@QAEXPAPAU?$_Tree_node@U?$pair@$$CBW4SDL_Scancode@@_N@std@@PAX@1@AAPAU21@@Z
  0000a	64 a1 00 00 00
	00		 mov	 eax, DWORD PTR fs:0
  00010	50		 push	 eax
  00011	81 ec e8 00 00
	00		 sub	 esp, 232		; 000000e8H
  00017	53		 push	 ebx
  00018	56		 push	 esi
  00019	57		 push	 edi
  0001a	51		 push	 ecx
  0001b	8d bd 0c ff ff
	ff		 lea	 edi, DWORD PTR [ebp-244]
  00021	b9 3a 00 00 00	 mov	 ecx, 58			; 0000003aH
  00026	b8 cc cc cc cc	 mov	 eax, -858993460		; ccccccccH
  0002b	f3 ab		 rep stosd
  0002d	59		 pop	 ecx
  0002e	a1 00 00 00 00	 mov	 eax, DWORD PTR ___security_cookie
  00033	33 c5		 xor	 eax, ebp
  00035	50		 push	 eax
  00036	8d 45 f4	 lea	 eax, DWORD PTR __$EHRec$[ebp]
  00039	64 a3 00 00 00
	00		 mov	 DWORD PTR fs:0, eax
  0003f	89 4d ec	 mov	 DWORD PTR _this$[ebp], ecx
; Line 600
  00042	8b 45 08	 mov	 eax, DWORD PTR __Ptr$[ebp]
  00045	50		 push	 eax
  00046	6a 04		 push	 4
  00048	e8 00 00 00 00	 call	 ??2@YAPAXIPAX@Z		; operator new
  0004d	83 c4 08	 add	 esp, 8
  00050	89 85 20 ff ff
	ff		 mov	 DWORD PTR $T3[ebp], eax
  00056	c7 45 fc 00 00
	00 00		 mov	 DWORD PTR __$EHRec$[ebp+8], 0
  0005d	83 bd 20 ff ff
	ff 00		 cmp	 DWORD PTR $T3[ebp], 0
  00064	74 24		 je	 SHORT $LN3@construct
  00066	8b 4d 0c	 mov	 ecx, DWORD PTR _<_Args_0>$[ebp]
  00069	51		 push	 ecx
  0006a	e8 00 00 00 00	 call	 ??$forward@AAPAU?$_Tree_node@U?$pair@$$CBW4SDL_Scancode@@_N@std@@PAX@std@@@std@@YAAAPAU?$_Tree_node@U?$pair@$$CBW4SDL_Scancode@@_N@std@@PAX@0@AAPAU10@@Z ; std::forward<std::_Tree_node<std::pair<enum SDL_Scancode const ,bool>,void *> * &>
  0006f	83 c4 04	 add	 esp, 4
  00072	8b 95 20 ff ff
	ff		 mov	 edx, DWORD PTR $T3[ebp]
  00078	8b 00		 mov	 eax, DWORD PTR [eax]
  0007a	89 02		 mov	 DWORD PTR [edx], eax
  0007c	8b 8d 20 ff ff
	ff		 mov	 ecx, DWORD PTR $T3[ebp]
  00082	89 8d 0c ff ff
	ff		 mov	 DWORD PTR tv73[ebp], ecx
  00088	eb 0a		 jmp	 SHORT $LN4@construct
$LN3@construct:
  0008a	c7 85 0c ff ff
	ff 00 00 00 00	 mov	 DWORD PTR tv73[ebp], 0
$LN4@construct:
  00094	8b 95 0c ff ff
	ff		 mov	 edx, DWORD PTR tv73[ebp]
  0009a	89 95 14 ff ff
	ff		 mov	 DWORD PTR $T2[ebp], edx
  000a0	c7 45 fc ff ff
	ff ff		 mov	 DWORD PTR __$EHRec$[ebp+8], -1
; Line 601
  000a7	8b 4d f4	 mov	 ecx, DWORD PTR __$EHRec$[ebp]
  000aa	64 89 0d 00 00
	00 00		 mov	 DWORD PTR fs:0, ecx
  000b1	59		 pop	 ecx
  000b2	5f		 pop	 edi
  000b3	5e		 pop	 esi
  000b4	5b		 pop	 ebx
  000b5	81 c4 f4 00 00
	00		 add	 esp, 244		; 000000f4H
  000bb	3b ec		 cmp	 ebp, esp
  000bd	e8 00 00 00 00	 call	 __RTC_CheckEsp
  000c2	8b e5		 mov	 esp, ebp
  000c4	5d		 pop	 ebp
  000c5	c2 08 00	 ret	 8
_TEXT	ENDS
;	COMDAT text$x
text$x	SEGMENT
__unwindfunclet$??$construct@PAU?$_Tree_node@U?$pair@$$CBW4SDL_Scancode@@_N@std@@PAX@std@@AAPAU12@@?$allocator@U?$_Tree_node@U?$pair@$$CBW4SDL_Scancode@@_N@std@@PAX@std@@@std@@QAEXPAPAU?$_Tree_node@U?$pair@$$CBW4SDL_Scancode@@_N@std@@PAX@1@AAPAU21@@Z$0:
  00000	8b 45 08	 mov	 eax, DWORD PTR __Ptr$[ebp]
  00003	50		 push	 eax
  00004	8b 85 20 ff ff
	ff		 mov	 eax, DWORD PTR $T3[ebp]
  0000a	50		 push	 eax
  0000b	e8 00 00 00 00	 call	 ??3@YAXPAX0@Z		; operator delete
  00010	83 c4 08	 add	 esp, 8
  00013	c3		 ret	 0
__ehhandler$??$construct@PAU?$_Tree_node@U?$pair@$$CBW4SDL_Scancode@@_N@std@@PAX@std@@AAPAU12@@?$allocator@U?$_Tree_node@U?$pair@$$CBW4SDL_Scancode@@_N@std@@PAX@std@@@std@@QAEXPAPAU?$_Tree_node@U?$pair@$$CBW4SDL_Scancode@@_N@std@@PAX@1@AAPAU21@@Z:
  00014	8b 54 24 08	 mov	 edx, DWORD PTR [esp+8]
  00018	8d 42 0c	 lea	 eax, DWORD PTR [edx+12]
  0001b	8b 8a 08 ff ff
	ff		 mov	 ecx, DWORD PTR [edx-248]
  00021	33 c8		 xor	 ecx, eax
  00023	e8 00 00 00 00	 call	 @__security_check_cookie@4
  00028	b8 00 00 00 00	 mov	 eax, OFFSET __ehfuncinfo$??$construct@PAU?$_Tree_node@U?$pair@$$CBW4SDL_Scancode@@_N@std@@PAX@std@@AAPAU12@@?$allocator@U?$_Tree_node@U?$pair@$$CBW4SDL_Scancode@@_N@std@@PAX@std@@@std@@QAEXPAPAU?$_Tree_node@U?$pair@$$CBW4SDL_Scancode@@_N@std@@PAX@1@AAPAU21@@Z
  0002d	e9 00 00 00 00	 jmp	 ___CxxFrameHandler3
text$x	ENDS
??$construct@PAU?$_Tree_node@U?$pair@$$CBW4SDL_Scancode@@_N@std@@PAX@std@@AAPAU12@@?$allocator@U?$_Tree_node@U?$pair@$$CBW4SDL_Scancode@@_N@std@@PAX@std@@@std@@QAEXPAPAU?$_Tree_node@U?$pair@$$CBW4SDL_Scancode@@_N@std@@PAX@1@AAPAU21@@Z ENDP ; std::allocator<std::_Tree_node<std::pair<enum SDL_Scancode const ,bool>,void *> >::construct<std::_Tree_node<std::pair<enum SDL_Scancode const ,bool>,void *> *,std::_Tree_node<std::pair<enum SDL_Scancode const ,bool>,void *> * &>
; Function compile flags: /Odtp /RTCsu /ZI
;	COMDAT ??$forward@AAV?$_Tree_iterator@V?$_Tree_val@U?$_Tree_simple_types@U?$pair@$$CBW4SDL_Scancode@@_N@std@@@std@@@std@@@std@@@std@@YAAAV?$_Tree_iterator@V?$_Tree_val@U?$_Tree_simple_types@U?$pair@$$CBW4SDL_Scancode@@_N@std@@@std@@@std@@@0@AAV10@@Z
_TEXT	SEGMENT
__Arg$ = 8						; size = 4
??$forward@AAV?$_Tree_iterator@V?$_Tree_val@U?$_Tree_simple_types@U?$pair@$$CBW4SDL_Scancode@@_N@std@@@std@@@std@@@std@@@std@@YAAAV?$_Tree_iterator@V?$_Tree_val@U?$_Tree_simple_types@U?$pair@$$CBW4SDL_Scancode@@_N@std@@@std@@@std@@@0@AAV10@@Z PROC ; std::forward<std::_Tree_iterator<std::_Tree_val<std::_Tree_simple_types<std::pair<enum SDL_Scancode const ,bool> > > > &>, COMDAT
; File c:\program files (x86)\microsoft visual studio 12.0\vc\include\type_traits
; Line 1504
  00000	55		 push	 ebp
  00001	8b ec		 mov	 ebp, esp
  00003	81 ec c0 00 00
	00		 sub	 esp, 192		; 000000c0H
  00009	53		 push	 ebx
  0000a	56		 push	 esi
  0000b	57		 push	 edi
  0000c	8d bd 40 ff ff
	ff		 lea	 edi, DWORD PTR [ebp-192]
  00012	b9 30 00 00 00	 mov	 ecx, 48			; 00000030H
  00017	b8 cc cc cc cc	 mov	 eax, -858993460		; ccccccccH
  0001c	f3 ab		 rep stosd
; Line 1505
  0001e	8b 45 08	 mov	 eax, DWORD PTR __Arg$[ebp]
; Line 1506
  00021	5f		 pop	 edi
  00022	5e		 pop	 esi
  00023	5b		 pop	 ebx
  00024	8b e5		 mov	 esp, ebp
  00026	5d		 pop	 ebp
  00027	c3		 ret	 0
??$forward@AAV?$_Tree_iterator@V?$_Tree_val@U?$_Tree_simple_types@U?$pair@$$CBW4SDL_Scancode@@_N@std@@@std@@@std@@@std@@@std@@YAAAV?$_Tree_iterator@V?$_Tree_val@U?$_Tree_simple_types@U?$pair@$$CBW4SDL_Scancode@@_N@std@@@std@@@std@@@0@AAV10@@Z ENDP ; std::forward<std::_Tree_iterator<std::_Tree_val<std::_Tree_simple_types<std::pair<enum SDL_Scancode const ,bool> > > > &>
_TEXT	ENDS
; Function compile flags: /Odtp /RTCsu /ZI
;	COMDAT ??$forward@_N@std@@YA$$QA_NAA_N@Z
_TEXT	SEGMENT
__Arg$ = 8						; size = 4
??$forward@_N@std@@YA$$QA_NAA_N@Z PROC			; std::forward<bool>, COMDAT
; File c:\program files (x86)\microsoft visual studio 12.0\vc\include\type_traits
; Line 1504
  00000	55		 push	 ebp
  00001	8b ec		 mov	 ebp, esp
  00003	81 ec c0 00 00
	00		 sub	 esp, 192		; 000000c0H
  00009	53		 push	 ebx
  0000a	56		 push	 esi
  0000b	57		 push	 edi
  0000c	8d bd 40 ff ff
	ff		 lea	 edi, DWORD PTR [ebp-192]
  00012	b9 30 00 00 00	 mov	 ecx, 48			; 00000030H
  00017	b8 cc cc cc cc	 mov	 eax, -858993460		; ccccccccH
  0001c	f3 ab		 rep stosd
; Line 1505
  0001e	8b 45 08	 mov	 eax, DWORD PTR __Arg$[ebp]
; Line 1506
  00021	5f		 pop	 edi
  00022	5e		 pop	 esi
  00023	5b		 pop	 ebx
  00024	8b e5		 mov	 esp, ebp
  00026	5d		 pop	 ebp
  00027	c3		 ret	 0
??$forward@_N@std@@YA$$QA_NAA_N@Z ENDP			; std::forward<bool>
_TEXT	ENDS
; Function compile flags: /Odtp /RTCsu /ZI
;	COMDAT ??$forward@V?$_Tree_iterator@V?$_Tree_val@U?$_Tree_simple_types@U?$pair@$$CBW4SDL_Scancode@@_N@std@@@std@@@std@@@std@@@std@@YA$$QAV?$_Tree_iterator@V?$_Tree_val@U?$_Tree_simple_types@U?$pair@$$CBW4SDL_Scancode@@_N@std@@@std@@@std@@@0@AAV10@@Z
_TEXT	SEGMENT
__Arg$ = 8						; size = 4
??$forward@V?$_Tree_iterator@V?$_Tree_val@U?$_Tree_simple_types@U?$pair@$$CBW4SDL_Scancode@@_N@std@@@std@@@std@@@std@@@std@@YA$$QAV?$_Tree_iterator@V?$_Tree_val@U?$_Tree_simple_types@U?$pair@$$CBW4SDL_Scancode@@_N@std@@@std@@@std@@@0@AAV10@@Z PROC ; std::forward<std::_Tree_iterator<std::_Tree_val<std::_Tree_simple_types<std::pair<enum SDL_Scancode const ,bool> > > > >, COMDAT
; File c:\program files (x86)\microsoft visual studio 12.0\vc\include\type_traits
; Line 1504
  00000	55		 push	 ebp
  00001	8b ec		 mov	 ebp, esp
  00003	81 ec c0 00 00
	00		 sub	 esp, 192		; 000000c0H
  00009	53		 push	 ebx
  0000a	56		 push	 esi
  0000b	57		 push	 edi
  0000c	8d bd 40 ff ff
	ff		 lea	 edi, DWORD PTR [ebp-192]
  00012	b9 30 00 00 00	 mov	 ecx, 48			; 00000030H
  00017	b8 cc cc cc cc	 mov	 eax, -858993460		; ccccccccH
  0001c	f3 ab		 rep stosd
; Line 1505
  0001e	8b 45 08	 mov	 eax, DWORD PTR __Arg$[ebp]
; Line 1506
  00021	5f		 pop	 edi
  00022	5e		 pop	 esi
  00023	5b		 pop	 ebx
  00024	8b e5		 mov	 esp, ebp
  00026	5d		 pop	 ebp
  00027	c3		 ret	 0
??$forward@V?$_Tree_iterator@V?$_Tree_val@U?$_Tree_simple_types@U?$pair@$$CBW4SDL_Scancode@@_N@std@@@std@@@std@@@std@@@std@@YA$$QAV?$_Tree_iterator@V?$_Tree_val@U?$_Tree_simple_types@U?$pair@$$CBW4SDL_Scancode@@_N@std@@@std@@@std@@@0@AAV10@@Z ENDP ; std::forward<std::_Tree_iterator<std::_Tree_val<std::_Tree_simple_types<std::pair<enum SDL_Scancode const ,bool> > > > >
_TEXT	ENDS
; Function compile flags: /Odtp /RTCsu /ZI
;	COMDAT ??$construct@U?$pair@$$CBW4SDL_Scancode@@_N@std@@ABUpiecewise_construct_t@2@V?$tuple@ABW4SDL_Scancode@@@2@V?$tuple@$$$V@2@@?$allocator@U?$_Tree_node@U?$pair@$$CBW4SDL_Scancode@@_N@std@@PAX@std@@@std@@QAEXPAU?$pair@$$CBW4SDL_Scancode@@_N@1@ABUpiecewise_construct_t@1@$$QAV?$tuple@ABW4SDL_Scancode@@@1@$$QAV?$tuple@$$$V@1@@Z
_TEXT	SEGMENT
tv134 = -268						; size = 4
$T2 = -260						; size = 4
$T3 = -248						; size = 4
$T4 = -236						; size = 4
$T5 = -224						; size = 4
_this$ = -20						; size = 4
__$EHRec$ = -12						; size = 12
__Ptr$ = 8						; size = 4
_<_Args_0>$ = 12					; size = 4
_<_Args_1>$ = 16					; size = 4
_<_Args_2>$ = 20					; size = 4
??$construct@U?$pair@$$CBW4SDL_Scancode@@_N@std@@ABUpiecewise_construct_t@2@V?$tuple@ABW4SDL_Scancode@@@2@V?$tuple@$$$V@2@@?$allocator@U?$_Tree_node@U?$pair@$$CBW4SDL_Scancode@@_N@std@@PAX@std@@@std@@QAEXPAU?$pair@$$CBW4SDL_Scancode@@_N@1@ABUpiecewise_construct_t@1@$$QAV?$tuple@ABW4SDL_Scancode@@@1@$$QAV?$tuple@$$$V@1@@Z PROC ; std::allocator<std::_Tree_node<std::pair<enum SDL_Scancode const ,bool>,void *> >::construct<std::pair<enum SDL_Scancode const ,bool>,std::piecewise_construct_t const &,std::tuple<enum SDL_Scancode const &>,std::tuple<> >, COMDAT
; _this$ = ecx
; File c:\program files (x86)\microsoft visual studio 12.0\vc\include\xmemory0
; Line 598
  00000	55		 push	 ebp
  00001	8b ec		 mov	 ebp, esp
  00003	6a ff		 push	 -1
  00005	68 00 00 00 00	 push	 __ehhandler$??$construct@U?$pair@$$CBW4SDL_Scancode@@_N@std@@ABUpiecewise_construct_t@2@V?$tuple@ABW4SDL_Scancode@@@2@V?$tuple@$$$V@2@@?$allocator@U?$_Tree_node@U?$pair@$$CBW4SDL_Scancode@@_N@std@@PAX@std@@@std@@QAEXPAU?$pair@$$CBW4SDL_Scancode@@_N@1@ABUpiecewise_construct_t@1@$$QAV?$tuple@ABW4SDL_Scancode@@@1@$$QAV?$tuple@$$$V@1@@Z
  0000a	64 a1 00 00 00
	00		 mov	 eax, DWORD PTR fs:0
  00010	50		 push	 eax
  00011	81 ec 00 01 00
	00		 sub	 esp, 256		; 00000100H
  00017	53		 push	 ebx
  00018	56		 push	 esi
  00019	57		 push	 edi
  0001a	51		 push	 ecx
  0001b	8d bd f4 fe ff
	ff		 lea	 edi, DWORD PTR [ebp-268]
  00021	b9 40 00 00 00	 mov	 ecx, 64			; 00000040H
  00026	b8 cc cc cc cc	 mov	 eax, -858993460		; ccccccccH
  0002b	f3 ab		 rep stosd
  0002d	59		 pop	 ecx
  0002e	a1 00 00 00 00	 mov	 eax, DWORD PTR ___security_cookie
  00033	33 c5		 xor	 eax, ebp
  00035	50		 push	 eax
  00036	8d 45 f4	 lea	 eax, DWORD PTR __$EHRec$[ebp]
  00039	64 a3 00 00 00
	00		 mov	 DWORD PTR fs:0, eax
  0003f	89 4d ec	 mov	 DWORD PTR _this$[ebp], ecx
; Line 600
  00042	8b 45 08	 mov	 eax, DWORD PTR __Ptr$[ebp]
  00045	50		 push	 eax
  00046	6a 08		 push	 8
  00048	e8 00 00 00 00	 call	 ??2@YAPAXIPAX@Z		; operator new
  0004d	83 c4 08	 add	 esp, 8
  00050	89 85 08 ff ff
	ff		 mov	 DWORD PTR $T3[ebp], eax
  00056	c7 45 fc 00 00
	00 00		 mov	 DWORD PTR __$EHRec$[ebp+8], 0
  0005d	83 bd 08 ff ff
	ff 00		 cmp	 DWORD PTR $T3[ebp], 0
  00064	74 53		 je	 SHORT $LN3@construct
  00066	8b 4d 14	 mov	 ecx, DWORD PTR _<_Args_2>$[ebp]
  00069	51		 push	 ecx
  0006a	e8 00 00 00 00	 call	 ??$forward@V?$tuple@$$$V@std@@@std@@YA$$QAV?$tuple@$$$V@0@AAV10@@Z ; std::forward<std::tuple<> >
  0006f	8b cc		 mov	 ecx, esp
  00071	89 a5 14 ff ff
	ff		 mov	 DWORD PTR $T4[ebp], esp
  00077	50		 push	 eax
  00078	e8 00 00 00 00	 call	 ??0?$tuple@$$$V@std@@QAE@ABV01@@Z ; std::tuple<>::tuple<>
  0007d	8b 55 10	 mov	 edx, DWORD PTR _<_Args_1>$[ebp]
  00080	52		 push	 edx
  00081	e8 00 00 00 00	 call	 ??$forward@V?$tuple@ABW4SDL_Scancode@@@std@@@std@@YA$$QAV?$tuple@ABW4SDL_Scancode@@@0@AAV10@@Z ; std::forward<std::tuple<enum SDL_Scancode const &> >
  00086	8b cc		 mov	 ecx, esp
  00088	89 a5 20 ff ff
	ff		 mov	 DWORD PTR $T5[ebp], esp
  0008e	50		 push	 eax
  0008f	e8 00 00 00 00	 call	 ??$?0ABW4SDL_Scancode@@PAPAX@?$tuple@ABW4SDL_Scancode@@@std@@QAE@$$QAV01@@Z ; std::tuple<enum SDL_Scancode const &>::tuple<enum SDL_Scancode const &><enum SDL_Scancode const &,void * *>
  00094	8b 45 0c	 mov	 eax, DWORD PTR _<_Args_0>$[ebp]
  00097	50		 push	 eax
  00098	e8 00 00 00 00	 call	 ??$forward@ABUpiecewise_construct_t@std@@@std@@YAABUpiecewise_construct_t@0@ABU10@@Z ; std::forward<std::piecewise_construct_t const &>
  0009d	83 c4 04	 add	 esp, 4
  000a0	8a 08		 mov	 cl, BYTE PTR [eax]
  000a2	0f b6 d1	 movzx	 edx, cl
  000a5	52		 push	 edx
  000a6	8b 8d 08 ff ff
	ff		 mov	 ecx, DWORD PTR $T3[ebp]
  000ac	e8 00 00 00 00	 call	 ??$?0ABW4SDL_Scancode@@$$$V@?$pair@$$CBW4SDL_Scancode@@_N@std@@QAE@Upiecewise_construct_t@1@V?$tuple@ABW4SDL_Scancode@@@1@V?$tuple@$$$V@1@@Z ; std::pair<enum SDL_Scancode const ,bool>::pair<enum SDL_Scancode const ,bool><enum SDL_Scancode const &>
  000b1	89 85 f4 fe ff
	ff		 mov	 DWORD PTR tv134[ebp], eax
  000b7	eb 0a		 jmp	 SHORT $LN4@construct
$LN3@construct:
  000b9	c7 85 f4 fe ff
	ff 00 00 00 00	 mov	 DWORD PTR tv134[ebp], 0
$LN4@construct:
  000c3	8b 85 f4 fe ff
	ff		 mov	 eax, DWORD PTR tv134[ebp]
  000c9	89 85 fc fe ff
	ff		 mov	 DWORD PTR $T2[ebp], eax
  000cf	c7 45 fc ff ff
	ff ff		 mov	 DWORD PTR __$EHRec$[ebp+8], -1
; Line 601
  000d6	8b 4d f4	 mov	 ecx, DWORD PTR __$EHRec$[ebp]
  000d9	64 89 0d 00 00
	00 00		 mov	 DWORD PTR fs:0, ecx
  000e0	59		 pop	 ecx
  000e1	5f		 pop	 edi
  000e2	5e		 pop	 esi
  000e3	5b		 pop	 ebx
  000e4	81 c4 0c 01 00
	00		 add	 esp, 268		; 0000010cH
  000ea	3b ec		 cmp	 ebp, esp
  000ec	e8 00 00 00 00	 call	 __RTC_CheckEsp
  000f1	8b e5		 mov	 esp, ebp
  000f3	5d		 pop	 ebp
  000f4	c2 10 00	 ret	 16			; 00000010H
_TEXT	ENDS
;	COMDAT text$x
text$x	SEGMENT
__unwindfunclet$??$construct@U?$pair@$$CBW4SDL_Scancode@@_N@std@@ABUpiecewise_construct_t@2@V?$tuple@ABW4SDL_Scancode@@@2@V?$tuple@$$$V@2@@?$allocator@U?$_Tree_node@U?$pair@$$CBW4SDL_Scancode@@_N@std@@PAX@std@@@std@@QAEXPAU?$pair@$$CBW4SDL_Scancode@@_N@1@ABUpiecewise_construct_t@1@$$QAV?$tuple@ABW4SDL_Scancode@@@1@$$QAV?$tuple@$$$V@1@@Z$0:
  00000	8b 45 08	 mov	 eax, DWORD PTR __Ptr$[ebp]
  00003	50		 push	 eax
  00004	8b 85 08 ff ff
	ff		 mov	 eax, DWORD PTR $T3[ebp]
  0000a	50		 push	 eax
  0000b	e8 00 00 00 00	 call	 ??3@YAXPAX0@Z		; operator delete
  00010	83 c4 08	 add	 esp, 8
  00013	c3		 ret	 0
__ehhandler$??$construct@U?$pair@$$CBW4SDL_Scancode@@_N@std@@ABUpiecewise_construct_t@2@V?$tuple@ABW4SDL_Scancode@@@2@V?$tuple@$$$V@2@@?$allocator@U?$_Tree_node@U?$pair@$$CBW4SDL_Scancode@@_N@std@@PAX@std@@@std@@QAEXPAU?$pair@$$CBW4SDL_Scancode@@_N@1@ABUpiecewise_construct_t@1@$$QAV?$tuple@ABW4SDL_Scancode@@@1@$$QAV?$tuple@$$$V@1@@Z:
  00014	8b 54 24 08	 mov	 edx, DWORD PTR [esp+8]
  00018	8d 42 0c	 lea	 eax, DWORD PTR [edx+12]
  0001b	8b 8a f0 fe ff
	ff		 mov	 ecx, DWORD PTR [edx-272]
  00021	33 c8		 xor	 ecx, eax
  00023	e8 00 00 00 00	 call	 @__security_check_cookie@4
  00028	b8 00 00 00 00	 mov	 eax, OFFSET __ehfuncinfo$??$construct@U?$pair@$$CBW4SDL_Scancode@@_N@std@@ABUpiecewise_construct_t@2@V?$tuple@ABW4SDL_Scancode@@@2@V?$tuple@$$$V@2@@?$allocator@U?$_Tree_node@U?$pair@$$CBW4SDL_Scancode@@_N@std@@PAX@std@@@std@@QAEXPAU?$pair@$$CBW4SDL_Scancode@@_N@1@ABUpiecewise_construct_t@1@$$QAV?$tuple@ABW4SDL_Scancode@@@1@$$QAV?$tuple@$$$V@1@@Z
  0002d	e9 00 00 00 00	 jmp	 ___CxxFrameHandler3
text$x	ENDS
??$construct@U?$pair@$$CBW4SDL_Scancode@@_N@std@@ABUpiecewise_construct_t@2@V?$tuple@ABW4SDL_Scancode@@@2@V?$tuple@$$$V@2@@?$allocator@U?$_Tree_node@U?$pair@$$CBW4SDL_Scancode@@_N@std@@PAX@std@@@std@@QAEXPAU?$pair@$$CBW4SDL_Scancode@@_N@1@ABUpiecewise_construct_t@1@$$QAV?$tuple@ABW4SDL_Scancode@@@1@$$QAV?$tuple@$$$V@1@@Z ENDP ; std::allocator<std::_Tree_node<std::pair<enum SDL_Scancode const ,bool>,void *> >::construct<std::pair<enum SDL_Scancode const ,bool>,std::piecewise_construct_t const &,std::tuple<enum SDL_Scancode const &>,std::tuple<> >
; Function compile flags: /Odtp /RTCsu /ZI
;	COMDAT ??$destroy@PAU?$_Tree_node@U?$pair@$$CBW4SDL_Scancode@@_N@std@@PAX@std@@@?$allocator_traits@V?$allocator@U?$_Tree_node@U?$pair@$$CBW4SDL_Scancode@@_N@std@@PAX@std@@@std@@@std@@SAXAAV?$allocator@U?$_Tree_node@U?$pair@$$CBW4SDL_Scancode@@_N@std@@PAX@std@@@1@PAPAU?$_Tree_node@U?$pair@$$CBW4SDL_Scancode@@_N@std@@PAX@1@@Z
_TEXT	SEGMENT
__Al$ = 8						; size = 4
__Ptr$ = 12						; size = 4
??$destroy@PAU?$_Tree_node@U?$pair@$$CBW4SDL_Scancode@@_N@std@@PAX@std@@@?$allocator_traits@V?$allocator@U?$_Tree_node@U?$pair@$$CBW4SDL_Scancode@@_N@std@@PAX@std@@@std@@@std@@SAXAAV?$allocator@U?$_Tree_node@U?$pair@$$CBW4SDL_Scancode@@_N@std@@PAX@std@@@1@PAPAU?$_Tree_node@U?$pair@$$CBW4SDL_Scancode@@_N@std@@PAX@1@@Z PROC ; std::allocator_traits<std::allocator<std::_Tree_node<std::pair<enum SDL_Scancode const ,bool>,void *> > >::destroy<std::_Tree_node<std::pair<enum SDL_Scancode const ,bool>,void *> *>, COMDAT
; File c:\program files (x86)\microsoft visual studio 12.0\vc\include\xmemory0
; Line 728
  00000	55		 push	 ebp
  00001	8b ec		 mov	 ebp, esp
  00003	81 ec c0 00 00
	00		 sub	 esp, 192		; 000000c0H
  00009	53		 push	 ebx
  0000a	56		 push	 esi
  0000b	57		 push	 edi
  0000c	8d bd 40 ff ff
	ff		 lea	 edi, DWORD PTR [ebp-192]
  00012	b9 30 00 00 00	 mov	 ecx, 48			; 00000030H
  00017	b8 cc cc cc cc	 mov	 eax, -858993460		; ccccccccH
  0001c	f3 ab		 rep stosd
; Line 730
  0001e	8b 45 0c	 mov	 eax, DWORD PTR __Ptr$[ebp]
  00021	50		 push	 eax
  00022	8b 4d 08	 mov	 ecx, DWORD PTR __Al$[ebp]
  00025	e8 00 00 00 00	 call	 ??$destroy@PAU?$_Tree_node@U?$pair@$$CBW4SDL_Scancode@@_N@std@@PAX@std@@@?$allocator@U?$_Tree_node@U?$pair@$$CBW4SDL_Scancode@@_N@std@@PAX@std@@@std@@QAEXPAPAU?$_Tree_node@U?$pair@$$CBW4SDL_Scancode@@_N@std@@PAX@1@@Z ; std::allocator<std::_Tree_node<std::pair<enum SDL_Scancode const ,bool>,void *> >::destroy<std::_Tree_node<std::pair<enum SDL_Scancode const ,bool>,void *> *>
; Line 731
  0002a	5f		 pop	 edi
  0002b	5e		 pop	 esi
  0002c	5b		 pop	 ebx
  0002d	81 c4 c0 00 00
	00		 add	 esp, 192		; 000000c0H
  00033	3b ec		 cmp	 ebp, esp
  00035	e8 00 00 00 00	 call	 __RTC_CheckEsp
  0003a	8b e5		 mov	 esp, ebp
  0003c	5d		 pop	 ebp
  0003d	c3		 ret	 0
??$destroy@PAU?$_Tree_node@U?$pair@$$CBW4SDL_Scancode@@_N@std@@PAX@std@@@?$allocator_traits@V?$allocator@U?$_Tree_node@U?$pair@$$CBW4SDL_Scancode@@_N@std@@PAX@std@@@std@@@std@@SAXAAV?$allocator@U?$_Tree_node@U?$pair@$$CBW4SDL_Scancode@@_N@std@@PAX@std@@@1@PAPAU?$_Tree_node@U?$pair@$$CBW4SDL_Scancode@@_N@std@@PAX@1@@Z ENDP ; std::allocator_traits<std::allocator<std::_Tree_node<std::pair<enum SDL_Scancode const ,bool>,void *> > >::destroy<std::_Tree_node<std::pair<enum SDL_Scancode const ,bool>,void *> *>
_TEXT	ENDS
; Function compile flags: /Odtp /RTCsu /ZI
;	COMDAT ??$construct@PAU?$_Tree_node@U?$pair@$$CBW4SDL_Scancode@@_N@std@@PAX@std@@AAPAU12@@?$allocator_traits@V?$allocator@U?$_Tree_node@U?$pair@$$CBW4SDL_Scancode@@_N@std@@PAX@std@@@std@@@std@@SAXAAV?$allocator@U?$_Tree_node@U?$pair@$$CBW4SDL_Scancode@@_N@std@@PAX@std@@@1@PAPAU?$_Tree_node@U?$pair@$$CBW4SDL_Scancode@@_N@std@@PAX@1@AAPAU31@@Z
_TEXT	SEGMENT
__Al$ = 8						; size = 4
__Ptr$ = 12						; size = 4
_<_Args_0>$ = 16					; size = 4
??$construct@PAU?$_Tree_node@U?$pair@$$CBW4SDL_Scancode@@_N@std@@PAX@std@@AAPAU12@@?$allocator_traits@V?$allocator@U?$_Tree_node@U?$pair@$$CBW4SDL_Scancode@@_N@std@@PAX@std@@@std@@@std@@SAXAAV?$allocator@U?$_Tree_node@U?$pair@$$CBW4SDL_Scancode@@_N@std@@PAX@std@@@1@PAPAU?$_Tree_node@U?$pair@$$CBW4SDL_Scancode@@_N@std@@PAX@1@AAPAU31@@Z PROC ; std::allocator_traits<std::allocator<std::_Tree_node<std::pair<enum SDL_Scancode const ,bool>,void *> > >::construct<std::_Tree_node<std::pair<enum SDL_Scancode const ,bool>,void *> *,std::_Tree_node<std::pair<enum SDL_Scancode const ,bool>,void *> * &>, COMDAT
; File c:\program files (x86)\microsoft visual studio 12.0\vc\include\xmemory0
; Line 720
  00000	55		 push	 ebp
  00001	8b ec		 mov	 ebp, esp
  00003	81 ec c0 00 00
	00		 sub	 esp, 192		; 000000c0H
  00009	53		 push	 ebx
  0000a	56		 push	 esi
  0000b	57		 push	 edi
  0000c	8d bd 40 ff ff
	ff		 lea	 edi, DWORD PTR [ebp-192]
  00012	b9 30 00 00 00	 mov	 ecx, 48			; 00000030H
  00017	b8 cc cc cc cc	 mov	 eax, -858993460		; ccccccccH
  0001c	f3 ab		 rep stosd
; Line 723
  0001e	8b 45 10	 mov	 eax, DWORD PTR _<_Args_0>$[ebp]
  00021	50		 push	 eax
  00022	e8 00 00 00 00	 call	 ??$forward@AAPAU?$_Tree_node@U?$pair@$$CBW4SDL_Scancode@@_N@std@@PAX@std@@@std@@YAAAPAU?$_Tree_node@U?$pair@$$CBW4SDL_Scancode@@_N@std@@PAX@0@AAPAU10@@Z ; std::forward<std::_Tree_node<std::pair<enum SDL_Scancode const ,bool>,void *> * &>
  00027	83 c4 04	 add	 esp, 4
  0002a	50		 push	 eax
  0002b	8b 4d 0c	 mov	 ecx, DWORD PTR __Ptr$[ebp]
  0002e	51		 push	 ecx
  0002f	8b 4d 08	 mov	 ecx, DWORD PTR __Al$[ebp]
  00032	e8 00 00 00 00	 call	 ??$construct@PAU?$_Tree_node@U?$pair@$$CBW4SDL_Scancode@@_N@std@@PAX@std@@AAPAU12@@?$allocator@U?$_Tree_node@U?$pair@$$CBW4SDL_Scancode@@_N@std@@PAX@std@@@std@@QAEXPAPAU?$_Tree_node@U?$pair@$$CBW4SDL_Scancode@@_N@std@@PAX@1@AAPAU21@@Z ; std::allocator<std::_Tree_node<std::pair<enum SDL_Scancode const ,bool>,void *> >::construct<std::_Tree_node<std::pair<enum SDL_Scancode const ,bool>,void *> *,std::_Tree_node<std::pair<enum SDL_Scancode const ,bool>,void *> * &>
; Line 724
  00037	5f		 pop	 edi
  00038	5e		 pop	 esi
  00039	5b		 pop	 ebx
  0003a	81 c4 c0 00 00
	00		 add	 esp, 192		; 000000c0H
  00040	3b ec		 cmp	 ebp, esp
  00042	e8 00 00 00 00	 call	 __RTC_CheckEsp
  00047	8b e5		 mov	 esp, ebp
  00049	5d		 pop	 ebp
  0004a	c3		 ret	 0
??$construct@PAU?$_Tree_node@U?$pair@$$CBW4SDL_Scancode@@_N@std@@PAX@std@@AAPAU12@@?$allocator_traits@V?$allocator@U?$_Tree_node@U?$pair@$$CBW4SDL_Scancode@@_N@std@@PAX@std@@@std@@@std@@SAXAAV?$allocator@U?$_Tree_node@U?$pair@$$CBW4SDL_Scancode@@_N@std@@PAX@std@@@1@PAPAU?$_Tree_node@U?$pair@$$CBW4SDL_Scancode@@_N@std@@PAX@1@AAPAU31@@Z ENDP ; std::allocator_traits<std::allocator<std::_Tree_node<std::pair<enum SDL_Scancode const ,bool>,void *> > >::construct<std::_Tree_node<std::pair<enum SDL_Scancode const ,bool>,void *> *,std::_Tree_node<std::pair<enum SDL_Scancode const ,bool>,void *> * &>
_TEXT	ENDS
; Function compile flags: /Odtp /RTCsu /ZI
;	COMDAT ??$forward@AAPAU?$_Tree_node@U?$pair@$$CBW4SDL_Scancode@@_N@std@@PAX@std@@@std@@YAAAPAU?$_Tree_node@U?$pair@$$CBW4SDL_Scancode@@_N@std@@PAX@0@AAPAU10@@Z
_TEXT	SEGMENT
__Arg$ = 8						; size = 4
??$forward@AAPAU?$_Tree_node@U?$pair@$$CBW4SDL_Scancode@@_N@std@@PAX@std@@@std@@YAAAPAU?$_Tree_node@U?$pair@$$CBW4SDL_Scancode@@_N@std@@PAX@0@AAPAU10@@Z PROC ; std::forward<std::_Tree_node<std::pair<enum SDL_Scancode const ,bool>,void *> * &>, COMDAT
; File c:\program files (x86)\microsoft visual studio 12.0\vc\include\type_traits
; Line 1504
  00000	55		 push	 ebp
  00001	8b ec		 mov	 ebp, esp
  00003	81 ec c0 00 00
	00		 sub	 esp, 192		; 000000c0H
  00009	53		 push	 ebx
  0000a	56		 push	 esi
  0000b	57		 push	 edi
  0000c	8d bd 40 ff ff
	ff		 lea	 edi, DWORD PTR [ebp-192]
  00012	b9 30 00 00 00	 mov	 ecx, 48			; 00000030H
  00017	b8 cc cc cc cc	 mov	 eax, -858993460		; ccccccccH
  0001c	f3 ab		 rep stosd
; Line 1505
  0001e	8b 45 08	 mov	 eax, DWORD PTR __Arg$[ebp]
; Line 1506
  00021	5f		 pop	 edi
  00022	5e		 pop	 esi
  00023	5b		 pop	 ebx
  00024	8b e5		 mov	 esp, ebp
  00026	5d		 pop	 ebp
  00027	c3		 ret	 0
??$forward@AAPAU?$_Tree_node@U?$pair@$$CBW4SDL_Scancode@@_N@std@@PAX@std@@@std@@YAAAPAU?$_Tree_node@U?$pair@$$CBW4SDL_Scancode@@_N@std@@PAX@0@AAPAU10@@Z ENDP ; std::forward<std::_Tree_node<std::pair<enum SDL_Scancode const ,bool>,void *> * &>
_TEXT	ENDS
; Function compile flags: /Odtp /RTCsu /ZI
;	COMDAT ??$?0AAV?$_Tree_iterator@V?$_Tree_val@U?$_Tree_simple_types@U?$pair@$$CBW4SDL_Scancode@@_N@std@@@std@@@std@@@std@@_NX@?$pair@V?$_Tree_iterator@V?$_Tree_val@U?$_Tree_simple_types@U?$pair@$$CBW4SDL_Scancode@@_N@std@@@std@@@std@@@std@@_N@std@@QAE@AAV?$_Tree_iterator@V?$_Tree_val@U?$_Tree_simple_types@U?$pair@$$CBW4SDL_Scancode@@_N@std@@@std@@@std@@@1@$$QA_N@Z
_TEXT	SEGMENT
_this$ = -20						; size = 4
__$EHRec$ = -12						; size = 12
__Val1$ = 8						; size = 4
__Val2$ = 12						; size = 4
??$?0AAV?$_Tree_iterator@V?$_Tree_val@U?$_Tree_simple_types@U?$pair@$$CBW4SDL_Scancode@@_N@std@@@std@@@std@@@std@@_NX@?$pair@V?$_Tree_iterator@V?$_Tree_val@U?$_Tree_simple_types@U?$pair@$$CBW4SDL_Scancode@@_N@std@@@std@@@std@@@std@@_N@std@@QAE@AAV?$_Tree_iterator@V?$_Tree_val@U?$_Tree_simple_types@U?$pair@$$CBW4SDL_Scancode@@_N@std@@@std@@@std@@@1@$$QA_N@Z PROC ; std::pair<std::_Tree_iterator<std::_Tree_val<std::_Tree_simple_types<std::pair<enum SDL_Scancode const ,bool> > > >,bool>::pair<std::_Tree_iterator<std::_Tree_val<std::_Tree_simple_types<std::pair<enum SDL_Scancode const ,bool> > > >,bool><std::_Tree_iterator<std::_Tree_val<std::_Tree_simple_types<std::pair<enum SDL_Scancode const ,bool> > > > &,bool,void>, COMDAT
; _this$ = ecx
; File c:\program files (x86)\microsoft visual studio 12.0\vc\include\utility
; Line 144
  00000	55		 push	 ebp
  00001	8b ec		 mov	 ebp, esp
  00003	6a ff		 push	 -1
  00005	68 00 00 00 00	 push	 __ehhandler$??$?0AAV?$_Tree_iterator@V?$_Tree_val@U?$_Tree_simple_types@U?$pair@$$CBW4SDL_Scancode@@_N@std@@@std@@@std@@@std@@_NX@?$pair@V?$_Tree_iterator@V?$_Tree_val@U?$_Tree_simple_types@U?$pair@$$CBW4SDL_Scancode@@_N@std@@@std@@@std@@@std@@_N@std@@QAE@AAV?$_Tree_iterator@V?$_Tree_val@U?$_Tree_simple_types@U?$pair@$$CBW4SDL_Scancode@@_N@std@@@std@@@std@@@1@$$QA_N@Z
  0000a	64 a1 00 00 00
	00		 mov	 eax, DWORD PTR fs:0
  00010	50		 push	 eax
  00011	81 ec cc 00 00
	00		 sub	 esp, 204		; 000000ccH
  00017	53		 push	 ebx
  00018	56		 push	 esi
  00019	57		 push	 edi
  0001a	51		 push	 ecx
  0001b	8d bd 28 ff ff
	ff		 lea	 edi, DWORD PTR [ebp-216]
  00021	b9 33 00 00 00	 mov	 ecx, 51			; 00000033H
  00026	b8 cc cc cc cc	 mov	 eax, -858993460		; ccccccccH
  0002b	f3 ab		 rep stosd
  0002d	59		 pop	 ecx
  0002e	a1 00 00 00 00	 mov	 eax, DWORD PTR ___security_cookie
  00033	33 c5		 xor	 eax, ebp
  00035	50		 push	 eax
  00036	8d 45 f4	 lea	 eax, DWORD PTR __$EHRec$[ebp]
  00039	64 a3 00 00 00
	00		 mov	 DWORD PTR fs:0, eax
  0003f	89 4d ec	 mov	 DWORD PTR _this$[ebp], ecx
  00042	8b 45 08	 mov	 eax, DWORD PTR __Val1$[ebp]
  00045	50		 push	 eax
  00046	e8 00 00 00 00	 call	 ??$forward@AAV?$_Tree_iterator@V?$_Tree_val@U?$_Tree_simple_types@U?$pair@$$CBW4SDL_Scancode@@_N@std@@@std@@@std@@@std@@@std@@YAAAV?$_Tree_iterator@V?$_Tree_val@U?$_Tree_simple_types@U?$pair@$$CBW4SDL_Scancode@@_N@std@@@std@@@std@@@0@AAV10@@Z ; std::forward<std::_Tree_iterator<std::_Tree_val<std::_Tree_simple_types<std::pair<enum SDL_Scancode const ,bool> > > > &>
  0004b	83 c4 04	 add	 esp, 4
  0004e	50		 push	 eax
  0004f	8b 4d ec	 mov	 ecx, DWORD PTR _this$[ebp]
  00052	e8 00 00 00 00	 call	 ??0?$_Tree_iterator@V?$_Tree_val@U?$_Tree_simple_types@U?$pair@$$CBW4SDL_Scancode@@_N@std@@@std@@@std@@@std@@QAE@ABV01@@Z
  00057	c7 45 fc 00 00
	00 00		 mov	 DWORD PTR __$EHRec$[ebp+8], 0
  0005e	8b 45 0c	 mov	 eax, DWORD PTR __Val2$[ebp]
  00061	50		 push	 eax
  00062	e8 00 00 00 00	 call	 ??$forward@_N@std@@YA$$QA_NAA_N@Z ; std::forward<bool>
  00067	83 c4 04	 add	 esp, 4
  0006a	8b 4d ec	 mov	 ecx, DWORD PTR _this$[ebp]
  0006d	8a 10		 mov	 dl, BYTE PTR [eax]
  0006f	88 51 0c	 mov	 BYTE PTR [ecx+12], dl
; Line 145
  00072	c7 45 fc ff ff
	ff ff		 mov	 DWORD PTR __$EHRec$[ebp+8], -1
  00079	8b 45 ec	 mov	 eax, DWORD PTR _this$[ebp]
  0007c	8b 4d f4	 mov	 ecx, DWORD PTR __$EHRec$[ebp]
  0007f	64 89 0d 00 00
	00 00		 mov	 DWORD PTR fs:0, ecx
  00086	59		 pop	 ecx
  00087	5f		 pop	 edi
  00088	5e		 pop	 esi
  00089	5b		 pop	 ebx
  0008a	81 c4 d8 00 00
	00		 add	 esp, 216		; 000000d8H
  00090	3b ec		 cmp	 ebp, esp
  00092	e8 00 00 00 00	 call	 __RTC_CheckEsp
  00097	8b e5		 mov	 esp, ebp
  00099	5d		 pop	 ebp
  0009a	c2 08 00	 ret	 8
_TEXT	ENDS
;	COMDAT text$x
text$x	SEGMENT
__unwindfunclet$??$?0AAV?$_Tree_iterator@V?$_Tree_val@U?$_Tree_simple_types@U?$pair@$$CBW4SDL_Scancode@@_N@std@@@std@@@std@@@std@@_NX@?$pair@V?$_Tree_iterator@V?$_Tree_val@U?$_Tree_simple_types@U?$pair@$$CBW4SDL_Scancode@@_N@std@@@std@@@std@@@std@@_N@std@@QAE@AAV?$_Tree_iterator@V?$_Tree_val@U?$_Tree_simple_types@U?$pair@$$CBW4SDL_Scancode@@_N@std@@@std@@@std@@@1@$$QA_N@Z$0:
  00000	8b 4d ec	 mov	 ecx, DWORD PTR _this$[ebp]
  00003	e9 00 00 00 00	 jmp	 ??1?$_Tree_iterator@V?$_Tree_val@U?$_Tree_simple_types@U?$pair@$$CBW4SDL_Scancode@@_N@std@@@std@@@std@@@std@@QAE@XZ
__ehhandler$??$?0AAV?$_Tree_iterator@V?$_Tree_val@U?$_Tree_simple_types@U?$pair@$$CBW4SDL_Scancode@@_N@std@@@std@@@std@@@std@@_NX@?$pair@V?$_Tree_iterator@V?$_Tree_val@U?$_Tree_simple_types@U?$pair@$$CBW4SDL_Scancode@@_N@std@@@std@@@std@@@std@@_N@std@@QAE@AAV?$_Tree_iterator@V?$_Tree_val@U?$_Tree_simple_types@U?$pair@$$CBW4SDL_Scancode@@_N@std@@@std@@@std@@@1@$$QA_N@Z:
  00008	8b 54 24 08	 mov	 edx, DWORD PTR [esp+8]
  0000c	8d 42 0c	 lea	 eax, DWORD PTR [edx+12]
  0000f	8b 8a 24 ff ff
	ff		 mov	 ecx, DWORD PTR [edx-220]
  00015	33 c8		 xor	 ecx, eax
  00017	e8 00 00 00 00	 call	 @__security_check_cookie@4
  0001c	b8 00 00 00 00	 mov	 eax, OFFSET __ehfuncinfo$??$?0AAV?$_Tree_iterator@V?$_Tree_val@U?$_Tree_simple_types@U?$pair@$$CBW4SDL_Scancode@@_N@std@@@std@@@std@@@std@@_NX@?$pair@V?$_Tree_iterator@V?$_Tree_val@U?$_Tree_simple_types@U?$pair@$$CBW4SDL_Scancode@@_N@std@@@std@@@std@@@std@@_N@std@@QAE@AAV?$_Tree_iterator@V?$_Tree_val@U?$_Tree_simple_types@U?$pair@$$CBW4SDL_Scancode@@_N@std@@@std@@@std@@@1@$$QA_N@Z
  00021	e9 00 00 00 00	 jmp	 ___CxxFrameHandler3
text$x	ENDS
??$?0AAV?$_Tree_iterator@V?$_Tree_val@U?$_Tree_simple_types@U?$pair@$$CBW4SDL_Scancode@@_N@std@@@std@@@std@@@std@@_NX@?$pair@V?$_Tree_iterator@V?$_Tree_val@U?$_Tree_simple_types@U?$pair@$$CBW4SDL_Scancode@@_N@std@@@std@@@std@@@std@@_N@std@@QAE@AAV?$_Tree_iterator@V?$_Tree_val@U?$_Tree_simple_types@U?$pair@$$CBW4SDL_Scancode@@_N@std@@@std@@@std@@@1@$$QA_N@Z ENDP ; std::pair<std::_Tree_iterator<std::_Tree_val<std::_Tree_simple_types<std::pair<enum SDL_Scancode const ,bool> > > >,bool>::pair<std::_Tree_iterator<std::_Tree_val<std::_Tree_simple_types<std::pair<enum SDL_Scancode const ,bool> > > >,bool><std::_Tree_iterator<std::_Tree_val<std::_Tree_simple_types<std::pair<enum SDL_Scancode const ,bool> > > > &,bool,void>
; Function compile flags: /Odtp /RTCsu /ZI
;	COMDAT ??$?0V?$_Tree_iterator@V?$_Tree_val@U?$_Tree_simple_types@U?$pair@$$CBW4SDL_Scancode@@_N@std@@@std@@@std@@@std@@_NX@?$pair@V?$_Tree_iterator@V?$_Tree_val@U?$_Tree_simple_types@U?$pair@$$CBW4SDL_Scancode@@_N@std@@@std@@@std@@@std@@_N@std@@QAE@$$QAV?$_Tree_iterator@V?$_Tree_val@U?$_Tree_simple_types@U?$pair@$$CBW4SDL_Scancode@@_N@std@@@std@@@std@@@1@$$QA_N@Z
_TEXT	SEGMENT
_this$ = -20						; size = 4
__$EHRec$ = -12						; size = 12
__Val1$ = 8						; size = 4
__Val2$ = 12						; size = 4
??$?0V?$_Tree_iterator@V?$_Tree_val@U?$_Tree_simple_types@U?$pair@$$CBW4SDL_Scancode@@_N@std@@@std@@@std@@@std@@_NX@?$pair@V?$_Tree_iterator@V?$_Tree_val@U?$_Tree_simple_types@U?$pair@$$CBW4SDL_Scancode@@_N@std@@@std@@@std@@@std@@_N@std@@QAE@$$QAV?$_Tree_iterator@V?$_Tree_val@U?$_Tree_simple_types@U?$pair@$$CBW4SDL_Scancode@@_N@std@@@std@@@std@@@1@$$QA_N@Z PROC ; std::pair<std::_Tree_iterator<std::_Tree_val<std::_Tree_simple_types<std::pair<enum SDL_Scancode const ,bool> > > >,bool>::pair<std::_Tree_iterator<std::_Tree_val<std::_Tree_simple_types<std::pair<enum SDL_Scancode const ,bool> > > >,bool><std::_Tree_iterator<std::_Tree_val<std::_Tree_simple_types<std::pair<enum SDL_Scancode const ,bool> > > >,bool,void>, COMDAT
; _this$ = ecx
; File c:\program files (x86)\microsoft visual studio 12.0\vc\include\utility
; Line 144
  00000	55		 push	 ebp
  00001	8b ec		 mov	 ebp, esp
  00003	6a ff		 push	 -1
  00005	68 00 00 00 00	 push	 __ehhandler$??$?0V?$_Tree_iterator@V?$_Tree_val@U?$_Tree_simple_types@U?$pair@$$CBW4SDL_Scancode@@_N@std@@@std@@@std@@@std@@_NX@?$pair@V?$_Tree_iterator@V?$_Tree_val@U?$_Tree_simple_types@U?$pair@$$CBW4SDL_Scancode@@_N@std@@@std@@@std@@@std@@_N@std@@QAE@$$QAV?$_Tree_iterator@V?$_Tree_val@U?$_Tree_simple_types@U?$pair@$$CBW4SDL_Scancode@@_N@std@@@std@@@std@@@1@$$QA_N@Z
  0000a	64 a1 00 00 00
	00		 mov	 eax, DWORD PTR fs:0
  00010	50		 push	 eax
  00011	81 ec cc 00 00
	00		 sub	 esp, 204		; 000000ccH
  00017	53		 push	 ebx
  00018	56		 push	 esi
  00019	57		 push	 edi
  0001a	51		 push	 ecx
  0001b	8d bd 28 ff ff
	ff		 lea	 edi, DWORD PTR [ebp-216]
  00021	b9 33 00 00 00	 mov	 ecx, 51			; 00000033H
  00026	b8 cc cc cc cc	 mov	 eax, -858993460		; ccccccccH
  0002b	f3 ab		 rep stosd
  0002d	59		 pop	 ecx
  0002e	a1 00 00 00 00	 mov	 eax, DWORD PTR ___security_cookie
  00033	33 c5		 xor	 eax, ebp
  00035	50		 push	 eax
  00036	8d 45 f4	 lea	 eax, DWORD PTR __$EHRec$[ebp]
  00039	64 a3 00 00 00
	00		 mov	 DWORD PTR fs:0, eax
  0003f	89 4d ec	 mov	 DWORD PTR _this$[ebp], ecx
  00042	8b 45 08	 mov	 eax, DWORD PTR __Val1$[ebp]
  00045	50		 push	 eax
  00046	e8 00 00 00 00	 call	 ??$forward@V?$_Tree_iterator@V?$_Tree_val@U?$_Tree_simple_types@U?$pair@$$CBW4SDL_Scancode@@_N@std@@@std@@@std@@@std@@@std@@YA$$QAV?$_Tree_iterator@V?$_Tree_val@U?$_Tree_simple_types@U?$pair@$$CBW4SDL_Scancode@@_N@std@@@std@@@std@@@0@AAV10@@Z ; std::forward<std::_Tree_iterator<std::_Tree_val<std::_Tree_simple_types<std::pair<enum SDL_Scancode const ,bool> > > > >
  0004b	83 c4 04	 add	 esp, 4
  0004e	50		 push	 eax
  0004f	8b 4d ec	 mov	 ecx, DWORD PTR _this$[ebp]
  00052	e8 00 00 00 00	 call	 ??0?$_Tree_iterator@V?$_Tree_val@U?$_Tree_simple_types@U?$pair@$$CBW4SDL_Scancode@@_N@std@@@std@@@std@@@std@@QAE@ABV01@@Z
  00057	c7 45 fc 00 00
	00 00		 mov	 DWORD PTR __$EHRec$[ebp+8], 0
  0005e	8b 45 0c	 mov	 eax, DWORD PTR __Val2$[ebp]
  00061	50		 push	 eax
  00062	e8 00 00 00 00	 call	 ??$forward@_N@std@@YA$$QA_NAA_N@Z ; std::forward<bool>
  00067	83 c4 04	 add	 esp, 4
  0006a	8b 4d ec	 mov	 ecx, DWORD PTR _this$[ebp]
  0006d	8a 10		 mov	 dl, BYTE PTR [eax]
  0006f	88 51 0c	 mov	 BYTE PTR [ecx+12], dl
; Line 145
  00072	c7 45 fc ff ff
	ff ff		 mov	 DWORD PTR __$EHRec$[ebp+8], -1
  00079	8b 45 ec	 mov	 eax, DWORD PTR _this$[ebp]
  0007c	8b 4d f4	 mov	 ecx, DWORD PTR __$EHRec$[ebp]
  0007f	64 89 0d 00 00
	00 00		 mov	 DWORD PTR fs:0, ecx
  00086	59		 pop	 ecx
  00087	5f		 pop	 edi
  00088	5e		 pop	 esi
  00089	5b		 pop	 ebx
  0008a	81 c4 d8 00 00
	00		 add	 esp, 216		; 000000d8H
  00090	3b ec		 cmp	 ebp, esp
  00092	e8 00 00 00 00	 call	 __RTC_CheckEsp
  00097	8b e5		 mov	 esp, ebp
  00099	5d		 pop	 ebp
  0009a	c2 08 00	 ret	 8
_TEXT	ENDS
;	COMDAT text$x
text$x	SEGMENT
__unwindfunclet$??$?0V?$_Tree_iterator@V?$_Tree_val@U?$_Tree_simple_types@U?$pair@$$CBW4SDL_Scancode@@_N@std@@@std@@@std@@@std@@_NX@?$pair@V?$_Tree_iterator@V?$_Tree_val@U?$_Tree_simple_types@U?$pair@$$CBW4SDL_Scancode@@_N@std@@@std@@@std@@@std@@_N@std@@QAE@$$QAV?$_Tree_iterator@V?$_Tree_val@U?$_Tree_simple_types@U?$pair@$$CBW4SDL_Scancode@@_N@std@@@std@@@std@@@1@$$QA_N@Z$0:
  00000	8b 4d ec	 mov	 ecx, DWORD PTR _this$[ebp]
  00003	e9 00 00 00 00	 jmp	 ??1?$_Tree_iterator@V?$_Tree_val@U?$_Tree_simple_types@U?$pair@$$CBW4SDL_Scancode@@_N@std@@@std@@@std@@@std@@QAE@XZ
__ehhandler$??$?0V?$_Tree_iterator@V?$_Tree_val@U?$_Tree_simple_types@U?$pair@$$CBW4SDL_Scancode@@_N@std@@@std@@@std@@@std@@_NX@?$pair@V?$_Tree_iterator@V?$_Tree_val@U?$_Tree_simple_types@U?$pair@$$CBW4SDL_Scancode@@_N@std@@@std@@@std@@@std@@_N@std@@QAE@$$QAV?$_Tree_iterator@V?$_Tree_val@U?$_Tree_simple_types@U?$pair@$$CBW4SDL_Scancode@@_N@std@@@std@@@std@@@1@$$QA_N@Z:
  00008	8b 54 24 08	 mov	 edx, DWORD PTR [esp+8]
  0000c	8d 42 0c	 lea	 eax, DWORD PTR [edx+12]
  0000f	8b 8a 24 ff ff
	ff		 mov	 ecx, DWORD PTR [edx-220]
  00015	33 c8		 xor	 ecx, eax
  00017	e8 00 00 00 00	 call	 @__security_check_cookie@4
  0001c	b8 00 00 00 00	 mov	 eax, OFFSET __ehfuncinfo$??$?0V?$_Tree_iterator@V?$_Tree_val@U?$_Tree_simple_types@U?$pair@$$CBW4SDL_Scancode@@_N@std@@@std@@@std@@@std@@_NX@?$pair@V?$_Tree_iterator@V?$_Tree_val@U?$_Tree_simple_types@U?$pair@$$CBW4SDL_Scancode@@_N@std@@@std@@@std@@@std@@_N@std@@QAE@$$QAV?$_Tree_iterator@V?$_Tree_val@U?$_Tree_simple_types@U?$pair@$$CBW4SDL_Scancode@@_N@std@@@std@@@std@@@1@$$QA_N@Z
  00021	e9 00 00 00 00	 jmp	 ___CxxFrameHandler3
text$x	ENDS
??$?0V?$_Tree_iterator@V?$_Tree_val@U?$_Tree_simple_types@U?$pair@$$CBW4SDL_Scancode@@_N@std@@@std@@@std@@@std@@_NX@?$pair@V?$_Tree_iterator@V?$_Tree_val@U?$_Tree_simple_types@U?$pair@$$CBW4SDL_Scancode@@_N@std@@@std@@@std@@@std@@_N@std@@QAE@$$QAV?$_Tree_iterator@V?$_Tree_val@U?$_Tree_simple_types@U?$pair@$$CBW4SDL_Scancode@@_N@std@@@std@@@std@@@1@$$QA_N@Z ENDP ; std::pair<std::_Tree_iterator<std::_Tree_val<std::_Tree_simple_types<std::pair<enum SDL_Scancode const ,bool> > > >,bool>::pair<std::_Tree_iterator<std::_Tree_val<std::_Tree_simple_types<std::pair<enum SDL_Scancode const ,bool> > > >,bool><std::_Tree_iterator<std::_Tree_val<std::_Tree_simple_types<std::pair<enum SDL_Scancode const ,bool> > > >,bool,void>
; Function compile flags: /Odtp /RTCsu /ZI
;	COMDAT ??$_Buynode_if_nil@AAU?$pair@$$CBW4SDL_Scancode@@_N@std@@@?$_Tree@V?$_Tmap_traits@W4SDL_Scancode@@_NU?$less@W4SDL_Scancode@@@std@@V?$allocator@U?$pair@$$CBW4SDL_Scancode@@_N@std@@@3@$0A@@std@@@std@@IAEPAU?$_Tree_node@U?$pair@$$CBW4SDL_Scancode@@_N@std@@PAX@1@PAU21@AAU?$pair@$$CBW4SDL_Scancode@@_N@1@@Z
_TEXT	SEGMENT
_this$ = -8						; size = 4
__Node$ = 8						; size = 4
___formal$ = 12						; size = 4
??$_Buynode_if_nil@AAU?$pair@$$CBW4SDL_Scancode@@_N@std@@@?$_Tree@V?$_Tmap_traits@W4SDL_Scancode@@_NU?$less@W4SDL_Scancode@@@std@@V?$allocator@U?$pair@$$CBW4SDL_Scancode@@_N@std@@@3@$0A@@std@@@std@@IAEPAU?$_Tree_node@U?$pair@$$CBW4SDL_Scancode@@_N@std@@PAX@1@PAU21@AAU?$pair@$$CBW4SDL_Scancode@@_N@1@@Z PROC ; std::_Tree<std::_Tmap_traits<enum SDL_Scancode,bool,std::less<enum SDL_Scancode>,std::allocator<std::pair<enum SDL_Scancode const ,bool> >,0> >::_Buynode_if_nil<std::pair<enum SDL_Scancode const ,bool> &>, COMDAT
; _this$ = ecx
; File c:\program files (x86)\microsoft visual studio 12.0\vc\include\xtree
; Line 1636
  00000	55		 push	 ebp
  00001	8b ec		 mov	 ebp, esp
  00003	81 ec cc 00 00
	00		 sub	 esp, 204		; 000000ccH
  00009	53		 push	 ebx
  0000a	56		 push	 esi
  0000b	57		 push	 edi
  0000c	51		 push	 ecx
  0000d	8d bd 34 ff ff
	ff		 lea	 edi, DWORD PTR [ebp-204]
  00013	b9 33 00 00 00	 mov	 ecx, 51			; 00000033H
  00018	b8 cc cc cc cc	 mov	 eax, -858993460		; ccccccccH
  0001d	f3 ab		 rep stosd
  0001f	59		 pop	 ecx
  00020	89 4d f8	 mov	 DWORD PTR _this$[ebp], ecx
; Line 1638
  00023	8b 45 08	 mov	 eax, DWORD PTR __Node$[ebp]
; Line 1639
  00026	5f		 pop	 edi
  00027	5e		 pop	 esi
  00028	5b		 pop	 ebx
  00029	8b e5		 mov	 esp, ebp
  0002b	5d		 pop	 ebp
  0002c	c2 08 00	 ret	 8
??$_Buynode_if_nil@AAU?$pair@$$CBW4SDL_Scancode@@_N@std@@@?$_Tree@V?$_Tmap_traits@W4SDL_Scancode@@_NU?$less@W4SDL_Scancode@@@std@@V?$allocator@U?$pair@$$CBW4SDL_Scancode@@_N@std@@@3@$0A@@std@@@std@@IAEPAU?$_Tree_node@U?$pair@$$CBW4SDL_Scancode@@_N@std@@PAX@1@PAU21@AAU?$pair@$$CBW4SDL_Scancode@@_N@1@@Z ENDP ; std::_Tree<std::_Tmap_traits<enum SDL_Scancode,bool,std::less<enum SDL_Scancode>,std::allocator<std::pair<enum SDL_Scancode const ,bool> >,0> >::_Buynode_if_nil<std::pair<enum SDL_Scancode const ,bool> &>
_TEXT	ENDS
; Function compile flags: /Odtp /RTCsu /ZI
;	COMDAT ??$construct@U?$pair@$$CBW4SDL_Scancode@@_N@std@@ABUpiecewise_construct_t@2@V?$tuple@ABW4SDL_Scancode@@@2@V?$tuple@$$$V@2@@?$allocator_traits@V?$allocator@U?$_Tree_node@U?$pair@$$CBW4SDL_Scancode@@_N@std@@PAX@std@@@std@@@std@@SAXAAV?$allocator@U?$_Tree_node@U?$pair@$$CBW4SDL_Scancode@@_N@std@@PAX@std@@@1@PAU?$pair@$$CBW4SDL_Scancode@@_N@1@ABUpiecewise_construct_t@1@$$QAV?$tuple@ABW4SDL_Scancode@@@1@$$QAV?$tuple@$$$V@1@@Z
_TEXT	SEGMENT
__Al$ = 8						; size = 4
__Ptr$ = 12						; size = 4
_<_Args_0>$ = 16					; size = 4
_<_Args_1>$ = 20					; size = 4
_<_Args_2>$ = 24					; size = 4
??$construct@U?$pair@$$CBW4SDL_Scancode@@_N@std@@ABUpiecewise_construct_t@2@V?$tuple@ABW4SDL_Scancode@@@2@V?$tuple@$$$V@2@@?$allocator_traits@V?$allocator@U?$_Tree_node@U?$pair@$$CBW4SDL_Scancode@@_N@std@@PAX@std@@@std@@@std@@SAXAAV?$allocator@U?$_Tree_node@U?$pair@$$CBW4SDL_Scancode@@_N@std@@PAX@std@@@1@PAU?$pair@$$CBW4SDL_Scancode@@_N@1@ABUpiecewise_construct_t@1@$$QAV?$tuple@ABW4SDL_Scancode@@@1@$$QAV?$tuple@$$$V@1@@Z PROC ; std::allocator_traits<std::allocator<std::_Tree_node<std::pair<enum SDL_Scancode const ,bool>,void *> > >::construct<std::pair<enum SDL_Scancode const ,bool>,std::piecewise_construct_t const &,std::tuple<enum SDL_Scancode const &>,std::tuple<> >, COMDAT
; File c:\program files (x86)\microsoft visual studio 12.0\vc\include\xmemory0
; Line 720
  00000	55		 push	 ebp
  00001	8b ec		 mov	 ebp, esp
  00003	81 ec c0 00 00
	00		 sub	 esp, 192		; 000000c0H
  00009	53		 push	 ebx
  0000a	56		 push	 esi
  0000b	57		 push	 edi
  0000c	8d bd 40 ff ff
	ff		 lea	 edi, DWORD PTR [ebp-192]
  00012	b9 30 00 00 00	 mov	 ecx, 48			; 00000030H
  00017	b8 cc cc cc cc	 mov	 eax, -858993460		; ccccccccH
  0001c	f3 ab		 rep stosd
; Line 723
  0001e	8b 45 18	 mov	 eax, DWORD PTR _<_Args_2>$[ebp]
  00021	50		 push	 eax
  00022	e8 00 00 00 00	 call	 ??$forward@V?$tuple@$$$V@std@@@std@@YA$$QAV?$tuple@$$$V@0@AAV10@@Z ; std::forward<std::tuple<> >
  00027	83 c4 04	 add	 esp, 4
  0002a	50		 push	 eax
  0002b	8b 4d 14	 mov	 ecx, DWORD PTR _<_Args_1>$[ebp]
  0002e	51		 push	 ecx
  0002f	e8 00 00 00 00	 call	 ??$forward@V?$tuple@ABW4SDL_Scancode@@@std@@@std@@YA$$QAV?$tuple@ABW4SDL_Scancode@@@0@AAV10@@Z ; std::forward<std::tuple<enum SDL_Scancode const &> >
  00034	83 c4 04	 add	 esp, 4
  00037	50		 push	 eax
  00038	8b 55 10	 mov	 edx, DWORD PTR _<_Args_0>$[ebp]
  0003b	52		 push	 edx
  0003c	e8 00 00 00 00	 call	 ??$forward@ABUpiecewise_construct_t@std@@@std@@YAABUpiecewise_construct_t@0@ABU10@@Z ; std::forward<std::piecewise_construct_t const &>
  00041	83 c4 04	 add	 esp, 4
  00044	50		 push	 eax
  00045	8b 45 0c	 mov	 eax, DWORD PTR __Ptr$[ebp]
  00048	50		 push	 eax
  00049	8b 4d 08	 mov	 ecx, DWORD PTR __Al$[ebp]
  0004c	e8 00 00 00 00	 call	 ??$construct@U?$pair@$$CBW4SDL_Scancode@@_N@std@@ABUpiecewise_construct_t@2@V?$tuple@ABW4SDL_Scancode@@@2@V?$tuple@$$$V@2@@?$allocator@U?$_Tree_node@U?$pair@$$CBW4SDL_Scancode@@_N@std@@PAX@std@@@std@@QAEXPAU?$pair@$$CBW4SDL_Scancode@@_N@1@ABUpiecewise_construct_t@1@$$QAV?$tuple@ABW4SDL_Scancode@@@1@$$QAV?$tuple@$$$V@1@@Z ; std::allocator<std::_Tree_node<std::pair<enum SDL_Scancode const ,bool>,void *> >::construct<std::pair<enum SDL_Scancode const ,bool>,std::piecewise_construct_t const &,std::tuple<enum SDL_Scancode const &>,std::tuple<> >
; Line 724
  00051	5f		 pop	 edi
  00052	5e		 pop	 esi
  00053	5b		 pop	 ebx
  00054	81 c4 c0 00 00
	00		 add	 esp, 192		; 000000c0H
  0005a	3b ec		 cmp	 ebp, esp
  0005c	e8 00 00 00 00	 call	 __RTC_CheckEsp
  00061	8b e5		 mov	 esp, ebp
  00063	5d		 pop	 ebp
  00064	c3		 ret	 0
??$construct@U?$pair@$$CBW4SDL_Scancode@@_N@std@@ABUpiecewise_construct_t@2@V?$tuple@ABW4SDL_Scancode@@@2@V?$tuple@$$$V@2@@?$allocator_traits@V?$allocator@U?$_Tree_node@U?$pair@$$CBW4SDL_Scancode@@_N@std@@PAX@std@@@std@@@std@@SAXAAV?$allocator@U?$_Tree_node@U?$pair@$$CBW4SDL_Scancode@@_N@std@@PAX@std@@@1@PAU?$pair@$$CBW4SDL_Scancode@@_N@1@ABUpiecewise_construct_t@1@$$QAV?$tuple@ABW4SDL_Scancode@@@1@$$QAV?$tuple@$$$V@1@@Z ENDP ; std::allocator_traits<std::allocator<std::_Tree_node<std::pair<enum SDL_Scancode const ,bool>,void *> > >::construct<std::pair<enum SDL_Scancode const ,bool>,std::piecewise_construct_t const &,std::tuple<enum SDL_Scancode const &>,std::tuple<> >
_TEXT	ENDS
; Function compile flags: /Odtp /RTCsu /ZI
;	COMDAT ??$_Allocate@U?$_Tree_node@U?$pair@$$CBW4SDL_Scancode@@_N@std@@PAX@std@@@std@@YAPAU?$_Tree_node@U?$pair@$$CBW4SDL_Scancode@@_N@std@@PAX@0@IPAU10@@Z
_TEXT	SEGMENT
__Ptr$ = -8						; size = 4
__Count$ = 8						; size = 4
___formal$ = 12						; size = 4
??$_Allocate@U?$_Tree_node@U?$pair@$$CBW4SDL_Scancode@@_N@std@@PAX@std@@@std@@YAPAU?$_Tree_node@U?$pair@$$CBW4SDL_Scancode@@_N@std@@PAX@0@IPAU10@@Z PROC ; std::_Allocate<std::_Tree_node<std::pair<enum SDL_Scancode const ,bool>,void *> >, COMDAT
; File c:\program files (x86)\microsoft visual studio 12.0\vc\include\xmemory0
; Line 22
  00000	55		 push	 ebp
  00001	8b ec		 mov	 ebp, esp
  00003	81 ec cc 00 00
	00		 sub	 esp, 204		; 000000ccH
  00009	53		 push	 ebx
  0000a	56		 push	 esi
  0000b	57		 push	 edi
  0000c	8d bd 34 ff ff
	ff		 lea	 edi, DWORD PTR [ebp-204]
  00012	b9 33 00 00 00	 mov	 ecx, 51			; 00000033H
  00017	b8 cc cc cc cc	 mov	 eax, -858993460		; ccccccccH
  0001c	f3 ab		 rep stosd
; Line 23
  0001e	c7 45 f8 00 00
	00 00		 mov	 DWORD PTR __Ptr$[ebp], 0
; Line 25
  00025	83 7d 08 00	 cmp	 DWORD PTR __Count$[ebp], 0
  00029	75 02		 jne	 SHORT $LN4@Allocate
; Line 27
  0002b	eb 2e		 jmp	 SHORT $LN3@Allocate
$LN4@Allocate:
; Line 28
  0002d	81 7d 08 aa aa
	aa 0a		 cmp	 DWORD PTR __Count$[ebp], 178956970 ; 0aaaaaaaH
  00034	77 16		 ja	 SHORT $LN1@Allocate
  00036	6b 45 08 18	 imul	 eax, DWORD PTR __Count$[ebp], 24
  0003a	50		 push	 eax
  0003b	e8 00 00 00 00	 call	 ??2@YAPAXI@Z		; operator new
  00040	83 c4 04	 add	 esp, 4
  00043	89 45 f8	 mov	 DWORD PTR __Ptr$[ebp], eax
  00046	83 7d f8 00	 cmp	 DWORD PTR __Ptr$[ebp], 0
  0004a	75 0f		 jne	 SHORT $LN3@Allocate
$LN1@Allocate:
; Line 29
  0004c	8b f4		 mov	 esi, esp
  0004e	ff 15 00 00 00
	00		 call	 DWORD PTR __imp_?_Xbad_alloc@std@@YAXXZ
  00054	3b f4		 cmp	 esi, esp
  00056	e8 00 00 00 00	 call	 __RTC_CheckEsp
$LN3@Allocate:
; Line 31
  0005b	8b 45 f8	 mov	 eax, DWORD PTR __Ptr$[ebp]
$LN6@Allocate:
; Line 32
  0005e	5f		 pop	 edi
  0005f	5e		 pop	 esi
  00060	5b		 pop	 ebx
  00061	81 c4 cc 00 00
	00		 add	 esp, 204		; 000000ccH
  00067	3b ec		 cmp	 ebp, esp
  00069	e8 00 00 00 00	 call	 __RTC_CheckEsp
  0006e	8b e5		 mov	 esp, ebp
  00070	5d		 pop	 ebp
  00071	c3		 ret	 0
??$_Allocate@U?$_Tree_node@U?$pair@$$CBW4SDL_Scancode@@_N@std@@PAX@std@@@std@@YAPAU?$_Tree_node@U?$pair@$$CBW4SDL_Scancode@@_N@std@@PAX@0@IPAU10@@Z ENDP ; std::_Allocate<std::_Tree_node<std::pair<enum SDL_Scancode const ,bool>,void *> >
_TEXT	ENDS
; Function compile flags: /Odtp /RTCsu /ZI
;	COMDAT ??$destroy@PAU?$_Tree_node@U?$pair@$$CBW4SDL_Scancode@@_N@std@@PAX@std@@@?$_Wrap_alloc@V?$allocator@U?$_Tree_node@U?$pair@$$CBW4SDL_Scancode@@_N@std@@PAX@std@@@std@@@std@@QAEXPAPAU?$_Tree_node@U?$pair@$$CBW4SDL_Scancode@@_N@std@@PAX@1@@Z
_TEXT	SEGMENT
_this$ = -8						; size = 4
__Ptr$ = 8						; size = 4
??$destroy@PAU?$_Tree_node@U?$pair@$$CBW4SDL_Scancode@@_N@std@@PAX@std@@@?$_Wrap_alloc@V?$allocator@U?$_Tree_node@U?$pair@$$CBW4SDL_Scancode@@_N@std@@PAX@std@@@std@@@std@@QAEXPAPAU?$_Tree_node@U?$pair@$$CBW4SDL_Scancode@@_N@std@@PAX@1@@Z PROC ; std::_Wrap_alloc<std::allocator<std::_Tree_node<std::pair<enum SDL_Scancode const ,bool>,void *> > >::destroy<std::_Tree_node<std::pair<enum SDL_Scancode const ,bool>,void *> *>, COMDAT
; _this$ = ecx
; File c:\program files (x86)\microsoft visual studio 12.0\vc\include\xmemory0
; Line 877
  00000	55		 push	 ebp
  00001	8b ec		 mov	 ebp, esp
  00003	81 ec cc 00 00
	00		 sub	 esp, 204		; 000000ccH
  00009	53		 push	 ebx
  0000a	56		 push	 esi
  0000b	57		 push	 edi
  0000c	51		 push	 ecx
  0000d	8d bd 34 ff ff
	ff		 lea	 edi, DWORD PTR [ebp-204]
  00013	b9 33 00 00 00	 mov	 ecx, 51			; 00000033H
  00018	b8 cc cc cc cc	 mov	 eax, -858993460		; ccccccccH
  0001d	f3 ab		 rep stosd
  0001f	59		 pop	 ecx
  00020	89 4d f8	 mov	 DWORD PTR _this$[ebp], ecx
; Line 879
  00023	8b 45 08	 mov	 eax, DWORD PTR __Ptr$[ebp]
  00026	50		 push	 eax
  00027	8b 4d f8	 mov	 ecx, DWORD PTR _this$[ebp]
  0002a	51		 push	 ecx
  0002b	e8 00 00 00 00	 call	 ??$destroy@PAU?$_Tree_node@U?$pair@$$CBW4SDL_Scancode@@_N@std@@PAX@std@@@?$allocator_traits@V?$allocator@U?$_Tree_node@U?$pair@$$CBW4SDL_Scancode@@_N@std@@PAX@std@@@std@@@std@@SAXAAV?$allocator@U?$_Tree_node@U?$pair@$$CBW4SDL_Scancode@@_N@std@@PAX@std@@@1@PAPAU?$_Tree_node@U?$pair@$$CBW4SDL_Scancode@@_N@std@@PAX@1@@Z ; std::allocator_traits<std::allocator<std::_Tree_node<std::pair<enum SDL_Scancode const ,bool>,void *> > >::destroy<std::_Tree_node<std::pair<enum SDL_Scancode const ,bool>,void *> *>
  00030	83 c4 08	 add	 esp, 8
; Line 880
  00033	5f		 pop	 edi
  00034	5e		 pop	 esi
  00035	5b		 pop	 ebx
  00036	81 c4 cc 00 00
	00		 add	 esp, 204		; 000000ccH
  0003c	3b ec		 cmp	 ebp, esp
  0003e	e8 00 00 00 00	 call	 __RTC_CheckEsp
  00043	8b e5		 mov	 esp, ebp
  00045	5d		 pop	 ebp
  00046	c2 04 00	 ret	 4
??$destroy@PAU?$_Tree_node@U?$pair@$$CBW4SDL_Scancode@@_N@std@@PAX@std@@@?$_Wrap_alloc@V?$allocator@U?$_Tree_node@U?$pair@$$CBW4SDL_Scancode@@_N@std@@PAX@std@@@std@@@std@@QAEXPAPAU?$_Tree_node@U?$pair@$$CBW4SDL_Scancode@@_N@std@@PAX@1@@Z ENDP ; std::_Wrap_alloc<std::allocator<std::_Tree_node<std::pair<enum SDL_Scancode const ,bool>,void *> > >::destroy<std::_Tree_node<std::pair<enum SDL_Scancode const ,bool>,void *> *>
_TEXT	ENDS
; Function compile flags: /Odtp /RTCsu /ZI
;	COMDAT ??$construct@PAU?$_Tree_node@U?$pair@$$CBW4SDL_Scancode@@_N@std@@PAX@std@@AAPAU12@@?$_Wrap_alloc@V?$allocator@U?$_Tree_node@U?$pair@$$CBW4SDL_Scancode@@_N@std@@PAX@std@@@std@@@std@@QAEXPAPAU?$_Tree_node@U?$pair@$$CBW4SDL_Scancode@@_N@std@@PAX@1@AAPAU21@@Z
_TEXT	SEGMENT
_this$ = -8						; size = 4
__Ptr$ = 8						; size = 4
_<_Args_0>$ = 12					; size = 4
??$construct@PAU?$_Tree_node@U?$pair@$$CBW4SDL_Scancode@@_N@std@@PAX@std@@AAPAU12@@?$_Wrap_alloc@V?$allocator@U?$_Tree_node@U?$pair@$$CBW4SDL_Scancode@@_N@std@@PAX@std@@@std@@@std@@QAEXPAPAU?$_Tree_node@U?$pair@$$CBW4SDL_Scancode@@_N@std@@PAX@1@AAPAU21@@Z PROC ; std::_Wrap_alloc<std::allocator<std::_Tree_node<std::pair<enum SDL_Scancode const ,bool>,void *> > >::construct<std::_Tree_node<std::pair<enum SDL_Scancode const ,bool>,void *> *,std::_Tree_node<std::pair<enum SDL_Scancode const ,bool>,void *> * &>, COMDAT
; _this$ = ecx
; File c:\program files (x86)\microsoft visual studio 12.0\vc\include\xmemory0
; Line 868
  00000	55		 push	 ebp
  00001	8b ec		 mov	 ebp, esp
  00003	81 ec cc 00 00
	00		 sub	 esp, 204		; 000000ccH
  00009	53		 push	 ebx
  0000a	56		 push	 esi
  0000b	57		 push	 edi
  0000c	51		 push	 ecx
  0000d	8d bd 34 ff ff
	ff		 lea	 edi, DWORD PTR [ebp-204]
  00013	b9 33 00 00 00	 mov	 ecx, 51			; 00000033H
  00018	b8 cc cc cc cc	 mov	 eax, -858993460		; ccccccccH
  0001d	f3 ab		 rep stosd
  0001f	59		 pop	 ecx
  00020	89 4d f8	 mov	 DWORD PTR _this$[ebp], ecx
; Line 872
  00023	8b 45 0c	 mov	 eax, DWORD PTR _<_Args_0>$[ebp]
  00026	50		 push	 eax
  00027	e8 00 00 00 00	 call	 ??$forward@AAPAU?$_Tree_node@U?$pair@$$CBW4SDL_Scancode@@_N@std@@PAX@std@@@std@@YAAAPAU?$_Tree_node@U?$pair@$$CBW4SDL_Scancode@@_N@std@@PAX@0@AAPAU10@@Z ; std::forward<std::_Tree_node<std::pair<enum SDL_Scancode const ,bool>,void *> * &>
  0002c	83 c4 04	 add	 esp, 4
  0002f	50		 push	 eax
  00030	8b 4d 08	 mov	 ecx, DWORD PTR __Ptr$[ebp]
  00033	51		 push	 ecx
  00034	8b 55 f8	 mov	 edx, DWORD PTR _this$[ebp]
  00037	52		 push	 edx
  00038	e8 00 00 00 00	 call	 ??$construct@PAU?$_Tree_node@U?$pair@$$CBW4SDL_Scancode@@_N@std@@PAX@std@@AAPAU12@@?$allocator_traits@V?$allocator@U?$_Tree_node@U?$pair@$$CBW4SDL_Scancode@@_N@std@@PAX@std@@@std@@@std@@SAXAAV?$allocator@U?$_Tree_node@U?$pair@$$CBW4SDL_Scancode@@_N@std@@PAX@std@@@1@PAPAU?$_Tree_node@U?$pair@$$CBW4SDL_Scancode@@_N@std@@PAX@1@AAPAU31@@Z ; std::allocator_traits<std::allocator<std::_Tree_node<std::pair<enum SDL_Scancode const ,bool>,void *> > >::construct<std::_Tree_node<std::pair<enum SDL_Scancode const ,bool>,void *> *,std::_Tree_node<std::pair<enum SDL_Scancode const ,bool>,void *> * &>
  0003d	83 c4 0c	 add	 esp, 12			; 0000000cH
; Line 873
  00040	5f		 pop	 edi
  00041	5e		 pop	 esi
  00042	5b		 pop	 ebx
  00043	81 c4 cc 00 00
	00		 add	 esp, 204		; 000000ccH
  00049	3b ec		 cmp	 ebp, esp
  0004b	e8 00 00 00 00	 call	 __RTC_CheckEsp
  00050	8b e5		 mov	 esp, ebp
  00052	5d		 pop	 ebp
  00053	c2 08 00	 ret	 8
??$construct@PAU?$_Tree_node@U?$pair@$$CBW4SDL_Scancode@@_N@std@@PAX@std@@AAPAU12@@?$_Wrap_alloc@V?$allocator@U?$_Tree_node@U?$pair@$$CBW4SDL_Scancode@@_N@std@@PAX@std@@@std@@@std@@QAEXPAPAU?$_Tree_node@U?$pair@$$CBW4SDL_Scancode@@_N@std@@PAX@1@AAPAU21@@Z ENDP ; std::_Wrap_alloc<std::allocator<std::_Tree_node<std::pair<enum SDL_Scancode const ,bool>,void *> > >::construct<std::_Tree_node<std::pair<enum SDL_Scancode const ,bool>,void *> *,std::_Tree_node<std::pair<enum SDL_Scancode const ,bool>,void *> * &>
_TEXT	ENDS
; Function compile flags: /Odtp /RTCsu /ZI
;	COMDAT ??$addressof@PAU?$_Tree_node@U?$pair@$$CBW4SDL_Scancode@@_N@std@@PAX@std@@@std@@YAPAPAU?$_Tree_node@U?$pair@$$CBW4SDL_Scancode@@_N@std@@PAX@0@AAPAU10@@Z
_TEXT	SEGMENT
__Val$ = 8						; size = 4
??$addressof@PAU?$_Tree_node@U?$pair@$$CBW4SDL_Scancode@@_N@std@@PAX@std@@@std@@YAPAPAU?$_Tree_node@U?$pair@$$CBW4SDL_Scancode@@_N@std@@PAX@0@AAPAU10@@Z PROC ; std::addressof<std::_Tree_node<std::pair<enum SDL_Scancode const ,bool>,void *> *>, COMDAT
; File c:\program files (x86)\microsoft visual studio 12.0\vc\include\xstddef
; Line 92
  00000	55		 push	 ebp
  00001	8b ec		 mov	 ebp, esp
  00003	81 ec c0 00 00
	00		 sub	 esp, 192		; 000000c0H
  00009	53		 push	 ebx
  0000a	56		 push	 esi
  0000b	57		 push	 edi
  0000c	8d bd 40 ff ff
	ff		 lea	 edi, DWORD PTR [ebp-192]
  00012	b9 30 00 00 00	 mov	 ecx, 48			; 00000030H
  00017	b8 cc cc cc cc	 mov	 eax, -858993460		; ccccccccH
  0001c	f3 ab		 rep stosd
; Line 95
  0001e	8b 45 08	 mov	 eax, DWORD PTR __Val$[ebp]
; Line 96
  00021	5f		 pop	 edi
  00022	5e		 pop	 esi
  00023	5b		 pop	 ebx
  00024	8b e5		 mov	 esp, ebp
  00026	5d		 pop	 ebp
  00027	c3		 ret	 0
??$addressof@PAU?$_Tree_node@U?$pair@$$CBW4SDL_Scancode@@_N@std@@PAX@std@@@std@@YAPAPAU?$_Tree_node@U?$pair@$$CBW4SDL_Scancode@@_N@std@@PAX@0@AAPAU10@@Z ENDP ; std::addressof<std::_Tree_node<std::pair<enum SDL_Scancode const ,bool>,void *> *>
_TEXT	ENDS
; Function compile flags: /Odtp /RTCsu /ZI
;	COMDAT ??$destroy@U?$pair@$$CBW4SDL_Scancode@@_N@std@@@?$allocator@U?$_Tree_node@U?$pair@$$CBW4SDL_Scancode@@_N@std@@PAX@std@@@std@@QAEXPAU?$pair@$$CBW4SDL_Scancode@@_N@1@@Z
_TEXT	SEGMENT
_this$ = -8						; size = 4
__Ptr$ = 8						; size = 4
??$destroy@U?$pair@$$CBW4SDL_Scancode@@_N@std@@@?$allocator@U?$_Tree_node@U?$pair@$$CBW4SDL_Scancode@@_N@std@@PAX@std@@@std@@QAEXPAU?$pair@$$CBW4SDL_Scancode@@_N@1@@Z PROC ; std::allocator<std::_Tree_node<std::pair<enum SDL_Scancode const ,bool>,void *> >::destroy<std::pair<enum SDL_Scancode const ,bool> >, COMDAT
; _this$ = ecx
; File c:\program files (x86)\microsoft visual studio 12.0\vc\include\xmemory0
; Line 605
  00000	55		 push	 ebp
  00001	8b ec		 mov	 ebp, esp
  00003	81 ec cc 00 00
	00		 sub	 esp, 204		; 000000ccH
  00009	53		 push	 ebx
  0000a	56		 push	 esi
  0000b	57		 push	 edi
  0000c	51		 push	 ecx
  0000d	8d bd 34 ff ff
	ff		 lea	 edi, DWORD PTR [ebp-204]
  00013	b9 33 00 00 00	 mov	 ecx, 51			; 00000033H
  00018	b8 cc cc cc cc	 mov	 eax, -858993460		; ccccccccH
  0001d	f3 ab		 rep stosd
  0001f	59		 pop	 ecx
  00020	89 4d f8	 mov	 DWORD PTR _this$[ebp], ecx
; Line 608
  00023	5f		 pop	 edi
  00024	5e		 pop	 esi
  00025	5b		 pop	 ebx
  00026	8b e5		 mov	 esp, ebp
  00028	5d		 pop	 ebp
  00029	c2 04 00	 ret	 4
??$destroy@U?$pair@$$CBW4SDL_Scancode@@_N@std@@@?$allocator@U?$_Tree_node@U?$pair@$$CBW4SDL_Scancode@@_N@std@@PAX@std@@@std@@QAEXPAU?$pair@$$CBW4SDL_Scancode@@_N@1@@Z ENDP ; std::allocator<std::_Tree_node<std::pair<enum SDL_Scancode const ,bool>,void *> >::destroy<std::pair<enum SDL_Scancode const ,bool> >
_TEXT	ENDS
; Function compile flags: /Odtp /RTCsu /ZI
;	COMDAT ??1?$pair@V?$_Tree_iterator@V?$_Tree_val@U?$_Tree_simple_types@U?$pair@$$CBW4SDL_Scancode@@_N@std@@@std@@@std@@@std@@_N@std@@QAE@XZ
_TEXT	SEGMENT
_this$ = -8						; size = 4
??1?$pair@V?$_Tree_iterator@V?$_Tree_val@U?$_Tree_simple_types@U?$pair@$$CBW4SDL_Scancode@@_N@std@@@std@@@std@@@std@@_N@std@@QAE@XZ PROC ; std::pair<std::_Tree_iterator<std::_Tree_val<std::_Tree_simple_types<std::pair<enum SDL_Scancode const ,bool> > > >,bool>::~pair<std::_Tree_iterator<std::_Tree_val<std::_Tree_simple_types<std::pair<enum SDL_Scancode const ,bool> > > >,bool>, COMDAT
; _this$ = ecx
  00000	55		 push	 ebp
  00001	8b ec		 mov	 ebp, esp
  00003	81 ec cc 00 00
	00		 sub	 esp, 204		; 000000ccH
  00009	53		 push	 ebx
  0000a	56		 push	 esi
  0000b	57		 push	 edi
  0000c	51		 push	 ecx
  0000d	8d bd 34 ff ff
	ff		 lea	 edi, DWORD PTR [ebp-204]
  00013	b9 33 00 00 00	 mov	 ecx, 51			; 00000033H
  00018	b8 cc cc cc cc	 mov	 eax, -858993460		; ccccccccH
  0001d	f3 ab		 rep stosd
  0001f	59		 pop	 ecx
  00020	89 4d f8	 mov	 DWORD PTR _this$[ebp], ecx
  00023	8b 4d f8	 mov	 ecx, DWORD PTR _this$[ebp]
  00026	e8 00 00 00 00	 call	 ??1?$_Tree_iterator@V?$_Tree_val@U?$_Tree_simple_types@U?$pair@$$CBW4SDL_Scancode@@_N@std@@@std@@@std@@@std@@QAE@XZ
  0002b	5f		 pop	 edi
  0002c	5e		 pop	 esi
  0002d	5b		 pop	 ebx
  0002e	81 c4 cc 00 00
	00		 add	 esp, 204		; 000000ccH
  00034	3b ec		 cmp	 ebp, esp
  00036	e8 00 00 00 00	 call	 __RTC_CheckEsp
  0003b	8b e5		 mov	 esp, ebp
  0003d	5d		 pop	 ebp
  0003e	c3		 ret	 0
??1?$pair@V?$_Tree_iterator@V?$_Tree_val@U?$_Tree_simple_types@U?$pair@$$CBW4SDL_Scancode@@_N@std@@@std@@@std@@@std@@_N@std@@QAE@XZ ENDP ; std::pair<std::_Tree_iterator<std::_Tree_val<std::_Tree_simple_types<std::pair<enum SDL_Scancode const ,bool> > > >,bool>::~pair<std::_Tree_iterator<std::_Tree_val<std::_Tree_simple_types<std::pair<enum SDL_Scancode const ,bool> > > >,bool>
_TEXT	ENDS
; Function compile flags: /Odtp /RTCsu /ZI
;	COMDAT ??$_Insert_nohint@AAU?$pair@$$CBW4SDL_Scancode@@_N@std@@PAU?$_Tree_node@U?$pair@$$CBW4SDL_Scancode@@_N@std@@PAX@2@@?$_Tree@V?$_Tmap_traits@W4SDL_Scancode@@_NU?$less@W4SDL_Scancode@@@std@@V?$allocator@U?$pair@$$CBW4SDL_Scancode@@_N@std@@@3@$0A@@std@@@std@@IAE?AU?$pair@V?$_Tree_iterator@V?$_Tree_val@U?$_Tree_simple_types@U?$pair@$$CBW4SDL_Scancode@@_N@std@@@std@@@std@@@std@@_N@1@_NAAU?$pair@$$CBW4SDL_Scancode@@_N@1@PAU?$_Tree_node@U?$pair@$$CBW4SDL_Scancode@@_N@std@@PAX@1@@Z
_TEXT	SEGMENT
tv130 = -488						; size = 4
tv316 = -485						; size = 1
tv315 = -484						; size = 4
tv302 = -481						; size = 1
tv298 = -481						; size = 1
tv314 = -480						; size = 4
tv304 = -480						; size = 4
tv301 = -480						; size = 4
tv297 = -480						; size = 4
tv291 = -480						; size = 4
tv287 = -480						; size = 4
tv278 = -480						; size = 4
tv309 = -477						; size = 1
tv318 = -476						; size = 4
tv313 = -476						; size = 4
tv311 = -476						; size = 4
tv306 = -476						; size = 4
tv300 = -476						; size = 4
tv285 = -476						; size = 4
tv160 = -476						; size = 4
tv157 = -476						; size = 4
tv317 = -472						; size = 4
tv312 = -472						; size = 4
tv310 = -472						; size = 4
tv308 = -472						; size = 4
tv307 = -472						; size = 4
tv305 = -472						; size = 4
tv303 = -472						; size = 4
tv299 = -472						; size = 4
tv269 = -472						; size = 4
tv251 = -472						; size = 4
tv207 = -472						; size = 4
$T2 = -461						; size = 1
$T3 = -449						; size = 1
$T4 = -437						; size = 1
$T5 = -428						; size = 12
$T6 = -405						; size = 1
$T7 = -396						; size = 12
$T8 = -373						; size = 1
$T9 = -364						; size = 12
$T10 = -341						; size = 1
$T11 = -329						; size = 1
$T12 = -320						; size = 12
$T13 = -297						; size = 1
$T14 = -288						; size = 4
__Where$15 = -84					; size = 12
__Addleft$16 = -61					; size = 1
__Wherenode$17 = -52					; size = 4
__Trynode$18 = -40					; size = 4
_this$ = -28						; size = 4
__$ArrayPad$ = -20					; size = 4
__$EHRec$ = -16						; size = 16
___$ReturnUdt$ = 8					; size = 4
__Leftish$ = 12						; size = 1
__Val$ = 16						; size = 4
__Newnode$ = 20						; size = 4
??$_Insert_nohint@AAU?$pair@$$CBW4SDL_Scancode@@_N@std@@PAU?$_Tree_node@U?$pair@$$CBW4SDL_Scancode@@_N@std@@PAX@2@@?$_Tree@V?$_Tmap_traits@W4SDL_Scancode@@_NU?$less@W4SDL_Scancode@@@std@@V?$allocator@U?$pair@$$CBW4SDL_Scancode@@_N@std@@@3@$0A@@std@@@std@@IAE?AU?$pair@V?$_Tree_iterator@V?$_Tree_val@U?$_Tree_simple_types@U?$pair@$$CBW4SDL_Scancode@@_N@std@@@std@@@std@@@std@@_N@1@_NAAU?$pair@$$CBW4SDL_Scancode@@_N@1@PAU?$_Tree_node@U?$pair@$$CBW4SDL_Scancode@@_N@std@@PAX@1@@Z PROC ; std::_Tree<std::_Tmap_traits<enum SDL_Scancode,bool,std::less<enum SDL_Scancode>,std::allocator<std::pair<enum SDL_Scancode const ,bool> >,0> >::_Insert_nohint<std::pair<enum SDL_Scancode const ,bool> &,std::_Tree_node<std::pair<enum SDL_Scancode const ,bool>,void *> *>, COMDAT
; _this$ = ecx
; File c:\program files (x86)\microsoft visual studio 12.0\vc\include\xtree
; Line 1777
  00000	55		 push	 ebp
  00001	8b ec		 mov	 ebp, esp
  00003	6a ff		 push	 -1
  00005	68 00 00 00 00	 push	 __ehhandler$??$_Insert_nohint@AAU?$pair@$$CBW4SDL_Scancode@@_N@std@@PAU?$_Tree_node@U?$pair@$$CBW4SDL_Scancode@@_N@std@@PAX@2@@?$_Tree@V?$_Tmap_traits@W4SDL_Scancode@@_NU?$less@W4SDL_Scancode@@@std@@V?$allocator@U?$pair@$$CBW4SDL_Scancode@@_N@std@@@3@$0A@@std@@@std@@IAE?AU?$pair@V?$_Tree_iterator@V?$_Tree_val@U?$_Tree_simple_types@U?$pair@$$CBW4SDL_Scancode@@_N@std@@@std@@@std@@@std@@_N@1@_NAAU?$pair@$$CBW4SDL_Scancode@@_N@1@PAU?$_Tree_node@U?$pair@$$CBW4SDL_Scancode@@_N@std@@PAX@1@@Z
  0000a	64 a1 00 00 00
	00		 mov	 eax, DWORD PTR fs:0
  00010	50		 push	 eax
  00011	51		 push	 ecx
  00012	81 ec d8 01 00
	00		 sub	 esp, 472		; 000001d8H
  00018	53		 push	 ebx
  00019	56		 push	 esi
  0001a	57		 push	 edi
  0001b	51		 push	 ecx
  0001c	8d bd 18 fe ff
	ff		 lea	 edi, DWORD PTR [ebp-488]
  00022	b9 76 00 00 00	 mov	 ecx, 118		; 00000076H
  00027	b8 cc cc cc cc	 mov	 eax, -858993460		; ccccccccH
  0002c	f3 ab		 rep stosd
  0002e	59		 pop	 ecx
  0002f	a1 00 00 00 00	 mov	 eax, DWORD PTR ___security_cookie
  00034	33 c5		 xor	 eax, ebp
  00036	89 45 ec	 mov	 DWORD PTR __$ArrayPad$[ebp], eax
  00039	50		 push	 eax
  0003a	8d 45 f4	 lea	 eax, DWORD PTR __$EHRec$[ebp+4]
  0003d	64 a3 00 00 00
	00		 mov	 DWORD PTR fs:0, eax
  00043	89 65 f0	 mov	 DWORD PTR __$EHRec$[ebp], esp
  00046	89 4d e4	 mov	 DWORD PTR _this$[ebp], ecx
  00049	c7 85 e0 fe ff
	ff 00 00 00 00	 mov	 DWORD PTR $T14[ebp], 0
; Line 1780
  00053	c7 45 fc 00 00
	00 00		 mov	 DWORD PTR __$EHRec$[ebp+12], 0
; Line 1781
  0005a	8b 4d e4	 mov	 ecx, DWORD PTR _this$[ebp]
  0005d	e8 00 00 00 00	 call	 ?_Root@?$_Tree@V?$_Tmap_traits@W4SDL_Scancode@@_NU?$less@W4SDL_Scancode@@@std@@V?$allocator@U?$pair@$$CBW4SDL_Scancode@@_N@std@@@3@$0A@@std@@@std@@IBEAAPAU?$_Tree_node@U?$pair@$$CBW4SDL_Scancode@@_N@std@@PAX@2@XZ ; std::_Tree<std::_Tmap_traits<enum SDL_Scancode,bool,std::less<enum SDL_Scancode>,std::allocator<std::pair<enum SDL_Scancode const ,bool> >,0> >::_Root
  00062	89 85 28 fe ff
	ff		 mov	 DWORD PTR tv269[ebp], eax
  00068	8b 85 28 fe ff
	ff		 mov	 eax, DWORD PTR tv269[ebp]
  0006e	8b 08		 mov	 ecx, DWORD PTR [eax]
  00070	89 4d d8	 mov	 DWORD PTR __Trynode$18[ebp], ecx
; Line 1782
  00073	8b 45 e4	 mov	 eax, DWORD PTR _this$[ebp]
  00076	8b 48 04	 mov	 ecx, DWORD PTR [eax+4]
  00079	89 4d cc	 mov	 DWORD PTR __Wherenode$17[ebp], ecx
; Line 1783
  0007c	c6 45 c3 01	 mov	 BYTE PTR __Addleft$16[ebp], 1
$LN12@Insert_noh:
; Line 1785
  00080	8b 45 d8	 mov	 eax, DWORD PTR __Trynode$18[ebp]
  00083	50		 push	 eax
  00084	e8 00 00 00 00	 call	 ?_Isnil@?$_Tree_val@U?$_Tree_simple_types@U?$pair@$$CBW4SDL_Scancode@@_N@std@@@std@@@std@@SAAADPAU?$_Tree_node@U?$pair@$$CBW4SDL_Scancode@@_N@std@@PAX@2@@Z ; std::_Tree_val<std::_Tree_simple_types<std::pair<enum SDL_Scancode const ,bool> > >::_Isnil
  00089	83 c4 04	 add	 esp, 4
  0008c	89 85 28 fe ff
	ff		 mov	 DWORD PTR tv251[ebp], eax
  00092	8b 8d 28 fe ff
	ff		 mov	 ecx, DWORD PTR tv251[ebp]
  00098	0f be 11	 movsx	 edx, BYTE PTR [ecx]
  0009b	85 d2		 test	 edx, edx
  0009d	0f 85 71 01 00
	00		 jne	 $LN11@Insert_noh
; Line 1787
  000a3	8b 45 d8	 mov	 eax, DWORD PTR __Trynode$18[ebp]
  000a6	89 45 cc	 mov	 DWORD PTR __Wherenode$17[ebp], eax
; Line 1788
  000a9	0f b6 45 0c	 movzx	 eax, BYTE PTR __Leftish$[ebp]
  000ad	85 c0		 test	 eax, eax
  000af	0f 84 95 00 00
	00		 je	 $LN10@Insert_noh
; Line 1789
  000b5	8b 45 10	 mov	 eax, DWORD PTR __Val$[ebp]
  000b8	50		 push	 eax
  000b9	8b 4d e4	 mov	 ecx, DWORD PTR _this$[ebp]
  000bc	e8 00 00 00 00	 call	 ?_Kfn@?$_Tree@V?$_Tmap_traits@W4SDL_Scancode@@_NU?$less@W4SDL_Scancode@@@std@@V?$allocator@U?$pair@$$CBW4SDL_Scancode@@_N@std@@@3@$0A@@std@@@std@@IBEABW4SDL_Scancode@@ABU?$pair@$$CBW4SDL_Scancode@@_N@2@@Z ; std::_Tree<std::_Tmap_traits<enum SDL_Scancode,bool,std::less<enum SDL_Scancode>,std::allocator<std::pair<enum SDL_Scancode const ,bool> >,0> >::_Kfn
  000c1	89 85 28 fe ff
	ff		 mov	 DWORD PTR tv207[ebp], eax
  000c7	8b 4d d8	 mov	 ecx, DWORD PTR __Trynode$18[ebp]
  000ca	51		 push	 ecx
  000cb	8b 4d e4	 mov	 ecx, DWORD PTR _this$[ebp]
  000ce	e8 00 00 00 00	 call	 ?_Key@?$_Tree@V?$_Tmap_traits@W4SDL_Scancode@@_NU?$less@W4SDL_Scancode@@@std@@V?$allocator@U?$pair@$$CBW4SDL_Scancode@@_N@std@@@3@$0A@@std@@@std@@IBEABW4SDL_Scancode@@PAU?$_Tree_node@U?$pair@$$CBW4SDL_Scancode@@_N@std@@PAX@2@@Z ; std::_Tree<std::_Tmap_traits<enum SDL_Scancode,bool,std::less<enum SDL_Scancode>,std::allocator<std::pair<enum SDL_Scancode const ,bool> >,0> >::_Key
  000d3	89 85 24 fe ff
	ff		 mov	 DWORD PTR tv160[ebp], eax
  000d9	8d 95 33 fe ff
	ff		 lea	 edx, DWORD PTR $T2[ebp]
  000df	52		 push	 edx
  000e0	8b 4d e4	 mov	 ecx, DWORD PTR _this$[ebp]
  000e3	e8 00 00 00 00	 call	 ?_Getcomp@?$_Tree_comp@$0A@V?$_Tmap_traits@W4SDL_Scancode@@_NU?$less@W4SDL_Scancode@@@std@@V?$allocator@U?$pair@$$CBW4SDL_Scancode@@_N@std@@@3@$0A@@std@@@std@@QBE?AU?$less@W4SDL_Scancode@@@2@XZ ; std::_Tree_comp<0,std::_Tmap_traits<enum SDL_Scancode,bool,std::less<enum SDL_Scancode>,std::allocator<std::pair<enum SDL_Scancode const ,bool> >,0> >::_Getcomp
  000e8	89 85 20 fe ff
	ff		 mov	 DWORD PTR tv297[ebp], eax
  000ee	68 ff 06 00 00	 push	 1791			; 000006ffH
  000f3	68 00 00 00 00	 push	 OFFSET ??_C@_1IK@HBAODOLH@?$AAc?$AA?3?$AA?2?$AAp?$AAr?$AAo?$AAg?$AAr?$AAa?$AAm?$AA?5?$AAf?$AAi?$AAl?$AAe?$AAs?$AA?5?$AA?$CI?$AAx?$AA8?$AA6?$AA?$CJ?$AA?2?$AAm?$AAi?$AAc?$AAr?$AAo?$AAs?$AAo?$AAf?$AAt@
  000f8	8b 85 28 fe ff
	ff		 mov	 eax, DWORD PTR tv207[ebp]
  000fe	50		 push	 eax
  000ff	8b 8d 24 fe ff
	ff		 mov	 ecx, DWORD PTR tv160[ebp]
  00105	51		 push	 ecx
  00106	8b 95 20 fe ff
	ff		 mov	 edx, DWORD PTR tv297[ebp]
  0010c	0f b6 02	 movzx	 eax, BYTE PTR [edx]
  0010f	50		 push	 eax
  00110	e8 00 00 00 00	 call	 ??$_Debug_lt_pred@U?$less@W4SDL_Scancode@@@std@@ABW4SDL_Scancode@@ABW43@@std@@YA_NU?$less@W4SDL_Scancode@@@0@ABW4SDL_Scancode@@1PB_WI@Z ; std::_Debug_lt_pred<std::less<enum SDL_Scancode>,enum SDL_Scancode const &,enum SDL_Scancode const &>
  00115	83 c4 14	 add	 esp, 20			; 00000014H
  00118	88 85 1f fe ff
	ff		 mov	 BYTE PTR tv298[ebp], al
  0011e	0f b6 8d 1f fe
	ff ff		 movzx	 ecx, BYTE PTR tv298[ebp]
  00125	85 c9		 test	 ecx, ecx
  00127	75 0c		 jne	 SHORT $LN16@Insert_noh
  00129	c7 85 18 fe ff
	ff 01 00 00 00	 mov	 DWORD PTR tv130[ebp], 1
  00133	eb 0a		 jmp	 SHORT $LN17@Insert_noh
$LN16@Insert_noh:
  00135	c7 85 18 fe ff
	ff 00 00 00 00	 mov	 DWORD PTR tv130[ebp], 0
$LN17@Insert_noh:
  0013f	8a 95 18 fe ff
	ff		 mov	 dl, BYTE PTR tv130[ebp]
  00145	88 55 c3	 mov	 BYTE PTR __Addleft$16[ebp], dl
; Line 1792
  00148	eb 72		 jmp	 SHORT $LN9@Insert_noh
$LN10@Insert_noh:
; Line 1793
  0014a	8b 45 d8	 mov	 eax, DWORD PTR __Trynode$18[ebp]
  0014d	50		 push	 eax
  0014e	8b 4d e4	 mov	 ecx, DWORD PTR _this$[ebp]
  00151	e8 00 00 00 00	 call	 ?_Key@?$_Tree@V?$_Tmap_traits@W4SDL_Scancode@@_NU?$less@W4SDL_Scancode@@@std@@V?$allocator@U?$pair@$$CBW4SDL_Scancode@@_N@std@@@3@$0A@@std@@@std@@IBEABW4SDL_Scancode@@PAU?$_Tree_node@U?$pair@$$CBW4SDL_Scancode@@_N@std@@PAX@2@@Z ; std::_Tree<std::_Tmap_traits<enum SDL_Scancode,bool,std::less<enum SDL_Scancode>,std::allocator<std::pair<enum SDL_Scancode const ,bool> >,0> >::_Key
  00156	89 85 28 fe ff
	ff		 mov	 DWORD PTR tv299[ebp], eax
  0015c	8b 4d 10	 mov	 ecx, DWORD PTR __Val$[ebp]
  0015f	51		 push	 ecx
  00160	8b 4d e4	 mov	 ecx, DWORD PTR _this$[ebp]
  00163	e8 00 00 00 00	 call	 ?_Kfn@?$_Tree@V?$_Tmap_traits@W4SDL_Scancode@@_NU?$less@W4SDL_Scancode@@@std@@V?$allocator@U?$pair@$$CBW4SDL_Scancode@@_N@std@@@3@$0A@@std@@@std@@IBEABW4SDL_Scancode@@ABU?$pair@$$CBW4SDL_Scancode@@_N@2@@Z ; std::_Tree<std::_Tmap_traits<enum SDL_Scancode,bool,std::less<enum SDL_Scancode>,std::allocator<std::pair<enum SDL_Scancode const ,bool> >,0> >::_Kfn
  00168	89 85 24 fe ff
	ff		 mov	 DWORD PTR tv300[ebp], eax
  0016e	8d 95 3f fe ff
	ff		 lea	 edx, DWORD PTR $T3[ebp]
  00174	52		 push	 edx
  00175	8b 4d e4	 mov	 ecx, DWORD PTR _this$[ebp]
  00178	e8 00 00 00 00	 call	 ?_Getcomp@?$_Tree_comp@$0A@V?$_Tmap_traits@W4SDL_Scancode@@_NU?$less@W4SDL_Scancode@@@std@@V?$allocator@U?$pair@$$CBW4SDL_Scancode@@_N@std@@@3@$0A@@std@@@std@@QBE?AU?$less@W4SDL_Scancode@@@2@XZ ; std::_Tree_comp<0,std::_Tmap_traits<enum SDL_Scancode,bool,std::less<enum SDL_Scancode>,std::allocator<std::pair<enum SDL_Scancode const ,bool> >,0> >::_Getcomp
  0017d	89 85 20 fe ff
	ff		 mov	 DWORD PTR tv301[ebp], eax
  00183	68 03 07 00 00	 push	 1795			; 00000703H
  00188	68 00 00 00 00	 push	 OFFSET ??_C@_1IK@HBAODOLH@?$AAc?$AA?3?$AA?2?$AAp?$AAr?$AAo?$AAg?$AAr?$AAa?$AAm?$AA?5?$AAf?$AAi?$AAl?$AAe?$AAs?$AA?5?$AA?$CI?$AAx?$AA8?$AA6?$AA?$CJ?$AA?2?$AAm?$AAi?$AAc?$AAr?$AAo?$AAs?$AAo?$AAf?$AAt@
  0018d	8b 85 28 fe ff
	ff		 mov	 eax, DWORD PTR tv299[ebp]
  00193	50		 push	 eax
  00194	8b 8d 24 fe ff
	ff		 mov	 ecx, DWORD PTR tv300[ebp]
  0019a	51		 push	 ecx
  0019b	8b 95 20 fe ff
	ff		 mov	 edx, DWORD PTR tv301[ebp]
  001a1	0f b6 02	 movzx	 eax, BYTE PTR [edx]
  001a4	50		 push	 eax
  001a5	e8 00 00 00 00	 call	 ??$_Debug_lt_pred@U?$less@W4SDL_Scancode@@@std@@ABW4SDL_Scancode@@ABW43@@std@@YA_NU?$less@W4SDL_Scancode@@@0@ABW4SDL_Scancode@@1PB_WI@Z ; std::_Debug_lt_pred<std::less<enum SDL_Scancode>,enum SDL_Scancode const &,enum SDL_Scancode const &>
  001aa	83 c4 14	 add	 esp, 20			; 00000014H
  001ad	88 85 1f fe ff
	ff		 mov	 BYTE PTR tv302[ebp], al
  001b3	8a 8d 1f fe ff
	ff		 mov	 cl, BYTE PTR tv302[ebp]
  001b9	88 4d c3	 mov	 BYTE PTR __Addleft$16[ebp], cl
$LN9@Insert_noh:
; Line 1797
  001bc	0f b6 45 c3	 movzx	 eax, BYTE PTR __Addleft$16[ebp]
  001c0	85 c0		 test	 eax, eax
  001c2	74 22		 je	 SHORT $LN18@Insert_noh
  001c4	8b 4d d8	 mov	 ecx, DWORD PTR __Trynode$18[ebp]
  001c7	51		 push	 ecx
  001c8	e8 00 00 00 00	 call	 ?_Left@?$_Tree_val@U?$_Tree_simple_types@U?$pair@$$CBW4SDL_Scancode@@_N@std@@@std@@@std@@SAAAPAU?$_Tree_node@U?$pair@$$CBW4SDL_Scancode@@_N@std@@PAX@2@PAU32@@Z ; std::_Tree_val<std::_Tree_simple_types<std::pair<enum SDL_Scancode const ,bool> > >::_Left
  001cd	83 c4 04	 add	 esp, 4
  001d0	89 85 28 fe ff
	ff		 mov	 DWORD PTR tv303[ebp], eax
  001d6	8b 95 28 fe ff
	ff		 mov	 edx, DWORD PTR tv303[ebp]
  001dc	8b 02		 mov	 eax, DWORD PTR [edx]
  001de	89 85 24 fe ff
	ff		 mov	 DWORD PTR tv157[ebp], eax
  001e4	eb 20		 jmp	 SHORT $LN19@Insert_noh
$LN18@Insert_noh:
  001e6	8b 4d d8	 mov	 ecx, DWORD PTR __Trynode$18[ebp]
  001e9	51		 push	 ecx
  001ea	e8 00 00 00 00	 call	 ?_Right@?$_Tree_val@U?$_Tree_simple_types@U?$pair@$$CBW4SDL_Scancode@@_N@std@@@std@@@std@@SAAAPAU?$_Tree_node@U?$pair@$$CBW4SDL_Scancode@@_N@std@@PAX@2@PAU32@@Z ; std::_Tree_val<std::_Tree_simple_types<std::pair<enum SDL_Scancode const ,bool> > >::_Right
  001ef	83 c4 04	 add	 esp, 4
  001f2	89 85 20 fe ff
	ff		 mov	 DWORD PTR tv304[ebp], eax
  001f8	8b 95 20 fe ff
	ff		 mov	 edx, DWORD PTR tv304[ebp]
  001fe	8b 02		 mov	 eax, DWORD PTR [edx]
  00200	89 85 24 fe ff
	ff		 mov	 DWORD PTR tv157[ebp], eax
$LN19@Insert_noh:
  00206	8b 8d 24 fe ff
	ff		 mov	 ecx, DWORD PTR tv157[ebp]
  0020c	89 4d d8	 mov	 DWORD PTR __Trynode$18[ebp], ecx
; Line 1798
  0020f	e9 6c fe ff ff	 jmp	 $LN12@Insert_noh
$LN11@Insert_noh:
; Line 1800
  00214	33 c0		 xor	 eax, eax
  00216	0f 84 93 00 00
	00		 je	 $LN8@Insert_noh
; Line 1801
  0021c	c6 85 4b fe ff
	ff 01		 mov	 BYTE PTR $T4[ebp], 1
  00223	8b 45 10	 mov	 eax, DWORD PTR __Val$[ebp]
  00226	50		 push	 eax
  00227	e8 00 00 00 00	 call	 ??$forward@AAU?$pair@$$CBW4SDL_Scancode@@_N@std@@@std@@YAAAU?$pair@$$CBW4SDL_Scancode@@_N@0@AAU10@@Z ; std::forward<std::pair<enum SDL_Scancode const ,bool> &>
  0022c	83 c4 04	 add	 esp, 4
  0022f	89 85 28 fe ff
	ff		 mov	 DWORD PTR tv305[ebp], eax
  00235	8b 4d 14	 mov	 ecx, DWORD PTR __Newnode$[ebp]
  00238	51		 push	 ecx
  00239	8b 95 28 fe ff
	ff		 mov	 edx, DWORD PTR tv305[ebp]
  0023f	52		 push	 edx
  00240	8b 45 cc	 mov	 eax, DWORD PTR __Wherenode$17[ebp]
  00243	50		 push	 eax
  00244	0f b6 4d c3	 movzx	 ecx, BYTE PTR __Addleft$16[ebp]
  00248	51		 push	 ecx
  00249	8d 95 54 fe ff
	ff		 lea	 edx, DWORD PTR $T5[ebp]
  0024f	52		 push	 edx
  00250	8b 4d e4	 mov	 ecx, DWORD PTR _this$[ebp]
  00253	e8 00 00 00 00	 call	 ??$_Insert_at@AAU?$pair@$$CBW4SDL_Scancode@@_N@std@@PAU?$_Tree_node@U?$pair@$$CBW4SDL_Scancode@@_N@std@@PAX@2@@?$_Tree@V?$_Tmap_traits@W4SDL_Scancode@@_NU?$less@W4SDL_Scancode@@@std@@V?$allocator@U?$pair@$$CBW4SDL_Scancode@@_N@std@@@3@$0A@@std@@@std@@IAE?AV?$_Tree_iterator@V?$_Tree_val@U?$_Tree_simple_types@U?$pair@$$CBW4SDL_Scancode@@_N@std@@@std@@@std@@@1@_NPAU?$_Tree_node@U?$pair@$$CBW4SDL_Scancode@@_N@std@@PAX@1@AAU?$pair@$$CBW4SDL_Scancode@@_N@1@1@Z ; std::_Tree<std::_Tmap_traits<enum SDL_Scancode,bool,std::less<enum SDL_Scancode>,std::allocator<std::pair<enum SDL_Scancode const ,bool> >,0> >::_Insert_at<std::pair<enum SDL_Scancode const ,bool> &,std::_Tree_node<std::pair<enum SDL_Scancode const ,bool>,void *> *>
  00258	89 85 24 fe ff
	ff		 mov	 DWORD PTR tv306[ebp], eax
  0025e	8b 85 24 fe ff
	ff		 mov	 eax, DWORD PTR tv306[ebp]
  00264	89 85 20 fe ff
	ff		 mov	 DWORD PTR tv278[ebp], eax
  0026a	c6 45 fc 01	 mov	 BYTE PTR __$EHRec$[ebp+12], 1
  0026e	8d 8d 4b fe ff
	ff		 lea	 ecx, DWORD PTR $T4[ebp]
  00274	51		 push	 ecx
  00275	8b 95 20 fe ff
	ff		 mov	 edx, DWORD PTR tv278[ebp]
  0027b	52		 push	 edx
  0027c	8b 4d 08	 mov	 ecx, DWORD PTR ___$ReturnUdt$[ebp]
  0027f	e8 00 00 00 00	 call	 ??$?0V?$_Tree_iterator@V?$_Tree_val@U?$_Tree_simple_types@U?$pair@$$CBW4SDL_Scancode@@_N@std@@@std@@@std@@@std@@_NX@?$pair@V?$_Tree_iterator@V?$_Tree_val@U?$_Tree_simple_types@U?$pair@$$CBW4SDL_Scancode@@_N@std@@@std@@@std@@@std@@_N@std@@QAE@$$QAV?$_Tree_iterator@V?$_Tree_val@U?$_Tree_simple_types@U?$pair@$$CBW4SDL_Scancode@@_N@std@@@std@@@std@@@1@$$QA_N@Z ; std::pair<std::_Tree_iterator<std::_Tree_val<std::_Tree_simple_types<std::pair<enum SDL_Scancode const ,bool> > > >,bool>::pair<std::_Tree_iterator<std::_Tree_val<std::_Tree_simple_types<std::pair<enum SDL_Scancode const ,bool> > > >,bool><std::_Tree_iterator<std::_Tree_val<std::_Tree_simple_types<std::pair<enum SDL_Scancode const ,bool> > > >,bool,void>
  00284	8b 85 e0 fe ff
	ff		 mov	 eax, DWORD PTR $T14[ebp]
  0028a	83 c8 01	 or	 eax, 1
  0028d	89 85 e0 fe ff
	ff		 mov	 DWORD PTR $T14[ebp], eax
  00293	c6 45 fc 00	 mov	 BYTE PTR __$EHRec$[ebp+12], 0
  00297	8d 8d 54 fe ff
	ff		 lea	 ecx, DWORD PTR $T5[ebp]
  0029d	e8 00 00 00 00	 call	 ??1?$_Tree_iterator@V?$_Tree_val@U?$_Tree_simple_types@U?$pair@$$CBW4SDL_Scancode@@_N@std@@@std@@@std@@@std@@QAE@XZ
  002a2	8b 45 08	 mov	 eax, DWORD PTR ___$ReturnUdt$[ebp]
  002a5	e9 df 02 00 00	 jmp	 $LN15@Insert_noh
; Line 1803
  002aa	e9 ad 02 00 00	 jmp	 $LN7@Insert_noh
$LN8@Insert_noh:
; Line 1805
  002af	6a 0c		 push	 12			; 0000000cH
  002b1	8d 4d ac	 lea	 ecx, DWORD PTR __Where$15[ebp]
  002b4	e8 00 00 00 00	 call	 ?__autoclassinit2@?$_Tree_iterator@V?$_Tree_val@U?$_Tree_simple_types@U?$pair@$$CBW4SDL_Scancode@@_N@std@@@std@@@std@@@std@@QAEXI@Z
  002b9	8b 45 e4	 mov	 eax, DWORD PTR _this$[ebp]
  002bc	50		 push	 eax
  002bd	8b 4d cc	 mov	 ecx, DWORD PTR __Wherenode$17[ebp]
  002c0	51		 push	 ecx
  002c1	8d 4d ac	 lea	 ecx, DWORD PTR __Where$15[ebp]
  002c4	e8 00 00 00 00	 call	 ??0?$_Tree_iterator@V?$_Tree_val@U?$_Tree_simple_types@U?$pair@$$CBW4SDL_Scancode@@_N@std@@@std@@@std@@@std@@QAE@PAU?$_Tree_node@U?$pair@$$CBW4SDL_Scancode@@_N@std@@PAX@1@PBV?$_Tree_val@U?$_Tree_simple_types@U?$pair@$$CBW4SDL_Scancode@@_N@std@@@std@@@1@@Z ; std::_Tree_iterator<std::_Tree_val<std::_Tree_simple_types<std::pair<enum SDL_Scancode const ,bool> > > >::_Tree_iterator<std::_Tree_val<std::_Tree_simple_types<std::pair<enum SDL_Scancode const ,bool> > > >
  002c9	89 85 28 fe ff
	ff		 mov	 DWORD PTR tv307[ebp], eax
  002cf	c6 45 fc 02	 mov	 BYTE PTR __$EHRec$[ebp+12], 2
; Line 1806
  002d3	0f b6 45 c3	 movzx	 eax, BYTE PTR __Addleft$16[ebp]
  002d7	85 c0		 test	 eax, eax
  002d9	75 05		 jne	 SHORT $LN6@Insert_noh
  002db	e9 05 01 00 00	 jmp	 $LN5@Insert_noh
$LN6@Insert_noh:
; Line 1808
  002e0	8d 85 74 fe ff
	ff		 lea	 eax, DWORD PTR $T7[ebp]
  002e6	50		 push	 eax
  002e7	8b 4d e4	 mov	 ecx, DWORD PTR _this$[ebp]
  002ea	e8 00 00 00 00	 call	 ?begin@?$_Tree@V?$_Tmap_traits@W4SDL_Scancode@@_NU?$less@W4SDL_Scancode@@@std@@V?$allocator@U?$pair@$$CBW4SDL_Scancode@@_N@std@@@3@$0A@@std@@@std@@QAE?AV?$_Tree_iterator@V?$_Tree_val@U?$_Tree_simple_types@U?$pair@$$CBW4SDL_Scancode@@_N@std@@@std@@@std@@@2@XZ ; std::_Tree<std::_Tmap_traits<enum SDL_Scancode,bool,std::less<enum SDL_Scancode>,std::allocator<std::pair<enum SDL_Scancode const ,bool> >,0> >::begin
  002ef	89 85 28 fe ff
	ff		 mov	 DWORD PTR tv308[ebp], eax
  002f5	8b 8d 28 fe ff
	ff		 mov	 ecx, DWORD PTR tv308[ebp]
  002fb	89 8d 24 fe ff
	ff		 mov	 DWORD PTR tv285[ebp], ecx
  00301	c6 45 fc 03	 mov	 BYTE PTR __$EHRec$[ebp+12], 3
  00305	8b 95 24 fe ff
	ff		 mov	 edx, DWORD PTR tv285[ebp]
  0030b	52		 push	 edx
  0030c	8d 4d ac	 lea	 ecx, DWORD PTR __Where$15[ebp]
  0030f	e8 00 00 00 00	 call	 ??8?$_Tree_const_iterator@V?$_Tree_val@U?$_Tree_simple_types@U?$pair@$$CBW4SDL_Scancode@@_N@std@@@std@@@std@@@std@@QBE_NABV01@@Z ; std::_Tree_const_iterator<std::_Tree_val<std::_Tree_simple_types<std::pair<enum SDL_Scancode const ,bool> > > >::operator==
  00314	88 85 23 fe ff
	ff		 mov	 BYTE PTR tv309[ebp], al
  0031a	8a 85 23 fe ff
	ff		 mov	 al, BYTE PTR tv309[ebp]
  00320	88 85 6b fe ff
	ff		 mov	 BYTE PTR $T6[ebp], al
  00326	c6 45 fc 02	 mov	 BYTE PTR __$EHRec$[ebp+12], 2
  0032a	8d 8d 74 fe ff
	ff		 lea	 ecx, DWORD PTR $T7[ebp]
  00330	e8 00 00 00 00	 call	 ??1?$_Tree_iterator@V?$_Tree_val@U?$_Tree_simple_types@U?$pair@$$CBW4SDL_Scancode@@_N@std@@@std@@@std@@@std@@QAE@XZ
  00335	0f b6 8d 6b fe
	ff ff		 movzx	 ecx, BYTE PTR $T6[ebp]
  0033c	85 c9		 test	 ecx, ecx
  0033e	0f 84 99 00 00
	00		 je	 $LN4@Insert_noh
; Line 1809
  00344	c6 85 8b fe ff
	ff 01		 mov	 BYTE PTR $T8[ebp], 1
  0034b	8b 45 10	 mov	 eax, DWORD PTR __Val$[ebp]
  0034e	50		 push	 eax
  0034f	e8 00 00 00 00	 call	 ??$forward@AAU?$pair@$$CBW4SDL_Scancode@@_N@std@@@std@@YAAAU?$pair@$$CBW4SDL_Scancode@@_N@0@AAU10@@Z ; std::forward<std::pair<enum SDL_Scancode const ,bool> &>
  00354	83 c4 04	 add	 esp, 4
  00357	89 85 28 fe ff
	ff		 mov	 DWORD PTR tv310[ebp], eax
  0035d	8b 4d 14	 mov	 ecx, DWORD PTR __Newnode$[ebp]
  00360	51		 push	 ecx
  00361	8b 95 28 fe ff
	ff		 mov	 edx, DWORD PTR tv310[ebp]
  00367	52		 push	 edx
  00368	8b 45 cc	 mov	 eax, DWORD PTR __Wherenode$17[ebp]
  0036b	50		 push	 eax
  0036c	6a 01		 push	 1
  0036e	8d 8d 94 fe ff
	ff		 lea	 ecx, DWORD PTR $T9[ebp]
  00374	51		 push	 ecx
  00375	8b 4d e4	 mov	 ecx, DWORD PTR _this$[ebp]
  00378	e8 00 00 00 00	 call	 ??$_Insert_at@AAU?$pair@$$CBW4SDL_Scancode@@_N@std@@PAU?$_Tree_node@U?$pair@$$CBW4SDL_Scancode@@_N@std@@PAX@2@@?$_Tree@V?$_Tmap_traits@W4SDL_Scancode@@_NU?$less@W4SDL_Scancode@@@std@@V?$allocator@U?$pair@$$CBW4SDL_Scancode@@_N@std@@@3@$0A@@std@@@std@@IAE?AV?$_Tree_iterator@V?$_Tree_val@U?$_Tree_simple_types@U?$pair@$$CBW4SDL_Scancode@@_N@std@@@std@@@std@@@1@_NPAU?$_Tree_node@U?$pair@$$CBW4SDL_Scancode@@_N@std@@PAX@1@AAU?$pair@$$CBW4SDL_Scancode@@_N@1@1@Z ; std::_Tree<std::_Tmap_traits<enum SDL_Scancode,bool,std::less<enum SDL_Scancode>,std::allocator<std::pair<enum SDL_Scancode const ,bool> >,0> >::_Insert_at<std::pair<enum SDL_Scancode const ,bool> &,std::_Tree_node<std::pair<enum SDL_Scancode const ,bool>,void *> *>
  0037d	89 85 24 fe ff
	ff		 mov	 DWORD PTR tv311[ebp], eax
  00383	8b 95 24 fe ff
	ff		 mov	 edx, DWORD PTR tv311[ebp]
  00389	89 95 20 fe ff
	ff		 mov	 DWORD PTR tv287[ebp], edx
  0038f	c6 45 fc 04	 mov	 BYTE PTR __$EHRec$[ebp+12], 4
  00393	8d 85 8b fe ff
	ff		 lea	 eax, DWORD PTR $T8[ebp]
  00399	50		 push	 eax
  0039a	8b 8d 20 fe ff
	ff		 mov	 ecx, DWORD PTR tv287[ebp]
  003a0	51		 push	 ecx
  003a1	8b 4d 08	 mov	 ecx, DWORD PTR ___$ReturnUdt$[ebp]
  003a4	e8 00 00 00 00	 call	 ??$?0V?$_Tree_iterator@V?$_Tree_val@U?$_Tree_simple_types@U?$pair@$$CBW4SDL_Scancode@@_N@std@@@std@@@std@@@std@@_NX@?$pair@V?$_Tree_iterator@V?$_Tree_val@U?$_Tree_simple_types@U?$pair@$$CBW4SDL_Scancode@@_N@std@@@std@@@std@@@std@@_N@std@@QAE@$$QAV?$_Tree_iterator@V?$_Tree_val@U?$_Tree_simple_types@U?$pair@$$CBW4SDL_Scancode@@_N@std@@@std@@@std@@@1@$$QA_N@Z ; std::pair<std::_Tree_iterator<std::_Tree_val<std::_Tree_simple_types<std::pair<enum SDL_Scancode const ,bool> > > >,bool>::pair<std::_Tree_iterator<std::_Tree_val<std::_Tree_simple_types<std::pair<enum SDL_Scancode const ,bool> > > >,bool><std::_Tree_iterator<std::_Tree_val<std::_Tree_simple_types<std::pair<enum SDL_Scancode const ,bool> > > >,bool,void>
  003a9	8b 95 e0 fe ff
	ff		 mov	 edx, DWORD PTR $T14[ebp]
  003af	83 ca 01	 or	 edx, 1
  003b2	89 95 e0 fe ff
	ff		 mov	 DWORD PTR $T14[ebp], edx
  003b8	c6 45 fc 02	 mov	 BYTE PTR __$EHRec$[ebp+12], 2
  003bc	8d 8d 94 fe ff
	ff		 lea	 ecx, DWORD PTR $T9[ebp]
  003c2	e8 00 00 00 00	 call	 ??1?$_Tree_iterator@V?$_Tree_val@U?$_Tree_simple_types@U?$pair@$$CBW4SDL_Scancode@@_N@std@@@std@@@std@@@std@@QAE@XZ
  003c7	c6 45 fc 00	 mov	 BYTE PTR __$EHRec$[ebp+12], 0
  003cb	8d 4d ac	 lea	 ecx, DWORD PTR __Where$15[ebp]
  003ce	e8 00 00 00 00	 call	 ??1?$_Tree_iterator@V?$_Tree_val@U?$_Tree_simple_types@U?$pair@$$CBW4SDL_Scancode@@_N@std@@@std@@@std@@@std@@QAE@XZ
  003d3	8b 45 08	 mov	 eax, DWORD PTR ___$ReturnUdt$[ebp]
  003d6	e9 ae 01 00 00	 jmp	 $LN15@Insert_noh
; Line 1811
  003db	eb 08		 jmp	 SHORT $LN5@Insert_noh
$LN4@Insert_noh:
; Line 1812
  003dd	8d 4d ac	 lea	 ecx, DWORD PTR __Where$15[ebp]
  003e0	e8 00 00 00 00	 call	 ??F?$_Tree_iterator@V?$_Tree_val@U?$_Tree_simple_types@U?$pair@$$CBW4SDL_Scancode@@_N@std@@@std@@@std@@@std@@QAEAAV01@XZ ; std::_Tree_iterator<std::_Tree_val<std::_Tree_simple_types<std::pair<enum SDL_Scancode const ,bool> > > >::operator--
$LN5@Insert_noh:
; Line 1814
  003e5	8b 45 10	 mov	 eax, DWORD PTR __Val$[ebp]
  003e8	50		 push	 eax
  003e9	8b 4d e4	 mov	 ecx, DWORD PTR _this$[ebp]
  003ec	e8 00 00 00 00	 call	 ?_Kfn@?$_Tree@V?$_Tmap_traits@W4SDL_Scancode@@_NU?$less@W4SDL_Scancode@@@std@@V?$allocator@U?$pair@$$CBW4SDL_Scancode@@_N@std@@@3@$0A@@std@@@std@@IBEABW4SDL_Scancode@@ABU?$pair@$$CBW4SDL_Scancode@@_N@2@@Z ; std::_Tree<std::_Tmap_traits<enum SDL_Scancode,bool,std::less<enum SDL_Scancode>,std::allocator<std::pair<enum SDL_Scancode const ,bool> >,0> >::_Kfn
  003f1	89 85 28 fe ff
	ff		 mov	 DWORD PTR tv312[ebp], eax
  003f7	8d 4d ac	 lea	 ecx, DWORD PTR __Where$15[ebp]
  003fa	e8 00 00 00 00	 call	 ?_Mynode@?$_Tree_unchecked_const_iterator@V?$_Tree_val@U?$_Tree_simple_types@U?$pair@$$CBW4SDL_Scancode@@_N@std@@@std@@@std@@U_Iterator_base12@2@@std@@QBEPAU?$_Tree_node@U?$pair@$$CBW4SDL_Scancode@@_N@std@@PAX@2@XZ ; std::_Tree_unchecked_const_iterator<std::_Tree_val<std::_Tree_simple_types<std::pair<enum SDL_Scancode const ,bool> > >,std::_Iterator_base12>::_Mynode
  003ff	89 85 24 fe ff
	ff		 mov	 DWORD PTR tv313[ebp], eax
  00405	8b 8d 24 fe ff
	ff		 mov	 ecx, DWORD PTR tv313[ebp]
  0040b	51		 push	 ecx
  0040c	8b 4d e4	 mov	 ecx, DWORD PTR _this$[ebp]
  0040f	e8 00 00 00 00	 call	 ?_Key@?$_Tree@V?$_Tmap_traits@W4SDL_Scancode@@_NU?$less@W4SDL_Scancode@@@std@@V?$allocator@U?$pair@$$CBW4SDL_Scancode@@_N@std@@@3@$0A@@std@@@std@@IBEABW4SDL_Scancode@@PAU?$_Tree_node@U?$pair@$$CBW4SDL_Scancode@@_N@std@@PAX@2@@Z ; std::_Tree<std::_Tmap_traits<enum SDL_Scancode,bool,std::less<enum SDL_Scancode>,std::allocator<std::pair<enum SDL_Scancode const ,bool> >,0> >::_Key
  00414	89 85 20 fe ff
	ff		 mov	 DWORD PTR tv314[ebp], eax
  0041a	8d 95 ab fe ff
	ff		 lea	 edx, DWORD PTR $T10[ebp]
  00420	52		 push	 edx
  00421	8b 4d e4	 mov	 ecx, DWORD PTR _this$[ebp]
  00424	e8 00 00 00 00	 call	 ?_Getcomp@?$_Tree_comp@$0A@V?$_Tmap_traits@W4SDL_Scancode@@_NU?$less@W4SDL_Scancode@@@std@@V?$allocator@U?$pair@$$CBW4SDL_Scancode@@_N@std@@@3@$0A@@std@@@std@@QBE?AU?$less@W4SDL_Scancode@@@2@XZ ; std::_Tree_comp<0,std::_Tmap_traits<enum SDL_Scancode,bool,std::less<enum SDL_Scancode>,std::allocator<std::pair<enum SDL_Scancode const ,bool> >,0> >::_Getcomp
  00429	89 85 1c fe ff
	ff		 mov	 DWORD PTR tv315[ebp], eax
  0042f	68 18 07 00 00	 push	 1816			; 00000718H
  00434	68 00 00 00 00	 push	 OFFSET ??_C@_1IK@HBAODOLH@?$AAc?$AA?3?$AA?2?$AAp?$AAr?$AAo?$AAg?$AAr?$AAa?$AAm?$AA?5?$AAf?$AAi?$AAl?$AAe?$AAs?$AA?5?$AA?$CI?$AAx?$AA8?$AA6?$AA?$CJ?$AA?2?$AAm?$AAi?$AAc?$AAr?$AAo?$AAs?$AAo?$AAf?$AAt@
  00439	8b 85 28 fe ff
	ff		 mov	 eax, DWORD PTR tv312[ebp]
  0043f	50		 push	 eax
  00440	8b 8d 20 fe ff
	ff		 mov	 ecx, DWORD PTR tv314[ebp]
  00446	51		 push	 ecx
  00447	8b 95 1c fe ff
	ff		 mov	 edx, DWORD PTR tv315[ebp]
  0044d	0f b6 02	 movzx	 eax, BYTE PTR [edx]
  00450	50		 push	 eax
  00451	e8 00 00 00 00	 call	 ??$_Debug_lt_pred@U?$less@W4SDL_Scancode@@@std@@ABW4SDL_Scancode@@ABW43@@std@@YA_NU?$less@W4SDL_Scancode@@@0@ABW4SDL_Scancode@@1PB_WI@Z ; std::_Debug_lt_pred<std::less<enum SDL_Scancode>,enum SDL_Scancode const &,enum SDL_Scancode const &>
  00456	83 c4 14	 add	 esp, 20			; 00000014H
  00459	88 85 1b fe ff
	ff		 mov	 BYTE PTR tv316[ebp], al
  0045f	0f b6 8d 1b fe
	ff ff		 movzx	 ecx, BYTE PTR tv316[ebp]
  00466	85 c9		 test	 ecx, ecx
  00468	0f 84 9c 00 00
	00		 je	 $LN2@Insert_noh
; Line 1817
  0046e	c6 85 b7 fe ff
	ff 01		 mov	 BYTE PTR $T11[ebp], 1
  00475	8b 45 10	 mov	 eax, DWORD PTR __Val$[ebp]
  00478	50		 push	 eax
  00479	e8 00 00 00 00	 call	 ??$forward@AAU?$pair@$$CBW4SDL_Scancode@@_N@std@@@std@@YAAAU?$pair@$$CBW4SDL_Scancode@@_N@0@AAU10@@Z ; std::forward<std::pair<enum SDL_Scancode const ,bool> &>
  0047e	83 c4 04	 add	 esp, 4
  00481	89 85 28 fe ff
	ff		 mov	 DWORD PTR tv317[ebp], eax
  00487	8b 4d 14	 mov	 ecx, DWORD PTR __Newnode$[ebp]
  0048a	51		 push	 ecx
  0048b	8b 95 28 fe ff
	ff		 mov	 edx, DWORD PTR tv317[ebp]
  00491	52		 push	 edx
  00492	8b 45 cc	 mov	 eax, DWORD PTR __Wherenode$17[ebp]
  00495	50		 push	 eax
  00496	0f b6 4d c3	 movzx	 ecx, BYTE PTR __Addleft$16[ebp]
  0049a	51		 push	 ecx
  0049b	8d 95 c0 fe ff
	ff		 lea	 edx, DWORD PTR $T12[ebp]
  004a1	52		 push	 edx
  004a2	8b 4d e4	 mov	 ecx, DWORD PTR _this$[ebp]
  004a5	e8 00 00 00 00	 call	 ??$_Insert_at@AAU?$pair@$$CBW4SDL_Scancode@@_N@std@@PAU?$_Tree_node@U?$pair@$$CBW4SDL_Scancode@@_N@std@@PAX@2@@?$_Tree@V?$_Tmap_traits@W4SDL_Scancode@@_NU?$less@W4SDL_Scancode@@@std@@V?$allocator@U?$pair@$$CBW4SDL_Scancode@@_N@std@@@3@$0A@@std@@@std@@IAE?AV?$_Tree_iterator@V?$_Tree_val@U?$_Tree_simple_types@U?$pair@$$CBW4SDL_Scancode@@_N@std@@@std@@@std@@@1@_NPAU?$_Tree_node@U?$pair@$$CBW4SDL_Scancode@@_N@std@@PAX@1@AAU?$pair@$$CBW4SDL_Scancode@@_N@1@1@Z ; std::_Tree<std::_Tmap_traits<enum SDL_Scancode,bool,std::less<enum SDL_Scancode>,std::allocator<std::pair<enum SDL_Scancode const ,bool> >,0> >::_Insert_at<std::pair<enum SDL_Scancode const ,bool> &,std::_Tree_node<std::pair<enum SDL_Scancode const ,bool>,void *> *>
  004aa	89 85 24 fe ff
	ff		 mov	 DWORD PTR tv318[ebp], eax
  004b0	8b 85 24 fe ff
	ff		 mov	 eax, DWORD PTR tv318[ebp]
  004b6	89 85 20 fe ff
	ff		 mov	 DWORD PTR tv291[ebp], eax
  004bc	c6 45 fc 05	 mov	 BYTE PTR __$EHRec$[ebp+12], 5
  004c0	8d 8d b7 fe ff
	ff		 lea	 ecx, DWORD PTR $T11[ebp]
  004c6	51		 push	 ecx
  004c7	8b 95 20 fe ff
	ff		 mov	 edx, DWORD PTR tv291[ebp]
  004cd	52		 push	 edx
  004ce	8b 4d 08	 mov	 ecx, DWORD PTR ___$ReturnUdt$[ebp]
  004d1	e8 00 00 00 00	 call	 ??$?0V?$_Tree_iterator@V?$_Tree_val@U?$_Tree_simple_types@U?$pair@$$CBW4SDL_Scancode@@_N@std@@@std@@@std@@@std@@_NX@?$pair@V?$_Tree_iterator@V?$_Tree_val@U?$_Tree_simple_types@U?$pair@$$CBW4SDL_Scancode@@_N@std@@@std@@@std@@@std@@_N@std@@QAE@$$QAV?$_Tree_iterator@V?$_Tree_val@U?$_Tree_simple_types@U?$pair@$$CBW4SDL_Scancode@@_N@std@@@std@@@std@@@1@$$QA_N@Z ; std::pair<std::_Tree_iterator<std::_Tree_val<std::_Tree_simple_types<std::pair<enum SDL_Scancode const ,bool> > > >,bool>::pair<std::_Tree_iterator<std::_Tree_val<std::_Tree_simple_types<std::pair<enum SDL_Scancode const ,bool> > > >,bool><std::_Tree_iterator<std::_Tree_val<std::_Tree_simple_types<std::pair<enum SDL_Scancode const ,bool> > > >,bool,void>
  004d6	8b 85 e0 fe ff
	ff		 mov	 eax, DWORD PTR $T14[ebp]
  004dc	83 c8 01	 or	 eax, 1
  004df	89 85 e0 fe ff
	ff		 mov	 DWORD PTR $T14[ebp], eax
  004e5	c6 45 fc 02	 mov	 BYTE PTR __$EHRec$[ebp+12], 2
  004e9	8d 8d c0 fe ff
	ff		 lea	 ecx, DWORD PTR $T12[ebp]
  004ef	e8 00 00 00 00	 call	 ??1?$_Tree_iterator@V?$_Tree_val@U?$_Tree_simple_types@U?$pair@$$CBW4SDL_Scancode@@_N@std@@@std@@@std@@@std@@QAE@XZ
  004f4	c6 45 fc 00	 mov	 BYTE PTR __$EHRec$[ebp+12], 0
  004f8	8d 4d ac	 lea	 ecx, DWORD PTR __Where$15[ebp]
  004fb	e8 00 00 00 00	 call	 ??1?$_Tree_iterator@V?$_Tree_val@U?$_Tree_simple_types@U?$pair@$$CBW4SDL_Scancode@@_N@std@@@std@@@std@@@std@@QAE@XZ
  00500	8b 45 08	 mov	 eax, DWORD PTR ___$ReturnUdt$[ebp]
  00503	e9 81 00 00 00	 jmp	 $LN15@Insert_noh
; Line 1819
  00508	eb 46		 jmp	 SHORT $LN1@Insert_noh
$LN2@Insert_noh:
; Line 1821
  0050a	8b 45 14	 mov	 eax, DWORD PTR __Newnode$[ebp]
  0050d	50		 push	 eax
  0050e	8b 4d e4	 mov	 ecx, DWORD PTR _this$[ebp]
  00511	e8 00 00 00 00	 call	 ?_Destroy_if_not_nil@?$_Tree@V?$_Tmap_traits@W4SDL_Scancode@@_NU?$less@W4SDL_Scancode@@@std@@V?$allocator@U?$pair@$$CBW4SDL_Scancode@@_N@std@@@3@$0A@@std@@@std@@IAEXPAU?$_Tree_node@U?$pair@$$CBW4SDL_Scancode@@_N@std@@PAX@2@@Z ; std::_Tree<std::_Tmap_traits<enum SDL_Scancode,bool,std::less<enum SDL_Scancode>,std::allocator<std::pair<enum SDL_Scancode const ,bool> >,0> >::_Destroy_if_not_nil
; Line 1822
  00516	c6 85 d7 fe ff
	ff 00		 mov	 BYTE PTR $T13[ebp], 0
  0051d	8d 85 d7 fe ff
	ff		 lea	 eax, DWORD PTR $T13[ebp]
  00523	50		 push	 eax
  00524	8d 4d ac	 lea	 ecx, DWORD PTR __Where$15[ebp]
  00527	51		 push	 ecx
  00528	8b 4d 08	 mov	 ecx, DWORD PTR ___$ReturnUdt$[ebp]
  0052b	e8 00 00 00 00	 call	 ??$?0AAV?$_Tree_iterator@V?$_Tree_val@U?$_Tree_simple_types@U?$pair@$$CBW4SDL_Scancode@@_N@std@@@std@@@std@@@std@@_NX@?$pair@V?$_Tree_iterator@V?$_Tree_val@U?$_Tree_simple_types@U?$pair@$$CBW4SDL_Scancode@@_N@std@@@std@@@std@@@std@@_N@std@@QAE@AAV?$_Tree_iterator@V?$_Tree_val@U?$_Tree_simple_types@U?$pair@$$CBW4SDL_Scancode@@_N@std@@@std@@@std@@@1@$$QA_N@Z ; std::pair<std::_Tree_iterator<std::_Tree_val<std::_Tree_simple_types<std::pair<enum SDL_Scancode const ,bool> > > >,bool>::pair<std::_Tree_iterator<std::_Tree_val<std::_Tree_simple_types<std::pair<enum SDL_Scancode const ,bool> > > >,bool><std::_Tree_iterator<std::_Tree_val<std::_Tree_simple_types<std::pair<enum SDL_Scancode const ,bool> > > > &,bool,void>
  00530	8b 95 e0 fe ff
	ff		 mov	 edx, DWORD PTR $T14[ebp]
  00536	83 ca 01	 or	 edx, 1
  00539	89 95 e0 fe ff
	ff		 mov	 DWORD PTR $T14[ebp], edx
  0053f	c6 45 fc 00	 mov	 BYTE PTR __$EHRec$[ebp+12], 0
  00543	8d 4d ac	 lea	 ecx, DWORD PTR __Where$15[ebp]
  00546	e8 00 00 00 00	 call	 ??1?$_Tree_iterator@V?$_Tree_val@U?$_Tree_simple_types@U?$pair@$$CBW4SDL_Scancode@@_N@std@@@std@@@std@@@std@@QAE@XZ
  0054b	8b 45 08	 mov	 eax, DWORD PTR ___$ReturnUdt$[ebp]
  0054e	eb 39		 jmp	 SHORT $LN15@Insert_noh
$LN1@Insert_noh:
; Line 1824
  00550	c6 45 fc 00	 mov	 BYTE PTR __$EHRec$[ebp+12], 0
  00554	8d 4d ac	 lea	 ecx, DWORD PTR __Where$15[ebp]
  00557	e8 00 00 00 00	 call	 ??1?$_Tree_iterator@V?$_Tree_val@U?$_Tree_simple_types@U?$pair@$$CBW4SDL_Scancode@@_N@std@@@std@@@std@@@std@@QAE@XZ
$LN7@Insert_noh:
  0055c	eb 1b		 jmp	 SHORT $LN20@Insert_noh
__catch$??$_Insert_nohint@AAU?$pair@$$CBW4SDL_Scancode@@_N@std@@PAU?$_Tree_node@U?$pair@$$CBW4SDL_Scancode@@_N@std@@PAX@2@@?$_Tree@V?$_Tmap_traits@W4SDL_Scancode@@_NU?$less@W4SDL_Scancode@@@std@@V?$allocator@U?$pair@$$CBW4SDL_Scancode@@_N@std@@@3@$0A@@std@@@std@@IAE?AU?$pair@V?$_Tree_iterator@V?$_Tree_val@U?$_Tree_simple_types@U?$pair@$$CBW4SDL_Scancode@@_N@std@@@std@@@std@@@std@@_N@1@_NAAU?$pair@$$CBW4SDL_Scancode@@_N@1@PAU?$_Tree_node@U?$pair@$$CBW4SDL_Scancode@@_N@std@@PAX@1@@Z$0:
; Line 1826
  0055e	8b 45 14	 mov	 eax, DWORD PTR __Newnode$[ebp]
  00561	50		 push	 eax
  00562	8b 4d e4	 mov	 ecx, DWORD PTR _this$[ebp]
  00565	e8 00 00 00 00	 call	 ?_Destroy_if_not_nil@?$_Tree@V?$_Tmap_traits@W4SDL_Scancode@@_NU?$less@W4SDL_Scancode@@@std@@V?$allocator@U?$pair@$$CBW4SDL_Scancode@@_N@std@@@3@$0A@@std@@@std@@IAEXPAU?$_Tree_node@U?$pair@$$CBW4SDL_Scancode@@_N@std@@PAX@2@@Z ; std::_Tree<std::_Tmap_traits<enum SDL_Scancode,bool,std::less<enum SDL_Scancode>,std::allocator<std::pair<enum SDL_Scancode const ,bool> >,0> >::_Destroy_if_not_nil
; Line 1827
  0056a	6a 00		 push	 0
  0056c	6a 00		 push	 0
  0056e	e8 00 00 00 00	 call	 __CxxThrowException@8
; Line 1828
  00573	b8 00 00 00 00	 mov	 eax, $LN30@Insert_noh
  00578	c3		 ret	 0
$LN20@Insert_noh:
  00579	c7 45 fc ff ff
	ff ff		 mov	 DWORD PTR __$EHRec$[ebp+12], -1
  00580	eb 07		 jmp	 SHORT $LN15@Insert_noh
$LN30@Insert_noh:
  00582	c7 45 fc ff ff
	ff ff		 mov	 DWORD PTR __$EHRec$[ebp+12], -1
$LN15@Insert_noh:
; Line 1829
  00589	52		 push	 edx
  0058a	8b cd		 mov	 ecx, ebp
  0058c	50		 push	 eax
  0058d	8d 15 00 00 00
	00		 lea	 edx, DWORD PTR $LN34@Insert_noh
  00593	e8 00 00 00 00	 call	 @_RTC_CheckStackVars@8
  00598	58		 pop	 eax
  00599	5a		 pop	 edx
  0059a	8b 4d f4	 mov	 ecx, DWORD PTR __$EHRec$[ebp+4]
  0059d	64 89 0d 00 00
	00 00		 mov	 DWORD PTR fs:0, ecx
  005a4	59		 pop	 ecx
  005a5	5f		 pop	 edi
  005a6	5e		 pop	 esi
  005a7	5b		 pop	 ebx
  005a8	8b 4d ec	 mov	 ecx, DWORD PTR __$ArrayPad$[ebp]
  005ab	33 cd		 xor	 ecx, ebp
  005ad	e8 00 00 00 00	 call	 @__security_check_cookie@4
  005b2	81 c4 e8 01 00
	00		 add	 esp, 488		; 000001e8H
  005b8	3b ec		 cmp	 ebp, esp
  005ba	e8 00 00 00 00	 call	 __RTC_CheckEsp
  005bf	8b e5		 mov	 esp, ebp
  005c1	5d		 pop	 ebp
  005c2	c2 10 00	 ret	 16			; 00000010H
  005c5	8d 49 00	 npad	 3
$LN34@Insert_noh:
  005c8	01 00 00 00	 DD	 1
  005cc	00 00 00 00	 DD	 $LN33@Insert_noh
$LN33@Insert_noh:
  005d0	ac ff ff ff	 DD	 -84			; ffffffacH
  005d4	0c 00 00 00	 DD	 12			; 0000000cH
  005d8	00 00 00 00	 DD	 $LN31@Insert_noh
$LN31@Insert_noh:
  005dc	5f		 DB	 95			; 0000005fH
  005dd	57		 DB	 87			; 00000057H
  005de	68		 DB	 104			; 00000068H
  005df	65		 DB	 101			; 00000065H
  005e0	72		 DB	 114			; 00000072H
  005e1	65		 DB	 101			; 00000065H
  005e2	00		 DB	 0
_TEXT	ENDS
;	COMDAT text$x
text$x	SEGMENT
__unwindfunclet$??$_Insert_nohint@AAU?$pair@$$CBW4SDL_Scancode@@_N@std@@PAU?$_Tree_node@U?$pair@$$CBW4SDL_Scancode@@_N@std@@PAX@2@@?$_Tree@V?$_Tmap_traits@W4SDL_Scancode@@_NU?$less@W4SDL_Scancode@@@std@@V?$allocator@U?$pair@$$CBW4SDL_Scancode@@_N@std@@@3@$0A@@std@@@std@@IAE?AU?$pair@V?$_Tree_iterator@V?$_Tree_val@U?$_Tree_simple_types@U?$pair@$$CBW4SDL_Scancode@@_N@std@@@std@@@std@@@std@@_N@1@_NAAU?$pair@$$CBW4SDL_Scancode@@_N@1@PAU?$_Tree_node@U?$pair@$$CBW4SDL_Scancode@@_N@std@@PAX@1@@Z$2:
  00000	8d 8d 54 fe ff
	ff		 lea	 ecx, DWORD PTR $T5[ebp]
  00006	e9 00 00 00 00	 jmp	 ??1?$_Tree_iterator@V?$_Tree_val@U?$_Tree_simple_types@U?$pair@$$CBW4SDL_Scancode@@_N@std@@@std@@@std@@@std@@QAE@XZ
__unwindfunclet$??$_Insert_nohint@AAU?$pair@$$CBW4SDL_Scancode@@_N@std@@PAU?$_Tree_node@U?$pair@$$CBW4SDL_Scancode@@_N@std@@PAX@2@@?$_Tree@V?$_Tmap_traits@W4SDL_Scancode@@_NU?$less@W4SDL_Scancode@@@std@@V?$allocator@U?$pair@$$CBW4SDL_Scancode@@_N@std@@@3@$0A@@std@@@std@@IAE?AU?$pair@V?$_Tree_iterator@V?$_Tree_val@U?$_Tree_simple_types@U?$pair@$$CBW4SDL_Scancode@@_N@std@@@std@@@std@@@std@@_N@1@_NAAU?$pair@$$CBW4SDL_Scancode@@_N@1@PAU?$_Tree_node@U?$pair@$$CBW4SDL_Scancode@@_N@std@@PAX@1@@Z$4:
  0000b	8d 4d ac	 lea	 ecx, DWORD PTR __Where$15[ebp]
  0000e	e9 00 00 00 00	 jmp	 ??1?$_Tree_iterator@V?$_Tree_val@U?$_Tree_simple_types@U?$pair@$$CBW4SDL_Scancode@@_N@std@@@std@@@std@@@std@@QAE@XZ
__unwindfunclet$??$_Insert_nohint@AAU?$pair@$$CBW4SDL_Scancode@@_N@std@@PAU?$_Tree_node@U?$pair@$$CBW4SDL_Scancode@@_N@std@@PAX@2@@?$_Tree@V?$_Tmap_traits@W4SDL_Scancode@@_NU?$less@W4SDL_Scancode@@@std@@V?$allocator@U?$pair@$$CBW4SDL_Scancode@@_N@std@@@3@$0A@@std@@@std@@IAE?AU?$pair@V?$_Tree_iterator@V?$_Tree_val@U?$_Tree_simple_types@U?$pair@$$CBW4SDL_Scancode@@_N@std@@@std@@@std@@@std@@_N@1@_NAAU?$pair@$$CBW4SDL_Scancode@@_N@1@PAU?$_Tree_node@U?$pair@$$CBW4SDL_Scancode@@_N@std@@PAX@1@@Z$5:
  00013	8d 8d 74 fe ff
	ff		 lea	 ecx, DWORD PTR $T7[ebp]
  00019	e9 00 00 00 00	 jmp	 ??1?$_Tree_iterator@V?$_Tree_val@U?$_Tree_simple_types@U?$pair@$$CBW4SDL_Scancode@@_N@std@@@std@@@std@@@std@@QAE@XZ
__unwindfunclet$??$_Insert_nohint@AAU?$pair@$$CBW4SDL_Scancode@@_N@std@@PAU?$_Tree_node@U?$pair@$$CBW4SDL_Scancode@@_N@std@@PAX@2@@?$_Tree@V?$_Tmap_traits@W4SDL_Scancode@@_NU?$less@W4SDL_Scancode@@@std@@V?$allocator@U?$pair@$$CBW4SDL_Scancode@@_N@std@@@3@$0A@@std@@@std@@IAE?AU?$pair@V?$_Tree_iterator@V?$_Tree_val@U?$_Tree_simple_types@U?$pair@$$CBW4SDL_Scancode@@_N@std@@@std@@@std@@@std@@_N@1@_NAAU?$pair@$$CBW4SDL_Scancode@@_N@1@PAU?$_Tree_node@U?$pair@$$CBW4SDL_Scancode@@_N@std@@PAX@1@@Z$6:
  0001e	8d 8d 94 fe ff
	ff		 lea	 ecx, DWORD PTR $T9[ebp]
  00024	e9 00 00 00 00	 jmp	 ??1?$_Tree_iterator@V?$_Tree_val@U?$_Tree_simple_types@U?$pair@$$CBW4SDL_Scancode@@_N@std@@@std@@@std@@@std@@QAE@XZ
__unwindfunclet$??$_Insert_nohint@AAU?$pair@$$CBW4SDL_Scancode@@_N@std@@PAU?$_Tree_node@U?$pair@$$CBW4SDL_Scancode@@_N@std@@PAX@2@@?$_Tree@V?$_Tmap_traits@W4SDL_Scancode@@_NU?$less@W4SDL_Scancode@@@std@@V?$allocator@U?$pair@$$CBW4SDL_Scancode@@_N@std@@@3@$0A@@std@@@std@@IAE?AU?$pair@V?$_Tree_iterator@V?$_Tree_val@U?$_Tree_simple_types@U?$pair@$$CBW4SDL_Scancode@@_N@std@@@std@@@std@@@std@@_N@1@_NAAU?$pair@$$CBW4SDL_Scancode@@_N@1@PAU?$_Tree_node@U?$pair@$$CBW4SDL_Scancode@@_N@std@@PAX@1@@Z$7:
  00029	8d 8d c0 fe ff
	ff		 lea	 ecx, DWORD PTR $T12[ebp]
  0002f	e9 00 00 00 00	 jmp	 ??1?$_Tree_iterator@V?$_Tree_val@U?$_Tree_simple_types@U?$pair@$$CBW4SDL_Scancode@@_N@std@@@std@@@std@@@std@@QAE@XZ
__ehhandler$??$_Insert_nohint@AAU?$pair@$$CBW4SDL_Scancode@@_N@std@@PAU?$_Tree_node@U?$pair@$$CBW4SDL_Scancode@@_N@std@@PAX@2@@?$_Tree@V?$_Tmap_traits@W4SDL_Scancode@@_NU?$less@W4SDL_Scancode@@@std@@V?$allocator@U?$pair@$$CBW4SDL_Scancode@@_N@std@@@3@$0A@@std@@@std@@IAE?AU?$pair@V?$_Tree_iterator@V?$_Tree_val@U?$_Tree_simple_types@U?$pair@$$CBW4SDL_Scancode@@_N@std@@@std@@@std@@@std@@_N@1@_NAAU?$pair@$$CBW4SDL_Scancode@@_N@1@PAU?$_Tree_node@U?$pair@$$CBW4SDL_Scancode@@_N@std@@PAX@1@@Z:
  00034	8b 54 24 08	 mov	 edx, DWORD PTR [esp+8]
  00038	8d 42 0c	 lea	 eax, DWORD PTR [edx+12]
  0003b	8b 8a 14 fe ff
	ff		 mov	 ecx, DWORD PTR [edx-492]
  00041	33 c8		 xor	 ecx, eax
  00043	e8 00 00 00 00	 call	 @__security_check_cookie@4
  00048	8b 4a f8	 mov	 ecx, DWORD PTR [edx-8]
  0004b	33 c8		 xor	 ecx, eax
  0004d	e8 00 00 00 00	 call	 @__security_check_cookie@4
  00052	b8 00 00 00 00	 mov	 eax, OFFSET __ehfuncinfo$??$_Insert_nohint@AAU?$pair@$$CBW4SDL_Scancode@@_N@std@@PAU?$_Tree_node@U?$pair@$$CBW4SDL_Scancode@@_N@std@@PAX@2@@?$_Tree@V?$_Tmap_traits@W4SDL_Scancode@@_NU?$less@W4SDL_Scancode@@@std@@V?$allocator@U?$pair@$$CBW4SDL_Scancode@@_N@std@@@3@$0A@@std@@@std@@IAE?AU?$pair@V?$_Tree_iterator@V?$_Tree_val@U?$_Tree_simple_types@U?$pair@$$CBW4SDL_Scancode@@_N@std@@@std@@@std@@@std@@_N@1@_NAAU?$pair@$$CBW4SDL_Scancode@@_N@1@PAU?$_Tree_node@U?$pair@$$CBW4SDL_Scancode@@_N@std@@PAX@1@@Z
  00057	e9 00 00 00 00	 jmp	 ___CxxFrameHandler3
text$x	ENDS
??$_Insert_nohint@AAU?$pair@$$CBW4SDL_Scancode@@_N@std@@PAU?$_Tree_node@U?$pair@$$CBW4SDL_Scancode@@_N@std@@PAX@2@@?$_Tree@V?$_Tmap_traits@W4SDL_Scancode@@_NU?$less@W4SDL_Scancode@@@std@@V?$allocator@U?$pair@$$CBW4SDL_Scancode@@_N@std@@@3@$0A@@std@@@std@@IAE?AU?$pair@V?$_Tree_iterator@V?$_Tree_val@U?$_Tree_simple_types@U?$pair@$$CBW4SDL_Scancode@@_N@std@@@std@@@std@@@std@@_N@1@_NAAU?$pair@$$CBW4SDL_Scancode@@_N@1@PAU?$_Tree_node@U?$pair@$$CBW4SDL_Scancode@@_N@std@@PAX@1@@Z ENDP ; std::_Tree<std::_Tmap_traits<enum SDL_Scancode,bool,std::less<enum SDL_Scancode>,std::allocator<std::pair<enum SDL_Scancode const ,bool> >,0> >::_Insert_nohint<std::pair<enum SDL_Scancode const ,bool> &,std::_Tree_node<std::pair<enum SDL_Scancode const ,bool>,void *> *>
; Function compile flags: /Odtp /RTCsu /ZI
;	COMDAT ??$_Insert_at@AAU?$pair@$$CBW4SDL_Scancode@@_N@std@@PAU?$_Tree_node@U?$pair@$$CBW4SDL_Scancode@@_N@std@@PAX@2@@?$_Tree@V?$_Tmap_traits@W4SDL_Scancode@@_NU?$less@W4SDL_Scancode@@@std@@V?$allocator@U?$pair@$$CBW4SDL_Scancode@@_N@std@@@3@$0A@@std@@@std@@IAE?AV?$_Tree_iterator@V?$_Tree_val@U?$_Tree_simple_types@U?$pair@$$CBW4SDL_Scancode@@_N@std@@@std@@@std@@@1@_NPAU?$_Tree_node@U?$pair@$$CBW4SDL_Scancode@@_N@std@@PAX@1@AAU?$pair@$$CBW4SDL_Scancode@@_N@1@1@Z
_TEXT	SEGMENT
$T1 = -236						; size = 4
__Pnode$2 = -32						; size = 4
__Newnode$ = -20					; size = 4
_this$ = -8						; size = 4
___$ReturnUdt$ = 8					; size = 4
__Addleft$ = 12						; size = 1
__Wherenode$ = 16					; size = 4
__Val$ = 20						; size = 4
__Node$ = 24						; size = 4
??$_Insert_at@AAU?$pair@$$CBW4SDL_Scancode@@_N@std@@PAU?$_Tree_node@U?$pair@$$CBW4SDL_Scancode@@_N@std@@PAX@2@@?$_Tree@V?$_Tmap_traits@W4SDL_Scancode@@_NU?$less@W4SDL_Scancode@@@std@@V?$allocator@U?$pair@$$CBW4SDL_Scancode@@_N@std@@@3@$0A@@std@@@std@@IAE?AV?$_Tree_iterator@V?$_Tree_val@U?$_Tree_simple_types@U?$pair@$$CBW4SDL_Scancode@@_N@std@@@std@@@std@@@1@_NPAU?$_Tree_node@U?$pair@$$CBW4SDL_Scancode@@_N@std@@PAX@1@AAU?$pair@$$CBW4SDL_Scancode@@_N@1@1@Z PROC ; std::_Tree<std::_Tmap_traits<enum SDL_Scancode,bool,std::less<enum SDL_Scancode>,std::allocator<std::pair<enum SDL_Scancode const ,bool> >,0> >::_Insert_at<std::pair<enum SDL_Scancode const ,bool> &,std::_Tree_node<std::pair<enum SDL_Scancode const ,bool>,void *> *>, COMDAT
; _this$ = ecx
; File c:\program files (x86)\microsoft visual studio 12.0\vc\include\xtree
; Line 1833
  00000	55		 push	 ebp
  00001	8b ec		 mov	 ebp, esp
  00003	81 ec f0 00 00
	00		 sub	 esp, 240		; 000000f0H
  00009	53		 push	 ebx
  0000a	56		 push	 esi
  0000b	57		 push	 edi
  0000c	51		 push	 ecx
  0000d	8d bd 10 ff ff
	ff		 lea	 edi, DWORD PTR [ebp-240]
  00013	b9 3c 00 00 00	 mov	 ecx, 60			; 0000003cH
  00018	b8 cc cc cc cc	 mov	 eax, -858993460		; ccccccccH
  0001d	f3 ab		 rep stosd
  0001f	59		 pop	 ecx
  00020	89 4d f8	 mov	 DWORD PTR _this$[ebp], ecx
  00023	c7 85 14 ff ff
	ff 00 00 00 00	 mov	 DWORD PTR $T1[ebp], 0
; Line 1836
  0002d	8b 4d f8	 mov	 ecx, DWORD PTR _this$[ebp]
  00030	e8 00 00 00 00	 call	 ?max_size@?$_Tree@V?$_Tmap_traits@W4SDL_Scancode@@_NU?$less@W4SDL_Scancode@@@std@@V?$allocator@U?$pair@$$CBW4SDL_Scancode@@_N@std@@@3@$0A@@std@@@std@@QBEIXZ ; std::_Tree<std::_Tmap_traits<enum SDL_Scancode,bool,std::less<enum SDL_Scancode>,std::allocator<std::pair<enum SDL_Scancode const ,bool> >,0> >::max_size
  00035	83 e8 01	 sub	 eax, 1
  00038	8b 4d f8	 mov	 ecx, DWORD PTR _this$[ebp]
  0003b	3b 41 08	 cmp	 eax, DWORD PTR [ecx+8]
  0003e	77 20		 ja	 SHORT $LN17@Insert_at
; Line 1838
  00040	8b 45 18	 mov	 eax, DWORD PTR __Node$[ebp]
  00043	50		 push	 eax
  00044	8b 4d f8	 mov	 ecx, DWORD PTR _this$[ebp]
  00047	e8 00 00 00 00	 call	 ?_Destroy_if_not_nil@?$_Tree@V?$_Tmap_traits@W4SDL_Scancode@@_NU?$less@W4SDL_Scancode@@@std@@V?$allocator@U?$pair@$$CBW4SDL_Scancode@@_N@std@@@3@$0A@@std@@@std@@IAEXPAU?$_Tree_node@U?$pair@$$CBW4SDL_Scancode@@_N@std@@PAX@2@@Z ; std::_Tree<std::_Tmap_traits<enum SDL_Scancode,bool,std::less<enum SDL_Scancode>,std::allocator<std::pair<enum SDL_Scancode const ,bool> >,0> >::_Destroy_if_not_nil
; Line 1839
  0004c	8b f4		 mov	 esi, esp
  0004e	68 00 00 00 00	 push	 OFFSET ??_C@_0BE@JONHPENG@map?1set?$DMT?$DO?5too?5long?$AA@
  00053	ff 15 00 00 00
	00		 call	 DWORD PTR __imp_?_Xlength_error@std@@YAXPBD@Z
  00059	3b f4		 cmp	 esi, esp
  0005b	e8 00 00 00 00	 call	 __RTC_CheckEsp
$LN17@Insert_at:
; Line 1842
  00060	8b 45 14	 mov	 eax, DWORD PTR __Val$[ebp]
  00063	50		 push	 eax
  00064	e8 00 00 00 00	 call	 ??$forward@AAU?$pair@$$CBW4SDL_Scancode@@_N@std@@@std@@YAAAU?$pair@$$CBW4SDL_Scancode@@_N@0@AAU10@@Z ; std::forward<std::pair<enum SDL_Scancode const ,bool> &>
  00069	83 c4 04	 add	 esp, 4
  0006c	50		 push	 eax
  0006d	8b 4d 18	 mov	 ecx, DWORD PTR __Node$[ebp]
  00070	51		 push	 ecx
  00071	8b 4d f8	 mov	 ecx, DWORD PTR _this$[ebp]
  00074	e8 00 00 00 00	 call	 ??$_Buynode_if_nil@AAU?$pair@$$CBW4SDL_Scancode@@_N@std@@@?$_Tree@V?$_Tmap_traits@W4SDL_Scancode@@_NU?$less@W4SDL_Scancode@@@std@@V?$allocator@U?$pair@$$CBW4SDL_Scancode@@_N@std@@@3@$0A@@std@@@std@@IAEPAU?$_Tree_node@U?$pair@$$CBW4SDL_Scancode@@_N@std@@PAX@1@PAU21@AAU?$pair@$$CBW4SDL_Scancode@@_N@1@@Z ; std::_Tree<std::_Tmap_traits<enum SDL_Scancode,bool,std::less<enum SDL_Scancode>,std::allocator<std::pair<enum SDL_Scancode const ,bool> >,0> >::_Buynode_if_nil<std::pair<enum SDL_Scancode const ,bool> &>
  00079	89 45 ec	 mov	 DWORD PTR __Newnode$[ebp], eax
; Line 1844
  0007c	8b 45 f8	 mov	 eax, DWORD PTR _this$[ebp]
  0007f	8b 48 08	 mov	 ecx, DWORD PTR [eax+8]
  00082	83 c1 01	 add	 ecx, 1
  00085	8b 55 f8	 mov	 edx, DWORD PTR _this$[ebp]
  00088	89 4a 08	 mov	 DWORD PTR [edx+8], ecx
; Line 1845
  0008b	8b 45 ec	 mov	 eax, DWORD PTR __Newnode$[ebp]
  0008e	8b 4d 10	 mov	 ecx, DWORD PTR __Wherenode$[ebp]
  00091	89 48 04	 mov	 DWORD PTR [eax+4], ecx
; Line 1847
  00094	8b 45 f8	 mov	 eax, DWORD PTR _this$[ebp]
  00097	8b 4d 10	 mov	 ecx, DWORD PTR __Wherenode$[ebp]
  0009a	3b 48 04	 cmp	 ecx, DWORD PTR [eax+4]
  0009d	75 29		 jne	 SHORT $LN16@Insert_at
; Line 1849
  0009f	8b 4d f8	 mov	 ecx, DWORD PTR _this$[ebp]
  000a2	e8 00 00 00 00	 call	 ?_Root@?$_Tree@V?$_Tmap_traits@W4SDL_Scancode@@_NU?$less@W4SDL_Scancode@@@std@@V?$allocator@U?$pair@$$CBW4SDL_Scancode@@_N@std@@@3@$0A@@std@@@std@@IBEAAPAU?$_Tree_node@U?$pair@$$CBW4SDL_Scancode@@_N@std@@PAX@2@XZ ; std::_Tree<std::_Tmap_traits<enum SDL_Scancode,bool,std::less<enum SDL_Scancode>,std::allocator<std::pair<enum SDL_Scancode const ,bool> >,0> >::_Root
  000a7	8b 4d ec	 mov	 ecx, DWORD PTR __Newnode$[ebp]
  000aa	89 08		 mov	 DWORD PTR [eax], ecx
; Line 1850
  000ac	8b 4d f8	 mov	 ecx, DWORD PTR _this$[ebp]
  000af	e8 00 00 00 00	 call	 ?_Lmost@?$_Tree@V?$_Tmap_traits@W4SDL_Scancode@@_NU?$less@W4SDL_Scancode@@@std@@V?$allocator@U?$pair@$$CBW4SDL_Scancode@@_N@std@@@3@$0A@@std@@@std@@IBEAAPAU?$_Tree_node@U?$pair@$$CBW4SDL_Scancode@@_N@std@@PAX@2@XZ ; std::_Tree<std::_Tmap_traits<enum SDL_Scancode,bool,std::less<enum SDL_Scancode>,std::allocator<std::pair<enum SDL_Scancode const ,bool> >,0> >::_Lmost
  000b4	8b 4d ec	 mov	 ecx, DWORD PTR __Newnode$[ebp]
  000b7	89 08		 mov	 DWORD PTR [eax], ecx
; Line 1851
  000b9	8b 4d f8	 mov	 ecx, DWORD PTR _this$[ebp]
  000bc	e8 00 00 00 00	 call	 ?_Rmost@?$_Tree@V?$_Tmap_traits@W4SDL_Scancode@@_NU?$less@W4SDL_Scancode@@@std@@V?$allocator@U?$pair@$$CBW4SDL_Scancode@@_N@std@@@3@$0A@@std@@@std@@IBEAAPAU?$_Tree_node@U?$pair@$$CBW4SDL_Scancode@@_N@std@@PAX@2@XZ ; std::_Tree<std::_Tmap_traits<enum SDL_Scancode,bool,std::less<enum SDL_Scancode>,std::allocator<std::pair<enum SDL_Scancode const ,bool> >,0> >::_Rmost
  000c1	8b 4d ec	 mov	 ecx, DWORD PTR __Newnode$[ebp]
  000c4	89 08		 mov	 DWORD PTR [eax], ecx
  000c6	eb 64		 jmp	 SHORT $LN15@Insert_at
$LN16@Insert_at:
; Line 1853
  000c8	0f b6 45 0c	 movzx	 eax, BYTE PTR __Addleft$[ebp]
  000cc	85 c0		 test	 eax, eax
  000ce	74 2f		 je	 SHORT $LN14@Insert_at
; Line 1855
  000d0	8b 45 10	 mov	 eax, DWORD PTR __Wherenode$[ebp]
  000d3	50		 push	 eax
  000d4	e8 00 00 00 00	 call	 ?_Left@?$_Tree_val@U?$_Tree_simple_types@U?$pair@$$CBW4SDL_Scancode@@_N@std@@@std@@@std@@SAAAPAU?$_Tree_node@U?$pair@$$CBW4SDL_Scancode@@_N@std@@PAX@2@PAU32@@Z ; std::_Tree_val<std::_Tree_simple_types<std::pair<enum SDL_Scancode const ,bool> > >::_Left
  000d9	83 c4 04	 add	 esp, 4
  000dc	8b 4d ec	 mov	 ecx, DWORD PTR __Newnode$[ebp]
  000df	89 08		 mov	 DWORD PTR [eax], ecx
; Line 1856
  000e1	8b 4d f8	 mov	 ecx, DWORD PTR _this$[ebp]
  000e4	e8 00 00 00 00	 call	 ?_Lmost@?$_Tree@V?$_Tmap_traits@W4SDL_Scancode@@_NU?$less@W4SDL_Scancode@@@std@@V?$allocator@U?$pair@$$CBW4SDL_Scancode@@_N@std@@@3@$0A@@std@@@std@@IBEAAPAU?$_Tree_node@U?$pair@$$CBW4SDL_Scancode@@_N@std@@PAX@2@XZ ; std::_Tree<std::_Tmap_traits<enum SDL_Scancode,bool,std::less<enum SDL_Scancode>,std::allocator<std::pair<enum SDL_Scancode const ,bool> >,0> >::_Lmost
  000e9	8b 4d 10	 mov	 ecx, DWORD PTR __Wherenode$[ebp]
  000ec	3b 08		 cmp	 ecx, DWORD PTR [eax]
  000ee	75 0d		 jne	 SHORT $LN13@Insert_at
; Line 1857
  000f0	8b 4d f8	 mov	 ecx, DWORD PTR _this$[ebp]
  000f3	e8 00 00 00 00	 call	 ?_Lmost@?$_Tree@V?$_Tmap_traits@W4SDL_Scancode@@_NU?$less@W4SDL_Scancode@@@std@@V?$allocator@U?$pair@$$CBW4SDL_Scancode@@_N@std@@@3@$0A@@std@@@std@@IBEAAPAU?$_Tree_node@U?$pair@$$CBW4SDL_Scancode@@_N@std@@PAX@2@XZ ; std::_Tree<std::_Tmap_traits<enum SDL_Scancode,bool,std::less<enum SDL_Scancode>,std::allocator<std::pair<enum SDL_Scancode const ,bool> >,0> >::_Lmost
  000f8	8b 4d ec	 mov	 ecx, DWORD PTR __Newnode$[ebp]
  000fb	89 08		 mov	 DWORD PTR [eax], ecx
$LN13@Insert_at:
; Line 1859
  000fd	eb 2d		 jmp	 SHORT $LN15@Insert_at
$LN14@Insert_at:
; Line 1861
  000ff	8b 45 10	 mov	 eax, DWORD PTR __Wherenode$[ebp]
  00102	50		 push	 eax
  00103	e8 00 00 00 00	 call	 ?_Right@?$_Tree_val@U?$_Tree_simple_types@U?$pair@$$CBW4SDL_Scancode@@_N@std@@@std@@@std@@SAAAPAU?$_Tree_node@U?$pair@$$CBW4SDL_Scancode@@_N@std@@PAX@2@PAU32@@Z ; std::_Tree_val<std::_Tree_simple_types<std::pair<enum SDL_Scancode const ,bool> > >::_Right
  00108	83 c4 04	 add	 esp, 4
  0010b	8b 4d ec	 mov	 ecx, DWORD PTR __Newnode$[ebp]
  0010e	89 08		 mov	 DWORD PTR [eax], ecx
; Line 1862
  00110	8b 4d f8	 mov	 ecx, DWORD PTR _this$[ebp]
  00113	e8 00 00 00 00	 call	 ?_Rmost@?$_Tree@V?$_Tmap_traits@W4SDL_Scancode@@_NU?$less@W4SDL_Scancode@@@std@@V?$allocator@U?$pair@$$CBW4SDL_Scancode@@_N@std@@@3@$0A@@std@@@std@@IBEAAPAU?$_Tree_node@U?$pair@$$CBW4SDL_Scancode@@_N@std@@PAX@2@XZ ; std::_Tree<std::_Tmap_traits<enum SDL_Scancode,bool,std::less<enum SDL_Scancode>,std::allocator<std::pair<enum SDL_Scancode const ,bool> >,0> >::_Rmost
  00118	8b 4d 10	 mov	 ecx, DWORD PTR __Wherenode$[ebp]
  0011b	3b 08		 cmp	 ecx, DWORD PTR [eax]
  0011d	75 0d		 jne	 SHORT $LN15@Insert_at
; Line 1863
  0011f	8b 4d f8	 mov	 ecx, DWORD PTR _this$[ebp]
  00122	e8 00 00 00 00	 call	 ?_Rmost@?$_Tree@V?$_Tmap_traits@W4SDL_Scancode@@_NU?$less@W4SDL_Scancode@@@std@@V?$allocator@U?$pair@$$CBW4SDL_Scancode@@_N@std@@@3@$0A@@std@@@std@@IBEAAPAU?$_Tree_node@U?$pair@$$CBW4SDL_Scancode@@_N@std@@PAX@2@XZ ; std::_Tree<std::_Tmap_traits<enum SDL_Scancode,bool,std::less<enum SDL_Scancode>,std::allocator<std::pair<enum SDL_Scancode const ,bool> >,0> >::_Rmost
  00127	8b 4d ec	 mov	 ecx, DWORD PTR __Newnode$[ebp]
  0012a	89 08		 mov	 DWORD PTR [eax], ecx
$LN15@Insert_at:
; Line 1866
  0012c	8b 45 ec	 mov	 eax, DWORD PTR __Newnode$[ebp]
  0012f	89 45 e0	 mov	 DWORD PTR __Pnode$2[ebp], eax
$LN10@Insert_at:
; Line 1867
  00132	8b 45 e0	 mov	 eax, DWORD PTR __Pnode$2[ebp]
  00135	50		 push	 eax
  00136	e8 00 00 00 00	 call	 ?_Parent@?$_Tree_val@U?$_Tree_simple_types@U?$pair@$$CBW4SDL_Scancode@@_N@std@@@std@@@std@@SAAAPAU?$_Tree_node@U?$pair@$$CBW4SDL_Scancode@@_N@std@@PAX@2@PAU32@@Z ; std::_Tree_val<std::_Tree_simple_types<std::pair<enum SDL_Scancode const ,bool> > >::_Parent
  0013b	83 c4 04	 add	 esp, 4
  0013e	8b 08		 mov	 ecx, DWORD PTR [eax]
  00140	51		 push	 ecx
  00141	e8 00 00 00 00	 call	 ?_Color@?$_Tree_val@U?$_Tree_simple_types@U?$pair@$$CBW4SDL_Scancode@@_N@std@@@std@@@std@@SAAADPAU?$_Tree_node@U?$pair@$$CBW4SDL_Scancode@@_N@std@@PAX@2@@Z ; std::_Tree_val<std::_Tree_simple_types<std::pair<enum SDL_Scancode const ,bool> > >::_Color
  00146	83 c4 04	 add	 esp, 4
  00149	0f be 10	 movsx	 edx, BYTE PTR [eax]
  0014c	85 d2		 test	 edx, edx
  0014e	0f 85 ce 02 00
	00		 jne	 $LN9@Insert_at
; Line 1869
  00154	8b 45 e0	 mov	 eax, DWORD PTR __Pnode$2[ebp]
  00157	50		 push	 eax
  00158	e8 00 00 00 00	 call	 ?_Parent@?$_Tree_val@U?$_Tree_simple_types@U?$pair@$$CBW4SDL_Scancode@@_N@std@@@std@@@std@@SAAAPAU?$_Tree_node@U?$pair@$$CBW4SDL_Scancode@@_N@std@@PAX@2@PAU32@@Z ; std::_Tree_val<std::_Tree_simple_types<std::pair<enum SDL_Scancode const ,bool> > >::_Parent
  0015d	83 c4 04	 add	 esp, 4
  00160	8b f0		 mov	 esi, eax
  00162	8b 4d e0	 mov	 ecx, DWORD PTR __Pnode$2[ebp]
  00165	51		 push	 ecx
  00166	e8 00 00 00 00	 call	 ?_Parent@?$_Tree_val@U?$_Tree_simple_types@U?$pair@$$CBW4SDL_Scancode@@_N@std@@@std@@@std@@SAAAPAU?$_Tree_node@U?$pair@$$CBW4SDL_Scancode@@_N@std@@PAX@2@PAU32@@Z ; std::_Tree_val<std::_Tree_simple_types<std::pair<enum SDL_Scancode const ,bool> > >::_Parent
  0016b	83 c4 04	 add	 esp, 4
  0016e	8b 10		 mov	 edx, DWORD PTR [eax]
  00170	52		 push	 edx
  00171	e8 00 00 00 00	 call	 ?_Parent@?$_Tree_val@U?$_Tree_simple_types@U?$pair@$$CBW4SDL_Scancode@@_N@std@@@std@@@std@@SAAAPAU?$_Tree_node@U?$pair@$$CBW4SDL_Scancode@@_N@std@@PAX@2@PAU32@@Z ; std::_Tree_val<std::_Tree_simple_types<std::pair<enum SDL_Scancode const ,bool> > >::_Parent
  00176	83 c4 04	 add	 esp, 4
  00179	8b 00		 mov	 eax, DWORD PTR [eax]
  0017b	50		 push	 eax
  0017c	e8 00 00 00 00	 call	 ?_Left@?$_Tree_val@U?$_Tree_simple_types@U?$pair@$$CBW4SDL_Scancode@@_N@std@@@std@@@std@@SAAAPAU?$_Tree_node@U?$pair@$$CBW4SDL_Scancode@@_N@std@@PAX@2@PAU32@@Z ; std::_Tree_val<std::_Tree_simple_types<std::pair<enum SDL_Scancode const ,bool> > >::_Left
  00181	83 c4 04	 add	 esp, 4
  00184	8b 0e		 mov	 ecx, DWORD PTR [esi]
  00186	3b 08		 cmp	 ecx, DWORD PTR [eax]
  00188	0f 85 4a 01 00
	00		 jne	 $LN8@Insert_at
; Line 1872
  0018e	8b 45 e0	 mov	 eax, DWORD PTR __Pnode$2[ebp]
  00191	50		 push	 eax
  00192	e8 00 00 00 00	 call	 ?_Parent@?$_Tree_val@U?$_Tree_simple_types@U?$pair@$$CBW4SDL_Scancode@@_N@std@@@std@@@std@@SAAAPAU?$_Tree_node@U?$pair@$$CBW4SDL_Scancode@@_N@std@@PAX@2@PAU32@@Z ; std::_Tree_val<std::_Tree_simple_types<std::pair<enum SDL_Scancode const ,bool> > >::_Parent
  00197	83 c4 04	 add	 esp, 4
  0019a	8b 08		 mov	 ecx, DWORD PTR [eax]
  0019c	51		 push	 ecx
  0019d	e8 00 00 00 00	 call	 ?_Parent@?$_Tree_val@U?$_Tree_simple_types@U?$pair@$$CBW4SDL_Scancode@@_N@std@@@std@@@std@@SAAAPAU?$_Tree_node@U?$pair@$$CBW4SDL_Scancode@@_N@std@@PAX@2@PAU32@@Z ; std::_Tree_val<std::_Tree_simple_types<std::pair<enum SDL_Scancode const ,bool> > >::_Parent
  001a2	83 c4 04	 add	 esp, 4
  001a5	8b 10		 mov	 edx, DWORD PTR [eax]
  001a7	52		 push	 edx
  001a8	e8 00 00 00 00	 call	 ?_Right@?$_Tree_val@U?$_Tree_simple_types@U?$pair@$$CBW4SDL_Scancode@@_N@std@@@std@@@std@@SAAAPAU?$_Tree_node@U?$pair@$$CBW4SDL_Scancode@@_N@std@@PAX@2@PAU32@@Z ; std::_Tree_val<std::_Tree_simple_types<std::pair<enum SDL_Scancode const ,bool> > >::_Right
  001ad	83 c4 04	 add	 esp, 4
  001b0	8b 00		 mov	 eax, DWORD PTR [eax]
  001b2	89 45 10	 mov	 DWORD PTR __Wherenode$[ebp], eax
; Line 1873
  001b5	8b 45 10	 mov	 eax, DWORD PTR __Wherenode$[ebp]
  001b8	50		 push	 eax
  001b9	e8 00 00 00 00	 call	 ?_Color@?$_Tree_val@U?$_Tree_simple_types@U?$pair@$$CBW4SDL_Scancode@@_N@std@@@std@@@std@@SAAADPAU?$_Tree_node@U?$pair@$$CBW4SDL_Scancode@@_N@std@@PAX@2@@Z ; std::_Tree_val<std::_Tree_simple_types<std::pair<enum SDL_Scancode const ,bool> > >::_Color
  001be	83 c4 04	 add	 esp, 4
  001c1	0f be 08	 movsx	 ecx, BYTE PTR [eax]
  001c4	85 c9		 test	 ecx, ecx
  001c6	75 6f		 jne	 SHORT $LN7@Insert_at
; Line 1875
  001c8	8b 45 e0	 mov	 eax, DWORD PTR __Pnode$2[ebp]
  001cb	50		 push	 eax
  001cc	e8 00 00 00 00	 call	 ?_Parent@?$_Tree_val@U?$_Tree_simple_types@U?$pair@$$CBW4SDL_Scancode@@_N@std@@@std@@@std@@SAAAPAU?$_Tree_node@U?$pair@$$CBW4SDL_Scancode@@_N@std@@PAX@2@PAU32@@Z ; std::_Tree_val<std::_Tree_simple_types<std::pair<enum SDL_Scancode const ,bool> > >::_Parent
  001d1	83 c4 04	 add	 esp, 4
  001d4	8b 08		 mov	 ecx, DWORD PTR [eax]
  001d6	51		 push	 ecx
  001d7	e8 00 00 00 00	 call	 ?_Color@?$_Tree_val@U?$_Tree_simple_types@U?$pair@$$CBW4SDL_Scancode@@_N@std@@@std@@@std@@SAAADPAU?$_Tree_node@U?$pair@$$CBW4SDL_Scancode@@_N@std@@PAX@2@@Z ; std::_Tree_val<std::_Tree_simple_types<std::pair<enum SDL_Scancode const ,bool> > >::_Color
  001dc	83 c4 04	 add	 esp, 4
  001df	c6 00 01	 mov	 BYTE PTR [eax], 1
; Line 1876
  001e2	8b 45 10	 mov	 eax, DWORD PTR __Wherenode$[ebp]
  001e5	50		 push	 eax
  001e6	e8 00 00 00 00	 call	 ?_Color@?$_Tree_val@U?$_Tree_simple_types@U?$pair@$$CBW4SDL_Scancode@@_N@std@@@std@@@std@@SAAADPAU?$_Tree_node@U?$pair@$$CBW4SDL_Scancode@@_N@std@@PAX@2@@Z ; std::_Tree_val<std::_Tree_simple_types<std::pair<enum SDL_Scancode const ,bool> > >::_Color
  001eb	83 c4 04	 add	 esp, 4
  001ee	c6 00 01	 mov	 BYTE PTR [eax], 1
; Line 1878
  001f1	8b 45 e0	 mov	 eax, DWORD PTR __Pnode$2[ebp]
  001f4	50		 push	 eax
  001f5	e8 00 00 00 00	 call	 ?_Parent@?$_Tree_val@U?$_Tree_simple_types@U?$pair@$$CBW4SDL_Scancode@@_N@std@@@std@@@std@@SAAAPAU?$_Tree_node@U?$pair@$$CBW4SDL_Scancode@@_N@std@@PAX@2@PAU32@@Z ; std::_Tree_val<std::_Tree_simple_types<std::pair<enum SDL_Scancode const ,bool> > >::_Parent
  001fa	83 c4 04	 add	 esp, 4
  001fd	8b 08		 mov	 ecx, DWORD PTR [eax]
  001ff	51		 push	 ecx
  00200	e8 00 00 00 00	 call	 ?_Parent@?$_Tree_val@U?$_Tree_simple_types@U?$pair@$$CBW4SDL_Scancode@@_N@std@@@std@@@std@@SAAAPAU?$_Tree_node@U?$pair@$$CBW4SDL_Scancode@@_N@std@@PAX@2@PAU32@@Z ; std::_Tree_val<std::_Tree_simple_types<std::pair<enum SDL_Scancode const ,bool> > >::_Parent
  00205	83 c4 04	 add	 esp, 4
  00208	8b 10		 mov	 edx, DWORD PTR [eax]
  0020a	52		 push	 edx
  0020b	e8 00 00 00 00	 call	 ?_Color@?$_Tree_val@U?$_Tree_simple_types@U?$pair@$$CBW4SDL_Scancode@@_N@std@@@std@@@std@@SAAADPAU?$_Tree_node@U?$pair@$$CBW4SDL_Scancode@@_N@std@@PAX@2@@Z ; std::_Tree_val<std::_Tree_simple_types<std::pair<enum SDL_Scancode const ,bool> > >::_Color
  00210	83 c4 04	 add	 esp, 4
  00213	c6 00 00	 mov	 BYTE PTR [eax], 0
; Line 1879
  00216	8b 45 e0	 mov	 eax, DWORD PTR __Pnode$2[ebp]
  00219	50		 push	 eax
  0021a	e8 00 00 00 00	 call	 ?_Parent@?$_Tree_val@U?$_Tree_simple_types@U?$pair@$$CBW4SDL_Scancode@@_N@std@@@std@@@std@@SAAAPAU?$_Tree_node@U?$pair@$$CBW4SDL_Scancode@@_N@std@@PAX@2@PAU32@@Z ; std::_Tree_val<std::_Tree_simple_types<std::pair<enum SDL_Scancode const ,bool> > >::_Parent
  0021f	83 c4 04	 add	 esp, 4
  00222	8b 08		 mov	 ecx, DWORD PTR [eax]
  00224	51		 push	 ecx
  00225	e8 00 00 00 00	 call	 ?_Parent@?$_Tree_val@U?$_Tree_simple_types@U?$pair@$$CBW4SDL_Scancode@@_N@std@@@std@@@std@@SAAAPAU?$_Tree_node@U?$pair@$$CBW4SDL_Scancode@@_N@std@@PAX@2@PAU32@@Z ; std::_Tree_val<std::_Tree_simple_types<std::pair<enum SDL_Scancode const ,bool> > >::_Parent
  0022a	83 c4 04	 add	 esp, 4
  0022d	8b 10		 mov	 edx, DWORD PTR [eax]
  0022f	89 55 e0	 mov	 DWORD PTR __Pnode$2[ebp], edx
; Line 1881
  00232	e9 9c 00 00 00	 jmp	 $LN6@Insert_at
$LN7@Insert_at:
; Line 1883
  00237	8b 45 e0	 mov	 eax, DWORD PTR __Pnode$2[ebp]
  0023a	50		 push	 eax
  0023b	e8 00 00 00 00	 call	 ?_Parent@?$_Tree_val@U?$_Tree_simple_types@U?$pair@$$CBW4SDL_Scancode@@_N@std@@@std@@@std@@SAAAPAU?$_Tree_node@U?$pair@$$CBW4SDL_Scancode@@_N@std@@PAX@2@PAU32@@Z ; std::_Tree_val<std::_Tree_simple_types<std::pair<enum SDL_Scancode const ,bool> > >::_Parent
  00240	83 c4 04	 add	 esp, 4
  00243	8b 08		 mov	 ecx, DWORD PTR [eax]
  00245	51		 push	 ecx
  00246	e8 00 00 00 00	 call	 ?_Right@?$_Tree_val@U?$_Tree_simple_types@U?$pair@$$CBW4SDL_Scancode@@_N@std@@@std@@@std@@SAAAPAU?$_Tree_node@U?$pair@$$CBW4SDL_Scancode@@_N@std@@PAX@2@PAU32@@Z ; std::_Tree_val<std::_Tree_simple_types<std::pair<enum SDL_Scancode const ,bool> > >::_Right
  0024b	83 c4 04	 add	 esp, 4
  0024e	8b 55 e0	 mov	 edx, DWORD PTR __Pnode$2[ebp]
  00251	3b 10		 cmp	 edx, DWORD PTR [eax]
  00253	75 1d		 jne	 SHORT $LN5@Insert_at
; Line 1885
  00255	8b 45 e0	 mov	 eax, DWORD PTR __Pnode$2[ebp]
  00258	50		 push	 eax
  00259	e8 00 00 00 00	 call	 ?_Parent@?$_Tree_val@U?$_Tree_simple_types@U?$pair@$$CBW4SDL_Scancode@@_N@std@@@std@@@std@@SAAAPAU?$_Tree_node@U?$pair@$$CBW4SDL_Scancode@@_N@std@@PAX@2@PAU32@@Z ; std::_Tree_val<std::_Tree_simple_types<std::pair<enum SDL_Scancode const ,bool> > >::_Parent
  0025e	83 c4 04	 add	 esp, 4
  00261	8b 08		 mov	 ecx, DWORD PTR [eax]
  00263	89 4d e0	 mov	 DWORD PTR __Pnode$2[ebp], ecx
; Line 1886
  00266	8b 45 e0	 mov	 eax, DWORD PTR __Pnode$2[ebp]
  00269	50		 push	 eax
  0026a	8b 4d f8	 mov	 ecx, DWORD PTR _this$[ebp]
  0026d	e8 00 00 00 00	 call	 ?_Lrotate@?$_Tree@V?$_Tmap_traits@W4SDL_Scancode@@_NU?$less@W4SDL_Scancode@@@std@@V?$allocator@U?$pair@$$CBW4SDL_Scancode@@_N@std@@@3@$0A@@std@@@std@@IAEXPAU?$_Tree_node@U?$pair@$$CBW4SDL_Scancode@@_N@std@@PAX@2@@Z ; std::_Tree<std::_Tmap_traits<enum SDL_Scancode,bool,std::less<enum SDL_Scancode>,std::allocator<std::pair<enum SDL_Scancode const ,bool> >,0> >::_Lrotate
$LN5@Insert_at:
; Line 1889
  00272	8b 45 e0	 mov	 eax, DWORD PTR __Pnode$2[ebp]
  00275	50		 push	 eax
  00276	e8 00 00 00 00	 call	 ?_Parent@?$_Tree_val@U?$_Tree_simple_types@U?$pair@$$CBW4SDL_Scancode@@_N@std@@@std@@@std@@SAAAPAU?$_Tree_node@U?$pair@$$CBW4SDL_Scancode@@_N@std@@PAX@2@PAU32@@Z ; std::_Tree_val<std::_Tree_simple_types<std::pair<enum SDL_Scancode const ,bool> > >::_Parent
  0027b	83 c4 04	 add	 esp, 4
  0027e	8b 08		 mov	 ecx, DWORD PTR [eax]
  00280	51		 push	 ecx
  00281	e8 00 00 00 00	 call	 ?_Color@?$_Tree_val@U?$_Tree_simple_types@U?$pair@$$CBW4SDL_Scancode@@_N@std@@@std@@@std@@SAAADPAU?$_Tree_node@U?$pair@$$CBW4SDL_Scancode@@_N@std@@PAX@2@@Z ; std::_Tree_val<std::_Tree_simple_types<std::pair<enum SDL_Scancode const ,bool> > >::_Color
  00286	83 c4 04	 add	 esp, 4
  00289	c6 00 01	 mov	 BYTE PTR [eax], 1
; Line 1891
  0028c	8b 45 e0	 mov	 eax, DWORD PTR __Pnode$2[ebp]
  0028f	50		 push	 eax
  00290	e8 00 00 00 00	 call	 ?_Parent@?$_Tree_val@U?$_Tree_simple_types@U?$pair@$$CBW4SDL_Scancode@@_N@std@@@std@@@std@@SAAAPAU?$_Tree_node@U?$pair@$$CBW4SDL_Scancode@@_N@std@@PAX@2@PAU32@@Z ; std::_Tree_val<std::_Tree_simple_types<std::pair<enum SDL_Scancode const ,bool> > >::_Parent
  00295	83 c4 04	 add	 esp, 4
  00298	8b 08		 mov	 ecx, DWORD PTR [eax]
  0029a	51		 push	 ecx
  0029b	e8 00 00 00 00	 call	 ?_Parent@?$_Tree_val@U?$_Tree_simple_types@U?$pair@$$CBW4SDL_Scancode@@_N@std@@@std@@@std@@SAAAPAU?$_Tree_node@U?$pair@$$CBW4SDL_Scancode@@_N@std@@PAX@2@PAU32@@Z ; std::_Tree_val<std::_Tree_simple_types<std::pair<enum SDL_Scancode const ,bool> > >::_Parent
  002a0	83 c4 04	 add	 esp, 4
  002a3	8b 10		 mov	 edx, DWORD PTR [eax]
  002a5	52		 push	 edx
  002a6	e8 00 00 00 00	 call	 ?_Color@?$_Tree_val@U?$_Tree_simple_types@U?$pair@$$CBW4SDL_Scancode@@_N@std@@@std@@@std@@SAAADPAU?$_Tree_node@U?$pair@$$CBW4SDL_Scancode@@_N@std@@PAX@2@@Z ; std::_Tree_val<std::_Tree_simple_types<std::pair<enum SDL_Scancode const ,bool> > >::_Color
  002ab	83 c4 04	 add	 esp, 4
  002ae	c6 00 00	 mov	 BYTE PTR [eax], 0
; Line 1892
  002b1	8b 45 e0	 mov	 eax, DWORD PTR __Pnode$2[ebp]
  002b4	50		 push	 eax
  002b5	e8 00 00 00 00	 call	 ?_Parent@?$_Tree_val@U?$_Tree_simple_types@U?$pair@$$CBW4SDL_Scancode@@_N@std@@@std@@@std@@SAAAPAU?$_Tree_node@U?$pair@$$CBW4SDL_Scancode@@_N@std@@PAX@2@PAU32@@Z ; std::_Tree_val<std::_Tree_simple_types<std::pair<enum SDL_Scancode const ,bool> > >::_Parent
  002ba	83 c4 04	 add	 esp, 4
  002bd	8b 08		 mov	 ecx, DWORD PTR [eax]
  002bf	51		 push	 ecx
  002c0	e8 00 00 00 00	 call	 ?_Parent@?$_Tree_val@U?$_Tree_simple_types@U?$pair@$$CBW4SDL_Scancode@@_N@std@@@std@@@std@@SAAAPAU?$_Tree_node@U?$pair@$$CBW4SDL_Scancode@@_N@std@@PAX@2@PAU32@@Z ; std::_Tree_val<std::_Tree_simple_types<std::pair<enum SDL_Scancode const ,bool> > >::_Parent
  002c5	83 c4 04	 add	 esp, 4
  002c8	8b 10		 mov	 edx, DWORD PTR [eax]
  002ca	52		 push	 edx
  002cb	8b 4d f8	 mov	 ecx, DWORD PTR _this$[ebp]
  002ce	e8 00 00 00 00	 call	 ?_Rrotate@?$_Tree@V?$_Tmap_traits@W4SDL_Scancode@@_NU?$less@W4SDL_Scancode@@@std@@V?$allocator@U?$pair@$$CBW4SDL_Scancode@@_N@std@@@3@$0A@@std@@@std@@IAEXPAU?$_Tree_node@U?$pair@$$CBW4SDL_Scancode@@_N@std@@PAX@2@@Z ; std::_Tree<std::_Tmap_traits<enum SDL_Scancode,bool,std::less<enum SDL_Scancode>,std::allocator<std::pair<enum SDL_Scancode const ,bool> >,0> >::_Rrotate
$LN6@Insert_at:
; Line 1895
  002d3	e9 45 01 00 00	 jmp	 $LN4@Insert_at
$LN8@Insert_at:
; Line 1898
  002d8	8b 45 e0	 mov	 eax, DWORD PTR __Pnode$2[ebp]
  002db	50		 push	 eax
  002dc	e8 00 00 00 00	 call	 ?_Parent@?$_Tree_val@U?$_Tree_simple_types@U?$pair@$$CBW4SDL_Scancode@@_N@std@@@std@@@std@@SAAAPAU?$_Tree_node@U?$pair@$$CBW4SDL_Scancode@@_N@std@@PAX@2@PAU32@@Z ; std::_Tree_val<std::_Tree_simple_types<std::pair<enum SDL_Scancode const ,bool> > >::_Parent
  002e1	83 c4 04	 add	 esp, 4
  002e4	8b 08		 mov	 ecx, DWORD PTR [eax]
  002e6	51		 push	 ecx
  002e7	e8 00 00 00 00	 call	 ?_Parent@?$_Tree_val@U?$_Tree_simple_types@U?$pair@$$CBW4SDL_Scancode@@_N@std@@@std@@@std@@SAAAPAU?$_Tree_node@U?$pair@$$CBW4SDL_Scancode@@_N@std@@PAX@2@PAU32@@Z ; std::_Tree_val<std::_Tree_simple_types<std::pair<enum SDL_Scancode const ,bool> > >::_Parent
  002ec	83 c4 04	 add	 esp, 4
  002ef	8b 10		 mov	 edx, DWORD PTR [eax]
  002f1	52		 push	 edx
  002f2	e8 00 00 00 00	 call	 ?_Left@?$_Tree_val@U?$_Tree_simple_types@U?$pair@$$CBW4SDL_Scancode@@_N@std@@@std@@@std@@SAAAPAU?$_Tree_node@U?$pair@$$CBW4SDL_Scancode@@_N@std@@PAX@2@PAU32@@Z ; std::_Tree_val<std::_Tree_simple_types<std::pair<enum SDL_Scancode const ,bool> > >::_Left
  002f7	83 c4 04	 add	 esp, 4
  002fa	8b 00		 mov	 eax, DWORD PTR [eax]
  002fc	89 45 10	 mov	 DWORD PTR __Wherenode$[ebp], eax
; Line 1899
  002ff	8b 45 10	 mov	 eax, DWORD PTR __Wherenode$[ebp]
  00302	50		 push	 eax
  00303	e8 00 00 00 00	 call	 ?_Color@?$_Tree_val@U?$_Tree_simple_types@U?$pair@$$CBW4SDL_Scancode@@_N@std@@@std@@@std@@SAAADPAU?$_Tree_node@U?$pair@$$CBW4SDL_Scancode@@_N@std@@PAX@2@@Z ; std::_Tree_val<std::_Tree_simple_types<std::pair<enum SDL_Scancode const ,bool> > >::_Color
  00308	83 c4 04	 add	 esp, 4
  0030b	0f be 08	 movsx	 ecx, BYTE PTR [eax]
  0030e	85 c9		 test	 ecx, ecx
  00310	75 6f		 jne	 SHORT $LN3@Insert_at
; Line 1901
  00312	8b 45 e0	 mov	 eax, DWORD PTR __Pnode$2[ebp]
  00315	50		 push	 eax
  00316	e8 00 00 00 00	 call	 ?_Parent@?$_Tree_val@U?$_Tree_simple_types@U?$pair@$$CBW4SDL_Scancode@@_N@std@@@std@@@std@@SAAAPAU?$_Tree_node@U?$pair@$$CBW4SDL_Scancode@@_N@std@@PAX@2@PAU32@@Z ; std::_Tree_val<std::_Tree_simple_types<std::pair<enum SDL_Scancode const ,bool> > >::_Parent
  0031b	83 c4 04	 add	 esp, 4
  0031e	8b 08		 mov	 ecx, DWORD PTR [eax]
  00320	51		 push	 ecx
  00321	e8 00 00 00 00	 call	 ?_Color@?$_Tree_val@U?$_Tree_simple_types@U?$pair@$$CBW4SDL_Scancode@@_N@std@@@std@@@std@@SAAADPAU?$_Tree_node@U?$pair@$$CBW4SDL_Scancode@@_N@std@@PAX@2@@Z ; std::_Tree_val<std::_Tree_simple_types<std::pair<enum SDL_Scancode const ,bool> > >::_Color
  00326	83 c4 04	 add	 esp, 4
  00329	c6 00 01	 mov	 BYTE PTR [eax], 1
; Line 1902
  0032c	8b 45 10	 mov	 eax, DWORD PTR __Wherenode$[ebp]
  0032f	50		 push	 eax
  00330	e8 00 00 00 00	 call	 ?_Color@?$_Tree_val@U?$_Tree_simple_types@U?$pair@$$CBW4SDL_Scancode@@_N@std@@@std@@@std@@SAAADPAU?$_Tree_node@U?$pair@$$CBW4SDL_Scancode@@_N@std@@PAX@2@@Z ; std::_Tree_val<std::_Tree_simple_types<std::pair<enum SDL_Scancode const ,bool> > >::_Color
  00335	83 c4 04	 add	 esp, 4
  00338	c6 00 01	 mov	 BYTE PTR [eax], 1
; Line 1904
  0033b	8b 45 e0	 mov	 eax, DWORD PTR __Pnode$2[ebp]
  0033e	50		 push	 eax
  0033f	e8 00 00 00 00	 call	 ?_Parent@?$_Tree_val@U?$_Tree_simple_types@U?$pair@$$CBW4SDL_Scancode@@_N@std@@@std@@@std@@SAAAPAU?$_Tree_node@U?$pair@$$CBW4SDL_Scancode@@_N@std@@PAX@2@PAU32@@Z ; std::_Tree_val<std::_Tree_simple_types<std::pair<enum SDL_Scancode const ,bool> > >::_Parent
  00344	83 c4 04	 add	 esp, 4
  00347	8b 08		 mov	 ecx, DWORD PTR [eax]
  00349	51		 push	 ecx
  0034a	e8 00 00 00 00	 call	 ?_Parent@?$_Tree_val@U?$_Tree_simple_types@U?$pair@$$CBW4SDL_Scancode@@_N@std@@@std@@@std@@SAAAPAU?$_Tree_node@U?$pair@$$CBW4SDL_Scancode@@_N@std@@PAX@2@PAU32@@Z ; std::_Tree_val<std::_Tree_simple_types<std::pair<enum SDL_Scancode const ,bool> > >::_Parent
  0034f	83 c4 04	 add	 esp, 4
  00352	8b 10		 mov	 edx, DWORD PTR [eax]
  00354	52		 push	 edx
  00355	e8 00 00 00 00	 call	 ?_Color@?$_Tree_val@U?$_Tree_simple_types@U?$pair@$$CBW4SDL_Scancode@@_N@std@@@std@@@std@@SAAADPAU?$_Tree_node@U?$pair@$$CBW4SDL_Scancode@@_N@std@@PAX@2@@Z ; std::_Tree_val<std::_Tree_simple_types<std::pair<enum SDL_Scancode const ,bool> > >::_Color
  0035a	83 c4 04	 add	 esp, 4
  0035d	c6 00 00	 mov	 BYTE PTR [eax], 0
; Line 1905
  00360	8b 45 e0	 mov	 eax, DWORD PTR __Pnode$2[ebp]
  00363	50		 push	 eax
  00364	e8 00 00 00 00	 call	 ?_Parent@?$_Tree_val@U?$_Tree_simple_types@U?$pair@$$CBW4SDL_Scancode@@_N@std@@@std@@@std@@SAAAPAU?$_Tree_node@U?$pair@$$CBW4SDL_Scancode@@_N@std@@PAX@2@PAU32@@Z ; std::_Tree_val<std::_Tree_simple_types<std::pair<enum SDL_Scancode const ,bool> > >::_Parent
  00369	83 c4 04	 add	 esp, 4
  0036c	8b 08		 mov	 ecx, DWORD PTR [eax]
  0036e	51		 push	 ecx
  0036f	e8 00 00 00 00	 call	 ?_Parent@?$_Tree_val@U?$_Tree_simple_types@U?$pair@$$CBW4SDL_Scancode@@_N@std@@@std@@@std@@SAAAPAU?$_Tree_node@U?$pair@$$CBW4SDL_Scancode@@_N@std@@PAX@2@PAU32@@Z ; std::_Tree_val<std::_Tree_simple_types<std::pair<enum SDL_Scancode const ,bool> > >::_Parent
  00374	83 c4 04	 add	 esp, 4
  00377	8b 10		 mov	 edx, DWORD PTR [eax]
  00379	89 55 e0	 mov	 DWORD PTR __Pnode$2[ebp], edx
; Line 1907
  0037c	e9 9c 00 00 00	 jmp	 $LN4@Insert_at
$LN3@Insert_at:
; Line 1909
  00381	8b 45 e0	 mov	 eax, DWORD PTR __Pnode$2[ebp]
  00384	50		 push	 eax
  00385	e8 00 00 00 00	 call	 ?_Parent@?$_Tree_val@U?$_Tree_simple_types@U?$pair@$$CBW4SDL_Scancode@@_N@std@@@std@@@std@@SAAAPAU?$_Tree_node@U?$pair@$$CBW4SDL_Scancode@@_N@std@@PAX@2@PAU32@@Z ; std::_Tree_val<std::_Tree_simple_types<std::pair<enum SDL_Scancode const ,bool> > >::_Parent
  0038a	83 c4 04	 add	 esp, 4
  0038d	8b 08		 mov	 ecx, DWORD PTR [eax]
  0038f	51		 push	 ecx
  00390	e8 00 00 00 00	 call	 ?_Left@?$_Tree_val@U?$_Tree_simple_types@U?$pair@$$CBW4SDL_Scancode@@_N@std@@@std@@@std@@SAAAPAU?$_Tree_node@U?$pair@$$CBW4SDL_Scancode@@_N@std@@PAX@2@PAU32@@Z ; std::_Tree_val<std::_Tree_simple_types<std::pair<enum SDL_Scancode const ,bool> > >::_Left
  00395	83 c4 04	 add	 esp, 4
  00398	8b 55 e0	 mov	 edx, DWORD PTR __Pnode$2[ebp]
  0039b	3b 10		 cmp	 edx, DWORD PTR [eax]
  0039d	75 1d		 jne	 SHORT $LN1@Insert_at
; Line 1911
  0039f	8b 45 e0	 mov	 eax, DWORD PTR __Pnode$2[ebp]
  003a2	50		 push	 eax
  003a3	e8 00 00 00 00	 call	 ?_Parent@?$_Tree_val@U?$_Tree_simple_types@U?$pair@$$CBW4SDL_Scancode@@_N@std@@@std@@@std@@SAAAPAU?$_Tree_node@U?$pair@$$CBW4SDL_Scancode@@_N@std@@PAX@2@PAU32@@Z ; std::_Tree_val<std::_Tree_simple_types<std::pair<enum SDL_Scancode const ,bool> > >::_Parent
  003a8	83 c4 04	 add	 esp, 4
  003ab	8b 08		 mov	 ecx, DWORD PTR [eax]
  003ad	89 4d e0	 mov	 DWORD PTR __Pnode$2[ebp], ecx
; Line 1912
  003b0	8b 45 e0	 mov	 eax, DWORD PTR __Pnode$2[ebp]
  003b3	50		 push	 eax
  003b4	8b 4d f8	 mov	 ecx, DWORD PTR _this$[ebp]
  003b7	e8 00 00 00 00	 call	 ?_Rrotate@?$_Tree@V?$_Tmap_traits@W4SDL_Scancode@@_NU?$less@W4SDL_Scancode@@@std@@V?$allocator@U?$pair@$$CBW4SDL_Scancode@@_N@std@@@3@$0A@@std@@@std@@IAEXPAU?$_Tree_node@U?$pair@$$CBW4SDL_Scancode@@_N@std@@PAX@2@@Z ; std::_Tree<std::_Tmap_traits<enum SDL_Scancode,bool,std::less<enum SDL_Scancode>,std::allocator<std::pair<enum SDL_Scancode const ,bool> >,0> >::_Rrotate
$LN1@Insert_at:
; Line 1915
  003bc	8b 45 e0	 mov	 eax, DWORD PTR __Pnode$2[ebp]
  003bf	50		 push	 eax
  003c0	e8 00 00 00 00	 call	 ?_Parent@?$_Tree_val@U?$_Tree_simple_types@U?$pair@$$CBW4SDL_Scancode@@_N@std@@@std@@@std@@SAAAPAU?$_Tree_node@U?$pair@$$CBW4SDL_Scancode@@_N@std@@PAX@2@PAU32@@Z ; std::_Tree_val<std::_Tree_simple_types<std::pair<enum SDL_Scancode const ,bool> > >::_Parent
  003c5	83 c4 04	 add	 esp, 4
  003c8	8b 08		 mov	 ecx, DWORD PTR [eax]
  003ca	51		 push	 ecx
  003cb	e8 00 00 00 00	 call	 ?_Color@?$_Tree_val@U?$_Tree_simple_types@U?$pair@$$CBW4SDL_Scancode@@_N@std@@@std@@@std@@SAAADPAU?$_Tree_node@U?$pair@$$CBW4SDL_Scancode@@_N@std@@PAX@2@@Z ; std::_Tree_val<std::_Tree_simple_types<std::pair<enum SDL_Scancode const ,bool> > >::_Color
  003d0	83 c4 04	 add	 esp, 4
  003d3	c6 00 01	 mov	 BYTE PTR [eax], 1
; Line 1917
  003d6	8b 45 e0	 mov	 eax, DWORD PTR __Pnode$2[ebp]
  003d9	50		 push	 eax
  003da	e8 00 00 00 00	 call	 ?_Parent@?$_Tree_val@U?$_Tree_simple_types@U?$pair@$$CBW4SDL_Scancode@@_N@std@@@std@@@std@@SAAAPAU?$_Tree_node@U?$pair@$$CBW4SDL_Scancode@@_N@std@@PAX@2@PAU32@@Z ; std::_Tree_val<std::_Tree_simple_types<std::pair<enum SDL_Scancode const ,bool> > >::_Parent
  003df	83 c4 04	 add	 esp, 4
  003e2	8b 08		 mov	 ecx, DWORD PTR [eax]
  003e4	51		 push	 ecx
  003e5	e8 00 00 00 00	 call	 ?_Parent@?$_Tree_val@U?$_Tree_simple_types@U?$pair@$$CBW4SDL_Scancode@@_N@std@@@std@@@std@@SAAAPAU?$_Tree_node@U?$pair@$$CBW4SDL_Scancode@@_N@std@@PAX@2@PAU32@@Z ; std::_Tree_val<std::_Tree_simple_types<std::pair<enum SDL_Scancode const ,bool> > >::_Parent
  003ea	83 c4 04	 add	 esp, 4
  003ed	8b 10		 mov	 edx, DWORD PTR [eax]
  003ef	52		 push	 edx
  003f0	e8 00 00 00 00	 call	 ?_Color@?$_Tree_val@U?$_Tree_simple_types@U?$pair@$$CBW4SDL_Scancode@@_N@std@@@std@@@std@@SAAADPAU?$_Tree_node@U?$pair@$$CBW4SDL_Scancode@@_N@std@@PAX@2@@Z ; std::_Tree_val<std::_Tree_simple_types<std::pair<enum SDL_Scancode const ,bool> > >::_Color
  003f5	83 c4 04	 add	 esp, 4
  003f8	c6 00 00	 mov	 BYTE PTR [eax], 0
; Line 1918
  003fb	8b 45 e0	 mov	 eax, DWORD PTR __Pnode$2[ebp]
  003fe	50		 push	 eax
  003ff	e8 00 00 00 00	 call	 ?_Parent@?$_Tree_val@U?$_Tree_simple_types@U?$pair@$$CBW4SDL_Scancode@@_N@std@@@std@@@std@@SAAAPAU?$_Tree_node@U?$pair@$$CBW4SDL_Scancode@@_N@std@@PAX@2@PAU32@@Z ; std::_Tree_val<std::_Tree_simple_types<std::pair<enum SDL_Scancode const ,bool> > >::_Parent
  00404	83 c4 04	 add	 esp, 4
  00407	8b 08		 mov	 ecx, DWORD PTR [eax]
  00409	51		 push	 ecx
  0040a	e8 00 00 00 00	 call	 ?_Parent@?$_Tree_val@U?$_Tree_simple_types@U?$pair@$$CBW4SDL_Scancode@@_N@std@@@std@@@std@@SAAAPAU?$_Tree_node@U?$pair@$$CBW4SDL_Scancode@@_N@std@@PAX@2@PAU32@@Z ; std::_Tree_val<std::_Tree_simple_types<std::pair<enum SDL_Scancode const ,bool> > >::_Parent
  0040f	83 c4 04	 add	 esp, 4
  00412	8b 10		 mov	 edx, DWORD PTR [eax]
  00414	52		 push	 edx
  00415	8b 4d f8	 mov	 ecx, DWORD PTR _this$[ebp]
  00418	e8 00 00 00 00	 call	 ?_Lrotate@?$_Tree@V?$_Tmap_traits@W4SDL_Scancode@@_NU?$less@W4SDL_Scancode@@@std@@V?$allocator@U?$pair@$$CBW4SDL_Scancode@@_N@std@@@3@$0A@@std@@@std@@IAEXPAU?$_Tree_node@U?$pair@$$CBW4SDL_Scancode@@_N@std@@PAX@2@@Z ; std::_Tree<std::_Tmap_traits<enum SDL_Scancode,bool,std::less<enum SDL_Scancode>,std::allocator<std::pair<enum SDL_Scancode const ,bool> >,0> >::_Lrotate
$LN4@Insert_at:
; Line 1920
  0041d	e9 10 fd ff ff	 jmp	 $LN10@Insert_at
$LN9@Insert_at:
; Line 1922
  00422	8b 4d f8	 mov	 ecx, DWORD PTR _this$[ebp]
  00425	e8 00 00 00 00	 call	 ?_Root@?$_Tree@V?$_Tmap_traits@W4SDL_Scancode@@_NU?$less@W4SDL_Scancode@@@std@@V?$allocator@U?$pair@$$CBW4SDL_Scancode@@_N@std@@@3@$0A@@std@@@std@@IBEAAPAU?$_Tree_node@U?$pair@$$CBW4SDL_Scancode@@_N@std@@PAX@2@XZ ; std::_Tree<std::_Tmap_traits<enum SDL_Scancode,bool,std::less<enum SDL_Scancode>,std::allocator<std::pair<enum SDL_Scancode const ,bool> >,0> >::_Root
  0042a	8b 00		 mov	 eax, DWORD PTR [eax]
  0042c	50		 push	 eax
  0042d	e8 00 00 00 00	 call	 ?_Color@?$_Tree_val@U?$_Tree_simple_types@U?$pair@$$CBW4SDL_Scancode@@_N@std@@@std@@@std@@SAAADPAU?$_Tree_node@U?$pair@$$CBW4SDL_Scancode@@_N@std@@PAX@2@@Z ; std::_Tree_val<std::_Tree_simple_types<std::pair<enum SDL_Scancode const ,bool> > >::_Color
  00432	83 c4 04	 add	 esp, 4
  00435	c6 00 01	 mov	 BYTE PTR [eax], 1
; Line 1923
  00438	8b 45 f8	 mov	 eax, DWORD PTR _this$[ebp]
  0043b	50		 push	 eax
  0043c	8b 4d ec	 mov	 ecx, DWORD PTR __Newnode$[ebp]
  0043f	51		 push	 ecx
  00440	8b 4d 08	 mov	 ecx, DWORD PTR ___$ReturnUdt$[ebp]
  00443	e8 00 00 00 00	 call	 ??0?$_Tree_iterator@V?$_Tree_val@U?$_Tree_simple_types@U?$pair@$$CBW4SDL_Scancode@@_N@std@@@std@@@std@@@std@@QAE@PAU?$_Tree_node@U?$pair@$$CBW4SDL_Scancode@@_N@std@@PAX@1@PBV?$_Tree_val@U?$_Tree_simple_types@U?$pair@$$CBW4SDL_Scancode@@_N@std@@@std@@@1@@Z ; std::_Tree_iterator<std::_Tree_val<std::_Tree_simple_types<std::pair<enum SDL_Scancode const ,bool> > > >::_Tree_iterator<std::_Tree_val<std::_Tree_simple_types<std::pair<enum SDL_Scancode const ,bool> > > >
  00448	8b 95 14 ff ff
	ff		 mov	 edx, DWORD PTR $T1[ebp]
  0044e	83 ca 01	 or	 edx, 1
  00451	89 95 14 ff ff
	ff		 mov	 DWORD PTR $T1[ebp], edx
  00457	8b 45 08	 mov	 eax, DWORD PTR ___$ReturnUdt$[ebp]
$LN19@Insert_at:
; Line 1924
  0045a	5f		 pop	 edi
  0045b	5e		 pop	 esi
  0045c	5b		 pop	 ebx
  0045d	81 c4 f0 00 00
	00		 add	 esp, 240		; 000000f0H
  00463	3b ec		 cmp	 ebp, esp
  00465	e8 00 00 00 00	 call	 __RTC_CheckEsp
  0046a	8b e5		 mov	 esp, ebp
  0046c	5d		 pop	 ebp
  0046d	c2 14 00	 ret	 20			; 00000014H
??$_Insert_at@AAU?$pair@$$CBW4SDL_Scancode@@_N@std@@PAU?$_Tree_node@U?$pair@$$CBW4SDL_Scancode@@_N@std@@PAX@2@@?$_Tree@V?$_Tmap_traits@W4SDL_Scancode@@_NU?$less@W4SDL_Scancode@@@std@@V?$allocator@U?$pair@$$CBW4SDL_Scancode@@_N@std@@@3@$0A@@std@@@std@@IAE?AV?$_Tree_iterator@V?$_Tree_val@U?$_Tree_simple_types@U?$pair@$$CBW4SDL_Scancode@@_N@std@@@std@@@std@@@1@_NPAU?$_Tree_node@U?$pair@$$CBW4SDL_Scancode@@_N@std@@PAX@1@AAU?$pair@$$CBW4SDL_Scancode@@_N@1@1@Z ENDP ; std::_Tree<std::_Tmap_traits<enum SDL_Scancode,bool,std::less<enum SDL_Scancode>,std::allocator<std::pair<enum SDL_Scancode const ,bool> >,0> >::_Insert_at<std::pair<enum SDL_Scancode const ,bool> &,std::_Tree_node<std::pair<enum SDL_Scancode const ,bool>,void *> *>
_TEXT	ENDS
; Function compile flags: /Odtp /RTCsu /ZI
;	COMDAT ??$forward@AAU?$pair@$$CBW4SDL_Scancode@@_N@std@@@std@@YAAAU?$pair@$$CBW4SDL_Scancode@@_N@0@AAU10@@Z
_TEXT	SEGMENT
__Arg$ = 8						; size = 4
??$forward@AAU?$pair@$$CBW4SDL_Scancode@@_N@std@@@std@@YAAAU?$pair@$$CBW4SDL_Scancode@@_N@0@AAU10@@Z PROC ; std::forward<std::pair<enum SDL_Scancode const ,bool> &>, COMDAT
; File c:\program files (x86)\microsoft visual studio 12.0\vc\include\type_traits
; Line 1504
  00000	55		 push	 ebp
  00001	8b ec		 mov	 ebp, esp
  00003	81 ec c0 00 00
	00		 sub	 esp, 192		; 000000c0H
  00009	53		 push	 ebx
  0000a	56		 push	 esi
  0000b	57		 push	 edi
  0000c	8d bd 40 ff ff
	ff		 lea	 edi, DWORD PTR [ebp-192]
  00012	b9 30 00 00 00	 mov	 ecx, 48			; 00000030H
  00017	b8 cc cc cc cc	 mov	 eax, -858993460		; ccccccccH
  0001c	f3 ab		 rep stosd
; Line 1505
  0001e	8b 45 08	 mov	 eax, DWORD PTR __Arg$[ebp]
; Line 1506
  00021	5f		 pop	 edi
  00022	5e		 pop	 esi
  00023	5b		 pop	 ebx
  00024	8b e5		 mov	 esp, ebp
  00026	5d		 pop	 ebp
  00027	c3		 ret	 0
??$forward@AAU?$pair@$$CBW4SDL_Scancode@@_N@std@@@std@@YAAAU?$pair@$$CBW4SDL_Scancode@@_N@0@AAU10@@Z ENDP ; std::forward<std::pair<enum SDL_Scancode const ,bool> &>
_TEXT	ENDS
; Function compile flags: /Odtp /RTCsu /ZI
;	COMDAT ??$construct@U?$pair@$$CBW4SDL_Scancode@@_N@std@@ABUpiecewise_construct_t@2@V?$tuple@ABW4SDL_Scancode@@@2@V?$tuple@$$$V@2@@?$_Wrap_alloc@V?$allocator@U?$_Tree_node@U?$pair@$$CBW4SDL_Scancode@@_N@std@@PAX@std@@@std@@@std@@QAEXPAU?$pair@$$CBW4SDL_Scancode@@_N@1@ABUpiecewise_construct_t@1@$$QAV?$tuple@ABW4SDL_Scancode@@@1@$$QAV?$tuple@$$$V@1@@Z
_TEXT	SEGMENT
_this$ = -8						; size = 4
__Ptr$ = 8						; size = 4
_<_Args_0>$ = 12					; size = 4
_<_Args_1>$ = 16					; size = 4
_<_Args_2>$ = 20					; size = 4
??$construct@U?$pair@$$CBW4SDL_Scancode@@_N@std@@ABUpiecewise_construct_t@2@V?$tuple@ABW4SDL_Scancode@@@2@V?$tuple@$$$V@2@@?$_Wrap_alloc@V?$allocator@U?$_Tree_node@U?$pair@$$CBW4SDL_Scancode@@_N@std@@PAX@std@@@std@@@std@@QAEXPAU?$pair@$$CBW4SDL_Scancode@@_N@1@ABUpiecewise_construct_t@1@$$QAV?$tuple@ABW4SDL_Scancode@@@1@$$QAV?$tuple@$$$V@1@@Z PROC ; std::_Wrap_alloc<std::allocator<std::_Tree_node<std::pair<enum SDL_Scancode const ,bool>,void *> > >::construct<std::pair<enum SDL_Scancode const ,bool>,std::piecewise_construct_t const &,std::tuple<enum SDL_Scancode const &>,std::tuple<> >, COMDAT
; _this$ = ecx
; File c:\program files (x86)\microsoft visual studio 12.0\vc\include\xmemory0
; Line 868
  00000	55		 push	 ebp
  00001	8b ec		 mov	 ebp, esp
  00003	81 ec cc 00 00
	00		 sub	 esp, 204		; 000000ccH
  00009	53		 push	 ebx
  0000a	56		 push	 esi
  0000b	57		 push	 edi
  0000c	51		 push	 ecx
  0000d	8d bd 34 ff ff
	ff		 lea	 edi, DWORD PTR [ebp-204]
  00013	b9 33 00 00 00	 mov	 ecx, 51			; 00000033H
  00018	b8 cc cc cc cc	 mov	 eax, -858993460		; ccccccccH
  0001d	f3 ab		 rep stosd
  0001f	59		 pop	 ecx
  00020	89 4d f8	 mov	 DWORD PTR _this$[ebp], ecx
; Line 872
  00023	8b 45 14	 mov	 eax, DWORD PTR _<_Args_2>$[ebp]
  00026	50		 push	 eax
  00027	e8 00 00 00 00	 call	 ??$forward@V?$tuple@$$$V@std@@@std@@YA$$QAV?$tuple@$$$V@0@AAV10@@Z ; std::forward<std::tuple<> >
  0002c	83 c4 04	 add	 esp, 4
  0002f	50		 push	 eax
  00030	8b 4d 10	 mov	 ecx, DWORD PTR _<_Args_1>$[ebp]
  00033	51		 push	 ecx
  00034	e8 00 00 00 00	 call	 ??$forward@V?$tuple@ABW4SDL_Scancode@@@std@@@std@@YA$$QAV?$tuple@ABW4SDL_Scancode@@@0@AAV10@@Z ; std::forward<std::tuple<enum SDL_Scancode const &> >
  00039	83 c4 04	 add	 esp, 4
  0003c	50		 push	 eax
  0003d	8b 55 0c	 mov	 edx, DWORD PTR _<_Args_0>$[ebp]
  00040	52		 push	 edx
  00041	e8 00 00 00 00	 call	 ??$forward@ABUpiecewise_construct_t@std@@@std@@YAABUpiecewise_construct_t@0@ABU10@@Z ; std::forward<std::piecewise_construct_t const &>
  00046	83 c4 04	 add	 esp, 4
  00049	50		 push	 eax
  0004a	8b 45 08	 mov	 eax, DWORD PTR __Ptr$[ebp]
  0004d	50		 push	 eax
  0004e	8b 4d f8	 mov	 ecx, DWORD PTR _this$[ebp]
  00051	51		 push	 ecx
  00052	e8 00 00 00 00	 call	 ??$construct@U?$pair@$$CBW4SDL_Scancode@@_N@std@@ABUpiecewise_construct_t@2@V?$tuple@ABW4SDL_Scancode@@@2@V?$tuple@$$$V@2@@?$allocator_traits@V?$allocator@U?$_Tree_node@U?$pair@$$CBW4SDL_Scancode@@_N@std@@PAX@std@@@std@@@std@@SAXAAV?$allocator@U?$_Tree_node@U?$pair@$$CBW4SDL_Scancode@@_N@std@@PAX@std@@@1@PAU?$pair@$$CBW4SDL_Scancode@@_N@1@ABUpiecewise_construct_t@1@$$QAV?$tuple@ABW4SDL_Scancode@@@1@$$QAV?$tuple@$$$V@1@@Z ; std::allocator_traits<std::allocator<std::_Tree_node<std::pair<enum SDL_Scancode const ,bool>,void *> > >::construct<std::pair<enum SDL_Scancode const ,bool>,std::piecewise_construct_t const &,std::tuple<enum SDL_Scancode const &>,std::tuple<> >
  00057	83 c4 14	 add	 esp, 20			; 00000014H
; Line 873
  0005a	5f		 pop	 edi
  0005b	5e		 pop	 esi
  0005c	5b		 pop	 ebx
  0005d	81 c4 cc 00 00
	00		 add	 esp, 204		; 000000ccH
  00063	3b ec		 cmp	 ebp, esp
  00065	e8 00 00 00 00	 call	 __RTC_CheckEsp
  0006a	8b e5		 mov	 esp, ebp
  0006c	5d		 pop	 ebp
  0006d	c2 10 00	 ret	 16			; 00000010H
??$construct@U?$pair@$$CBW4SDL_Scancode@@_N@std@@ABUpiecewise_construct_t@2@V?$tuple@ABW4SDL_Scancode@@@2@V?$tuple@$$$V@2@@?$_Wrap_alloc@V?$allocator@U?$_Tree_node@U?$pair@$$CBW4SDL_Scancode@@_N@std@@PAX@std@@@std@@@std@@QAEXPAU?$pair@$$CBW4SDL_Scancode@@_N@1@ABUpiecewise_construct_t@1@$$QAV?$tuple@ABW4SDL_Scancode@@@1@$$QAV?$tuple@$$$V@1@@Z ENDP ; std::_Wrap_alloc<std::allocator<std::_Tree_node<std::pair<enum SDL_Scancode const ,bool>,void *> > >::construct<std::pair<enum SDL_Scancode const ,bool>,std::piecewise_construct_t const &,std::tuple<enum SDL_Scancode const &>,std::tuple<> >
_TEXT	ENDS
; Function compile flags: /Odtp /RTCsu /ZI
;	COMDAT ??$?0ABW4SDL_Scancode@@@?$_Tuple_val@ABW4SDL_Scancode@@@std@@QAE@ABW4SDL_Scancode@@@Z
_TEXT	SEGMENT
_this$ = -8						; size = 4
__Arg$ = 8						; size = 4
??$?0ABW4SDL_Scancode@@@?$_Tuple_val@ABW4SDL_Scancode@@@std@@QAE@ABW4SDL_Scancode@@@Z PROC ; std::_Tuple_val<enum SDL_Scancode const &>::_Tuple_val<enum SDL_Scancode const &><enum SDL_Scancode const &>, COMDAT
; _this$ = ecx
; File c:\program files (x86)\microsoft visual studio 12.0\vc\include\tuple
; Line 80
  00000	55		 push	 ebp
  00001	8b ec		 mov	 ebp, esp
  00003	81 ec cc 00 00
	00		 sub	 esp, 204		; 000000ccH
  00009	53		 push	 ebx
  0000a	56		 push	 esi
  0000b	57		 push	 edi
  0000c	51		 push	 ecx
  0000d	8d bd 34 ff ff
	ff		 lea	 edi, DWORD PTR [ebp-204]
  00013	b9 33 00 00 00	 mov	 ecx, 51			; 00000033H
  00018	b8 cc cc cc cc	 mov	 eax, -858993460		; ccccccccH
  0001d	f3 ab		 rep stosd
  0001f	59		 pop	 ecx
  00020	89 4d f8	 mov	 DWORD PTR _this$[ebp], ecx
  00023	8b 45 08	 mov	 eax, DWORD PTR __Arg$[ebp]
  00026	50		 push	 eax
  00027	e8 00 00 00 00	 call	 ??$forward@ABW4SDL_Scancode@@@std@@YAABW4SDL_Scancode@@ABW41@@Z ; std::forward<enum SDL_Scancode const &>
  0002c	83 c4 04	 add	 esp, 4
  0002f	8b 4d f8	 mov	 ecx, DWORD PTR _this$[ebp]
  00032	89 01		 mov	 DWORD PTR [ecx], eax
; Line 81
  00034	8b 45 f8	 mov	 eax, DWORD PTR _this$[ebp]
  00037	5f		 pop	 edi
  00038	5e		 pop	 esi
  00039	5b		 pop	 ebx
  0003a	81 c4 cc 00 00
	00		 add	 esp, 204		; 000000ccH
  00040	3b ec		 cmp	 ebp, esp
  00042	e8 00 00 00 00	 call	 __RTC_CheckEsp
  00047	8b e5		 mov	 esp, ebp
  00049	5d		 pop	 ebp
  0004a	c2 04 00	 ret	 4
??$?0ABW4SDL_Scancode@@@?$_Tuple_val@ABW4SDL_Scancode@@@std@@QAE@ABW4SDL_Scancode@@@Z ENDP ; std::_Tuple_val<enum SDL_Scancode const &>::_Tuple_val<enum SDL_Scancode const &><enum SDL_Scancode const &>
_TEXT	ENDS
; Function compile flags: /Odtp /RTCsu /ZI
;	COMDAT ??$destroy@U?$pair@$$CBW4SDL_Scancode@@_N@std@@@?$allocator_traits@V?$allocator@U?$_Tree_node@U?$pair@$$CBW4SDL_Scancode@@_N@std@@PAX@std@@@std@@@std@@SAXAAV?$allocator@U?$_Tree_node@U?$pair@$$CBW4SDL_Scancode@@_N@std@@PAX@std@@@1@PAU?$pair@$$CBW4SDL_Scancode@@_N@1@@Z
_TEXT	SEGMENT
__Al$ = 8						; size = 4
__Ptr$ = 12						; size = 4
??$destroy@U?$pair@$$CBW4SDL_Scancode@@_N@std@@@?$allocator_traits@V?$allocator@U?$_Tree_node@U?$pair@$$CBW4SDL_Scancode@@_N@std@@PAX@std@@@std@@@std@@SAXAAV?$allocator@U?$_Tree_node@U?$pair@$$CBW4SDL_Scancode@@_N@std@@PAX@std@@@1@PAU?$pair@$$CBW4SDL_Scancode@@_N@1@@Z PROC ; std::allocator_traits<std::allocator<std::_Tree_node<std::pair<enum SDL_Scancode const ,bool>,void *> > >::destroy<std::pair<enum SDL_Scancode const ,bool> >, COMDAT
; File c:\program files (x86)\microsoft visual studio 12.0\vc\include\xmemory0
; Line 728
  00000	55		 push	 ebp
  00001	8b ec		 mov	 ebp, esp
  00003	81 ec c0 00 00
	00		 sub	 esp, 192		; 000000c0H
  00009	53		 push	 ebx
  0000a	56		 push	 esi
  0000b	57		 push	 edi
  0000c	8d bd 40 ff ff
	ff		 lea	 edi, DWORD PTR [ebp-192]
  00012	b9 30 00 00 00	 mov	 ecx, 48			; 00000030H
  00017	b8 cc cc cc cc	 mov	 eax, -858993460		; ccccccccH
  0001c	f3 ab		 rep stosd
; Line 730
  0001e	8b 45 0c	 mov	 eax, DWORD PTR __Ptr$[ebp]
  00021	50		 push	 eax
  00022	8b 4d 08	 mov	 ecx, DWORD PTR __Al$[ebp]
  00025	e8 00 00 00 00	 call	 ??$destroy@U?$pair@$$CBW4SDL_Scancode@@_N@std@@@?$allocator@U?$_Tree_node@U?$pair@$$CBW4SDL_Scancode@@_N@std@@PAX@std@@@std@@QAEXPAU?$pair@$$CBW4SDL_Scancode@@_N@1@@Z ; std::allocator<std::_Tree_node<std::pair<enum SDL_Scancode const ,bool>,void *> >::destroy<std::pair<enum SDL_Scancode const ,bool> >
; Line 731
  0002a	5f		 pop	 edi
  0002b	5e		 pop	 esi
  0002c	5b		 pop	 ebx
  0002d	81 c4 c0 00 00
	00		 add	 esp, 192		; 000000c0H
  00033	3b ec		 cmp	 ebp, esp
  00035	e8 00 00 00 00	 call	 __RTC_CheckEsp
  0003a	8b e5		 mov	 esp, ebp
  0003c	5d		 pop	 ebp
  0003d	c3		 ret	 0
??$destroy@U?$pair@$$CBW4SDL_Scancode@@_N@std@@@?$allocator_traits@V?$allocator@U?$_Tree_node@U?$pair@$$CBW4SDL_Scancode@@_N@std@@PAX@std@@@std@@@std@@SAXAAV?$allocator@U?$_Tree_node@U?$pair@$$CBW4SDL_Scancode@@_N@std@@PAX@std@@@1@PAU?$pair@$$CBW4SDL_Scancode@@_N@1@@Z ENDP ; std::allocator_traits<std::allocator<std::_Tree_node<std::pair<enum SDL_Scancode const ,bool>,void *> > >::destroy<std::pair<enum SDL_Scancode const ,bool> >
_TEXT	ENDS
; Function compile flags: /Odtp /RTCsu /ZI
;	COMDAT ??$_Insert_hint@AAU?$pair@$$CBW4SDL_Scancode@@_N@std@@PAU?$_Tree_node@U?$pair@$$CBW4SDL_Scancode@@_N@std@@PAX@2@@?$_Tree@V?$_Tmap_traits@W4SDL_Scancode@@_NU?$less@W4SDL_Scancode@@@std@@V?$allocator@U?$pair@$$CBW4SDL_Scancode@@_N@std@@@3@$0A@@std@@@std@@IAE?AV?$_Tree_iterator@V?$_Tree_val@U?$_Tree_simple_types@U?$pair@$$CBW4SDL_Scancode@@_N@std@@@std@@@std@@@1@V?$_Tree_const_iterator@V?$_Tree_val@U?$_Tree_simple_types@U?$pair@$$CBW4SDL_Scancode@@_N@std@@@std@@@std@@@1@AAU?$pair@$$CBW4SDL_Scancode@@_N@1@PAU?$_Tree_node@U?$pair@$$CBW4SDL_Scancode@@_N@std@@PAX@1@@Z
_TEXT	SEGMENT
tv747 = -692						; size = 4
tv417 = -692						; size = 4
tv1019 = -685						; size = 1
tv958 = -685						; size = 1
tv1018 = -684						; size = 4
tv957 = -684						; size = 4
tv1017 = -680						; size = 4
tv956 = -680						; size = 4
tv1016 = -676						; size = 4
tv955 = -676						; size = 4
tv1015 = -672						; size = 4
tv954 = -672						; size = 4
tv1014 = -665						; size = 1
tv953 = -665						; size = 1
tv1013 = -664						; size = 4
tv952 = -664						; size = 4
tv1012 = -660						; size = 4
tv951 = -660						; size = 4
tv903 = -656						; size = 4
tv874 = -656						; size = 4
tv995 = -653						; size = 1
tv934 = -653						; size = 1
tv1008 = -652						; size = 4
tv994 = -652						; size = 4
tv947 = -652						; size = 4
tv933 = -652						; size = 4
tv993 = -648						; size = 4
tv932 = -648						; size = 4
tv1007 = -645						; size = 1
tv988 = -645						; size = 1
tv981 = -645						; size = 1
tv972 = -645						; size = 1
tv946 = -645						; size = 1
tv927 = -645						; size = 1
tv920 = -645						; size = 1
tv450 = -645						; size = 1
tv1006 = -644						; size = 4
tv992 = -644						; size = 4
tv987 = -644						; size = 4
tv980 = -644						; size = 4
tv971 = -644						; size = 4
tv945 = -644						; size = 4
tv931 = -644						; size = 4
tv926 = -644						; size = 4
tv919 = -644						; size = 4
tv507 = -644						; size = 4
tv1022 = -640						; size = 4
tv1005 = -640						; size = 4
tv998 = -640						; size = 4
tv991 = -640						; size = 4
tv986 = -640						; size = 4
tv979 = -640						; size = 4
tv970 = -640						; size = 4
tv961 = -640						; size = 4
tv944 = -640						; size = 4
tv937 = -640						; size = 4
tv930 = -640						; size = 4
tv925 = -640						; size = 4
tv918 = -640						; size = 4
tv560 = -640						; size = 4
tv976 = -637						; size = 1
tv967 = -637						; size = 1
tv764 = -637						; size = 1
tv230 = -637						; size = 1
tv1026 = -636						; size = 4
tv1024 = -636						; size = 4
tv1021 = -636						; size = 4
tv1004 = -636						; size = 4
tv1002 = -636						; size = 4
tv1000 = -636						; size = 4
tv997 = -636						; size = 4
tv990 = -636						; size = 4
tv985 = -636						; size = 4
tv983 = -636						; size = 4
tv978 = -636						; size = 4
tv974 = -636						; size = 4
tv969 = -636						; size = 4
tv965 = -636						; size = 4
tv963 = -636						; size = 4
tv960 = -636						; size = 4
tv943 = -636						; size = 4
tv941 = -636						; size = 4
tv939 = -636						; size = 4
tv936 = -636						; size = 4
tv929 = -636						; size = 4
tv924 = -636						; size = 4
tv922 = -636						; size = 4
tv914 = -636						; size = 4
tv889 = -636						; size = 4
tv884 = -636						; size = 4
tv860 = -636						; size = 4
tv855 = -636						; size = 4
tv643 = -636						; size = 4
tv329 = -636						; size = 4
tv88 = -636						; size = 4
tv1027 = -632						; size = 4
tv1025 = -632						; size = 4
tv1023 = -632						; size = 4
tv1020 = -632						; size = 4
tv1003 = -632						; size = 4
tv1001 = -632						; size = 4
tv999 = -632						; size = 4
tv996 = -632						; size = 4
tv989 = -632						; size = 4
tv984 = -632						; size = 4
tv982 = -632						; size = 4
tv977 = -632						; size = 4
tv975 = -632						; size = 4
tv973 = -632						; size = 4
tv968 = -632						; size = 4
tv966 = -632						; size = 4
tv964 = -632						; size = 4
tv962 = -632						; size = 4
tv959 = -632						; size = 4
tv942 = -632						; size = 4
tv940 = -632						; size = 4
tv938 = -632						; size = 4
tv935 = -632						; size = 4
tv928 = -632						; size = 4
tv923 = -632						; size = 4
tv921 = -632						; size = 4
tv832 = -632						; size = 4
tv812 = -632						; size = 4
tv659 = -632						; size = 4
tv434 = -632						; size = 4
tv313 = -632						; size = 4
tv177 = -632						; size = 4
tv68 = -632						; size = 4
$T2 = -621						; size = 1
$T3 = -612						; size = 12
$T4 = -589						; size = 1
$T5 = -577						; size = 1
$T6 = -568						; size = 12
$T7 = -545						; size = 1
$T8 = -533						; size = 1
$T9 = -521						; size = 1
$T10 = -509						; size = 1
$T11 = -497						; size = 1
$T12 = -488						; size = 12
$T13 = -465						; size = 1
$T14 = -453						; size = 1
$T15 = -444						; size = 12
$T16 = -421						; size = 1
$T17 = -409						; size = 1
$T18 = -400						; size = 12
$T19 = -377						; size = 1
$T20 = -365						; size = 1
$T21 = -353						; size = 1
$T22 = -341						; size = 1
$T23 = -329						; size = 1
$T24 = -320						; size = 12
$T25 = -297						; size = 1
$T26 = -288						; size = 16
$T27 = -264						; size = 4
__Leftish$ = -57					; size = 1
__Next$ = -48						; size = 12
_this$ = -28						; size = 4
__$ArrayPad$ = -20					; size = 4
__$EHRec$ = -16						; size = 16
___$ReturnUdt$ = 8					; size = 4
__Where$ = 12						; size = 12
__Val$ = 24						; size = 4
__Newnode$ = 28						; size = 4
??$_Insert_hint@AAU?$pair@$$CBW4SDL_Scancode@@_N@std@@PAU?$_Tree_node@U?$pair@$$CBW4SDL_Scancode@@_N@std@@PAX@2@@?$_Tree@V?$_Tmap_traits@W4SDL_Scancode@@_NU?$less@W4SDL_Scancode@@@std@@V?$allocator@U?$pair@$$CBW4SDL_Scancode@@_N@std@@@3@$0A@@std@@@std@@IAE?AV?$_Tree_iterator@V?$_Tree_val@U?$_Tree_simple_types@U?$pair@$$CBW4SDL_Scancode@@_N@std@@@std@@@std@@@1@V?$_Tree_const_iterator@V?$_Tree_val@U?$_Tree_simple_types@U?$pair@$$CBW4SDL_Scancode@@_N@std@@@std@@@std@@@1@AAU?$pair@$$CBW4SDL_Scancode@@_N@1@PAU?$_Tree_node@U?$pair@$$CBW4SDL_Scancode@@_N@std@@PAX@1@@Z PROC ; std::_Tree<std::_Tmap_traits<enum SDL_Scancode,bool,std::less<enum SDL_Scancode>,std::allocator<std::pair<enum SDL_Scancode const ,bool> >,0> >::_Insert_hint<std::pair<enum SDL_Scancode const ,bool> &,std::_Tree_node<std::pair<enum SDL_Scancode const ,bool>,void *> *>, COMDAT
; _this$ = ecx
; File c:\program files (x86)\microsoft visual studio 12.0\vc\include\xtree
; Line 1661
  00000	55		 push	 ebp
  00001	8b ec		 mov	 ebp, esp
  00003	6a ff		 push	 -1
  00005	68 00 00 00 00	 push	 __ehhandler$??$_Insert_hint@AAU?$pair@$$CBW4SDL_Scancode@@_N@std@@PAU?$_Tree_node@U?$pair@$$CBW4SDL_Scancode@@_N@std@@PAX@2@@?$_Tree@V?$_Tmap_traits@W4SDL_Scancode@@_NU?$less@W4SDL_Scancode@@@std@@V?$allocator@U?$pair@$$CBW4SDL_Scancode@@_N@std@@@3@$0A@@std@@@std@@IAE?AV?$_Tree_iterator@V?$_Tree_val@U?$_Tree_simple_types@U?$pair@$$CBW4SDL_Scancode@@_N@std@@@std@@@std@@@1@V?$_Tree_const_iterator@V?$_Tree_val@U?$_Tree_simple_types@U?$pair@$$CBW4SDL_Scancode@@_N@std@@@std@@@std@@@1@AAU?$pair@$$CBW4SDL_Scancode@@_N@1@PAU?$_Tree_node@U?$pair@$$CBW4SDL_Scancode@@_N@std@@PAX@1@@Z
  0000a	64 a1 00 00 00
	00		 mov	 eax, DWORD PTR fs:0
  00010	50		 push	 eax
  00011	51		 push	 ecx
  00012	81 ec a4 02 00
	00		 sub	 esp, 676		; 000002a4H
  00018	53		 push	 ebx
  00019	56		 push	 esi
  0001a	57		 push	 edi
  0001b	51		 push	 ecx
  0001c	8d bd 4c fd ff
	ff		 lea	 edi, DWORD PTR [ebp-692]
  00022	b9 a9 00 00 00	 mov	 ecx, 169		; 000000a9H
  00027	b8 cc cc cc cc	 mov	 eax, -858993460		; ccccccccH
  0002c	f3 ab		 rep stosd
  0002e	59		 pop	 ecx
  0002f	a1 00 00 00 00	 mov	 eax, DWORD PTR ___security_cookie
  00034	33 c5		 xor	 eax, ebp
  00036	89 45 ec	 mov	 DWORD PTR __$ArrayPad$[ebp], eax
  00039	50		 push	 eax
  0003a	8d 45 f4	 lea	 eax, DWORD PTR __$EHRec$[ebp+4]
  0003d	64 a3 00 00 00
	00		 mov	 DWORD PTR fs:0, eax
  00043	89 65 f0	 mov	 DWORD PTR __$EHRec$[ebp], esp
  00046	89 4d e4	 mov	 DWORD PTR _this$[ebp], ecx
  00049	c7 85 f8 fe ff
	ff 00 00 00 00	 mov	 DWORD PTR $T27[ebp], 0
  00053	c7 45 fc 00 00
	00 00		 mov	 DWORD PTR __$EHRec$[ebp+12], 0
; Line 1664
  0005a	6a 0c		 push	 12			; 0000000cH
  0005c	8d 4d d0	 lea	 ecx, DWORD PTR __Next$[ebp]
  0005f	e8 00 00 00 00	 call	 ?__autoclassinit2@?$_Tree_const_iterator@V?$_Tree_val@U?$_Tree_simple_types@U?$pair@$$CBW4SDL_Scancode@@_N@std@@@std@@@std@@@std@@QAEXI@Z
  00064	8d 4d d0	 lea	 ecx, DWORD PTR __Next$[ebp]
  00067	e8 00 00 00 00	 call	 ??0?$_Tree_const_iterator@V?$_Tree_val@U?$_Tree_simple_types@U?$pair@$$CBW4SDL_Scancode@@_N@std@@@std@@@std@@@std@@QAE@XZ ; std::_Tree_const_iterator<std::_Tree_val<std::_Tree_simple_types<std::pair<enum SDL_Scancode const ,bool> > > >::_Tree_const_iterator<std::_Tree_val<std::_Tree_simple_types<std::pair<enum SDL_Scancode const ,bool> > > >
  0006c	c6 45 fc 01	 mov	 BYTE PTR __$EHRec$[ebp+12], 1
; Line 1665
  00070	c6 45 c7 00	 mov	 BYTE PTR __Leftish$[ebp], 0
; Line 1667
  00074	c6 45 fc 02	 mov	 BYTE PTR __$EHRec$[ebp+12], 2
; Line 1670
  00078	8d 4d 0c	 lea	 ecx, DWORD PTR __Where$[ebp]
  0007b	e8 00 00 00 00	 call	 ?_Getcont@_Iterator_base12@std@@QBEPBU_Container_base12@2@XZ ; std::_Iterator_base12::_Getcont
  00080	89 85 88 fd ff
	ff		 mov	 DWORD PTR tv68[ebp], eax
  00086	8b 85 88 fd ff
	ff		 mov	 eax, DWORD PTR tv68[ebp]
  0008c	3b 45 e4	 cmp	 eax, DWORD PTR _this$[ebp]
  0008f	74 21		 je	 SHORT $LN32@Insert_hin
; Line 1671
  00091	8b f4		 mov	 esi, esp
  00093	68 87 06 00 00	 push	 1671			; 00000687H
  00098	68 00 00 00 00	 push	 OFFSET ??_C@_1IK@HBAODOLH@?$AAc?$AA?3?$AA?2?$AAp?$AAr?$AAo?$AAg?$AAr?$AAa?$AAm?$AA?5?$AAf?$AAi?$AAl?$AAe?$AAs?$AA?5?$AA?$CI?$AAx?$AA8?$AA6?$AA?$CJ?$AA?2?$AAm?$AAi?$AAc?$AAr?$AAo?$AAs?$AAo?$AAf?$AAt@
  0009d	68 00 00 00 00	 push	 OFFSET ??_C@_1EM@MHOKKPFH@?$AAm?$AAa?$AAp?$AA?1?$AAs?$AAe?$AAt?$AA?5?$AAi?$AAn?$AAs?$AAe?$AAr?$AAt?$AA?5?$AAi?$AAt?$AAe?$AAr?$AAa?$AAt?$AAo?$AAr?$AA?5?$AAo?$AAu?$AAt?$AAs?$AAi?$AAd?$AAe?$AA?5@
  000a2	ff 15 00 00 00
	00		 call	 DWORD PTR __imp_?_Debug_message@std@@YAXPB_W0I@Z
  000a8	83 c4 0c	 add	 esp, 12			; 0000000cH
  000ab	3b f4		 cmp	 esi, esp
  000ad	e8 00 00 00 00	 call	 __RTC_CheckEsp
$LN32@Insert_hin:
; Line 1674
  000b2	8b 4d e4	 mov	 ecx, DWORD PTR _this$[ebp]
  000b5	e8 00 00 00 00	 call	 ?size@?$_Tree@V?$_Tmap_traits@W4SDL_Scancode@@_NU?$less@W4SDL_Scancode@@@std@@V?$allocator@U?$pair@$$CBW4SDL_Scancode@@_N@std@@@3@$0A@@std@@@std@@QBEIXZ ; std::_Tree<std::_Tmap_traits<enum SDL_Scancode,bool,std::less<enum SDL_Scancode>,std::allocator<std::pair<enum SDL_Scancode const ,bool> >,0> >::size
  000ba	85 c0		 test	 eax, eax
  000bc	75 69		 jne	 SHORT $LN31@Insert_hin
; Line 1676
  000be	8b 45 18	 mov	 eax, DWORD PTR __Val$[ebp]
  000c1	50		 push	 eax
  000c2	e8 00 00 00 00	 call	 ??$forward@AAU?$pair@$$CBW4SDL_Scancode@@_N@std@@@std@@YAAAU?$pair@$$CBW4SDL_Scancode@@_N@0@AAU10@@Z ; std::forward<std::pair<enum SDL_Scancode const ,bool> &>
  000c7	83 c4 04	 add	 esp, 4
  000ca	89 85 88 fd ff
	ff		 mov	 DWORD PTR tv832[ebp], eax
  000d0	8b 4d 1c	 mov	 ecx, DWORD PTR __Newnode$[ebp]
  000d3	51		 push	 ecx
  000d4	8b 95 88 fd ff
	ff		 mov	 edx, DWORD PTR tv832[ebp]
  000da	52		 push	 edx
  000db	8b 45 e4	 mov	 eax, DWORD PTR _this$[ebp]
  000de	8b 48 04	 mov	 ecx, DWORD PTR [eax+4]
  000e1	51		 push	 ecx
  000e2	6a 01		 push	 1
  000e4	8b 55 08	 mov	 edx, DWORD PTR ___$ReturnUdt$[ebp]
  000e7	52		 push	 edx
  000e8	8b 4d e4	 mov	 ecx, DWORD PTR _this$[ebp]
  000eb	e8 00 00 00 00	 call	 ??$_Insert_at@AAU?$pair@$$CBW4SDL_Scancode@@_N@std@@PAU?$_Tree_node@U?$pair@$$CBW4SDL_Scancode@@_N@std@@PAX@2@@?$_Tree@V?$_Tmap_traits@W4SDL_Scancode@@_NU?$less@W4SDL_Scancode@@@std@@V?$allocator@U?$pair@$$CBW4SDL_Scancode@@_N@std@@@3@$0A@@std@@@std@@IAE?AV?$_Tree_iterator@V?$_Tree_val@U?$_Tree_simple_types@U?$pair@$$CBW4SDL_Scancode@@_N@std@@@std@@@std@@@1@_NPAU?$_Tree_node@U?$pair@$$CBW4SDL_Scancode@@_N@std@@PAX@1@AAU?$pair@$$CBW4SDL_Scancode@@_N@1@1@Z ; std::_Tree<std::_Tmap_traits<enum SDL_Scancode,bool,std::less<enum SDL_Scancode>,std::allocator<std::pair<enum SDL_Scancode const ,bool> >,0> >::_Insert_at<std::pair<enum SDL_Scancode const ,bool> &,std::_Tree_node<std::pair<enum SDL_Scancode const ,bool>,void *> *>
  000f0	8b 85 f8 fe ff
	ff		 mov	 eax, DWORD PTR $T27[ebp]
  000f6	83 c8 01	 or	 eax, 1
  000f9	89 85 f8 fe ff
	ff		 mov	 DWORD PTR $T27[ebp], eax
  000ff	c6 45 fc 00	 mov	 BYTE PTR __$EHRec$[ebp+12], 0
  00103	8d 4d d0	 lea	 ecx, DWORD PTR __Next$[ebp]
  00106	e8 00 00 00 00	 call	 ??1?$_Tree_const_iterator@V?$_Tree_val@U?$_Tree_simple_types@U?$pair@$$CBW4SDL_Scancode@@_N@std@@@std@@@std@@@std@@QAE@XZ
  0010b	c7 45 fc ff ff
	ff ff		 mov	 DWORD PTR __$EHRec$[ebp+12], -1
  00112	8d 4d 0c	 lea	 ecx, DWORD PTR __Where$[ebp]
  00115	e8 00 00 00 00	 call	 ??1?$_Tree_const_iterator@V?$_Tree_val@U?$_Tree_simple_types@U?$pair@$$CBW4SDL_Scancode@@_N@std@@@std@@@std@@@std@@QAE@XZ
  0011a	8b 45 08	 mov	 eax, DWORD PTR ___$ReturnUdt$[ebp]
  0011d	e9 47 11 00 00	 jmp	 $LN35@Insert_hin
  00122	e9 8f 10 00 00	 jmp	 $LN30@Insert_hin
$LN31@Insert_hin:
; Line 1677
  00127	33 c0		 xor	 eax, eax
  00129	0f 84 4b 08 00
	00		 je	 $LN29@Insert_hin
; Line 1679
  0012f	8d 85 9c fd ff
	ff		 lea	 eax, DWORD PTR $T3[ebp]
  00135	50		 push	 eax
  00136	8b 4d e4	 mov	 ecx, DWORD PTR _this$[ebp]
  00139	e8 00 00 00 00	 call	 ?begin@?$_Tree@V?$_Tmap_traits@W4SDL_Scancode@@_NU?$less@W4SDL_Scancode@@@std@@V?$allocator@U?$pair@$$CBW4SDL_Scancode@@_N@std@@@3@$0A@@std@@@std@@QAE?AV?$_Tree_iterator@V?$_Tree_val@U?$_Tree_simple_types@U?$pair@$$CBW4SDL_Scancode@@_N@std@@@std@@@std@@@2@XZ ; std::_Tree<std::_Tmap_traits<enum SDL_Scancode,bool,std::less<enum SDL_Scancode>,std::allocator<std::pair<enum SDL_Scancode const ,bool> >,0> >::begin
  0013e	89 85 88 fd ff
	ff		 mov	 DWORD PTR tv812[ebp], eax
  00144	8b 8d 88 fd ff
	ff		 mov	 ecx, DWORD PTR tv812[ebp]
  0014a	89 8d 84 fd ff
	ff		 mov	 DWORD PTR tv855[ebp], ecx
  00150	c6 45 fc 03	 mov	 BYTE PTR __$EHRec$[ebp+12], 3
  00154	8b 95 84 fd ff
	ff		 mov	 edx, DWORD PTR tv855[ebp]
  0015a	52		 push	 edx
  0015b	8d 4d 0c	 lea	 ecx, DWORD PTR __Where$[ebp]
  0015e	e8 00 00 00 00	 call	 ??8?$_Tree_const_iterator@V?$_Tree_val@U?$_Tree_simple_types@U?$pair@$$CBW4SDL_Scancode@@_N@std@@@std@@@std@@@std@@QBE_NABV01@@Z ; std::_Tree_const_iterator<std::_Tree_val<std::_Tree_simple_types<std::pair<enum SDL_Scancode const ,bool> > > >::operator==
  00163	88 85 83 fd ff
	ff		 mov	 BYTE PTR tv764[ebp], al
  00169	8a 85 83 fd ff
	ff		 mov	 al, BYTE PTR tv764[ebp]
  0016f	88 85 93 fd ff
	ff		 mov	 BYTE PTR $T2[ebp], al
  00175	c6 45 fc 02	 mov	 BYTE PTR __$EHRec$[ebp+12], 2
  00179	8d 8d 9c fd ff
	ff		 lea	 ecx, DWORD PTR $T3[ebp]
  0017f	e8 00 00 00 00	 call	 ??1?$_Tree_iterator@V?$_Tree_val@U?$_Tree_simple_types@U?$pair@$$CBW4SDL_Scancode@@_N@std@@@std@@@std@@@std@@QAE@XZ
  00184	0f b6 8d 93 fd
	ff ff		 movzx	 ecx, BYTE PTR $T2[ebp]
  0018b	85 c9		 test	 ecx, ecx
  0018d	0f 84 00 01 00
	00		 je	 $LN28@Insert_hin
; Line 1681
  00193	8b 45 18	 mov	 eax, DWORD PTR __Val$[ebp]
  00196	50		 push	 eax
  00197	8b 4d e4	 mov	 ecx, DWORD PTR _this$[ebp]
  0019a	e8 00 00 00 00	 call	 ?_Kfn@?$_Tree@V?$_Tmap_traits@W4SDL_Scancode@@_NU?$less@W4SDL_Scancode@@@std@@V?$allocator@U?$pair@$$CBW4SDL_Scancode@@_N@std@@@3@$0A@@std@@@std@@IBEABW4SDL_Scancode@@ABU?$pair@$$CBW4SDL_Scancode@@_N@2@@Z ; std::_Tree<std::_Tmap_traits<enum SDL_Scancode,bool,std::less<enum SDL_Scancode>,std::allocator<std::pair<enum SDL_Scancode const ,bool> >,0> >::_Kfn
  0019f	89 85 88 fd ff
	ff		 mov	 DWORD PTR tv659[ebp], eax
  001a5	8d 4d 0c	 lea	 ecx, DWORD PTR __Where$[ebp]
  001a8	e8 00 00 00 00	 call	 ?_Mynode@?$_Tree_unchecked_const_iterator@V?$_Tree_val@U?$_Tree_simple_types@U?$pair@$$CBW4SDL_Scancode@@_N@std@@@std@@@std@@U_Iterator_base12@2@@std@@QBEPAU?$_Tree_node@U?$pair@$$CBW4SDL_Scancode@@_N@std@@PAX@2@XZ ; std::_Tree_unchecked_const_iterator<std::_Tree_val<std::_Tree_simple_types<std::pair<enum SDL_Scancode const ,bool> > >,std::_Iterator_base12>::_Mynode
  001ad	89 85 84 fd ff
	ff		 mov	 DWORD PTR tv643[ebp], eax
  001b3	8b 8d 84 fd ff
	ff		 mov	 ecx, DWORD PTR tv643[ebp]
  001b9	51		 push	 ecx
  001ba	8b 4d e4	 mov	 ecx, DWORD PTR _this$[ebp]
  001bd	e8 00 00 00 00	 call	 ?_Key@?$_Tree@V?$_Tmap_traits@W4SDL_Scancode@@_NU?$less@W4SDL_Scancode@@@std@@V?$allocator@U?$pair@$$CBW4SDL_Scancode@@_N@std@@@3@$0A@@std@@@std@@IBEABW4SDL_Scancode@@PAU?$_Tree_node@U?$pair@$$CBW4SDL_Scancode@@_N@std@@PAX@2@@Z ; std::_Tree<std::_Tmap_traits<enum SDL_Scancode,bool,std::less<enum SDL_Scancode>,std::allocator<std::pair<enum SDL_Scancode const ,bool> >,0> >::_Key
  001c2	89 85 80 fd ff
	ff		 mov	 DWORD PTR tv560[ebp], eax
  001c8	8d 95 b3 fd ff
	ff		 lea	 edx, DWORD PTR $T4[ebp]
  001ce	52		 push	 edx
  001cf	8b 4d e4	 mov	 ecx, DWORD PTR _this$[ebp]
  001d2	e8 00 00 00 00	 call	 ?_Getcomp@?$_Tree_comp@$0A@V?$_Tmap_traits@W4SDL_Scancode@@_NU?$less@W4SDL_Scancode@@@std@@V?$allocator@U?$pair@$$CBW4SDL_Scancode@@_N@std@@@3@$0A@@std@@@std@@QBE?AU?$less@W4SDL_Scancode@@@2@XZ ; std::_Tree_comp<0,std::_Tmap_traits<enum SDL_Scancode,bool,std::less<enum SDL_Scancode>,std::allocator<std::pair<enum SDL_Scancode const ,bool> >,0> >::_Getcomp
  001d7	89 85 7c fd ff
	ff		 mov	 DWORD PTR tv507[ebp], eax
  001dd	68 92 06 00 00	 push	 1682			; 00000692H
  001e2	68 00 00 00 00	 push	 OFFSET ??_C@_1IK@HBAODOLH@?$AAc?$AA?3?$AA?2?$AAp?$AAr?$AAo?$AAg?$AAr?$AAa?$AAm?$AA?5?$AAf?$AAi?$AAl?$AAe?$AAs?$AA?5?$AA?$CI?$AAx?$AA8?$AA6?$AA?$CJ?$AA?2?$AAm?$AAi?$AAc?$AAr?$AAo?$AAs?$AAo?$AAf?$AAt@
  001e7	8b 85 88 fd ff
	ff		 mov	 eax, DWORD PTR tv659[ebp]
  001ed	50		 push	 eax
  001ee	8b 8d 80 fd ff
	ff		 mov	 ecx, DWORD PTR tv560[ebp]
  001f4	51		 push	 ecx
  001f5	8b 95 7c fd ff
	ff		 mov	 edx, DWORD PTR tv507[ebp]
  001fb	0f b6 02	 movzx	 eax, BYTE PTR [edx]
  001fe	50		 push	 eax
  001ff	e8 00 00 00 00	 call	 ??$_Debug_lt_pred@U?$less@W4SDL_Scancode@@@std@@ABW4SDL_Scancode@@ABW43@@std@@YA_NU?$less@W4SDL_Scancode@@@0@ABW4SDL_Scancode@@1PB_WI@Z ; std::_Debug_lt_pred<std::less<enum SDL_Scancode>,enum SDL_Scancode const &,enum SDL_Scancode const &>
  00204	83 c4 14	 add	 esp, 20			; 00000014H
  00207	88 85 7b fd ff
	ff		 mov	 BYTE PTR tv450[ebp], al
  0020d	0f b6 8d 7b fd
	ff ff		 movzx	 ecx, BYTE PTR tv450[ebp]
  00214	85 c9		 test	 ecx, ecx
  00216	75 72		 jne	 SHORT $LN27@Insert_hin
; Line 1684
  00218	8b 45 18	 mov	 eax, DWORD PTR __Val$[ebp]
  0021b	50		 push	 eax
  0021c	e8 00 00 00 00	 call	 ??$forward@AAU?$pair@$$CBW4SDL_Scancode@@_N@std@@@std@@YAAAU?$pair@$$CBW4SDL_Scancode@@_N@0@AAU10@@Z ; std::forward<std::pair<enum SDL_Scancode const ,bool> &>
  00221	83 c4 04	 add	 esp, 4
  00224	89 85 88 fd ff
	ff		 mov	 DWORD PTR tv434[ebp], eax
  0022a	8d 4d 0c	 lea	 ecx, DWORD PTR __Where$[ebp]
  0022d	e8 00 00 00 00	 call	 ?_Mynode@?$_Tree_unchecked_const_iterator@V?$_Tree_val@U?$_Tree_simple_types@U?$pair@$$CBW4SDL_Scancode@@_N@std@@@std@@@std@@U_Iterator_base12@2@@std@@QBEPAU?$_Tree_node@U?$pair@$$CBW4SDL_Scancode@@_N@std@@PAX@2@XZ ; std::_Tree_unchecked_const_iterator<std::_Tree_val<std::_Tree_simple_types<std::pair<enum SDL_Scancode const ,bool> > >,std::_Iterator_base12>::_Mynode
  00232	89 85 84 fd ff
	ff		 mov	 DWORD PTR tv329[ebp], eax
  00238	8b 4d 1c	 mov	 ecx, DWORD PTR __Newnode$[ebp]
  0023b	51		 push	 ecx
  0023c	8b 95 88 fd ff
	ff		 mov	 edx, DWORD PTR tv434[ebp]
  00242	52		 push	 edx
  00243	8b 85 84 fd ff
	ff		 mov	 eax, DWORD PTR tv329[ebp]
  00249	50		 push	 eax
  0024a	6a 01		 push	 1
  0024c	8b 4d 08	 mov	 ecx, DWORD PTR ___$ReturnUdt$[ebp]
  0024f	51		 push	 ecx
  00250	8b 4d e4	 mov	 ecx, DWORD PTR _this$[ebp]
  00253	e8 00 00 00 00	 call	 ??$_Insert_at@AAU?$pair@$$CBW4SDL_Scancode@@_N@std@@PAU?$_Tree_node@U?$pair@$$CBW4SDL_Scancode@@_N@std@@PAX@2@@?$_Tree@V?$_Tmap_traits@W4SDL_Scancode@@_NU?$less@W4SDL_Scancode@@@std@@V?$allocator@U?$pair@$$CBW4SDL_Scancode@@_N@std@@@3@$0A@@std@@@std@@IAE?AV?$_Tree_iterator@V?$_Tree_val@U?$_Tree_simple_types@U?$pair@$$CBW4SDL_Scancode@@_N@std@@@std@@@std@@@1@_NPAU?$_Tree_node@U?$pair@$$CBW4SDL_Scancode@@_N@std@@PAX@1@AAU?$pair@$$CBW4SDL_Scancode@@_N@1@1@Z ; std::_Tree<std::_Tmap_traits<enum SDL_Scancode,bool,std::less<enum SDL_Scancode>,std::allocator<std::pair<enum SDL_Scancode const ,bool> >,0> >::_Insert_at<std::pair<enum SDL_Scancode const ,bool> &,std::_Tree_node<std::pair<enum SDL_Scancode const ,bool>,void *> *>
  00258	8b 95 f8 fe ff
	ff		 mov	 edx, DWORD PTR $T27[ebp]
  0025e	83 ca 01	 or	 edx, 1
  00261	89 95 f8 fe ff
	ff		 mov	 DWORD PTR $T27[ebp], edx
  00267	c6 45 fc 00	 mov	 BYTE PTR __$EHRec$[ebp+12], 0
  0026b	8d 4d d0	 lea	 ecx, DWORD PTR __Next$[ebp]
  0026e	e8 00 00 00 00	 call	 ??1?$_Tree_const_iterator@V?$_Tree_val@U?$_Tree_simple_types@U?$pair@$$CBW4SDL_Scancode@@_N@std@@@std@@@std@@@std@@QAE@XZ
  00273	c7 45 fc ff ff
	ff ff		 mov	 DWORD PTR __$EHRec$[ebp+12], -1
  0027a	8d 4d 0c	 lea	 ecx, DWORD PTR __Where$[ebp]
  0027d	e8 00 00 00 00	 call	 ??1?$_Tree_const_iterator@V?$_Tree_val@U?$_Tree_simple_types@U?$pair@$$CBW4SDL_Scancode@@_N@std@@@std@@@std@@@std@@QAE@XZ
  00282	8b 45 08	 mov	 eax, DWORD PTR ___$ReturnUdt$[ebp]
  00285	e9 df 0f 00 00	 jmp	 $LN35@Insert_hin
$LN27@Insert_hin:
; Line 1685
  0028a	c6 45 c7 01	 mov	 BYTE PTR __Leftish$[ebp], 1
  0028e	e9 e2 06 00 00	 jmp	 $LN26@Insert_hin
$LN28@Insert_hin:
; Line 1687
  00293	8d 85 c8 fd ff
	ff		 lea	 eax, DWORD PTR $T6[ebp]
  00299	50		 push	 eax
  0029a	8b 4d e4	 mov	 ecx, DWORD PTR _this$[ebp]
  0029d	e8 00 00 00 00	 call	 ?end@?$_Tree@V?$_Tmap_traits@W4SDL_Scancode@@_NU?$less@W4SDL_Scancode@@@std@@V?$allocator@U?$pair@$$CBW4SDL_Scancode@@_N@std@@@3@$0A@@std@@@std@@QAE?AV?$_Tree_iterator@V?$_Tree_val@U?$_Tree_simple_types@U?$pair@$$CBW4SDL_Scancode@@_N@std@@@std@@@std@@@2@XZ ; std::_Tree<std::_Tmap_traits<enum SDL_Scancode,bool,std::less<enum SDL_Scancode>,std::allocator<std::pair<enum SDL_Scancode const ,bool> >,0> >::end
  002a2	89 85 88 fd ff
	ff		 mov	 DWORD PTR tv313[ebp], eax
  002a8	8b 8d 88 fd ff
	ff		 mov	 ecx, DWORD PTR tv313[ebp]
  002ae	89 8d 84 fd ff
	ff		 mov	 DWORD PTR tv860[ebp], ecx
  002b4	c6 45 fc 04	 mov	 BYTE PTR __$EHRec$[ebp+12], 4
  002b8	8b 95 84 fd ff
	ff		 mov	 edx, DWORD PTR tv860[ebp]
  002be	52		 push	 edx
  002bf	8d 4d 0c	 lea	 ecx, DWORD PTR __Where$[ebp]
  002c2	e8 00 00 00 00	 call	 ??8?$_Tree_const_iterator@V?$_Tree_val@U?$_Tree_simple_types@U?$pair@$$CBW4SDL_Scancode@@_N@std@@@std@@@std@@@std@@QBE_NABV01@@Z ; std::_Tree_const_iterator<std::_Tree_val<std::_Tree_simple_types<std::pair<enum SDL_Scancode const ,bool> > > >::operator==
  002c7	88 85 83 fd ff
	ff		 mov	 BYTE PTR tv230[ebp], al
  002cd	8a 85 83 fd ff
	ff		 mov	 al, BYTE PTR tv230[ebp]
  002d3	88 85 bf fd ff
	ff		 mov	 BYTE PTR $T5[ebp], al
  002d9	c6 45 fc 02	 mov	 BYTE PTR __$EHRec$[ebp+12], 2
  002dd	8d 8d c8 fd ff
	ff		 lea	 ecx, DWORD PTR $T6[ebp]
  002e3	e8 00 00 00 00	 call	 ??1?$_Tree_iterator@V?$_Tree_val@U?$_Tree_simple_types@U?$pair@$$CBW4SDL_Scancode@@_N@std@@@std@@@std@@@std@@QAE@XZ
  002e8	0f b6 8d bf fd
	ff ff		 movzx	 ecx, BYTE PTR $T5[ebp]
  002ef	85 c9		 test	 ecx, ecx
  002f1	0f 84 00 01 00
	00		 je	 $LN25@Insert_hin
; Line 1689
  002f7	8b 4d e4	 mov	 ecx, DWORD PTR _this$[ebp]
  002fa	e8 00 00 00 00	 call	 ?_Rmost@?$_Tree@V?$_Tmap_traits@W4SDL_Scancode@@_NU?$less@W4SDL_Scancode@@@std@@V?$allocator@U?$pair@$$CBW4SDL_Scancode@@_N@std@@@3@$0A@@std@@@std@@IBEAAPAU?$_Tree_node@U?$pair@$$CBW4SDL_Scancode@@_N@std@@PAX@2@XZ ; std::_Tree<std::_Tmap_traits<enum SDL_Scancode,bool,std::less<enum SDL_Scancode>,std::allocator<std::pair<enum SDL_Scancode const ,bool> >,0> >::_Rmost
  002ff	89 85 88 fd ff
	ff		 mov	 DWORD PTR tv177[ebp], eax
  00305	8b 85 88 fd ff
	ff		 mov	 eax, DWORD PTR tv177[ebp]
  0030b	8b 08		 mov	 ecx, DWORD PTR [eax]
  0030d	51		 push	 ecx
  0030e	8b 4d e4	 mov	 ecx, DWORD PTR _this$[ebp]
  00311	e8 00 00 00 00	 call	 ?_Key@?$_Tree@V?$_Tmap_traits@W4SDL_Scancode@@_NU?$less@W4SDL_Scancode@@@std@@V?$allocator@U?$pair@$$CBW4SDL_Scancode@@_N@std@@@3@$0A@@std@@@std@@IBEABW4SDL_Scancode@@PAU?$_Tree_node@U?$pair@$$CBW4SDL_Scancode@@_N@std@@PAX@2@@Z ; std::_Tree<std::_Tmap_traits<enum SDL_Scancode,bool,std::less<enum SDL_Scancode>,std::allocator<std::pair<enum SDL_Scancode const ,bool> >,0> >::_Key
  00316	89 85 84 fd ff
	ff		 mov	 DWORD PTR tv88[ebp], eax
  0031c	8b 55 18	 mov	 edx, DWORD PTR __Val$[ebp]
  0031f	52		 push	 edx
  00320	8b 4d e4	 mov	 ecx, DWORD PTR _this$[ebp]
  00323	e8 00 00 00 00	 call	 ?_Kfn@?$_Tree@V?$_Tmap_traits@W4SDL_Scancode@@_NU?$less@W4SDL_Scancode@@@std@@V?$allocator@U?$pair@$$CBW4SDL_Scancode@@_N@std@@@3@$0A@@std@@@std@@IBEABW4SDL_Scancode@@ABU?$pair@$$CBW4SDL_Scancode@@_N@2@@Z ; std::_Tree<std::_Tmap_traits<enum SDL_Scancode,bool,std::less<enum SDL_Scancode>,std::allocator<std::pair<enum SDL_Scancode const ,bool> >,0> >::_Kfn
  00328	89 85 80 fd ff
	ff		 mov	 DWORD PTR tv918[ebp], eax
  0032e	8d 85 df fd ff
	ff		 lea	 eax, DWORD PTR $T7[ebp]
  00334	50		 push	 eax
  00335	8b 4d e4	 mov	 ecx, DWORD PTR _this$[ebp]
  00338	e8 00 00 00 00	 call	 ?_Getcomp@?$_Tree_comp@$0A@V?$_Tmap_traits@W4SDL_Scancode@@_NU?$less@W4SDL_Scancode@@@std@@V?$allocator@U?$pair@$$CBW4SDL_Scancode@@_N@std@@@3@$0A@@std@@@std@@QBE?AU?$less@W4SDL_Scancode@@@2@XZ ; std::_Tree_comp<0,std::_Tmap_traits<enum SDL_Scancode,bool,std::less<enum SDL_Scancode>,std::allocator<std::pair<enum SDL_Scancode const ,bool> >,0> >::_Getcomp
  0033d	89 85 7c fd ff
	ff		 mov	 DWORD PTR tv919[ebp], eax
  00343	68 9a 06 00 00	 push	 1690			; 0000069aH
  00348	68 00 00 00 00	 push	 OFFSET ??_C@_1IK@HBAODOLH@?$AAc?$AA?3?$AA?2?$AAp?$AAr?$AAo?$AAg?$AAr?$AAa?$AAm?$AA?5?$AAf?$AAi?$AAl?$AAe?$AAs?$AA?5?$AA?$CI?$AAx?$AA8?$AA6?$AA?$CJ?$AA?2?$AAm?$AAi?$AAc?$AAr?$AAo?$AAs?$AAo?$AAf?$AAt@
  0034d	8b 8d 84 fd ff
	ff		 mov	 ecx, DWORD PTR tv88[ebp]
  00353	51		 push	 ecx
  00354	8b 95 80 fd ff
	ff		 mov	 edx, DWORD PTR tv918[ebp]
  0035a	52		 push	 edx
  0035b	8b 85 7c fd ff
	ff		 mov	 eax, DWORD PTR tv919[ebp]
  00361	0f b6 08	 movzx	 ecx, BYTE PTR [eax]
  00364	51		 push	 ecx
  00365	e8 00 00 00 00	 call	 ??$_Debug_lt_pred@U?$less@W4SDL_Scancode@@@std@@ABW4SDL_Scancode@@ABW43@@std@@YA_NU?$less@W4SDL_Scancode@@@0@ABW4SDL_Scancode@@1PB_WI@Z ; std::_Debug_lt_pred<std::less<enum SDL_Scancode>,enum SDL_Scancode const &,enum SDL_Scancode const &>
  0036a	83 c4 14	 add	 esp, 20			; 00000014H
  0036d	88 85 7b fd ff
	ff		 mov	 BYTE PTR tv920[ebp], al
  00373	0f b6 95 7b fd
	ff ff		 movzx	 edx, BYTE PTR tv920[ebp]
  0037a	85 d2		 test	 edx, edx
  0037c	75 74		 jne	 SHORT $LN24@Insert_hin
; Line 1692
  0037e	8b 45 18	 mov	 eax, DWORD PTR __Val$[ebp]
  00381	50		 push	 eax
  00382	e8 00 00 00 00	 call	 ??$forward@AAU?$pair@$$CBW4SDL_Scancode@@_N@std@@@std@@YAAAU?$pair@$$CBW4SDL_Scancode@@_N@0@AAU10@@Z ; std::forward<std::pair<enum SDL_Scancode const ,bool> &>
  00387	83 c4 04	 add	 esp, 4
  0038a	89 85 88 fd ff
	ff		 mov	 DWORD PTR tv921[ebp], eax
  00390	8b 4d e4	 mov	 ecx, DWORD PTR _this$[ebp]
  00393	e8 00 00 00 00	 call	 ?_Rmost@?$_Tree@V?$_Tmap_traits@W4SDL_Scancode@@_NU?$less@W4SDL_Scancode@@@std@@V?$allocator@U?$pair@$$CBW4SDL_Scancode@@_N@std@@@3@$0A@@std@@@std@@IBEAAPAU?$_Tree_node@U?$pair@$$CBW4SDL_Scancode@@_N@std@@PAX@2@XZ ; std::_Tree<std::_Tmap_traits<enum SDL_Scancode,bool,std::less<enum SDL_Scancode>,std::allocator<std::pair<enum SDL_Scancode const ,bool> >,0> >::_Rmost
  00398	89 85 84 fd ff
	ff		 mov	 DWORD PTR tv922[ebp], eax
  0039e	8b 4d 1c	 mov	 ecx, DWORD PTR __Newnode$[ebp]
  003a1	51		 push	 ecx
  003a2	8b 95 88 fd ff
	ff		 mov	 edx, DWORD PTR tv921[ebp]
  003a8	52		 push	 edx
  003a9	8b 85 84 fd ff
	ff		 mov	 eax, DWORD PTR tv922[ebp]
  003af	8b 08		 mov	 ecx, DWORD PTR [eax]
  003b1	51		 push	 ecx
  003b2	6a 00		 push	 0
  003b4	8b 55 08	 mov	 edx, DWORD PTR ___$ReturnUdt$[ebp]
  003b7	52		 push	 edx
  003b8	8b 4d e4	 mov	 ecx, DWORD PTR _this$[ebp]
  003bb	e8 00 00 00 00	 call	 ??$_Insert_at@AAU?$pair@$$CBW4SDL_Scancode@@_N@std@@PAU?$_Tree_node@U?$pair@$$CBW4SDL_Scancode@@_N@std@@PAX@2@@?$_Tree@V?$_Tmap_traits@W4SDL_Scancode@@_NU?$less@W4SDL_Scancode@@@std@@V?$allocator@U?$pair@$$CBW4SDL_Scancode@@_N@std@@@3@$0A@@std@@@std@@IAE?AV?$_Tree_iterator@V?$_Tree_val@U?$_Tree_simple_types@U?$pair@$$CBW4SDL_Scancode@@_N@std@@@std@@@std@@@1@_NPAU?$_Tree_node@U?$pair@$$CBW4SDL_Scancode@@_N@std@@PAX@1@AAU?$pair@$$CBW4SDL_Scancode@@_N@1@1@Z ; std::_Tree<std::_Tmap_traits<enum SDL_Scancode,bool,std::less<enum SDL_Scancode>,std::allocator<std::pair<enum SDL_Scancode const ,bool> >,0> >::_Insert_at<std::pair<enum SDL_Scancode const ,bool> &,std::_Tree_node<std::pair<enum SDL_Scancode const ,bool>,void *> *>
  003c0	8b 85 f8 fe ff
	ff		 mov	 eax, DWORD PTR $T27[ebp]
  003c6	83 c8 01	 or	 eax, 1
  003c9	89 85 f8 fe ff
	ff		 mov	 DWORD PTR $T27[ebp], eax
  003cf	c6 45 fc 00	 mov	 BYTE PTR __$EHRec$[ebp+12], 0
  003d3	8d 4d d0	 lea	 ecx, DWORD PTR __Next$[ebp]
  003d6	e8 00 00 00 00	 call	 ??1?$_Tree_const_iterator@V?$_Tree_val@U?$_Tree_simple_types@U?$pair@$$CBW4SDL_Scancode@@_N@std@@@std@@@std@@@std@@QAE@XZ
  003db	c7 45 fc ff ff
	ff ff		 mov	 DWORD PTR __$EHRec$[ebp+12], -1
  003e2	8d 4d 0c	 lea	 ecx, DWORD PTR __Where$[ebp]
  003e5	e8 00 00 00 00	 call	 ??1?$_Tree_const_iterator@V?$_Tree_val@U?$_Tree_simple_types@U?$pair@$$CBW4SDL_Scancode@@_N@std@@@std@@@std@@@std@@QAE@XZ
  003ea	8b 45 08	 mov	 eax, DWORD PTR ___$ReturnUdt$[ebp]
  003ed	e9 77 0e 00 00	 jmp	 $LN35@Insert_hin
$LN24@Insert_hin:
; Line 1694
  003f2	e9 7e 05 00 00	 jmp	 $LN26@Insert_hin
$LN25@Insert_hin:
; Line 1696
  003f7	8b 45 18	 mov	 eax, DWORD PTR __Val$[ebp]
  003fa	50		 push	 eax
  003fb	8b 4d e4	 mov	 ecx, DWORD PTR _this$[ebp]
  003fe	e8 00 00 00 00	 call	 ?_Kfn@?$_Tree@V?$_Tmap_traits@W4SDL_Scancode@@_NU?$less@W4SDL_Scancode@@@std@@V?$allocator@U?$pair@$$CBW4SDL_Scancode@@_N@std@@@3@$0A@@std@@@std@@IBEABW4SDL_Scancode@@ABU?$pair@$$CBW4SDL_Scancode@@_N@2@@Z ; std::_Tree<std::_Tmap_traits<enum SDL_Scancode,bool,std::less<enum SDL_Scancode>,std::allocator<std::pair<enum SDL_Scancode const ,bool> >,0> >::_Kfn
  00403	89 85 88 fd ff
	ff		 mov	 DWORD PTR tv923[ebp], eax
  00409	8d 4d 0c	 lea	 ecx, DWORD PTR __Where$[ebp]
  0040c	e8 00 00 00 00	 call	 ?_Mynode@?$_Tree_unchecked_const_iterator@V?$_Tree_val@U?$_Tree_simple_types@U?$pair@$$CBW4SDL_Scancode@@_N@std@@@std@@@std@@U_Iterator_base12@2@@std@@QBEPAU?$_Tree_node@U?$pair@$$CBW4SDL_Scancode@@_N@std@@PAX@2@XZ ; std::_Tree_unchecked_const_iterator<std::_Tree_val<std::_Tree_simple_types<std::pair<enum SDL_Scancode const ,bool> > >,std::_Iterator_base12>::_Mynode
  00411	89 85 84 fd ff
	ff		 mov	 DWORD PTR tv924[ebp], eax
  00417	8b 8d 84 fd ff
	ff		 mov	 ecx, DWORD PTR tv924[ebp]
  0041d	51		 push	 ecx
  0041e	8b 4d e4	 mov	 ecx, DWORD PTR _this$[ebp]
  00421	e8 00 00 00 00	 call	 ?_Key@?$_Tree@V?$_Tmap_traits@W4SDL_Scancode@@_NU?$less@W4SDL_Scancode@@@std@@V?$allocator@U?$pair@$$CBW4SDL_Scancode@@_N@std@@@3@$0A@@std@@@std@@IBEABW4SDL_Scancode@@PAU?$_Tree_node@U?$pair@$$CBW4SDL_Scancode@@_N@std@@PAX@2@@Z ; std::_Tree<std::_Tmap_traits<enum SDL_Scancode,bool,std::less<enum SDL_Scancode>,std::allocator<std::pair<enum SDL_Scancode const ,bool> >,0> >::_Key
  00426	89 85 80 fd ff
	ff		 mov	 DWORD PTR tv925[ebp], eax
  0042c	8d 95 eb fd ff
	ff		 lea	 edx, DWORD PTR $T8[ebp]
  00432	52		 push	 edx
  00433	8b 4d e4	 mov	 ecx, DWORD PTR _this$[ebp]
  00436	e8 00 00 00 00	 call	 ?_Getcomp@?$_Tree_comp@$0A@V?$_Tmap_traits@W4SDL_Scancode@@_NU?$less@W4SDL_Scancode@@@std@@V?$allocator@U?$pair@$$CBW4SDL_Scancode@@_N@std@@@3@$0A@@std@@@std@@QBE?AU?$less@W4SDL_Scancode@@@2@XZ ; std::_Tree_comp<0,std::_Tmap_traits<enum SDL_Scancode,bool,std::less<enum SDL_Scancode>,std::allocator<std::pair<enum SDL_Scancode const ,bool> >,0> >::_Getcomp
  0043b	89 85 7c fd ff
	ff		 mov	 DWORD PTR tv926[ebp], eax
  00441	68 9f 06 00 00	 push	 1695			; 0000069fH
  00446	68 00 00 00 00	 push	 OFFSET ??_C@_1IK@HBAODOLH@?$AAc?$AA?3?$AA?2?$AAp?$AAr?$AAo?$AAg?$AAr?$AAa?$AAm?$AA?5?$AAf?$AAi?$AAl?$AAe?$AAs?$AA?5?$AA?$CI?$AAx?$AA8?$AA6?$AA?$CJ?$AA?2?$AAm?$AAi?$AAc?$AAr?$AAo?$AAs?$AAo?$AAf?$AAt@
  0044b	8b 85 88 fd ff
	ff		 mov	 eax, DWORD PTR tv923[ebp]
  00451	50		 push	 eax
  00452	8b 8d 80 fd ff
	ff		 mov	 ecx, DWORD PTR tv925[ebp]
  00458	51		 push	 ecx
  00459	8b 95 7c fd ff
	ff		 mov	 edx, DWORD PTR tv926[ebp]
  0045f	0f b6 02	 movzx	 eax, BYTE PTR [edx]
  00462	50		 push	 eax
  00463	e8 00 00 00 00	 call	 ??$_Debug_lt_pred@U?$less@W4SDL_Scancode@@@std@@ABW4SDL_Scancode@@ABW43@@std@@YA_NU?$less@W4SDL_Scancode@@@0@ABW4SDL_Scancode@@1PB_WI@Z ; std::_Debug_lt_pred<std::less<enum SDL_Scancode>,enum SDL_Scancode const &,enum SDL_Scancode const &>
  00468	83 c4 14	 add	 esp, 20			; 00000014H
  0046b	88 85 7b fd ff
	ff		 mov	 BYTE PTR tv927[ebp], al
  00471	0f b6 8d 7b fd
	ff ff		 movzx	 ecx, BYTE PTR tv927[ebp]
  00478	85 c9		 test	 ecx, ecx
  0047a	0f 85 e1 01 00
	00		 jne	 $LN22@Insert_hin
  00480	8d 45 0c	 lea	 eax, DWORD PTR __Where$[ebp]
  00483	50		 push	 eax
  00484	8d 4d d0	 lea	 ecx, DWORD PTR __Next$[ebp]
  00487	e8 00 00 00 00	 call	 ??4?$_Tree_const_iterator@V?$_Tree_val@U?$_Tree_simple_types@U?$pair@$$CBW4SDL_Scancode@@_N@std@@@std@@@std@@@std@@QAEAAV01@ABV01@@Z
  0048c	89 85 88 fd ff
	ff		 mov	 DWORD PTR tv928[ebp], eax
  00492	8b 8d 88 fd ff
	ff		 mov	 ecx, DWORD PTR tv928[ebp]
  00498	e8 00 00 00 00	 call	 ??F?$_Tree_const_iterator@V?$_Tree_val@U?$_Tree_simple_types@U?$pair@$$CBW4SDL_Scancode@@_N@std@@@std@@@std@@@std@@QAEAAV01@XZ ; std::_Tree_const_iterator<std::_Tree_val<std::_Tree_simple_types<std::pair<enum SDL_Scancode const ,bool> > > >::operator--
  0049d	89 85 84 fd ff
	ff		 mov	 DWORD PTR tv929[ebp], eax
  004a3	8b 8d 84 fd ff
	ff		 mov	 ecx, DWORD PTR tv929[ebp]
  004a9	e8 00 00 00 00	 call	 ?_Mynode@?$_Tree_unchecked_const_iterator@V?$_Tree_val@U?$_Tree_simple_types@U?$pair@$$CBW4SDL_Scancode@@_N@std@@@std@@@std@@U_Iterator_base12@2@@std@@QBEPAU?$_Tree_node@U?$pair@$$CBW4SDL_Scancode@@_N@std@@PAX@2@XZ ; std::_Tree_unchecked_const_iterator<std::_Tree_val<std::_Tree_simple_types<std::pair<enum SDL_Scancode const ,bool> > >,std::_Iterator_base12>::_Mynode
  004ae	89 85 80 fd ff
	ff		 mov	 DWORD PTR tv930[ebp], eax
  004b4	8b 8d 80 fd ff
	ff		 mov	 ecx, DWORD PTR tv930[ebp]
  004ba	51		 push	 ecx
  004bb	8b 4d e4	 mov	 ecx, DWORD PTR _this$[ebp]
  004be	e8 00 00 00 00	 call	 ?_Key@?$_Tree@V?$_Tmap_traits@W4SDL_Scancode@@_NU?$less@W4SDL_Scancode@@@std@@V?$allocator@U?$pair@$$CBW4SDL_Scancode@@_N@std@@@3@$0A@@std@@@std@@IBEABW4SDL_Scancode@@PAU?$_Tree_node@U?$pair@$$CBW4SDL_Scancode@@_N@std@@PAX@2@@Z ; std::_Tree<std::_Tmap_traits<enum SDL_Scancode,bool,std::less<enum SDL_Scancode>,std::allocator<std::pair<enum SDL_Scancode const ,bool> >,0> >::_Key
  004c3	89 85 7c fd ff
	ff		 mov	 DWORD PTR tv931[ebp], eax
  004c9	8b 55 18	 mov	 edx, DWORD PTR __Val$[ebp]
  004cc	52		 push	 edx
  004cd	8b 4d e4	 mov	 ecx, DWORD PTR _this$[ebp]
  004d0	e8 00 00 00 00	 call	 ?_Kfn@?$_Tree@V?$_Tmap_traits@W4SDL_Scancode@@_NU?$less@W4SDL_Scancode@@@std@@V?$allocator@U?$pair@$$CBW4SDL_Scancode@@_N@std@@@3@$0A@@std@@@std@@IBEABW4SDL_Scancode@@ABU?$pair@$$CBW4SDL_Scancode@@_N@2@@Z ; std::_Tree<std::_Tmap_traits<enum SDL_Scancode,bool,std::less<enum SDL_Scancode>,std::allocator<std::pair<enum SDL_Scancode const ,bool> >,0> >::_Kfn
  004d5	89 85 78 fd ff
	ff		 mov	 DWORD PTR tv932[ebp], eax
  004db	8d 85 f7 fd ff
	ff		 lea	 eax, DWORD PTR $T9[ebp]
  004e1	50		 push	 eax
  004e2	8b 4d e4	 mov	 ecx, DWORD PTR _this$[ebp]
  004e5	e8 00 00 00 00	 call	 ?_Getcomp@?$_Tree_comp@$0A@V?$_Tmap_traits@W4SDL_Scancode@@_NU?$less@W4SDL_Scancode@@@std@@V?$allocator@U?$pair@$$CBW4SDL_Scancode@@_N@std@@@3@$0A@@std@@@std@@QBE?AU?$less@W4SDL_Scancode@@@2@XZ ; std::_Tree_comp<0,std::_Tmap_traits<enum SDL_Scancode,bool,std::less<enum SDL_Scancode>,std::allocator<std::pair<enum SDL_Scancode const ,bool> >,0> >::_Getcomp
  004ea	89 85 74 fd ff
	ff		 mov	 DWORD PTR tv933[ebp], eax
  004f0	68 a2 06 00 00	 push	 1698			; 000006a2H
  004f5	68 00 00 00 00	 push	 OFFSET ??_C@_1IK@HBAODOLH@?$AAc?$AA?3?$AA?2?$AAp?$AAr?$AAo?$AAg?$AAr?$AAa?$AAm?$AA?5?$AAf?$AAi?$AAl?$AAe?$AAs?$AA?5?$AA?$CI?$AAx?$AA8?$AA6?$AA?$CJ?$AA?2?$AAm?$AAi?$AAc?$AAr?$AAo?$AAs?$AAo?$AAf?$AAt@
  004fa	8b 8d 7c fd ff
	ff		 mov	 ecx, DWORD PTR tv931[ebp]
  00500	51		 push	 ecx
  00501	8b 95 78 fd ff
	ff		 mov	 edx, DWORD PTR tv932[ebp]
  00507	52		 push	 edx
  00508	8b 85 74 fd ff
	ff		 mov	 eax, DWORD PTR tv933[ebp]
  0050e	0f b6 08	 movzx	 ecx, BYTE PTR [eax]
  00511	51		 push	 ecx
  00512	e8 00 00 00 00	 call	 ??$_Debug_lt_pred@U?$less@W4SDL_Scancode@@@std@@ABW4SDL_Scancode@@ABW43@@std@@YA_NU?$less@W4SDL_Scancode@@@0@ABW4SDL_Scancode@@1PB_WI@Z ; std::_Debug_lt_pred<std::less<enum SDL_Scancode>,enum SDL_Scancode const &,enum SDL_Scancode const &>
  00517	83 c4 14	 add	 esp, 20			; 00000014H
  0051a	88 85 73 fd ff
	ff		 mov	 BYTE PTR tv934[ebp], al
  00520	0f b6 95 73 fd
	ff ff		 movzx	 edx, BYTE PTR tv934[ebp]
  00527	85 d2		 test	 edx, edx
  00529	0f 85 32 01 00
	00		 jne	 $LN22@Insert_hin
; Line 1700
  0052f	8d 4d d0	 lea	 ecx, DWORD PTR __Next$[ebp]
  00532	e8 00 00 00 00	 call	 ?_Mynode@?$_Tree_unchecked_const_iterator@V?$_Tree_val@U?$_Tree_simple_types@U?$pair@$$CBW4SDL_Scancode@@_N@std@@@std@@@std@@U_Iterator_base12@2@@std@@QBEPAU?$_Tree_node@U?$pair@$$CBW4SDL_Scancode@@_N@std@@PAX@2@XZ ; std::_Tree_unchecked_const_iterator<std::_Tree_val<std::_Tree_simple_types<std::pair<enum SDL_Scancode const ,bool> > >,std::_Iterator_base12>::_Mynode
  00537	89 85 88 fd ff
	ff		 mov	 DWORD PTR tv935[ebp], eax
  0053d	8b 85 88 fd ff
	ff		 mov	 eax, DWORD PTR tv935[ebp]
  00543	50		 push	 eax
  00544	e8 00 00 00 00	 call	 ?_Right@?$_Tree_val@U?$_Tree_simple_types@U?$pair@$$CBW4SDL_Scancode@@_N@std@@@std@@@std@@SAAAPAU?$_Tree_node@U?$pair@$$CBW4SDL_Scancode@@_N@std@@PAX@2@PAU32@@Z ; std::_Tree_val<std::_Tree_simple_types<std::pair<enum SDL_Scancode const ,bool> > >::_Right
  00549	83 c4 04	 add	 esp, 4
  0054c	89 85 84 fd ff
	ff		 mov	 DWORD PTR tv936[ebp], eax
  00552	8b 8d 84 fd ff
	ff		 mov	 ecx, DWORD PTR tv936[ebp]
  00558	8b 11		 mov	 edx, DWORD PTR [ecx]
  0055a	52		 push	 edx
  0055b	e8 00 00 00 00	 call	 ?_Isnil@?$_Tree_val@U?$_Tree_simple_types@U?$pair@$$CBW4SDL_Scancode@@_N@std@@@std@@@std@@SAAADPAU?$_Tree_node@U?$pair@$$CBW4SDL_Scancode@@_N@std@@PAX@2@@Z ; std::_Tree_val<std::_Tree_simple_types<std::pair<enum SDL_Scancode const ,bool> > >::_Isnil
  00560	83 c4 04	 add	 esp, 4
  00563	89 85 80 fd ff
	ff		 mov	 DWORD PTR tv937[ebp], eax
  00569	8b 85 80 fd ff
	ff		 mov	 eax, DWORD PTR tv937[ebp]
  0056f	0f be 08	 movsx	 ecx, BYTE PTR [eax]
  00572	85 c9		 test	 ecx, ecx
  00574	74 74		 je	 SHORT $LN21@Insert_hin
; Line 1702
  00576	8b 45 18	 mov	 eax, DWORD PTR __Val$[ebp]
  00579	50		 push	 eax
  0057a	e8 00 00 00 00	 call	 ??$forward@AAU?$pair@$$CBW4SDL_Scancode@@_N@std@@@std@@YAAAU?$pair@$$CBW4SDL_Scancode@@_N@0@AAU10@@Z ; std::forward<std::pair<enum SDL_Scancode const ,bool> &>
  0057f	83 c4 04	 add	 esp, 4
  00582	89 85 88 fd ff
	ff		 mov	 DWORD PTR tv938[ebp], eax
  00588	8d 4d d0	 lea	 ecx, DWORD PTR __Next$[ebp]
  0058b	e8 00 00 00 00	 call	 ?_Mynode@?$_Tree_unchecked_const_iterator@V?$_Tree_val@U?$_Tree_simple_types@U?$pair@$$CBW4SDL_Scancode@@_N@std@@@std@@@std@@U_Iterator_base12@2@@std@@QBEPAU?$_Tree_node@U?$pair@$$CBW4SDL_Scancode@@_N@std@@PAX@2@XZ ; std::_Tree_unchecked_const_iterator<std::_Tree_val<std::_Tree_simple_types<std::pair<enum SDL_Scancode const ,bool> > >,std::_Iterator_base12>::_Mynode
  00590	89 85 84 fd ff
	ff		 mov	 DWORD PTR tv939[ebp], eax
  00596	8b 4d 1c	 mov	 ecx, DWORD PTR __Newnode$[ebp]
  00599	51		 push	 ecx
  0059a	8b 95 88 fd ff
	ff		 mov	 edx, DWORD PTR tv938[ebp]
  005a0	52		 push	 edx
  005a1	8b 85 84 fd ff
	ff		 mov	 eax, DWORD PTR tv939[ebp]
  005a7	50		 push	 eax
  005a8	6a 00		 push	 0
  005aa	8b 4d 08	 mov	 ecx, DWORD PTR ___$ReturnUdt$[ebp]
  005ad	51		 push	 ecx
  005ae	8b 4d e4	 mov	 ecx, DWORD PTR _this$[ebp]
  005b1	e8 00 00 00 00	 call	 ??$_Insert_at@AAU?$pair@$$CBW4SDL_Scancode@@_N@std@@PAU?$_Tree_node@U?$pair@$$CBW4SDL_Scancode@@_N@std@@PAX@2@@?$_Tree@V?$_Tmap_traits@W4SDL_Scancode@@_NU?$less@W4SDL_Scancode@@@std@@V?$allocator@U?$pair@$$CBW4SDL_Scancode@@_N@std@@@3@$0A@@std@@@std@@IAE?AV?$_Tree_iterator@V?$_Tree_val@U?$_Tree_simple_types@U?$pair@$$CBW4SDL_Scancode@@_N@std@@@std@@@std@@@1@_NPAU?$_Tree_node@U?$pair@$$CBW4SDL_Scancode@@_N@std@@PAX@1@AAU?$pair@$$CBW4SDL_Scancode@@_N@1@1@Z ; std::_Tree<std::_Tmap_traits<enum SDL_Scancode,bool,std::less<enum SDL_Scancode>,std::allocator<std::pair<enum SDL_Scancode const ,bool> >,0> >::_Insert_at<std::pair<enum SDL_Scancode const ,bool> &,std::_Tree_node<std::pair<enum SDL_Scancode const ,bool>,void *> *>
  005b6	8b 95 f8 fe ff
	ff		 mov	 edx, DWORD PTR $T27[ebp]
  005bc	83 ca 01	 or	 edx, 1
  005bf	89 95 f8 fe ff
	ff		 mov	 DWORD PTR $T27[ebp], edx
  005c5	c6 45 fc 00	 mov	 BYTE PTR __$EHRec$[ebp+12], 0
  005c9	8d 4d d0	 lea	 ecx, DWORD PTR __Next$[ebp]
  005cc	e8 00 00 00 00	 call	 ??1?$_Tree_const_iterator@V?$_Tree_val@U?$_Tree_simple_types@U?$pair@$$CBW4SDL_Scancode@@_N@std@@@std@@@std@@@std@@QAE@XZ
  005d1	c7 45 fc ff ff
	ff ff		 mov	 DWORD PTR __$EHRec$[ebp+12], -1
  005d8	8d 4d 0c	 lea	 ecx, DWORD PTR __Where$[ebp]
  005db	e8 00 00 00 00	 call	 ??1?$_Tree_const_iterator@V?$_Tree_val@U?$_Tree_simple_types@U?$pair@$$CBW4SDL_Scancode@@_N@std@@@std@@@std@@@std@@QAE@XZ
  005e0	8b 45 08	 mov	 eax, DWORD PTR ___$ReturnUdt$[ebp]
  005e3	e9 81 0c 00 00	 jmp	 $LN35@Insert_hin
; Line 1703
  005e8	eb 72		 jmp	 SHORT $LN20@Insert_hin
$LN21@Insert_hin:
; Line 1705
  005ea	8b 45 18	 mov	 eax, DWORD PTR __Val$[ebp]
  005ed	50		 push	 eax
  005ee	e8 00 00 00 00	 call	 ??$forward@AAU?$pair@$$CBW4SDL_Scancode@@_N@std@@@std@@YAAAU?$pair@$$CBW4SDL_Scancode@@_N@0@AAU10@@Z ; std::forward<std::pair<enum SDL_Scancode const ,bool> &>
  005f3	83 c4 04	 add	 esp, 4
  005f6	89 85 88 fd ff
	ff		 mov	 DWORD PTR tv940[ebp], eax
  005fc	8d 4d 0c	 lea	 ecx, DWORD PTR __Where$[ebp]
  005ff	e8 00 00 00 00	 call	 ?_Mynode@?$_Tree_unchecked_const_iterator@V?$_Tree_val@U?$_Tree_simple_types@U?$pair@$$CBW4SDL_Scancode@@_N@std@@@std@@@std@@U_Iterator_base12@2@@std@@QBEPAU?$_Tree_node@U?$pair@$$CBW4SDL_Scancode@@_N@std@@PAX@2@XZ ; std::_Tree_unchecked_const_iterator<std::_Tree_val<std::_Tree_simple_types<std::pair<enum SDL_Scancode const ,bool> > >,std::_Iterator_base12>::_Mynode
  00604	89 85 84 fd ff
	ff		 mov	 DWORD PTR tv941[ebp], eax
  0060a	8b 4d 1c	 mov	 ecx, DWORD PTR __Newnode$[ebp]
  0060d	51		 push	 ecx
  0060e	8b 95 88 fd ff
	ff		 mov	 edx, DWORD PTR tv940[ebp]
  00614	52		 push	 edx
  00615	8b 85 84 fd ff
	ff		 mov	 eax, DWORD PTR tv941[ebp]
  0061b	50		 push	 eax
  0061c	6a 01		 push	 1
  0061e	8b 4d 08	 mov	 ecx, DWORD PTR ___$ReturnUdt$[ebp]
  00621	51		 push	 ecx
  00622	8b 4d e4	 mov	 ecx, DWORD PTR _this$[ebp]
  00625	e8 00 00 00 00	 call	 ??$_Insert_at@AAU?$pair@$$CBW4SDL_Scancode@@_N@std@@PAU?$_Tree_node@U?$pair@$$CBW4SDL_Scancode@@_N@std@@PAX@2@@?$_Tree@V?$_Tmap_traits@W4SDL_Scancode@@_NU?$less@W4SDL_Scancode@@@std@@V?$allocator@U?$pair@$$CBW4SDL_Scancode@@_N@std@@@3@$0A@@std@@@std@@IAE?AV?$_Tree_iterator@V?$_Tree_val@U?$_Tree_simple_types@U?$pair@$$CBW4SDL_Scancode@@_N@std@@@std@@@std@@@1@_NPAU?$_Tree_node@U?$pair@$$CBW4SDL_Scancode@@_N@std@@PAX@1@AAU?$pair@$$CBW4SDL_Scancode@@_N@1@1@Z ; std::_Tree<std::_Tmap_traits<enum SDL_Scancode,bool,std::less<enum SDL_Scancode>,std::allocator<std::pair<enum SDL_Scancode const ,bool> >,0> >::_Insert_at<std::pair<enum SDL_Scancode const ,bool> &,std::_Tree_node<std::pair<enum SDL_Scancode const ,bool>,void *> *>
  0062a	8b 95 f8 fe ff
	ff		 mov	 edx, DWORD PTR $T27[ebp]
  00630	83 ca 01	 or	 edx, 1
  00633	89 95 f8 fe ff
	ff		 mov	 DWORD PTR $T27[ebp], edx
  00639	c6 45 fc 00	 mov	 BYTE PTR __$EHRec$[ebp+12], 0
  0063d	8d 4d d0	 lea	 ecx, DWORD PTR __Next$[ebp]
  00640	e8 00 00 00 00	 call	 ??1?$_Tree_const_iterator@V?$_Tree_val@U?$_Tree_simple_types@U?$pair@$$CBW4SDL_Scancode@@_N@std@@@std@@@std@@@std@@QAE@XZ
  00645	c7 45 fc ff ff
	ff ff		 mov	 DWORD PTR __$EHRec$[ebp+12], -1
  0064c	8d 4d 0c	 lea	 ecx, DWORD PTR __Where$[ebp]
  0064f	e8 00 00 00 00	 call	 ??1?$_Tree_const_iterator@V?$_Tree_val@U?$_Tree_simple_types@U?$pair@$$CBW4SDL_Scancode@@_N@std@@@std@@@std@@@std@@QAE@XZ
  00654	8b 45 08	 mov	 eax, DWORD PTR ___$ReturnUdt$[ebp]
  00657	e9 0d 0c 00 00	 jmp	 $LN35@Insert_hin
$LN20@Insert_hin:
; Line 1707
  0065c	e9 14 03 00 00	 jmp	 $LN26@Insert_hin
$LN22@Insert_hin:
; Line 1710
  00661	8d 4d 0c	 lea	 ecx, DWORD PTR __Where$[ebp]
  00664	e8 00 00 00 00	 call	 ?_Mynode@?$_Tree_unchecked_const_iterator@V?$_Tree_val@U?$_Tree_simple_types@U?$pair@$$CBW4SDL_Scancode@@_N@std@@@std@@@std@@U_Iterator_base12@2@@std@@QBEPAU?$_Tree_node@U?$pair@$$CBW4SDL_Scancode@@_N@std@@PAX@2@XZ ; std::_Tree_unchecked_const_iterator<std::_Tree_val<std::_Tree_simple_types<std::pair<enum SDL_Scancode const ,bool> > >,std::_Iterator_base12>::_Mynode
  00669	89 85 88 fd ff
	ff		 mov	 DWORD PTR tv942[ebp], eax
  0066f	8b 85 88 fd ff
	ff		 mov	 eax, DWORD PTR tv942[ebp]
  00675	50		 push	 eax
  00676	8b 4d e4	 mov	 ecx, DWORD PTR _this$[ebp]
  00679	e8 00 00 00 00	 call	 ?_Key@?$_Tree@V?$_Tmap_traits@W4SDL_Scancode@@_NU?$less@W4SDL_Scancode@@@std@@V?$allocator@U?$pair@$$CBW4SDL_Scancode@@_N@std@@@3@$0A@@std@@@std@@IBEABW4SDL_Scancode@@PAU?$_Tree_node@U?$pair@$$CBW4SDL_Scancode@@_N@std@@PAX@2@@Z ; std::_Tree<std::_Tmap_traits<enum SDL_Scancode,bool,std::less<enum SDL_Scancode>,std::allocator<std::pair<enum SDL_Scancode const ,bool> >,0> >::_Key
  0067e	89 85 84 fd ff
	ff		 mov	 DWORD PTR tv943[ebp], eax
  00684	8b 4d 18	 mov	 ecx, DWORD PTR __Val$[ebp]
  00687	51		 push	 ecx
  00688	8b 4d e4	 mov	 ecx, DWORD PTR _this$[ebp]
  0068b	e8 00 00 00 00	 call	 ?_Kfn@?$_Tree@V?$_Tmap_traits@W4SDL_Scancode@@_NU?$less@W4SDL_Scancode@@@std@@V?$allocator@U?$pair@$$CBW4SDL_Scancode@@_N@std@@@3@$0A@@std@@@std@@IBEABW4SDL_Scancode@@ABU?$pair@$$CBW4SDL_Scancode@@_N@2@@Z ; std::_Tree<std::_Tmap_traits<enum SDL_Scancode,bool,std::less<enum SDL_Scancode>,std::allocator<std::pair<enum SDL_Scancode const ,bool> >,0> >::_Kfn
  00690	89 85 80 fd ff
	ff		 mov	 DWORD PTR tv944[ebp], eax
  00696	8d 95 0f fe ff
	ff		 lea	 edx, DWORD PTR $T11[ebp]
  0069c	52		 push	 edx
  0069d	8b 4d e4	 mov	 ecx, DWORD PTR _this$[ebp]
  006a0	e8 00 00 00 00	 call	 ?_Getcomp@?$_Tree_comp@$0A@V?$_Tmap_traits@W4SDL_Scancode@@_NU?$less@W4SDL_Scancode@@@std@@V?$allocator@U?$pair@$$CBW4SDL_Scancode@@_N@std@@@3@$0A@@std@@@std@@QBE?AU?$less@W4SDL_Scancode@@@2@XZ ; std::_Tree_comp<0,std::_Tmap_traits<enum SDL_Scancode,bool,std::less<enum SDL_Scancode>,std::allocator<std::pair<enum SDL_Scancode const ,bool> >,0> >::_Getcomp
  006a5	89 85 7c fd ff
	ff		 mov	 DWORD PTR tv945[ebp], eax
  006ab	68 ac 06 00 00	 push	 1708			; 000006acH
  006b0	68 00 00 00 00	 push	 OFFSET ??_C@_1IK@HBAODOLH@?$AAc?$AA?3?$AA?2?$AAp?$AAr?$AAo?$AAg?$AAr?$AAa?$AAm?$AA?5?$AAf?$AAi?$AAl?$AAe?$AAs?$AA?5?$AA?$CI?$AAx?$AA8?$AA6?$AA?$CJ?$AA?2?$AAm?$AAi?$AAc?$AAr?$AAo?$AAs?$AAo?$AAf?$AAt@
  006b5	8b 85 84 fd ff
	ff		 mov	 eax, DWORD PTR tv943[ebp]
  006bb	50		 push	 eax
  006bc	8b 8d 80 fd ff
	ff		 mov	 ecx, DWORD PTR tv944[ebp]
  006c2	51		 push	 ecx
  006c3	8b 95 7c fd ff
	ff		 mov	 edx, DWORD PTR tv945[ebp]
  006c9	0f b6 02	 movzx	 eax, BYTE PTR [edx]
  006cc	50		 push	 eax
  006cd	e8 00 00 00 00	 call	 ??$_Debug_lt_pred@U?$less@W4SDL_Scancode@@@std@@ABW4SDL_Scancode@@ABW43@@std@@YA_NU?$less@W4SDL_Scancode@@@0@ABW4SDL_Scancode@@1PB_WI@Z ; std::_Debug_lt_pred<std::less<enum SDL_Scancode>,enum SDL_Scancode const &,enum SDL_Scancode const &>
  006d2	83 c4 14	 add	 esp, 20			; 00000014H
  006d5	88 85 7b fd ff
	ff		 mov	 BYTE PTR tv946[ebp], al
  006db	0f b6 8d 7b fd
	ff ff		 movzx	 ecx, BYTE PTR tv946[ebp]
  006e2	85 c9		 test	 ecx, ecx
  006e4	0f 85 0f 01 00
	00		 jne	 $LN37@Insert_hin
  006ea	8d 95 18 fe ff
	ff		 lea	 edx, DWORD PTR $T12[ebp]
  006f0	52		 push	 edx
  006f1	8b 4d e4	 mov	 ecx, DWORD PTR _this$[ebp]
  006f4	e8 00 00 00 00	 call	 ?end@?$_Tree@V?$_Tmap_traits@W4SDL_Scancode@@_NU?$less@W4SDL_Scancode@@@std@@V?$allocator@U?$pair@$$CBW4SDL_Scancode@@_N@std@@@3@$0A@@std@@@std@@QAE?AV?$_Tree_iterator@V?$_Tree_val@U?$_Tree_simple_types@U?$pair@$$CBW4SDL_Scancode@@_N@std@@@std@@@std@@@2@XZ ; std::_Tree<std::_Tmap_traits<enum SDL_Scancode,bool,std::less<enum SDL_Scancode>,std::allocator<std::pair<enum SDL_Scancode const ,bool> >,0> >::end
  006f9	89 85 74 fd ff
	ff		 mov	 DWORD PTR tv947[ebp], eax
  006ff	8b 85 74 fd ff
	ff		 mov	 eax, DWORD PTR tv947[ebp]
  00705	89 85 70 fd ff
	ff		 mov	 DWORD PTR tv874[ebp], eax
  0070b	c6 45 fc 05	 mov	 BYTE PTR __$EHRec$[ebp+12], 5
  0070f	8b 8d f8 fe ff
	ff		 mov	 ecx, DWORD PTR $T27[ebp]
  00715	83 c9 02	 or	 ecx, 2
  00718	89 8d f8 fe ff
	ff		 mov	 DWORD PTR $T27[ebp], ecx
  0071e	8d 55 0c	 lea	 edx, DWORD PTR __Where$[ebp]
  00721	52		 push	 edx
  00722	8d 4d d0	 lea	 ecx, DWORD PTR __Next$[ebp]
  00725	e8 00 00 00 00	 call	 ??4?$_Tree_const_iterator@V?$_Tree_val@U?$_Tree_simple_types@U?$pair@$$CBW4SDL_Scancode@@_N@std@@@std@@@std@@@std@@QAEAAV01@ABV01@@Z
  0072a	89 85 6c fd ff
	ff		 mov	 DWORD PTR tv951[ebp], eax
  00730	8b 8d 6c fd ff
	ff		 mov	 ecx, DWORD PTR tv951[ebp]
  00736	e8 00 00 00 00	 call	 ??E?$_Tree_const_iterator@V?$_Tree_val@U?$_Tree_simple_types@U?$pair@$$CBW4SDL_Scancode@@_N@std@@@std@@@std@@@std@@QAEAAV01@XZ ; std::_Tree_const_iterator<std::_Tree_val<std::_Tree_simple_types<std::pair<enum SDL_Scancode const ,bool> > > >::operator++
  0073b	89 85 68 fd ff
	ff		 mov	 DWORD PTR tv952[ebp], eax
  00741	8b 85 70 fd ff
	ff		 mov	 eax, DWORD PTR tv874[ebp]
  00747	50		 push	 eax
  00748	8b 8d 68 fd ff
	ff		 mov	 ecx, DWORD PTR tv952[ebp]
  0074e	e8 00 00 00 00	 call	 ??8?$_Tree_const_iterator@V?$_Tree_val@U?$_Tree_simple_types@U?$pair@$$CBW4SDL_Scancode@@_N@std@@@std@@@std@@@std@@QBE_NABV01@@Z ; std::_Tree_const_iterator<std::_Tree_val<std::_Tree_simple_types<std::pair<enum SDL_Scancode const ,bool> > > >::operator==
  00753	88 85 67 fd ff
	ff		 mov	 BYTE PTR tv953[ebp], al
  00759	0f b6 8d 67 fd
	ff ff		 movzx	 ecx, BYTE PTR tv953[ebp]
  00760	85 c9		 test	 ecx, ecx
  00762	0f 85 85 00 00
	00		 jne	 $LN36@Insert_hin
  00768	8b 55 18	 mov	 edx, DWORD PTR __Val$[ebp]
  0076b	52		 push	 edx
  0076c	8b 4d e4	 mov	 ecx, DWORD PTR _this$[ebp]
  0076f	e8 00 00 00 00	 call	 ?_Kfn@?$_Tree@V?$_Tmap_traits@W4SDL_Scancode@@_NU?$less@W4SDL_Scancode@@@std@@V?$allocator@U?$pair@$$CBW4SDL_Scancode@@_N@std@@@3@$0A@@std@@@std@@IBEABW4SDL_Scancode@@ABU?$pair@$$CBW4SDL_Scancode@@_N@2@@Z ; std::_Tree<std::_Tmap_traits<enum SDL_Scancode,bool,std::less<enum SDL_Scancode>,std::allocator<std::pair<enum SDL_Scancode const ,bool> >,0> >::_Kfn
  00774	89 85 60 fd ff
	ff		 mov	 DWORD PTR tv954[ebp], eax
  0077a	8d 4d d0	 lea	 ecx, DWORD PTR __Next$[ebp]
  0077d	e8 00 00 00 00	 call	 ?_Mynode@?$_Tree_unchecked_const_iterator@V?$_Tree_val@U?$_Tree_simple_types@U?$pair@$$CBW4SDL_Scancode@@_N@std@@@std@@@std@@U_Iterator_base12@2@@std@@QBEPAU?$_Tree_node@U?$pair@$$CBW4SDL_Scancode@@_N@std@@PAX@2@XZ ; std::_Tree_unchecked_const_iterator<std::_Tree_val<std::_Tree_simple_types<std::pair<enum SDL_Scancode const ,bool> > >,std::_Iterator_base12>::_Mynode
  00782	89 85 5c fd ff
	ff		 mov	 DWORD PTR tv955[ebp], eax
  00788	8b 85 5c fd ff
	ff		 mov	 eax, DWORD PTR tv955[ebp]
  0078e	50		 push	 eax
  0078f	8b 4d e4	 mov	 ecx, DWORD PTR _this$[ebp]
  00792	e8 00 00 00 00	 call	 ?_Key@?$_Tree@V?$_Tmap_traits@W4SDL_Scancode@@_NU?$less@W4SDL_Scancode@@@std@@V?$allocator@U?$pair@$$CBW4SDL_Scancode@@_N@std@@@3@$0A@@std@@@std@@IBEABW4SDL_Scancode@@PAU?$_Tree_node@U?$pair@$$CBW4SDL_Scancode@@_N@std@@PAX@2@@Z ; std::_Tree<std::_Tmap_traits<enum SDL_Scancode,bool,std::less<enum SDL_Scancode>,std::allocator<std::pair<enum SDL_Scancode const ,bool> >,0> >::_Key
  00797	89 85 58 fd ff
	ff		 mov	 DWORD PTR tv956[ebp], eax
  0079d	8d 8d 2f fe ff
	ff		 lea	 ecx, DWORD PTR $T13[ebp]
  007a3	51		 push	 ecx
  007a4	8b 4d e4	 mov	 ecx, DWORD PTR _this$[ebp]
  007a7	e8 00 00 00 00	 call	 ?_Getcomp@?$_Tree_comp@$0A@V?$_Tmap_traits@W4SDL_Scancode@@_NU?$less@W4SDL_Scancode@@@std@@V?$allocator@U?$pair@$$CBW4SDL_Scancode@@_N@std@@@3@$0A@@std@@@std@@QBE?AU?$less@W4SDL_Scancode@@@2@XZ ; std::_Tree_comp<0,std::_Tmap_traits<enum SDL_Scancode,bool,std::less<enum SDL_Scancode>,std::allocator<std::pair<enum SDL_Scancode const ,bool> >,0> >::_Getcomp
  007ac	89 85 54 fd ff
	ff		 mov	 DWORD PTR tv957[ebp], eax
  007b2	68 af 06 00 00	 push	 1711			; 000006afH
  007b7	68 00 00 00 00	 push	 OFFSET ??_C@_1IK@HBAODOLH@?$AAc?$AA?3?$AA?2?$AAp?$AAr?$AAo?$AAg?$AAr?$AAa?$AAm?$AA?5?$AAf?$AAi?$AAl?$AAe?$AAs?$AA?5?$AA?$CI?$AAx?$AA8?$AA6?$AA?$CJ?$AA?2?$AAm?$AAi?$AAc?$AAr?$AAo?$AAs?$AAo?$AAf?$AAt@
  007bc	8b 95 60 fd ff
	ff		 mov	 edx, DWORD PTR tv954[ebp]
  007c2	52		 push	 edx
  007c3	8b 85 58 fd ff
	ff		 mov	 eax, DWORD PTR tv956[ebp]
  007c9	50		 push	 eax
  007ca	8b 8d 54 fd ff
	ff		 mov	 ecx, DWORD PTR tv957[ebp]
  007d0	0f b6 11	 movzx	 edx, BYTE PTR [ecx]
  007d3	52		 push	 edx
  007d4	e8 00 00 00 00	 call	 ??$_Debug_lt_pred@U?$less@W4SDL_Scancode@@@std@@ABW4SDL_Scancode@@ABW43@@std@@YA_NU?$less@W4SDL_Scancode@@@0@ABW4SDL_Scancode@@1PB_WI@Z ; std::_Debug_lt_pred<std::less<enum SDL_Scancode>,enum SDL_Scancode const &,enum SDL_Scancode const &>
  007d9	83 c4 14	 add	 esp, 20			; 00000014H
  007dc	88 85 53 fd ff
	ff		 mov	 BYTE PTR tv958[ebp], al
  007e2	0f b6 85 53 fd
	ff ff		 movzx	 eax, BYTE PTR tv958[ebp]
  007e9	85 c0		 test	 eax, eax
  007eb	75 0c		 jne	 SHORT $LN37@Insert_hin
$LN36@Insert_hin:
  007ed	c7 85 4c fd ff
	ff 01 00 00 00	 mov	 DWORD PTR tv417[ebp], 1
  007f7	eb 0a		 jmp	 SHORT $LN38@Insert_hin
$LN37@Insert_hin:
  007f9	c7 85 4c fd ff
	ff 00 00 00 00	 mov	 DWORD PTR tv417[ebp], 0
$LN38@Insert_hin:
  00803	8a 8d 4c fd ff
	ff		 mov	 cl, BYTE PTR tv417[ebp]
  00809	88 8d 03 fe ff
	ff		 mov	 BYTE PTR $T10[ebp], cl
  0080f	c7 45 fc 02 00
	00 00		 mov	 DWORD PTR __$EHRec$[ebp+12], 2
  00816	8b 95 f8 fe ff
	ff		 mov	 edx, DWORD PTR $T27[ebp]
  0081c	83 e2 02	 and	 edx, 2
  0081f	74 12		 je	 SHORT $LN52@Insert_hin
  00821	83 a5 f8 fe ff
	ff fd		 and	 DWORD PTR $T27[ebp], -3	; fffffffdH
  00828	8d 8d 18 fe ff
	ff		 lea	 ecx, DWORD PTR $T12[ebp]
  0082e	e8 00 00 00 00	 call	 ??1?$_Tree_iterator@V?$_Tree_val@U?$_Tree_simple_types@U?$pair@$$CBW4SDL_Scancode@@_N@std@@@std@@@std@@@std@@QAE@XZ
$LN52@Insert_hin:
  00833	0f b6 85 03 fe
	ff ff		 movzx	 eax, BYTE PTR $T10[ebp]
  0083a	85 c0		 test	 eax, eax
  0083c	0f 84 2f 01 00
	00		 je	 $LN18@Insert_hin
; Line 1713
  00842	8d 4d 0c	 lea	 ecx, DWORD PTR __Where$[ebp]
  00845	e8 00 00 00 00	 call	 ?_Mynode@?$_Tree_unchecked_const_iterator@V?$_Tree_val@U?$_Tree_simple_types@U?$pair@$$CBW4SDL_Scancode@@_N@std@@@std@@@std@@U_Iterator_base12@2@@std@@QBEPAU?$_Tree_node@U?$pair@$$CBW4SDL_Scancode@@_N@std@@PAX@2@XZ ; std::_Tree_unchecked_const_iterator<std::_Tree_val<std::_Tree_simple_types<std::pair<enum SDL_Scancode const ,bool> > >,std::_Iterator_base12>::_Mynode
  0084a	89 85 88 fd ff
	ff		 mov	 DWORD PTR tv959[ebp], eax
  00850	8b 85 88 fd ff
	ff		 mov	 eax, DWORD PTR tv959[ebp]
  00856	50		 push	 eax
  00857	e8 00 00 00 00	 call	 ?_Right@?$_Tree_val@U?$_Tree_simple_types@U?$pair@$$CBW4SDL_Scancode@@_N@std@@@std@@@std@@SAAAPAU?$_Tree_node@U?$pair@$$CBW4SDL_Scancode@@_N@std@@PAX@2@PAU32@@Z ; std::_Tree_val<std::_Tree_simple_types<std::pair<enum SDL_Scancode const ,bool> > >::_Right
  0085c	83 c4 04	 add	 esp, 4
  0085f	89 85 84 fd ff
	ff		 mov	 DWORD PTR tv960[ebp], eax
  00865	8b 8d 84 fd ff
	ff		 mov	 ecx, DWORD PTR tv960[ebp]
  0086b	8b 11		 mov	 edx, DWORD PTR [ecx]
  0086d	52		 push	 edx
  0086e	e8 00 00 00 00	 call	 ?_Isnil@?$_Tree_val@U?$_Tree_simple_types@U?$pair@$$CBW4SDL_Scancode@@_N@std@@@std@@@std@@SAAADPAU?$_Tree_node@U?$pair@$$CBW4SDL_Scancode@@_N@std@@PAX@2@@Z ; std::_Tree_val<std::_Tree_simple_types<std::pair<enum SDL_Scancode const ,bool> > >::_Isnil
  00873	83 c4 04	 add	 esp, 4
  00876	89 85 80 fd ff
	ff		 mov	 DWORD PTR tv961[ebp], eax
  0087c	8b 85 80 fd ff
	ff		 mov	 eax, DWORD PTR tv961[ebp]
  00882	0f be 08	 movsx	 ecx, BYTE PTR [eax]
  00885	85 c9		 test	 ecx, ecx
  00887	74 74		 je	 SHORT $LN17@Insert_hin
; Line 1715
  00889	8b 45 18	 mov	 eax, DWORD PTR __Val$[ebp]
  0088c	50		 push	 eax
  0088d	e8 00 00 00 00	 call	 ??$forward@AAU?$pair@$$CBW4SDL_Scancode@@_N@std@@@std@@YAAAU?$pair@$$CBW4SDL_Scancode@@_N@0@AAU10@@Z ; std::forward<std::pair<enum SDL_Scancode const ,bool> &>
  00892	83 c4 04	 add	 esp, 4
  00895	89 85 88 fd ff
	ff		 mov	 DWORD PTR tv962[ebp], eax
  0089b	8d 4d 0c	 lea	 ecx, DWORD PTR __Where$[ebp]
  0089e	e8 00 00 00 00	 call	 ?_Mynode@?$_Tree_unchecked_const_iterator@V?$_Tree_val@U?$_Tree_simple_types@U?$pair@$$CBW4SDL_Scancode@@_N@std@@@std@@@std@@U_Iterator_base12@2@@std@@QBEPAU?$_Tree_node@U?$pair@$$CBW4SDL_Scancode@@_N@std@@PAX@2@XZ ; std::_Tree_unchecked_const_iterator<std::_Tree_val<std::_Tree_simple_types<std::pair<enum SDL_Scancode const ,bool> > >,std::_Iterator_base12>::_Mynode
  008a3	89 85 84 fd ff
	ff		 mov	 DWORD PTR tv963[ebp], eax
  008a9	8b 4d 1c	 mov	 ecx, DWORD PTR __Newnode$[ebp]
  008ac	51		 push	 ecx
  008ad	8b 95 88 fd ff
	ff		 mov	 edx, DWORD PTR tv962[ebp]
  008b3	52		 push	 edx
  008b4	8b 85 84 fd ff
	ff		 mov	 eax, DWORD PTR tv963[ebp]
  008ba	50		 push	 eax
  008bb	6a 00		 push	 0
  008bd	8b 4d 08	 mov	 ecx, DWORD PTR ___$ReturnUdt$[ebp]
  008c0	51		 push	 ecx
  008c1	8b 4d e4	 mov	 ecx, DWORD PTR _this$[ebp]
  008c4	e8 00 00 00 00	 call	 ??$_Insert_at@AAU?$pair@$$CBW4SDL_Scancode@@_N@std@@PAU?$_Tree_node@U?$pair@$$CBW4SDL_Scancode@@_N@std@@PAX@2@@?$_Tree@V?$_Tmap_traits@W4SDL_Scancode@@_NU?$less@W4SDL_Scancode@@@std@@V?$allocator@U?$pair@$$CBW4SDL_Scancode@@_N@std@@@3@$0A@@std@@@std@@IAE?AV?$_Tree_iterator@V?$_Tree_val@U?$_Tree_simple_types@U?$pair@$$CBW4SDL_Scancode@@_N@std@@@std@@@std@@@1@_NPAU?$_Tree_node@U?$pair@$$CBW4SDL_Scancode@@_N@std@@PAX@1@AAU?$pair@$$CBW4SDL_Scancode@@_N@1@1@Z ; std::_Tree<std::_Tmap_traits<enum SDL_Scancode,bool,std::less<enum SDL_Scancode>,std::allocator<std::pair<enum SDL_Scancode const ,bool> >,0> >::_Insert_at<std::pair<enum SDL_Scancode const ,bool> &,std::_Tree_node<std::pair<enum SDL_Scancode const ,bool>,void *> *>
  008c9	8b 95 f8 fe ff
	ff		 mov	 edx, DWORD PTR $T27[ebp]
  008cf	83 ca 01	 or	 edx, 1
  008d2	89 95 f8 fe ff
	ff		 mov	 DWORD PTR $T27[ebp], edx
  008d8	c6 45 fc 00	 mov	 BYTE PTR __$EHRec$[ebp+12], 0
  008dc	8d 4d d0	 lea	 ecx, DWORD PTR __Next$[ebp]
  008df	e8 00 00 00 00	 call	 ??1?$_Tree_const_iterator@V?$_Tree_val@U?$_Tree_simple_types@U?$pair@$$CBW4SDL_Scancode@@_N@std@@@std@@@std@@@std@@QAE@XZ
  008e4	c7 45 fc ff ff
	ff ff		 mov	 DWORD PTR __$EHRec$[ebp+12], -1
  008eb	8d 4d 0c	 lea	 ecx, DWORD PTR __Where$[ebp]
  008ee	e8 00 00 00 00	 call	 ??1?$_Tree_const_iterator@V?$_Tree_val@U?$_Tree_simple_types@U?$pair@$$CBW4SDL_Scancode@@_N@std@@@std@@@std@@@std@@QAE@XZ
  008f3	8b 45 08	 mov	 eax, DWORD PTR ___$ReturnUdt$[ebp]
  008f6	e9 6e 09 00 00	 jmp	 $LN35@Insert_hin
; Line 1716
  008fb	eb 72		 jmp	 SHORT $LN16@Insert_hin
$LN17@Insert_hin:
; Line 1718
  008fd	8b 45 18	 mov	 eax, DWORD PTR __Val$[ebp]
  00900	50		 push	 eax
  00901	e8 00 00 00 00	 call	 ??$forward@AAU?$pair@$$CBW4SDL_Scancode@@_N@std@@@std@@YAAAU?$pair@$$CBW4SDL_Scancode@@_N@0@AAU10@@Z ; std::forward<std::pair<enum SDL_Scancode const ,bool> &>
  00906	83 c4 04	 add	 esp, 4
  00909	89 85 88 fd ff
	ff		 mov	 DWORD PTR tv964[ebp], eax
  0090f	8d 4d d0	 lea	 ecx, DWORD PTR __Next$[ebp]
  00912	e8 00 00 00 00	 call	 ?_Mynode@?$_Tree_unchecked_const_iterator@V?$_Tree_val@U?$_Tree_simple_types@U?$pair@$$CBW4SDL_Scancode@@_N@std@@@std@@@std@@U_Iterator_base12@2@@std@@QBEPAU?$_Tree_node@U?$pair@$$CBW4SDL_Scancode@@_N@std@@PAX@2@XZ ; std::_Tree_unchecked_const_iterator<std::_Tree_val<std::_Tree_simple_types<std::pair<enum SDL_Scancode const ,bool> > >,std::_Iterator_base12>::_Mynode
  00917	89 85 84 fd ff
	ff		 mov	 DWORD PTR tv965[ebp], eax
  0091d	8b 4d 1c	 mov	 ecx, DWORD PTR __Newnode$[ebp]
  00920	51		 push	 ecx
  00921	8b 95 88 fd ff
	ff		 mov	 edx, DWORD PTR tv964[ebp]
  00927	52		 push	 edx
  00928	8b 85 84 fd ff
	ff		 mov	 eax, DWORD PTR tv965[ebp]
  0092e	50		 push	 eax
  0092f	6a 01		 push	 1
  00931	8b 4d 08	 mov	 ecx, DWORD PTR ___$ReturnUdt$[ebp]
  00934	51		 push	 ecx
  00935	8b 4d e4	 mov	 ecx, DWORD PTR _this$[ebp]
  00938	e8 00 00 00 00	 call	 ??$_Insert_at@AAU?$pair@$$CBW4SDL_Scancode@@_N@std@@PAU?$_Tree_node@U?$pair@$$CBW4SDL_Scancode@@_N@std@@PAX@2@@?$_Tree@V?$_Tmap_traits@W4SDL_Scancode@@_NU?$less@W4SDL_Scancode@@@std@@V?$allocator@U?$pair@$$CBW4SDL_Scancode@@_N@std@@@3@$0A@@std@@@std@@IAE?AV?$_Tree_iterator@V?$_Tree_val@U?$_Tree_simple_types@U?$pair@$$CBW4SDL_Scancode@@_N@std@@@std@@@std@@@1@_NPAU?$_Tree_node@U?$pair@$$CBW4SDL_Scancode@@_N@std@@PAX@1@AAU?$pair@$$CBW4SDL_Scancode@@_N@1@1@Z ; std::_Tree<std::_Tmap_traits<enum SDL_Scancode,bool,std::less<enum SDL_Scancode>,std::allocator<std::pair<enum SDL_Scancode const ,bool> >,0> >::_Insert_at<std::pair<enum SDL_Scancode const ,bool> &,std::_Tree_node<std::pair<enum SDL_Scancode const ,bool>,void *> *>
  0093d	8b 95 f8 fe ff
	ff		 mov	 edx, DWORD PTR $T27[ebp]
  00943	83 ca 01	 or	 edx, 1
  00946	89 95 f8 fe ff
	ff		 mov	 DWORD PTR $T27[ebp], edx
  0094c	c6 45 fc 00	 mov	 BYTE PTR __$EHRec$[ebp+12], 0
  00950	8d 4d d0	 lea	 ecx, DWORD PTR __Next$[ebp]
  00953	e8 00 00 00 00	 call	 ??1?$_Tree_const_iterator@V?$_Tree_val@U?$_Tree_simple_types@U?$pair@$$CBW4SDL_Scancode@@_N@std@@@std@@@std@@@std@@QAE@XZ
  00958	c7 45 fc ff ff
	ff ff		 mov	 DWORD PTR __$EHRec$[ebp+12], -1
  0095f	8d 4d 0c	 lea	 ecx, DWORD PTR __Where$[ebp]
  00962	e8 00 00 00 00	 call	 ??1?$_Tree_const_iterator@V?$_Tree_val@U?$_Tree_simple_types@U?$pair@$$CBW4SDL_Scancode@@_N@std@@@std@@@std@@@std@@QAE@XZ
  00967	8b 45 08	 mov	 eax, DWORD PTR ___$ReturnUdt$[ebp]
  0096a	e9 fa 08 00 00	 jmp	 $LN35@Insert_hin
$LN16@Insert_hin:
; Line 1720
  0096f	eb 04		 jmp	 SHORT $LN26@Insert_hin
$LN18@Insert_hin:
; Line 1721
  00971	c6 45 c7 01	 mov	 BYTE PTR __Leftish$[ebp], 1
$LN26@Insert_hin:
; Line 1723
  00975	e9 3c 08 00 00	 jmp	 $LN30@Insert_hin
$LN29@Insert_hin:
; Line 1725
  0097a	8d 85 44 fe ff
	ff		 lea	 eax, DWORD PTR $T15[ebp]
  00980	50		 push	 eax
  00981	8b 4d e4	 mov	 ecx, DWORD PTR _this$[ebp]
  00984	e8 00 00 00 00	 call	 ?begin@?$_Tree@V?$_Tmap_traits@W4SDL_Scancode@@_NU?$less@W4SDL_Scancode@@@std@@V?$allocator@U?$pair@$$CBW4SDL_Scancode@@_N@std@@@3@$0A@@std@@@std@@QAE?AV?$_Tree_iterator@V?$_Tree_val@U?$_Tree_simple_types@U?$pair@$$CBW4SDL_Scancode@@_N@std@@@std@@@std@@@2@XZ ; std::_Tree<std::_Tmap_traits<enum SDL_Scancode,bool,std::less<enum SDL_Scancode>,std::allocator<std::pair<enum SDL_Scancode const ,bool> >,0> >::begin
  00989	89 85 88 fd ff
	ff		 mov	 DWORD PTR tv966[ebp], eax
  0098f	8b 8d 88 fd ff
	ff		 mov	 ecx, DWORD PTR tv966[ebp]
  00995	89 8d 84 fd ff
	ff		 mov	 DWORD PTR tv884[ebp], ecx
  0099b	c6 45 fc 06	 mov	 BYTE PTR __$EHRec$[ebp+12], 6
  0099f	8b 95 84 fd ff
	ff		 mov	 edx, DWORD PTR tv884[ebp]
  009a5	52		 push	 edx
  009a6	8d 4d 0c	 lea	 ecx, DWORD PTR __Where$[ebp]
  009a9	e8 00 00 00 00	 call	 ??8?$_Tree_const_iterator@V?$_Tree_val@U?$_Tree_simple_types@U?$pair@$$CBW4SDL_Scancode@@_N@std@@@std@@@std@@@std@@QBE_NABV01@@Z ; std::_Tree_const_iterator<std::_Tree_val<std::_Tree_simple_types<std::pair<enum SDL_Scancode const ,bool> > > >::operator==
  009ae	88 85 83 fd ff
	ff		 mov	 BYTE PTR tv967[ebp], al
  009b4	8a 85 83 fd ff
	ff		 mov	 al, BYTE PTR tv967[ebp]
  009ba	88 85 3b fe ff
	ff		 mov	 BYTE PTR $T14[ebp], al
  009c0	c6 45 fc 02	 mov	 BYTE PTR __$EHRec$[ebp+12], 2
  009c4	8d 8d 44 fe ff
	ff		 lea	 ecx, DWORD PTR $T15[ebp]
  009ca	e8 00 00 00 00	 call	 ??1?$_Tree_iterator@V?$_Tree_val@U?$_Tree_simple_types@U?$pair@$$CBW4SDL_Scancode@@_N@std@@@std@@@std@@@std@@QAE@XZ
  009cf	0f b6 8d 3b fe
	ff ff		 movzx	 ecx, BYTE PTR $T14[ebp]
  009d6	85 c9		 test	 ecx, ecx
  009d8	0f 84 fc 00 00
	00		 je	 $LN13@Insert_hin
; Line 1727
  009de	8d 4d 0c	 lea	 ecx, DWORD PTR __Where$[ebp]
  009e1	e8 00 00 00 00	 call	 ?_Mynode@?$_Tree_unchecked_const_iterator@V?$_Tree_val@U?$_Tree_simple_types@U?$pair@$$CBW4SDL_Scancode@@_N@std@@@std@@@std@@U_Iterator_base12@2@@std@@QBEPAU?$_Tree_node@U?$pair@$$CBW4SDL_Scancode@@_N@std@@PAX@2@XZ ; std::_Tree_unchecked_const_iterator<std::_Tree_val<std::_Tree_simple_types<std::pair<enum SDL_Scancode const ,bool> > >,std::_Iterator_base12>::_Mynode
  009e6	89 85 88 fd ff
	ff		 mov	 DWORD PTR tv968[ebp], eax
  009ec	8b 85 88 fd ff
	ff		 mov	 eax, DWORD PTR tv968[ebp]
  009f2	50		 push	 eax
  009f3	8b 4d e4	 mov	 ecx, DWORD PTR _this$[ebp]
  009f6	e8 00 00 00 00	 call	 ?_Key@?$_Tree@V?$_Tmap_traits@W4SDL_Scancode@@_NU?$less@W4SDL_Scancode@@@std@@V?$allocator@U?$pair@$$CBW4SDL_Scancode@@_N@std@@@3@$0A@@std@@@std@@IBEABW4SDL_Scancode@@PAU?$_Tree_node@U?$pair@$$CBW4SDL_Scancode@@_N@std@@PAX@2@@Z ; std::_Tree<std::_Tmap_traits<enum SDL_Scancode,bool,std::less<enum SDL_Scancode>,std::allocator<std::pair<enum SDL_Scancode const ,bool> >,0> >::_Key
  009fb	89 85 84 fd ff
	ff		 mov	 DWORD PTR tv969[ebp], eax
  00a01	8b 4d 18	 mov	 ecx, DWORD PTR __Val$[ebp]
  00a04	51		 push	 ecx
  00a05	8b 4d e4	 mov	 ecx, DWORD PTR _this$[ebp]
  00a08	e8 00 00 00 00	 call	 ?_Kfn@?$_Tree@V?$_Tmap_traits@W4SDL_Scancode@@_NU?$less@W4SDL_Scancode@@@std@@V?$allocator@U?$pair@$$CBW4SDL_Scancode@@_N@std@@@3@$0A@@std@@@std@@IBEABW4SDL_Scancode@@ABU?$pair@$$CBW4SDL_Scancode@@_N@2@@Z ; std::_Tree<std::_Tmap_traits<enum SDL_Scancode,bool,std::less<enum SDL_Scancode>,std::allocator<std::pair<enum SDL_Scancode const ,bool> >,0> >::_Kfn
  00a0d	89 85 80 fd ff
	ff		 mov	 DWORD PTR tv970[ebp], eax
  00a13	8d 95 5b fe ff
	ff		 lea	 edx, DWORD PTR $T16[ebp]
  00a19	52		 push	 edx
  00a1a	8b 4d e4	 mov	 ecx, DWORD PTR _this$[ebp]
  00a1d	e8 00 00 00 00	 call	 ?_Getcomp@?$_Tree_comp@$0A@V?$_Tmap_traits@W4SDL_Scancode@@_NU?$less@W4SDL_Scancode@@@std@@V?$allocator@U?$pair@$$CBW4SDL_Scancode@@_N@std@@@3@$0A@@std@@@std@@QBE?AU?$less@W4SDL_Scancode@@@2@XZ ; std::_Tree_comp<0,std::_Tmap_traits<enum SDL_Scancode,bool,std::less<enum SDL_Scancode>,std::allocator<std::pair<enum SDL_Scancode const ,bool> >,0> >::_Getcomp
  00a22	89 85 7c fd ff
	ff		 mov	 DWORD PTR tv971[ebp], eax
  00a28	68 c0 06 00 00	 push	 1728			; 000006c0H
  00a2d	68 00 00 00 00	 push	 OFFSET ??_C@_1IK@HBAODOLH@?$AAc?$AA?3?$AA?2?$AAp?$AAr?$AAo?$AAg?$AAr?$AAa?$AAm?$AA?5?$AAf?$AAi?$AAl?$AAe?$AAs?$AA?5?$AA?$CI?$AAx?$AA8?$AA6?$AA?$CJ?$AA?2?$AAm?$AAi?$AAc?$AAr?$AAo?$AAs?$AAo?$AAf?$AAt@
  00a32	8b 85 84 fd ff
	ff		 mov	 eax, DWORD PTR tv969[ebp]
  00a38	50		 push	 eax
  00a39	8b 8d 80 fd ff
	ff		 mov	 ecx, DWORD PTR tv970[ebp]
  00a3f	51		 push	 ecx
  00a40	8b 95 7c fd ff
	ff		 mov	 edx, DWORD PTR tv971[ebp]
  00a46	0f b6 02	 movzx	 eax, BYTE PTR [edx]
  00a49	50		 push	 eax
  00a4a	e8 00 00 00 00	 call	 ??$_Debug_lt_pred@U?$less@W4SDL_Scancode@@@std@@ABW4SDL_Scancode@@ABW43@@std@@YA_NU?$less@W4SDL_Scancode@@@0@ABW4SDL_Scancode@@1PB_WI@Z ; std::_Debug_lt_pred<std::less<enum SDL_Scancode>,enum SDL_Scancode const &,enum SDL_Scancode const &>
  00a4f	83 c4 14	 add	 esp, 20			; 00000014H
  00a52	88 85 7b fd ff
	ff		 mov	 BYTE PTR tv972[ebp], al
  00a58	0f b6 8d 7b fd
	ff ff		 movzx	 ecx, BYTE PTR tv972[ebp]
  00a5f	85 c9		 test	 ecx, ecx
  00a61	74 72		 je	 SHORT $LN12@Insert_hin
; Line 1730
  00a63	8b 45 18	 mov	 eax, DWORD PTR __Val$[ebp]
  00a66	50		 push	 eax
  00a67	e8 00 00 00 00	 call	 ??$forward@AAU?$pair@$$CBW4SDL_Scancode@@_N@std@@@std@@YAAAU?$pair@$$CBW4SDL_Scancode@@_N@0@AAU10@@Z ; std::forward<std::pair<enum SDL_Scancode const ,bool> &>
  00a6c	83 c4 04	 add	 esp, 4
  00a6f	89 85 88 fd ff
	ff		 mov	 DWORD PTR tv973[ebp], eax
  00a75	8d 4d 0c	 lea	 ecx, DWORD PTR __Where$[ebp]
  00a78	e8 00 00 00 00	 call	 ?_Mynode@?$_Tree_unchecked_const_iterator@V?$_Tree_val@U?$_Tree_simple_types@U?$pair@$$CBW4SDL_Scancode@@_N@std@@@std@@@std@@U_Iterator_base12@2@@std@@QBEPAU?$_Tree_node@U?$pair@$$CBW4SDL_Scancode@@_N@std@@PAX@2@XZ ; std::_Tree_unchecked_const_iterator<std::_Tree_val<std::_Tree_simple_types<std::pair<enum SDL_Scancode const ,bool> > >,std::_Iterator_base12>::_Mynode
  00a7d	89 85 84 fd ff
	ff		 mov	 DWORD PTR tv974[ebp], eax
  00a83	8b 4d 1c	 mov	 ecx, DWORD PTR __Newnode$[ebp]
  00a86	51		 push	 ecx
  00a87	8b 95 88 fd ff
	ff		 mov	 edx, DWORD PTR tv973[ebp]
  00a8d	52		 push	 edx
  00a8e	8b 85 84 fd ff
	ff		 mov	 eax, DWORD PTR tv974[ebp]
  00a94	50		 push	 eax
  00a95	6a 01		 push	 1
  00a97	8b 4d 08	 mov	 ecx, DWORD PTR ___$ReturnUdt$[ebp]
  00a9a	51		 push	 ecx
  00a9b	8b 4d e4	 mov	 ecx, DWORD PTR _this$[ebp]
  00a9e	e8 00 00 00 00	 call	 ??$_Insert_at@AAU?$pair@$$CBW4SDL_Scancode@@_N@std@@PAU?$_Tree_node@U?$pair@$$CBW4SDL_Scancode@@_N@std@@PAX@2@@?$_Tree@V?$_Tmap_traits@W4SDL_Scancode@@_NU?$less@W4SDL_Scancode@@@std@@V?$allocator@U?$pair@$$CBW4SDL_Scancode@@_N@std@@@3@$0A@@std@@@std@@IAE?AV?$_Tree_iterator@V?$_Tree_val@U?$_Tree_simple_types@U?$pair@$$CBW4SDL_Scancode@@_N@std@@@std@@@std@@@1@_NPAU?$_Tree_node@U?$pair@$$CBW4SDL_Scancode@@_N@std@@PAX@1@AAU?$pair@$$CBW4SDL_Scancode@@_N@1@1@Z ; std::_Tree<std::_Tmap_traits<enum SDL_Scancode,bool,std::less<enum SDL_Scancode>,std::allocator<std::pair<enum SDL_Scancode const ,bool> >,0> >::_Insert_at<std::pair<enum SDL_Scancode const ,bool> &,std::_Tree_node<std::pair<enum SDL_Scancode const ,bool>,void *> *>
  00aa3	8b 95 f8 fe ff
	ff		 mov	 edx, DWORD PTR $T27[ebp]
  00aa9	83 ca 01	 or	 edx, 1
  00aac	89 95 f8 fe ff
	ff		 mov	 DWORD PTR $T27[ebp], edx
  00ab2	c6 45 fc 00	 mov	 BYTE PTR __$EHRec$[ebp+12], 0
  00ab6	8d 4d d0	 lea	 ecx, DWORD PTR __Next$[ebp]
  00ab9	e8 00 00 00 00	 call	 ??1?$_Tree_const_iterator@V?$_Tree_val@U?$_Tree_simple_types@U?$pair@$$CBW4SDL_Scancode@@_N@std@@@std@@@std@@@std@@QAE@XZ
  00abe	c7 45 fc ff ff
	ff ff		 mov	 DWORD PTR __$EHRec$[ebp+12], -1
  00ac5	8d 4d 0c	 lea	 ecx, DWORD PTR __Where$[ebp]
  00ac8	e8 00 00 00 00	 call	 ??1?$_Tree_const_iterator@V?$_Tree_val@U?$_Tree_simple_types@U?$pair@$$CBW4SDL_Scancode@@_N@std@@@std@@@std@@@std@@QAE@XZ
  00acd	8b 45 08	 mov	 eax, DWORD PTR ___$ReturnUdt$[ebp]
  00ad0	e9 94 07 00 00	 jmp	 $LN35@Insert_hin
$LN12@Insert_hin:
; Line 1731
  00ad5	e9 dc 06 00 00	 jmp	 $LN30@Insert_hin
$LN13@Insert_hin:
; Line 1732
  00ada	8d 85 70 fe ff
	ff		 lea	 eax, DWORD PTR $T18[ebp]
  00ae0	50		 push	 eax
  00ae1	8b 4d e4	 mov	 ecx, DWORD PTR _this$[ebp]
  00ae4	e8 00 00 00 00	 call	 ?end@?$_Tree@V?$_Tmap_traits@W4SDL_Scancode@@_NU?$less@W4SDL_Scancode@@@std@@V?$allocator@U?$pair@$$CBW4SDL_Scancode@@_N@std@@@3@$0A@@std@@@std@@QAE?AV?$_Tree_iterator@V?$_Tree_val@U?$_Tree_simple_types@U?$pair@$$CBW4SDL_Scancode@@_N@std@@@std@@@std@@@2@XZ ; std::_Tree<std::_Tmap_traits<enum SDL_Scancode,bool,std::less<enum SDL_Scancode>,std::allocator<std::pair<enum SDL_Scancode const ,bool> >,0> >::end
  00ae9	89 85 88 fd ff
	ff		 mov	 DWORD PTR tv975[ebp], eax
  00aef	8b 8d 88 fd ff
	ff		 mov	 ecx, DWORD PTR tv975[ebp]
  00af5	89 8d 84 fd ff
	ff		 mov	 DWORD PTR tv889[ebp], ecx
  00afb	c6 45 fc 07	 mov	 BYTE PTR __$EHRec$[ebp+12], 7
  00aff	8b 95 84 fd ff
	ff		 mov	 edx, DWORD PTR tv889[ebp]
  00b05	52		 push	 edx
  00b06	8d 4d 0c	 lea	 ecx, DWORD PTR __Where$[ebp]
  00b09	e8 00 00 00 00	 call	 ??8?$_Tree_const_iterator@V?$_Tree_val@U?$_Tree_simple_types@U?$pair@$$CBW4SDL_Scancode@@_N@std@@@std@@@std@@@std@@QBE_NABV01@@Z ; std::_Tree_const_iterator<std::_Tree_val<std::_Tree_simple_types<std::pair<enum SDL_Scancode const ,bool> > > >::operator==
  00b0e	88 85 83 fd ff
	ff		 mov	 BYTE PTR tv976[ebp], al
  00b14	8a 85 83 fd ff
	ff		 mov	 al, BYTE PTR tv976[ebp]
  00b1a	88 85 67 fe ff
	ff		 mov	 BYTE PTR $T17[ebp], al
  00b20	c6 45 fc 02	 mov	 BYTE PTR __$EHRec$[ebp+12], 2
  00b24	8d 8d 70 fe ff
	ff		 lea	 ecx, DWORD PTR $T18[ebp]
  00b2a	e8 00 00 00 00	 call	 ??1?$_Tree_iterator@V?$_Tree_val@U?$_Tree_simple_types@U?$pair@$$CBW4SDL_Scancode@@_N@std@@@std@@@std@@@std@@QAE@XZ
  00b2f	0f b6 8d 67 fe
	ff ff		 movzx	 ecx, BYTE PTR $T17[ebp]
  00b36	85 c9		 test	 ecx, ecx
  00b38	0f 84 00 01 00
	00		 je	 $LN10@Insert_hin
; Line 1734
  00b3e	8b 45 18	 mov	 eax, DWORD PTR __Val$[ebp]
  00b41	50		 push	 eax
  00b42	8b 4d e4	 mov	 ecx, DWORD PTR _this$[ebp]
  00b45	e8 00 00 00 00	 call	 ?_Kfn@?$_Tree@V?$_Tmap_traits@W4SDL_Scancode@@_NU?$less@W4SDL_Scancode@@@std@@V?$allocator@U?$pair@$$CBW4SDL_Scancode@@_N@std@@@3@$0A@@std@@@std@@IBEABW4SDL_Scancode@@ABU?$pair@$$CBW4SDL_Scancode@@_N@2@@Z ; std::_Tree<std::_Tmap_traits<enum SDL_Scancode,bool,std::less<enum SDL_Scancode>,std::allocator<std::pair<enum SDL_Scancode const ,bool> >,0> >::_Kfn
  00b4a	89 85 88 fd ff
	ff		 mov	 DWORD PTR tv977[ebp], eax
  00b50	8b 4d e4	 mov	 ecx, DWORD PTR _this$[ebp]
  00b53	e8 00 00 00 00	 call	 ?_Rmost@?$_Tree@V?$_Tmap_traits@W4SDL_Scancode@@_NU?$less@W4SDL_Scancode@@@std@@V?$allocator@U?$pair@$$CBW4SDL_Scancode@@_N@std@@@3@$0A@@std@@@std@@IBEAAPAU?$_Tree_node@U?$pair@$$CBW4SDL_Scancode@@_N@std@@PAX@2@XZ ; std::_Tree<std::_Tmap_traits<enum SDL_Scancode,bool,std::less<enum SDL_Scancode>,std::allocator<std::pair<enum SDL_Scancode const ,bool> >,0> >::_Rmost
  00b58	89 85 84 fd ff
	ff		 mov	 DWORD PTR tv978[ebp], eax
  00b5e	8b 8d 84 fd ff
	ff		 mov	 ecx, DWORD PTR tv978[ebp]
  00b64	8b 11		 mov	 edx, DWORD PTR [ecx]
  00b66	52		 push	 edx
  00b67	8b 4d e4	 mov	 ecx, DWORD PTR _this$[ebp]
  00b6a	e8 00 00 00 00	 call	 ?_Key@?$_Tree@V?$_Tmap_traits@W4SDL_Scancode@@_NU?$less@W4SDL_Scancode@@@std@@V?$allocator@U?$pair@$$CBW4SDL_Scancode@@_N@std@@@3@$0A@@std@@@std@@IBEABW4SDL_Scancode@@PAU?$_Tree_node@U?$pair@$$CBW4SDL_Scancode@@_N@std@@PAX@2@@Z ; std::_Tree<std::_Tmap_traits<enum SDL_Scancode,bool,std::less<enum SDL_Scancode>,std::allocator<std::pair<enum SDL_Scancode const ,bool> >,0> >::_Key
  00b6f	89 85 80 fd ff
	ff		 mov	 DWORD PTR tv979[ebp], eax
  00b75	8d 85 87 fe ff
	ff		 lea	 eax, DWORD PTR $T19[ebp]
  00b7b	50		 push	 eax
  00b7c	8b 4d e4	 mov	 ecx, DWORD PTR _this$[ebp]
  00b7f	e8 00 00 00 00	 call	 ?_Getcomp@?$_Tree_comp@$0A@V?$_Tmap_traits@W4SDL_Scancode@@_NU?$less@W4SDL_Scancode@@@std@@V?$allocator@U?$pair@$$CBW4SDL_Scancode@@_N@std@@@3@$0A@@std@@@std@@QBE?AU?$less@W4SDL_Scancode@@@2@XZ ; std::_Tree_comp<0,std::_Tmap_traits<enum SDL_Scancode,bool,std::less<enum SDL_Scancode>,std::allocator<std::pair<enum SDL_Scancode const ,bool> >,0> >::_Getcomp
  00b84	89 85 7c fd ff
	ff		 mov	 DWORD PTR tv980[ebp], eax
  00b8a	68 c7 06 00 00	 push	 1735			; 000006c7H
  00b8f	68 00 00 00 00	 push	 OFFSET ??_C@_1IK@HBAODOLH@?$AAc?$AA?3?$AA?2?$AAp?$AAr?$AAo?$AAg?$AAr?$AAa?$AAm?$AA?5?$AAf?$AAi?$AAl?$AAe?$AAs?$AA?5?$AA?$CI?$AAx?$AA8?$AA6?$AA?$CJ?$AA?2?$AAm?$AAi?$AAc?$AAr?$AAo?$AAs?$AAo?$AAf?$AAt@
  00b94	8b 8d 88 fd ff
	ff		 mov	 ecx, DWORD PTR tv977[ebp]
  00b9a	51		 push	 ecx
  00b9b	8b 95 80 fd ff
	ff		 mov	 edx, DWORD PTR tv979[ebp]
  00ba1	52		 push	 edx
  00ba2	8b 85 7c fd ff
	ff		 mov	 eax, DWORD PTR tv980[ebp]
  00ba8	0f b6 08	 movzx	 ecx, BYTE PTR [eax]
  00bab	51		 push	 ecx
  00bac	e8 00 00 00 00	 call	 ??$_Debug_lt_pred@U?$less@W4SDL_Scancode@@@std@@ABW4SDL_Scancode@@ABW43@@std@@YA_NU?$less@W4SDL_Scancode@@@0@ABW4SDL_Scancode@@1PB_WI@Z ; std::_Debug_lt_pred<std::less<enum SDL_Scancode>,enum SDL_Scancode const &,enum SDL_Scancode const &>
  00bb1	83 c4 14	 add	 esp, 20			; 00000014H
  00bb4	88 85 7b fd ff
	ff		 mov	 BYTE PTR tv981[ebp], al
  00bba	0f b6 95 7b fd
	ff ff		 movzx	 edx, BYTE PTR tv981[ebp]
  00bc1	85 d2		 test	 edx, edx
  00bc3	74 74		 je	 SHORT $LN9@Insert_hin
; Line 1737
  00bc5	8b 45 18	 mov	 eax, DWORD PTR __Val$[ebp]
  00bc8	50		 push	 eax
  00bc9	e8 00 00 00 00	 call	 ??$forward@AAU?$pair@$$CBW4SDL_Scancode@@_N@std@@@std@@YAAAU?$pair@$$CBW4SDL_Scancode@@_N@0@AAU10@@Z ; std::forward<std::pair<enum SDL_Scancode const ,bool> &>
  00bce	83 c4 04	 add	 esp, 4
  00bd1	89 85 88 fd ff
	ff		 mov	 DWORD PTR tv982[ebp], eax
  00bd7	8b 4d e4	 mov	 ecx, DWORD PTR _this$[ebp]
  00bda	e8 00 00 00 00	 call	 ?_Rmost@?$_Tree@V?$_Tmap_traits@W4SDL_Scancode@@_NU?$less@W4SDL_Scancode@@@std@@V?$allocator@U?$pair@$$CBW4SDL_Scancode@@_N@std@@@3@$0A@@std@@@std@@IBEAAPAU?$_Tree_node@U?$pair@$$CBW4SDL_Scancode@@_N@std@@PAX@2@XZ ; std::_Tree<std::_Tmap_traits<enum SDL_Scancode,bool,std::less<enum SDL_Scancode>,std::allocator<std::pair<enum SDL_Scancode const ,bool> >,0> >::_Rmost
  00bdf	89 85 84 fd ff
	ff		 mov	 DWORD PTR tv983[ebp], eax
  00be5	8b 4d 1c	 mov	 ecx, DWORD PTR __Newnode$[ebp]
  00be8	51		 push	 ecx
  00be9	8b 95 88 fd ff
	ff		 mov	 edx, DWORD PTR tv982[ebp]
  00bef	52		 push	 edx
  00bf0	8b 85 84 fd ff
	ff		 mov	 eax, DWORD PTR tv983[ebp]
  00bf6	8b 08		 mov	 ecx, DWORD PTR [eax]
  00bf8	51		 push	 ecx
  00bf9	6a 00		 push	 0
  00bfb	8b 55 08	 mov	 edx, DWORD PTR ___$ReturnUdt$[ebp]
  00bfe	52		 push	 edx
  00bff	8b 4d e4	 mov	 ecx, DWORD PTR _this$[ebp]
  00c02	e8 00 00 00 00	 call	 ??$_Insert_at@AAU?$pair@$$CBW4SDL_Scancode@@_N@std@@PAU?$_Tree_node@U?$pair@$$CBW4SDL_Scancode@@_N@std@@PAX@2@@?$_Tree@V?$_Tmap_traits@W4SDL_Scancode@@_NU?$less@W4SDL_Scancode@@@std@@V?$allocator@U?$pair@$$CBW4SDL_Scancode@@_N@std@@@3@$0A@@std@@@std@@IAE?AV?$_Tree_iterator@V?$_Tree_val@U?$_Tree_simple_types@U?$pair@$$CBW4SDL_Scancode@@_N@std@@@std@@@std@@@1@_NPAU?$_Tree_node@U?$pair@$$CBW4SDL_Scancode@@_N@std@@PAX@1@AAU?$pair@$$CBW4SDL_Scancode@@_N@1@1@Z ; std::_Tree<std::_Tmap_traits<enum SDL_Scancode,bool,std::less<enum SDL_Scancode>,std::allocator<std::pair<enum SDL_Scancode const ,bool> >,0> >::_Insert_at<std::pair<enum SDL_Scancode const ,bool> &,std::_Tree_node<std::pair<enum SDL_Scancode const ,bool>,void *> *>
  00c07	8b 85 f8 fe ff
	ff		 mov	 eax, DWORD PTR $T27[ebp]
  00c0d	83 c8 01	 or	 eax, 1
  00c10	89 85 f8 fe ff
	ff		 mov	 DWORD PTR $T27[ebp], eax
  00c16	c6 45 fc 00	 mov	 BYTE PTR __$EHRec$[ebp+12], 0
  00c1a	8d 4d d0	 lea	 ecx, DWORD PTR __Next$[ebp]
  00c1d	e8 00 00 00 00	 call	 ??1?$_Tree_const_iterator@V?$_Tree_val@U?$_Tree_simple_types@U?$pair@$$CBW4SDL_Scancode@@_N@std@@@std@@@std@@@std@@QAE@XZ
  00c22	c7 45 fc ff ff
	ff ff		 mov	 DWORD PTR __$EHRec$[ebp+12], -1
  00c29	8d 4d 0c	 lea	 ecx, DWORD PTR __Where$[ebp]
  00c2c	e8 00 00 00 00	 call	 ??1?$_Tree_const_iterator@V?$_Tree_val@U?$_Tree_simple_types@U?$pair@$$CBW4SDL_Scancode@@_N@std@@@std@@@std@@@std@@QAE@XZ
  00c31	8b 45 08	 mov	 eax, DWORD PTR ___$ReturnUdt$[ebp]
  00c34	e9 30 06 00 00	 jmp	 $LN35@Insert_hin
$LN9@Insert_hin:
; Line 1739
  00c39	e9 78 05 00 00	 jmp	 $LN30@Insert_hin
$LN10@Insert_hin:
; Line 1741
  00c3e	8d 4d 0c	 lea	 ecx, DWORD PTR __Where$[ebp]
  00c41	e8 00 00 00 00	 call	 ?_Mynode@?$_Tree_unchecked_const_iterator@V?$_Tree_val@U?$_Tree_simple_types@U?$pair@$$CBW4SDL_Scancode@@_N@std@@@std@@@std@@U_Iterator_base12@2@@std@@QBEPAU?$_Tree_node@U?$pair@$$CBW4SDL_Scancode@@_N@std@@PAX@2@XZ ; std::_Tree_unchecked_const_iterator<std::_Tree_val<std::_Tree_simple_types<std::pair<enum SDL_Scancode const ,bool> > >,std::_Iterator_base12>::_Mynode
  00c46	89 85 88 fd ff
	ff		 mov	 DWORD PTR tv984[ebp], eax
  00c4c	8b 85 88 fd ff
	ff		 mov	 eax, DWORD PTR tv984[ebp]
  00c52	50		 push	 eax
  00c53	8b 4d e4	 mov	 ecx, DWORD PTR _this$[ebp]
  00c56	e8 00 00 00 00	 call	 ?_Key@?$_Tree@V?$_Tmap_traits@W4SDL_Scancode@@_NU?$less@W4SDL_Scancode@@@std@@V?$allocator@U?$pair@$$CBW4SDL_Scancode@@_N@std@@@3@$0A@@std@@@std@@IBEABW4SDL_Scancode@@PAU?$_Tree_node@U?$pair@$$CBW4SDL_Scancode@@_N@std@@PAX@2@@Z ; std::_Tree<std::_Tmap_traits<enum SDL_Scancode,bool,std::less<enum SDL_Scancode>,std::allocator<std::pair<enum SDL_Scancode const ,bool> >,0> >::_Key
  00c5b	89 85 84 fd ff
	ff		 mov	 DWORD PTR tv985[ebp], eax
  00c61	8b 4d 18	 mov	 ecx, DWORD PTR __Val$[ebp]
  00c64	51		 push	 ecx
  00c65	8b 4d e4	 mov	 ecx, DWORD PTR _this$[ebp]
  00c68	e8 00 00 00 00	 call	 ?_Kfn@?$_Tree@V?$_Tmap_traits@W4SDL_Scancode@@_NU?$less@W4SDL_Scancode@@@std@@V?$allocator@U?$pair@$$CBW4SDL_Scancode@@_N@std@@@3@$0A@@std@@@std@@IBEABW4SDL_Scancode@@ABU?$pair@$$CBW4SDL_Scancode@@_N@2@@Z ; std::_Tree<std::_Tmap_traits<enum SDL_Scancode,bool,std::less<enum SDL_Scancode>,std::allocator<std::pair<enum SDL_Scancode const ,bool> >,0> >::_Kfn
  00c6d	89 85 80 fd ff
	ff		 mov	 DWORD PTR tv986[ebp], eax
  00c73	8d 95 93 fe ff
	ff		 lea	 edx, DWORD PTR $T20[ebp]
  00c79	52		 push	 edx
  00c7a	8b 4d e4	 mov	 ecx, DWORD PTR _this$[ebp]
  00c7d	e8 00 00 00 00	 call	 ?_Getcomp@?$_Tree_comp@$0A@V?$_Tmap_traits@W4SDL_Scancode@@_NU?$less@W4SDL_Scancode@@@std@@V?$allocator@U?$pair@$$CBW4SDL_Scancode@@_N@std@@@3@$0A@@std@@@std@@QBE?AU?$less@W4SDL_Scancode@@@2@XZ ; std::_Tree_comp<0,std::_Tmap_traits<enum SDL_Scancode,bool,std::less<enum SDL_Scancode>,std::allocator<std::pair<enum SDL_Scancode const ,bool> >,0> >::_Getcomp
  00c82	89 85 7c fd ff
	ff		 mov	 DWORD PTR tv987[ebp], eax
  00c88	68 cc 06 00 00	 push	 1740			; 000006ccH
  00c8d	68 00 00 00 00	 push	 OFFSET ??_C@_1IK@HBAODOLH@?$AAc?$AA?3?$AA?2?$AAp?$AAr?$AAo?$AAg?$AAr?$AAa?$AAm?$AA?5?$AAf?$AAi?$AAl?$AAe?$AAs?$AA?5?$AA?$CI?$AAx?$AA8?$AA6?$AA?$CJ?$AA?2?$AAm?$AAi?$AAc?$AAr?$AAo?$AAs?$AAo?$AAf?$AAt@
  00c92	8b 85 84 fd ff
	ff		 mov	 eax, DWORD PTR tv985[ebp]
  00c98	50		 push	 eax
  00c99	8b 8d 80 fd ff
	ff		 mov	 ecx, DWORD PTR tv986[ebp]
  00c9f	51		 push	 ecx
  00ca0	8b 95 7c fd ff
	ff		 mov	 edx, DWORD PTR tv987[ebp]
  00ca6	0f b6 02	 movzx	 eax, BYTE PTR [edx]
  00ca9	50		 push	 eax
  00caa	e8 00 00 00 00	 call	 ??$_Debug_lt_pred@U?$less@W4SDL_Scancode@@@std@@ABW4SDL_Scancode@@ABW43@@std@@YA_NU?$less@W4SDL_Scancode@@@0@ABW4SDL_Scancode@@1PB_WI@Z ; std::_Debug_lt_pred<std::less<enum SDL_Scancode>,enum SDL_Scancode const &,enum SDL_Scancode const &>
  00caf	83 c4 14	 add	 esp, 20			; 00000014H
  00cb2	88 85 7b fd ff
	ff		 mov	 BYTE PTR tv988[ebp], al
  00cb8	0f b6 8d 7b fd
	ff ff		 movzx	 ecx, BYTE PTR tv988[ebp]
  00cbf	85 c9		 test	 ecx, ecx
  00cc1	0f 84 e1 01 00
	00		 je	 $LN7@Insert_hin
  00cc7	8b 45 18	 mov	 eax, DWORD PTR __Val$[ebp]
  00cca	50		 push	 eax
  00ccb	8b 4d e4	 mov	 ecx, DWORD PTR _this$[ebp]
  00cce	e8 00 00 00 00	 call	 ?_Kfn@?$_Tree@V?$_Tmap_traits@W4SDL_Scancode@@_NU?$less@W4SDL_Scancode@@@std@@V?$allocator@U?$pair@$$CBW4SDL_Scancode@@_N@std@@@3@$0A@@std@@@std@@IBEABW4SDL_Scancode@@ABU?$pair@$$CBW4SDL_Scancode@@_N@2@@Z ; std::_Tree<std::_Tmap_traits<enum SDL_Scancode,bool,std::less<enum SDL_Scancode>,std::allocator<std::pair<enum SDL_Scancode const ,bool> >,0> >::_Kfn
  00cd3	89 85 88 fd ff
	ff		 mov	 DWORD PTR tv989[ebp], eax
  00cd9	8d 4d 0c	 lea	 ecx, DWORD PTR __Where$[ebp]
  00cdc	51		 push	 ecx
  00cdd	8d 4d d0	 lea	 ecx, DWORD PTR __Next$[ebp]
  00ce0	e8 00 00 00 00	 call	 ??4?$_Tree_const_iterator@V?$_Tree_val@U?$_Tree_simple_types@U?$pair@$$CBW4SDL_Scancode@@_N@std@@@std@@@std@@@std@@QAEAAV01@ABV01@@Z
  00ce5	89 85 84 fd ff
	ff		 mov	 DWORD PTR tv990[ebp], eax
  00ceb	8b 8d 84 fd ff
	ff		 mov	 ecx, DWORD PTR tv990[ebp]
  00cf1	e8 00 00 00 00	 call	 ??F?$_Tree_const_iterator@V?$_Tree_val@U?$_Tree_simple_types@U?$pair@$$CBW4SDL_Scancode@@_N@std@@@std@@@std@@@std@@QAEAAV01@XZ ; std::_Tree_const_iterator<std::_Tree_val<std::_Tree_simple_types<std::pair<enum SDL_Scancode const ,bool> > > >::operator--
  00cf6	89 85 80 fd ff
	ff		 mov	 DWORD PTR tv991[ebp], eax
  00cfc	8b 8d 80 fd ff
	ff		 mov	 ecx, DWORD PTR tv991[ebp]
  00d02	e8 00 00 00 00	 call	 ?_Mynode@?$_Tree_unchecked_const_iterator@V?$_Tree_val@U?$_Tree_simple_types@U?$pair@$$CBW4SDL_Scancode@@_N@std@@@std@@@std@@U_Iterator_base12@2@@std@@QBEPAU?$_Tree_node@U?$pair@$$CBW4SDL_Scancode@@_N@std@@PAX@2@XZ ; std::_Tree_unchecked_const_iterator<std::_Tree_val<std::_Tree_simple_types<std::pair<enum SDL_Scancode const ,bool> > >,std::_Iterator_base12>::_Mynode
  00d07	89 85 7c fd ff
	ff		 mov	 DWORD PTR tv992[ebp], eax
  00d0d	8b 95 7c fd ff
	ff		 mov	 edx, DWORD PTR tv992[ebp]
  00d13	52		 push	 edx
  00d14	8b 4d e4	 mov	 ecx, DWORD PTR _this$[ebp]
  00d17	e8 00 00 00 00	 call	 ?_Key@?$_Tree@V?$_Tmap_traits@W4SDL_Scancode@@_NU?$less@W4SDL_Scancode@@@std@@V?$allocator@U?$pair@$$CBW4SDL_Scancode@@_N@std@@@3@$0A@@std@@@std@@IBEABW4SDL_Scancode@@PAU?$_Tree_node@U?$pair@$$CBW4SDL_Scancode@@_N@std@@PAX@2@@Z ; std::_Tree<std::_Tmap_traits<enum SDL_Scancode,bool,std::less<enum SDL_Scancode>,std::allocator<std::pair<enum SDL_Scancode const ,bool> >,0> >::_Key
  00d1c	89 85 78 fd ff
	ff		 mov	 DWORD PTR tv993[ebp], eax
  00d22	8d 85 9f fe ff
	ff		 lea	 eax, DWORD PTR $T21[ebp]
  00d28	50		 push	 eax
  00d29	8b 4d e4	 mov	 ecx, DWORD PTR _this$[ebp]
  00d2c	e8 00 00 00 00	 call	 ?_Getcomp@?$_Tree_comp@$0A@V?$_Tmap_traits@W4SDL_Scancode@@_NU?$less@W4SDL_Scancode@@@std@@V?$allocator@U?$pair@$$CBW4SDL_Scancode@@_N@std@@@3@$0A@@std@@@std@@QBE?AU?$less@W4SDL_Scancode@@@2@XZ ; std::_Tree_comp<0,std::_Tmap_traits<enum SDL_Scancode,bool,std::less<enum SDL_Scancode>,std::allocator<std::pair<enum SDL_Scancode const ,bool> >,0> >::_Getcomp
  00d31	89 85 74 fd ff
	ff		 mov	 DWORD PTR tv994[ebp], eax
  00d37	68 cf 06 00 00	 push	 1743			; 000006cfH
  00d3c	68 00 00 00 00	 push	 OFFSET ??_C@_1IK@HBAODOLH@?$AAc?$AA?3?$AA?2?$AAp?$AAr?$AAo?$AAg?$AAr?$AAa?$AAm?$AA?5?$AAf?$AAi?$AAl?$AAe?$AAs?$AA?5?$AA?$CI?$AAx?$AA8?$AA6?$AA?$CJ?$AA?2?$AAm?$AAi?$AAc?$AAr?$AAo?$AAs?$AAo?$AAf?$AAt@
  00d41	8b 8d 88 fd ff
	ff		 mov	 ecx, DWORD PTR tv989[ebp]
  00d47	51		 push	 ecx
  00d48	8b 95 78 fd ff
	ff		 mov	 edx, DWORD PTR tv993[ebp]
  00d4e	52		 push	 edx
  00d4f	8b 85 74 fd ff
	ff		 mov	 eax, DWORD PTR tv994[ebp]
  00d55	0f b6 08	 movzx	 ecx, BYTE PTR [eax]
  00d58	51		 push	 ecx
  00d59	e8 00 00 00 00	 call	 ??$_Debug_lt_pred@U?$less@W4SDL_Scancode@@@std@@ABW4SDL_Scancode@@ABW43@@std@@YA_NU?$less@W4SDL_Scancode@@@0@ABW4SDL_Scancode@@1PB_WI@Z ; std::_Debug_lt_pred<std::less<enum SDL_Scancode>,enum SDL_Scancode const &,enum SDL_Scancode const &>
  00d5e	83 c4 14	 add	 esp, 20			; 00000014H
  00d61	88 85 73 fd ff
	ff		 mov	 BYTE PTR tv995[ebp], al
  00d67	0f b6 95 73 fd
	ff ff		 movzx	 edx, BYTE PTR tv995[ebp]
  00d6e	85 d2		 test	 edx, edx
  00d70	0f 84 32 01 00
	00		 je	 $LN7@Insert_hin
; Line 1745
  00d76	8d 4d d0	 lea	 ecx, DWORD PTR __Next$[ebp]
  00d79	e8 00 00 00 00	 call	 ?_Mynode@?$_Tree_unchecked_const_iterator@V?$_Tree_val@U?$_Tree_simple_types@U?$pair@$$CBW4SDL_Scancode@@_N@std@@@std@@@std@@U_Iterator_base12@2@@std@@QBEPAU?$_Tree_node@U?$pair@$$CBW4SDL_Scancode@@_N@std@@PAX@2@XZ ; std::_Tree_unchecked_const_iterator<std::_Tree_val<std::_Tree_simple_types<std::pair<enum SDL_Scancode const ,bool> > >,std::_Iterator_base12>::_Mynode
  00d7e	89 85 88 fd ff
	ff		 mov	 DWORD PTR tv996[ebp], eax
  00d84	8b 85 88 fd ff
	ff		 mov	 eax, DWORD PTR tv996[ebp]
  00d8a	50		 push	 eax
  00d8b	e8 00 00 00 00	 call	 ?_Right@?$_Tree_val@U?$_Tree_simple_types@U?$pair@$$CBW4SDL_Scancode@@_N@std@@@std@@@std@@SAAAPAU?$_Tree_node@U?$pair@$$CBW4SDL_Scancode@@_N@std@@PAX@2@PAU32@@Z ; std::_Tree_val<std::_Tree_simple_types<std::pair<enum SDL_Scancode const ,bool> > >::_Right
  00d90	83 c4 04	 add	 esp, 4
  00d93	89 85 84 fd ff
	ff		 mov	 DWORD PTR tv997[ebp], eax
  00d99	8b 8d 84 fd ff
	ff		 mov	 ecx, DWORD PTR tv997[ebp]
  00d9f	8b 11		 mov	 edx, DWORD PTR [ecx]
  00da1	52		 push	 edx
  00da2	e8 00 00 00 00	 call	 ?_Isnil@?$_Tree_val@U?$_Tree_simple_types@U?$pair@$$CBW4SDL_Scancode@@_N@std@@@std@@@std@@SAAADPAU?$_Tree_node@U?$pair@$$CBW4SDL_Scancode@@_N@std@@PAX@2@@Z ; std::_Tree_val<std::_Tree_simple_types<std::pair<enum SDL_Scancode const ,bool> > >::_Isnil
  00da7	83 c4 04	 add	 esp, 4
  00daa	89 85 80 fd ff
	ff		 mov	 DWORD PTR tv998[ebp], eax
  00db0	8b 85 80 fd ff
	ff		 mov	 eax, DWORD PTR tv998[ebp]
  00db6	0f be 08	 movsx	 ecx, BYTE PTR [eax]
  00db9	85 c9		 test	 ecx, ecx
  00dbb	74 74		 je	 SHORT $LN6@Insert_hin
; Line 1747
  00dbd	8b 45 18	 mov	 eax, DWORD PTR __Val$[ebp]
  00dc0	50		 push	 eax
  00dc1	e8 00 00 00 00	 call	 ??$forward@AAU?$pair@$$CBW4SDL_Scancode@@_N@std@@@std@@YAAAU?$pair@$$CBW4SDL_Scancode@@_N@0@AAU10@@Z ; std::forward<std::pair<enum SDL_Scancode const ,bool> &>
  00dc6	83 c4 04	 add	 esp, 4
  00dc9	89 85 88 fd ff
	ff		 mov	 DWORD PTR tv999[ebp], eax
  00dcf	8d 4d d0	 lea	 ecx, DWORD PTR __Next$[ebp]
  00dd2	e8 00 00 00 00	 call	 ?_Mynode@?$_Tree_unchecked_const_iterator@V?$_Tree_val@U?$_Tree_simple_types@U?$pair@$$CBW4SDL_Scancode@@_N@std@@@std@@@std@@U_Iterator_base12@2@@std@@QBEPAU?$_Tree_node@U?$pair@$$CBW4SDL_Scancode@@_N@std@@PAX@2@XZ ; std::_Tree_unchecked_const_iterator<std::_Tree_val<std::_Tree_simple_types<std::pair<enum SDL_Scancode const ,bool> > >,std::_Iterator_base12>::_Mynode
  00dd7	89 85 84 fd ff
	ff		 mov	 DWORD PTR tv1000[ebp], eax
  00ddd	8b 4d 1c	 mov	 ecx, DWORD PTR __Newnode$[ebp]
  00de0	51		 push	 ecx
  00de1	8b 95 88 fd ff
	ff		 mov	 edx, DWORD PTR tv999[ebp]
  00de7	52		 push	 edx
  00de8	8b 85 84 fd ff
	ff		 mov	 eax, DWORD PTR tv1000[ebp]
  00dee	50		 push	 eax
  00def	6a 00		 push	 0
  00df1	8b 4d 08	 mov	 ecx, DWORD PTR ___$ReturnUdt$[ebp]
  00df4	51		 push	 ecx
  00df5	8b 4d e4	 mov	 ecx, DWORD PTR _this$[ebp]
  00df8	e8 00 00 00 00	 call	 ??$_Insert_at@AAU?$pair@$$CBW4SDL_Scancode@@_N@std@@PAU?$_Tree_node@U?$pair@$$CBW4SDL_Scancode@@_N@std@@PAX@2@@?$_Tree@V?$_Tmap_traits@W4SDL_Scancode@@_NU?$less@W4SDL_Scancode@@@std@@V?$allocator@U?$pair@$$CBW4SDL_Scancode@@_N@std@@@3@$0A@@std@@@std@@IAE?AV?$_Tree_iterator@V?$_Tree_val@U?$_Tree_simple_types@U?$pair@$$CBW4SDL_Scancode@@_N@std@@@std@@@std@@@1@_NPAU?$_Tree_node@U?$pair@$$CBW4SDL_Scancode@@_N@std@@PAX@1@AAU?$pair@$$CBW4SDL_Scancode@@_N@1@1@Z ; std::_Tree<std::_Tmap_traits<enum SDL_Scancode,bool,std::less<enum SDL_Scancode>,std::allocator<std::pair<enum SDL_Scancode const ,bool> >,0> >::_Insert_at<std::pair<enum SDL_Scancode const ,bool> &,std::_Tree_node<std::pair<enum SDL_Scancode const ,bool>,void *> *>
  00dfd	8b 95 f8 fe ff
	ff		 mov	 edx, DWORD PTR $T27[ebp]
  00e03	83 ca 01	 or	 edx, 1
  00e06	89 95 f8 fe ff
	ff		 mov	 DWORD PTR $T27[ebp], edx
  00e0c	c6 45 fc 00	 mov	 BYTE PTR __$EHRec$[ebp+12], 0
  00e10	8d 4d d0	 lea	 ecx, DWORD PTR __Next$[ebp]
  00e13	e8 00 00 00 00	 call	 ??1?$_Tree_const_iterator@V?$_Tree_val@U?$_Tree_simple_types@U?$pair@$$CBW4SDL_Scancode@@_N@std@@@std@@@std@@@std@@QAE@XZ
  00e18	c7 45 fc ff ff
	ff ff		 mov	 DWORD PTR __$EHRec$[ebp+12], -1
  00e1f	8d 4d 0c	 lea	 ecx, DWORD PTR __Where$[ebp]
  00e22	e8 00 00 00 00	 call	 ??1?$_Tree_const_iterator@V?$_Tree_val@U?$_Tree_simple_types@U?$pair@$$CBW4SDL_Scancode@@_N@std@@@std@@@std@@@std@@QAE@XZ
  00e27	8b 45 08	 mov	 eax, DWORD PTR ___$ReturnUdt$[ebp]
  00e2a	e9 3a 04 00 00	 jmp	 $LN35@Insert_hin
; Line 1748
  00e2f	eb 72		 jmp	 SHORT $LN5@Insert_hin
$LN6@Insert_hin:
; Line 1750
  00e31	8b 45 18	 mov	 eax, DWORD PTR __Val$[ebp]
  00e34	50		 push	 eax
  00e35	e8 00 00 00 00	 call	 ??$forward@AAU?$pair@$$CBW4SDL_Scancode@@_N@std@@@std@@YAAAU?$pair@$$CBW4SDL_Scancode@@_N@0@AAU10@@Z ; std::forward<std::pair<enum SDL_Scancode const ,bool> &>
  00e3a	83 c4 04	 add	 esp, 4
  00e3d	89 85 88 fd ff
	ff		 mov	 DWORD PTR tv1001[ebp], eax
  00e43	8d 4d 0c	 lea	 ecx, DWORD PTR __Where$[ebp]
  00e46	e8 00 00 00 00	 call	 ?_Mynode@?$_Tree_unchecked_const_iterator@V?$_Tree_val@U?$_Tree_simple_types@U?$pair@$$CBW4SDL_Scancode@@_N@std@@@std@@@std@@U_Iterator_base12@2@@std@@QBEPAU?$_Tree_node@U?$pair@$$CBW4SDL_Scancode@@_N@std@@PAX@2@XZ ; std::_Tree_unchecked_const_iterator<std::_Tree_val<std::_Tree_simple_types<std::pair<enum SDL_Scancode const ,bool> > >,std::_Iterator_base12>::_Mynode
  00e4b	89 85 84 fd ff
	ff		 mov	 DWORD PTR tv1002[ebp], eax
  00e51	8b 4d 1c	 mov	 ecx, DWORD PTR __Newnode$[ebp]
  00e54	51		 push	 ecx
  00e55	8b 95 88 fd ff
	ff		 mov	 edx, DWORD PTR tv1001[ebp]
  00e5b	52		 push	 edx
  00e5c	8b 85 84 fd ff
	ff		 mov	 eax, DWORD PTR tv1002[ebp]
  00e62	50		 push	 eax
  00e63	6a 01		 push	 1
  00e65	8b 4d 08	 mov	 ecx, DWORD PTR ___$ReturnUdt$[ebp]
  00e68	51		 push	 ecx
  00e69	8b 4d e4	 mov	 ecx, DWORD PTR _this$[ebp]
  00e6c	e8 00 00 00 00	 call	 ??$_Insert_at@AAU?$pair@$$CBW4SDL_Scancode@@_N@std@@PAU?$_Tree_node@U?$pair@$$CBW4SDL_Scancode@@_N@std@@PAX@2@@?$_Tree@V?$_Tmap_traits@W4SDL_Scancode@@_NU?$less@W4SDL_Scancode@@@std@@V?$allocator@U?$pair@$$CBW4SDL_Scancode@@_N@std@@@3@$0A@@std@@@std@@IAE?AV?$_Tree_iterator@V?$_Tree_val@U?$_Tree_simple_types@U?$pair@$$CBW4SDL_Scancode@@_N@std@@@std@@@std@@@1@_NPAU?$_Tree_node@U?$pair@$$CBW4SDL_Scancode@@_N@std@@PAX@1@AAU?$pair@$$CBW4SDL_Scancode@@_N@1@1@Z ; std::_Tree<std::_Tmap_traits<enum SDL_Scancode,bool,std::less<enum SDL_Scancode>,std::allocator<std::pair<enum SDL_Scancode const ,bool> >,0> >::_Insert_at<std::pair<enum SDL_Scancode const ,bool> &,std::_Tree_node<std::pair<enum SDL_Scancode const ,bool>,void *> *>
  00e71	8b 95 f8 fe ff
	ff		 mov	 edx, DWORD PTR $T27[ebp]
  00e77	83 ca 01	 or	 edx, 1
  00e7a	89 95 f8 fe ff
	ff		 mov	 DWORD PTR $T27[ebp], edx
  00e80	c6 45 fc 00	 mov	 BYTE PTR __$EHRec$[ebp+12], 0
  00e84	8d 4d d0	 lea	 ecx, DWORD PTR __Next$[ebp]
  00e87	e8 00 00 00 00	 call	 ??1?$_Tree_const_iterator@V?$_Tree_val@U?$_Tree_simple_types@U?$pair@$$CBW4SDL_Scancode@@_N@std@@@std@@@std@@@std@@QAE@XZ
  00e8c	c7 45 fc ff ff
	ff ff		 mov	 DWORD PTR __$EHRec$[ebp+12], -1
  00e93	8d 4d 0c	 lea	 ecx, DWORD PTR __Where$[ebp]
  00e96	e8 00 00 00 00	 call	 ??1?$_Tree_const_iterator@V?$_Tree_val@U?$_Tree_simple_types@U?$pair@$$CBW4SDL_Scancode@@_N@std@@@std@@@std@@@std@@QAE@XZ
  00e9b	8b 45 08	 mov	 eax, DWORD PTR ___$ReturnUdt$[ebp]
  00e9e	e9 c6 03 00 00	 jmp	 $LN35@Insert_hin
$LN5@Insert_hin:
; Line 1752
  00ea3	e9 0e 03 00 00	 jmp	 $LN30@Insert_hin
$LN7@Insert_hin:
; Line 1755
  00ea8	8b 45 18	 mov	 eax, DWORD PTR __Val$[ebp]
  00eab	50		 push	 eax
  00eac	8b 4d e4	 mov	 ecx, DWORD PTR _this$[ebp]
  00eaf	e8 00 00 00 00	 call	 ?_Kfn@?$_Tree@V?$_Tmap_traits@W4SDL_Scancode@@_NU?$less@W4SDL_Scancode@@@std@@V?$allocator@U?$pair@$$CBW4SDL_Scancode@@_N@std@@@3@$0A@@std@@@std@@IBEABW4SDL_Scancode@@ABU?$pair@$$CBW4SDL_Scancode@@_N@2@@Z ; std::_Tree<std::_Tmap_traits<enum SDL_Scancode,bool,std::less<enum SDL_Scancode>,std::allocator<std::pair<enum SDL_Scancode const ,bool> >,0> >::_Kfn
  00eb4	89 85 88 fd ff
	ff		 mov	 DWORD PTR tv1003[ebp], eax
  00eba	8d 4d 0c	 lea	 ecx, DWORD PTR __Where$[ebp]
  00ebd	e8 00 00 00 00	 call	 ?_Mynode@?$_Tree_unchecked_const_iterator@V?$_Tree_val@U?$_Tree_simple_types@U?$pair@$$CBW4SDL_Scancode@@_N@std@@@std@@@std@@U_Iterator_base12@2@@std@@QBEPAU?$_Tree_node@U?$pair@$$CBW4SDL_Scancode@@_N@std@@PAX@2@XZ ; std::_Tree_unchecked_const_iterator<std::_Tree_val<std::_Tree_simple_types<std::pair<enum SDL_Scancode const ,bool> > >,std::_Iterator_base12>::_Mynode
  00ec2	89 85 84 fd ff
	ff		 mov	 DWORD PTR tv1004[ebp], eax
  00ec8	8b 8d 84 fd ff
	ff		 mov	 ecx, DWORD PTR tv1004[ebp]
  00ece	51		 push	 ecx
  00ecf	8b 4d e4	 mov	 ecx, DWORD PTR _this$[ebp]
  00ed2	e8 00 00 00 00	 call	 ?_Key@?$_Tree@V?$_Tmap_traits@W4SDL_Scancode@@_NU?$less@W4SDL_Scancode@@@std@@V?$allocator@U?$pair@$$CBW4SDL_Scancode@@_N@std@@@3@$0A@@std@@@std@@IBEABW4SDL_Scancode@@PAU?$_Tree_node@U?$pair@$$CBW4SDL_Scancode@@_N@std@@PAX@2@@Z ; std::_Tree<std::_Tmap_traits<enum SDL_Scancode,bool,std::less<enum SDL_Scancode>,std::allocator<std::pair<enum SDL_Scancode const ,bool> >,0> >::_Key
  00ed7	89 85 80 fd ff
	ff		 mov	 DWORD PTR tv1005[ebp], eax
  00edd	8d 95 b7 fe ff
	ff		 lea	 edx, DWORD PTR $T23[ebp]
  00ee3	52		 push	 edx
  00ee4	8b 4d e4	 mov	 ecx, DWORD PTR _this$[ebp]
  00ee7	e8 00 00 00 00	 call	 ?_Getcomp@?$_Tree_comp@$0A@V?$_Tmap_traits@W4SDL_Scancode@@_NU?$less@W4SDL_Scancode@@@std@@V?$allocator@U?$pair@$$CBW4SDL_Scancode@@_N@std@@@3@$0A@@std@@@std@@QBE?AU?$less@W4SDL_Scancode@@@2@XZ ; std::_Tree_comp<0,std::_Tmap_traits<enum SDL_Scancode,bool,std::less<enum SDL_Scancode>,std::allocator<std::pair<enum SDL_Scancode const ,bool> >,0> >::_Getcomp
  00eec	89 85 7c fd ff
	ff		 mov	 DWORD PTR tv1006[ebp], eax
  00ef2	68 d9 06 00 00	 push	 1753			; 000006d9H
  00ef7	68 00 00 00 00	 push	 OFFSET ??_C@_1IK@HBAODOLH@?$AAc?$AA?3?$AA?2?$AAp?$AAr?$AAo?$AAg?$AAr?$AAa?$AAm?$AA?5?$AAf?$AAi?$AAl?$AAe?$AAs?$AA?5?$AA?$CI?$AAx?$AA8?$AA6?$AA?$CJ?$AA?2?$AAm?$AAi?$AAc?$AAr?$AAo?$AAs?$AAo?$AAf?$AAt@
  00efc	8b 85 88 fd ff
	ff		 mov	 eax, DWORD PTR tv1003[ebp]
  00f02	50		 push	 eax
  00f03	8b 8d 80 fd ff
	ff		 mov	 ecx, DWORD PTR tv1005[ebp]
  00f09	51		 push	 ecx
  00f0a	8b 95 7c fd ff
	ff		 mov	 edx, DWORD PTR tv1006[ebp]
  00f10	0f b6 02	 movzx	 eax, BYTE PTR [edx]
  00f13	50		 push	 eax
  00f14	e8 00 00 00 00	 call	 ??$_Debug_lt_pred@U?$less@W4SDL_Scancode@@@std@@ABW4SDL_Scancode@@ABW43@@std@@YA_NU?$less@W4SDL_Scancode@@@0@ABW4SDL_Scancode@@1PB_WI@Z ; std::_Debug_lt_pred<std::less<enum SDL_Scancode>,enum SDL_Scancode const &,enum SDL_Scancode const &>
  00f19	83 c4 14	 add	 esp, 20			; 00000014H
  00f1c	88 85 7b fd ff
	ff		 mov	 BYTE PTR tv1007[ebp], al
  00f22	0f b6 8d 7b fd
	ff ff		 movzx	 ecx, BYTE PTR tv1007[ebp]
  00f29	85 c9		 test	 ecx, ecx
  00f2b	0f 84 0f 01 00
	00		 je	 $LN40@Insert_hin
  00f31	8d 95 c0 fe ff
	ff		 lea	 edx, DWORD PTR $T24[ebp]
  00f37	52		 push	 edx
  00f38	8b 4d e4	 mov	 ecx, DWORD PTR _this$[ebp]
  00f3b	e8 00 00 00 00	 call	 ?end@?$_Tree@V?$_Tmap_traits@W4SDL_Scancode@@_NU?$less@W4SDL_Scancode@@@std@@V?$allocator@U?$pair@$$CBW4SDL_Scancode@@_N@std@@@3@$0A@@std@@@std@@QAE?AV?$_Tree_iterator@V?$_Tree_val@U?$_Tree_simple_types@U?$pair@$$CBW4SDL_Scancode@@_N@std@@@std@@@std@@@2@XZ ; std::_Tree<std::_Tmap_traits<enum SDL_Scancode,bool,std::less<enum SDL_Scancode>,std::allocator<std::pair<enum SDL_Scancode const ,bool> >,0> >::end
  00f40	89 85 74 fd ff
	ff		 mov	 DWORD PTR tv1008[ebp], eax
  00f46	8b 85 74 fd ff
	ff		 mov	 eax, DWORD PTR tv1008[ebp]
  00f4c	89 85 70 fd ff
	ff		 mov	 DWORD PTR tv903[ebp], eax
  00f52	c6 45 fc 08	 mov	 BYTE PTR __$EHRec$[ebp+12], 8
  00f56	8b 8d f8 fe ff
	ff		 mov	 ecx, DWORD PTR $T27[ebp]
  00f5c	83 c9 04	 or	 ecx, 4
  00f5f	89 8d f8 fe ff
	ff		 mov	 DWORD PTR $T27[ebp], ecx
  00f65	8d 55 0c	 lea	 edx, DWORD PTR __Where$[ebp]
  00f68	52		 push	 edx
  00f69	8d 4d d0	 lea	 ecx, DWORD PTR __Next$[ebp]
  00f6c	e8 00 00 00 00	 call	 ??4?$_Tree_const_iterator@V?$_Tree_val@U?$_Tree_simple_types@U?$pair@$$CBW4SDL_Scancode@@_N@std@@@std@@@std@@@std@@QAEAAV01@ABV01@@Z
  00f71	89 85 6c fd ff
	ff		 mov	 DWORD PTR tv1012[ebp], eax
  00f77	8b 8d 6c fd ff
	ff		 mov	 ecx, DWORD PTR tv1012[ebp]
  00f7d	e8 00 00 00 00	 call	 ??E?$_Tree_const_iterator@V?$_Tree_val@U?$_Tree_simple_types@U?$pair@$$CBW4SDL_Scancode@@_N@std@@@std@@@std@@@std@@QAEAAV01@XZ ; std::_Tree_const_iterator<std::_Tree_val<std::_Tree_simple_types<std::pair<enum SDL_Scancode const ,bool> > > >::operator++
  00f82	89 85 68 fd ff
	ff		 mov	 DWORD PTR tv1013[ebp], eax
  00f88	8b 85 70 fd ff
	ff		 mov	 eax, DWORD PTR tv903[ebp]
  00f8e	50		 push	 eax
  00f8f	8b 8d 68 fd ff
	ff		 mov	 ecx, DWORD PTR tv1013[ebp]
  00f95	e8 00 00 00 00	 call	 ??8?$_Tree_const_iterator@V?$_Tree_val@U?$_Tree_simple_types@U?$pair@$$CBW4SDL_Scancode@@_N@std@@@std@@@std@@@std@@QBE_NABV01@@Z ; std::_Tree_const_iterator<std::_Tree_val<std::_Tree_simple_types<std::pair<enum SDL_Scancode const ,bool> > > >::operator==
  00f9a	88 85 67 fd ff
	ff		 mov	 BYTE PTR tv1014[ebp], al
  00fa0	0f b6 8d 67 fd
	ff ff		 movzx	 ecx, BYTE PTR tv1014[ebp]
  00fa7	85 c9		 test	 ecx, ecx
  00fa9	0f 85 85 00 00
	00		 jne	 $LN39@Insert_hin
  00faf	8d 4d d0	 lea	 ecx, DWORD PTR __Next$[ebp]
  00fb2	e8 00 00 00 00	 call	 ?_Mynode@?$_Tree_unchecked_const_iterator@V?$_Tree_val@U?$_Tree_simple_types@U?$pair@$$CBW4SDL_Scancode@@_N@std@@@std@@@std@@U_Iterator_base12@2@@std@@QBEPAU?$_Tree_node@U?$pair@$$CBW4SDL_Scancode@@_N@std@@PAX@2@XZ ; std::_Tree_unchecked_const_iterator<std::_Tree_val<std::_Tree_simple_types<std::pair<enum SDL_Scancode const ,bool> > >,std::_Iterator_base12>::_Mynode
  00fb7	89 85 60 fd ff
	ff		 mov	 DWORD PTR tv1015[ebp], eax
  00fbd	8b 95 60 fd ff
	ff		 mov	 edx, DWORD PTR tv1015[ebp]
  00fc3	52		 push	 edx
  00fc4	8b 4d e4	 mov	 ecx, DWORD PTR _this$[ebp]
  00fc7	e8 00 00 00 00	 call	 ?_Key@?$_Tree@V?$_Tmap_traits@W4SDL_Scancode@@_NU?$less@W4SDL_Scancode@@@std@@V?$allocator@U?$pair@$$CBW4SDL_Scancode@@_N@std@@@3@$0A@@std@@@std@@IBEABW4SDL_Scancode@@PAU?$_Tree_node@U?$pair@$$CBW4SDL_Scancode@@_N@std@@PAX@2@@Z ; std::_Tree<std::_Tmap_traits<enum SDL_Scancode,bool,std::less<enum SDL_Scancode>,std::allocator<std::pair<enum SDL_Scancode const ,bool> >,0> >::_Key
  00fcc	89 85 5c fd ff
	ff		 mov	 DWORD PTR tv1016[ebp], eax
  00fd2	8b 45 18	 mov	 eax, DWORD PTR __Val$[ebp]
  00fd5	50		 push	 eax
  00fd6	8b 4d e4	 mov	 ecx, DWORD PTR _this$[ebp]
  00fd9	e8 00 00 00 00	 call	 ?_Kfn@?$_Tree@V?$_Tmap_traits@W4SDL_Scancode@@_NU?$less@W4SDL_Scancode@@@std@@V?$allocator@U?$pair@$$CBW4SDL_Scancode@@_N@std@@@3@$0A@@std@@@std@@IBEABW4SDL_Scancode@@ABU?$pair@$$CBW4SDL_Scancode@@_N@2@@Z ; std::_Tree<std::_Tmap_traits<enum SDL_Scancode,bool,std::less<enum SDL_Scancode>,std::allocator<std::pair<enum SDL_Scancode const ,bool> >,0> >::_Kfn
  00fde	89 85 58 fd ff
	ff		 mov	 DWORD PTR tv1017[ebp], eax
  00fe4	8d 8d d7 fe ff
	ff		 lea	 ecx, DWORD PTR $T25[ebp]
  00fea	51		 push	 ecx
  00feb	8b 4d e4	 mov	 ecx, DWORD PTR _this$[ebp]
  00fee	e8 00 00 00 00	 call	 ?_Getcomp@?$_Tree_comp@$0A@V?$_Tmap_traits@W4SDL_Scancode@@_NU?$less@W4SDL_Scancode@@@std@@V?$allocator@U?$pair@$$CBW4SDL_Scancode@@_N@std@@@3@$0A@@std@@@std@@QBE?AU?$less@W4SDL_Scancode@@@2@XZ ; std::_Tree_comp<0,std::_Tmap_traits<enum SDL_Scancode,bool,std::less<enum SDL_Scancode>,std::allocator<std::pair<enum SDL_Scancode const ,bool> >,0> >::_Getcomp
  00ff3	89 85 54 fd ff
	ff		 mov	 DWORD PTR tv1018[ebp], eax
  00ff9	68 dc 06 00 00	 push	 1756			; 000006dcH
  00ffe	68 00 00 00 00	 push	 OFFSET ??_C@_1IK@HBAODOLH@?$AAc?$AA?3?$AA?2?$AAp?$AAr?$AAo?$AAg?$AAr?$AAa?$AAm?$AA?5?$AAf?$AAi?$AAl?$AAe?$AAs?$AA?5?$AA?$CI?$AAx?$AA8?$AA6?$AA?$CJ?$AA?2?$AAm?$AAi?$AAc?$AAr?$AAo?$AAs?$AAo?$AAf?$AAt@
  01003	8b 95 5c fd ff
	ff		 mov	 edx, DWORD PTR tv1016[ebp]
  01009	52		 push	 edx
  0100a	8b 85 58 fd ff
	ff		 mov	 eax, DWORD PTR tv1017[ebp]
  01010	50		 push	 eax
  01011	8b 8d 54 fd ff
	ff		 mov	 ecx, DWORD PTR tv1018[ebp]
  01017	0f b6 11	 movzx	 edx, BYTE PTR [ecx]
  0101a	52		 push	 edx
  0101b	e8 00 00 00 00	 call	 ??$_Debug_lt_pred@U?$less@W4SDL_Scancode@@@std@@ABW4SDL_Scancode@@ABW43@@std@@YA_NU?$less@W4SDL_Scancode@@@0@ABW4SDL_Scancode@@1PB_WI@Z ; std::_Debug_lt_pred<std::less<enum SDL_Scancode>,enum SDL_Scancode const &,enum SDL_Scancode const &>
  01020	83 c4 14	 add	 esp, 20			; 00000014H
  01023	88 85 53 fd ff
	ff		 mov	 BYTE PTR tv1019[ebp], al
  01029	0f b6 85 53 fd
	ff ff		 movzx	 eax, BYTE PTR tv1019[ebp]
  01030	85 c0		 test	 eax, eax
  01032	74 0c		 je	 SHORT $LN40@Insert_hin
$LN39@Insert_hin:
  01034	c7 85 4c fd ff
	ff 01 00 00 00	 mov	 DWORD PTR tv747[ebp], 1
  0103e	eb 0a		 jmp	 SHORT $LN41@Insert_hin
$LN40@Insert_hin:
  01040	c7 85 4c fd ff
	ff 00 00 00 00	 mov	 DWORD PTR tv747[ebp], 0
$LN41@Insert_hin:
  0104a	8a 8d 4c fd ff
	ff		 mov	 cl, BYTE PTR tv747[ebp]
  01050	88 8d ab fe ff
	ff		 mov	 BYTE PTR $T22[ebp], cl
  01056	c7 45 fc 02 00
	00 00		 mov	 DWORD PTR __$EHRec$[ebp+12], 2
  0105d	8b 95 f8 fe ff
	ff		 mov	 edx, DWORD PTR $T27[ebp]
  01063	83 e2 04	 and	 edx, 4
  01066	74 12		 je	 SHORT $LN57@Insert_hin
  01068	83 a5 f8 fe ff
	ff fb		 and	 DWORD PTR $T27[ebp], -5	; fffffffbH
  0106f	8d 8d c0 fe ff
	ff		 lea	 ecx, DWORD PTR $T24[ebp]
  01075	e8 00 00 00 00	 call	 ??1?$_Tree_iterator@V?$_Tree_val@U?$_Tree_simple_types@U?$pair@$$CBW4SDL_Scancode@@_N@std@@@std@@@std@@@std@@QAE@XZ
$LN57@Insert_hin:
  0107a	0f b6 85 ab fe
	ff ff		 movzx	 eax, BYTE PTR $T22[ebp]
  01081	85 c0		 test	 eax, eax
  01083	0f 84 2d 01 00
	00		 je	 $LN30@Insert_hin
; Line 1758
  01089	8d 4d 0c	 lea	 ecx, DWORD PTR __Where$[ebp]
  0108c	e8 00 00 00 00	 call	 ?_Mynode@?$_Tree_unchecked_const_iterator@V?$_Tree_val@U?$_Tree_simple_types@U?$pair@$$CBW4SDL_Scancode@@_N@std@@@std@@@std@@U_Iterator_base12@2@@std@@QBEPAU?$_Tree_node@U?$pair@$$CBW4SDL_Scancode@@_N@std@@PAX@2@XZ ; std::_Tree_unchecked_const_iterator<std::_Tree_val<std::_Tree_simple_types<std::pair<enum SDL_Scancode const ,bool> > >,std::_Iterator_base12>::_Mynode
  01091	89 85 88 fd ff
	ff		 mov	 DWORD PTR tv1020[ebp], eax
  01097	8b 85 88 fd ff
	ff		 mov	 eax, DWORD PTR tv1020[ebp]
  0109d	50		 push	 eax
  0109e	e8 00 00 00 00	 call	 ?_Right@?$_Tree_val@U?$_Tree_simple_types@U?$pair@$$CBW4SDL_Scancode@@_N@std@@@std@@@std@@SAAAPAU?$_Tree_node@U?$pair@$$CBW4SDL_Scancode@@_N@std@@PAX@2@PAU32@@Z ; std::_Tree_val<std::_Tree_simple_types<std::pair<enum SDL_Scancode const ,bool> > >::_Right
  010a3	83 c4 04	 add	 esp, 4
  010a6	89 85 84 fd ff
	ff		 mov	 DWORD PTR tv1021[ebp], eax
  010ac	8b 8d 84 fd ff
	ff		 mov	 ecx, DWORD PTR tv1021[ebp]
  010b2	8b 11		 mov	 edx, DWORD PTR [ecx]
  010b4	52		 push	 edx
  010b5	e8 00 00 00 00	 call	 ?_Isnil@?$_Tree_val@U?$_Tree_simple_types@U?$pair@$$CBW4SDL_Scancode@@_N@std@@@std@@@std@@SAAADPAU?$_Tree_node@U?$pair@$$CBW4SDL_Scancode@@_N@std@@PAX@2@@Z ; std::_Tree_val<std::_Tree_simple_types<std::pair<enum SDL_Scancode const ,bool> > >::_Isnil
  010ba	83 c4 04	 add	 esp, 4
  010bd	89 85 80 fd ff
	ff		 mov	 DWORD PTR tv1022[ebp], eax
  010c3	8b 85 80 fd ff
	ff		 mov	 eax, DWORD PTR tv1022[ebp]
  010c9	0f be 08	 movsx	 ecx, BYTE PTR [eax]
  010cc	85 c9		 test	 ecx, ecx
  010ce	74 74		 je	 SHORT $LN2@Insert_hin
; Line 1760
  010d0	8b 45 18	 mov	 eax, DWORD PTR __Val$[ebp]
  010d3	50		 push	 eax
  010d4	e8 00 00 00 00	 call	 ??$forward@AAU?$pair@$$CBW4SDL_Scancode@@_N@std@@@std@@YAAAU?$pair@$$CBW4SDL_Scancode@@_N@0@AAU10@@Z ; std::forward<std::pair<enum SDL_Scancode const ,bool> &>
  010d9	83 c4 04	 add	 esp, 4
  010dc	89 85 88 fd ff
	ff		 mov	 DWORD PTR tv1023[ebp], eax
  010e2	8d 4d 0c	 lea	 ecx, DWORD PTR __Where$[ebp]
  010e5	e8 00 00 00 00	 call	 ?_Mynode@?$_Tree_unchecked_const_iterator@V?$_Tree_val@U?$_Tree_simple_types@U?$pair@$$CBW4SDL_Scancode@@_N@std@@@std@@@std@@U_Iterator_base12@2@@std@@QBEPAU?$_Tree_node@U?$pair@$$CBW4SDL_Scancode@@_N@std@@PAX@2@XZ ; std::_Tree_unchecked_const_iterator<std::_Tree_val<std::_Tree_simple_types<std::pair<enum SDL_Scancode const ,bool> > >,std::_Iterator_base12>::_Mynode
  010ea	89 85 84 fd ff
	ff		 mov	 DWORD PTR tv1024[ebp], eax
  010f0	8b 4d 1c	 mov	 ecx, DWORD PTR __Newnode$[ebp]
  010f3	51		 push	 ecx
  010f4	8b 95 88 fd ff
	ff		 mov	 edx, DWORD PTR tv1023[ebp]
  010fa	52		 push	 edx
  010fb	8b 85 84 fd ff
	ff		 mov	 eax, DWORD PTR tv1024[ebp]
  01101	50		 push	 eax
  01102	6a 00		 push	 0
  01104	8b 4d 08	 mov	 ecx, DWORD PTR ___$ReturnUdt$[ebp]
  01107	51		 push	 ecx
  01108	8b 4d e4	 mov	 ecx, DWORD PTR _this$[ebp]
  0110b	e8 00 00 00 00	 call	 ??$_Insert_at@AAU?$pair@$$CBW4SDL_Scancode@@_N@std@@PAU?$_Tree_node@U?$pair@$$CBW4SDL_Scancode@@_N@std@@PAX@2@@?$_Tree@V?$_Tmap_traits@W4SDL_Scancode@@_NU?$less@W4SDL_Scancode@@@std@@V?$allocator@U?$pair@$$CBW4SDL_Scancode@@_N@std@@@3@$0A@@std@@@std@@IAE?AV?$_Tree_iterator@V?$_Tree_val@U?$_Tree_simple_types@U?$pair@$$CBW4SDL_Scancode@@_N@std@@@std@@@std@@@1@_NPAU?$_Tree_node@U?$pair@$$CBW4SDL_Scancode@@_N@std@@PAX@1@AAU?$pair@$$CBW4SDL_Scancode@@_N@1@1@Z ; std::_Tree<std::_Tmap_traits<enum SDL_Scancode,bool,std::less<enum SDL_Scancode>,std::allocator<std::pair<enum SDL_Scancode const ,bool> >,0> >::_Insert_at<std::pair<enum SDL_Scancode const ,bool> &,std::_Tree_node<std::pair<enum SDL_Scancode const ,bool>,void *> *>
  01110	8b 95 f8 fe ff
	ff		 mov	 edx, DWORD PTR $T27[ebp]
  01116	83 ca 01	 or	 edx, 1
  01119	89 95 f8 fe ff
	ff		 mov	 DWORD PTR $T27[ebp], edx
  0111f	c6 45 fc 00	 mov	 BYTE PTR __$EHRec$[ebp+12], 0
  01123	8d 4d d0	 lea	 ecx, DWORD PTR __Next$[ebp]
  01126	e8 00 00 00 00	 call	 ??1?$_Tree_const_iterator@V?$_Tree_val@U?$_Tree_simple_types@U?$pair@$$CBW4SDL_Scancode@@_N@std@@@std@@@std@@@std@@QAE@XZ
  0112b	c7 45 fc ff ff
	ff ff		 mov	 DWORD PTR __$EHRec$[ebp+12], -1
  01132	8d 4d 0c	 lea	 ecx, DWORD PTR __Where$[ebp]
  01135	e8 00 00 00 00	 call	 ??1?$_Tree_const_iterator@V?$_Tree_val@U?$_Tree_simple_types@U?$pair@$$CBW4SDL_Scancode@@_N@std@@@std@@@std@@@std@@QAE@XZ
  0113a	8b 45 08	 mov	 eax, DWORD PTR ___$ReturnUdt$[ebp]
  0113d	e9 27 01 00 00	 jmp	 $LN35@Insert_hin
; Line 1761
  01142	eb 72		 jmp	 SHORT $LN30@Insert_hin
$LN2@Insert_hin:
; Line 1763
  01144	8b 45 18	 mov	 eax, DWORD PTR __Val$[ebp]
  01147	50		 push	 eax
  01148	e8 00 00 00 00	 call	 ??$forward@AAU?$pair@$$CBW4SDL_Scancode@@_N@std@@@std@@YAAAU?$pair@$$CBW4SDL_Scancode@@_N@0@AAU10@@Z ; std::forward<std::pair<enum SDL_Scancode const ,bool> &>
  0114d	83 c4 04	 add	 esp, 4
  01150	89 85 88 fd ff
	ff		 mov	 DWORD PTR tv1025[ebp], eax
  01156	8d 4d d0	 lea	 ecx, DWORD PTR __Next$[ebp]
  01159	e8 00 00 00 00	 call	 ?_Mynode@?$_Tree_unchecked_const_iterator@V?$_Tree_val@U?$_Tree_simple_types@U?$pair@$$CBW4SDL_Scancode@@_N@std@@@std@@@std@@U_Iterator_base12@2@@std@@QBEPAU?$_Tree_node@U?$pair@$$CBW4SDL_Scancode@@_N@std@@PAX@2@XZ ; std::_Tree_unchecked_const_iterator<std::_Tree_val<std::_Tree_simple_types<std::pair<enum SDL_Scancode const ,bool> > >,std::_Iterator_base12>::_Mynode
  0115e	89 85 84 fd ff
	ff		 mov	 DWORD PTR tv1026[ebp], eax
  01164	8b 4d 1c	 mov	 ecx, DWORD PTR __Newnode$[ebp]
  01167	51		 push	 ecx
  01168	8b 95 88 fd ff
	ff		 mov	 edx, DWORD PTR tv1025[ebp]
  0116e	52		 push	 edx
  0116f	8b 85 84 fd ff
	ff		 mov	 eax, DWORD PTR tv1026[ebp]
  01175	50		 push	 eax
  01176	6a 01		 push	 1
  01178	8b 4d 08	 mov	 ecx, DWORD PTR ___$ReturnUdt$[ebp]
  0117b	51		 push	 ecx
  0117c	8b 4d e4	 mov	 ecx, DWORD PTR _this$[ebp]
  0117f	e8 00 00 00 00	 call	 ??$_Insert_at@AAU?$pair@$$CBW4SDL_Scancode@@_N@std@@PAU?$_Tree_node@U?$pair@$$CBW4SDL_Scancode@@_N@std@@PAX@2@@?$_Tree@V?$_Tmap_traits@W4SDL_Scancode@@_NU?$less@W4SDL_Scancode@@@std@@V?$allocator@U?$pair@$$CBW4SDL_Scancode@@_N@std@@@3@$0A@@std@@@std@@IAE?AV?$_Tree_iterator@V?$_Tree_val@U?$_Tree_simple_types@U?$pair@$$CBW4SDL_Scancode@@_N@std@@@std@@@std@@@1@_NPAU?$_Tree_node@U?$pair@$$CBW4SDL_Scancode@@_N@std@@PAX@1@AAU?$pair@$$CBW4SDL_Scancode@@_N@1@1@Z ; std::_Tree<std::_Tmap_traits<enum SDL_Scancode,bool,std::less<enum SDL_Scancode>,std::allocator<std::pair<enum SDL_Scancode const ,bool> >,0> >::_Insert_at<std::pair<enum SDL_Scancode const ,bool> &,std::_Tree_node<std::pair<enum SDL_Scancode const ,bool>,void *> *>
  01184	8b 95 f8 fe ff
	ff		 mov	 edx, DWORD PTR $T27[ebp]
  0118a	83 ca 01	 or	 edx, 1
  0118d	89 95 f8 fe ff
	ff		 mov	 DWORD PTR $T27[ebp], edx
  01193	c6 45 fc 00	 mov	 BYTE PTR __$EHRec$[ebp+12], 0
  01197	8d 4d d0	 lea	 ecx, DWORD PTR __Next$[ebp]
  0119a	e8 00 00 00 00	 call	 ??1?$_Tree_const_iterator@V?$_Tree_val@U?$_Tree_simple_types@U?$pair@$$CBW4SDL_Scancode@@_N@std@@@std@@@std@@@std@@QAE@XZ
  0119f	c7 45 fc ff ff
	ff ff		 mov	 DWORD PTR __$EHRec$[ebp+12], -1
  011a6	8d 4d 0c	 lea	 ecx, DWORD PTR __Where$[ebp]
  011a9	e8 00 00 00 00	 call	 ??1?$_Tree_const_iterator@V?$_Tree_val@U?$_Tree_simple_types@U?$pair@$$CBW4SDL_Scancode@@_N@std@@@std@@@std@@@std@@QAE@XZ
  011ae	8b 45 08	 mov	 eax, DWORD PTR ___$ReturnUdt$[ebp]
  011b1	e9 b3 00 00 00	 jmp	 $LN35@Insert_hin
$LN30@Insert_hin:
  011b6	eb 1b		 jmp	 SHORT $LN42@Insert_hin
__catch$??$_Insert_hint@AAU?$pair@$$CBW4SDL_Scancode@@_N@std@@PAU?$_Tree_node@U?$pair@$$CBW4SDL_Scancode@@_N@std@@PAX@2@@?$_Tree@V?$_Tmap_traits@W4SDL_Scancode@@_NU?$less@W4SDL_Scancode@@@std@@V?$allocator@U?$pair@$$CBW4SDL_Scancode@@_N@std@@@3@$0A@@std@@@std@@IAE?AV?$_Tree_iterator@V?$_Tree_val@U?$_Tree_simple_types@U?$pair@$$CBW4SDL_Scancode@@_N@std@@@std@@@std@@@1@V?$_Tree_const_iterator@V?$_Tree_val@U?$_Tree_simple_types@U?$pair@$$CBW4SDL_Scancode@@_N@std@@@std@@@std@@@1@AAU?$pair@$$CBW4SDL_Scancode@@_N@1@PAU?$_Tree_node@U?$pair@$$CBW4SDL_Scancode@@_N@std@@PAX@1@@Z$0:
; Line 1767
  011b8	8b 45 1c	 mov	 eax, DWORD PTR __Newnode$[ebp]
  011bb	50		 push	 eax
  011bc	8b 4d e4	 mov	 ecx, DWORD PTR _this$[ebp]
  011bf	e8 00 00 00 00	 call	 ?_Destroy_if_not_nil@?$_Tree@V?$_Tmap_traits@W4SDL_Scancode@@_NU?$less@W4SDL_Scancode@@@std@@V?$allocator@U?$pair@$$CBW4SDL_Scancode@@_N@std@@@3@$0A@@std@@@std@@IAEXPAU?$_Tree_node@U?$pair@$$CBW4SDL_Scancode@@_N@std@@PAX@2@@Z ; std::_Tree<std::_Tmap_traits<enum SDL_Scancode,bool,std::less<enum SDL_Scancode>,std::allocator<std::pair<enum SDL_Scancode const ,bool> >,0> >::_Destroy_if_not_nil
; Line 1768
  011c4	6a 00		 push	 0
  011c6	6a 00		 push	 0
  011c8	e8 00 00 00 00	 call	 __CxxThrowException@8
; Line 1769
  011cd	b8 00 00 00 00	 mov	 eax, $LN60@Insert_hin
  011d2	c3		 ret	 0
$LN42@Insert_hin:
  011d3	c7 45 fc 01 00
	00 00		 mov	 DWORD PTR __$EHRec$[ebp+12], 1
  011da	eb 07		 jmp	 SHORT __tryend$??$_Insert_hint@AAU?$pair@$$CBW4SDL_Scancode@@_N@std@@PAU?$_Tree_node@U?$pair@$$CBW4SDL_Scancode@@_N@std@@PAX@2@@?$_Tree@V?$_Tmap_traits@W4SDL_Scancode@@_NU?$less@W4SDL_Scancode@@@std@@V?$allocator@U?$pair@$$CBW4SDL_Scancode@@_N@std@@@3@$0A@@std@@@std@@IAE?AV?$_Tree_iterator@V?$_Tree_val@U?$_Tree_simple_types@U?$pair@$$CBW4SDL_Scancode@@_N@std@@@std@@@std@@@1@V?$_Tree_const_iterator@V?$_Tree_val@U?$_Tree_simple_types@U?$pair@$$CBW4SDL_Scancode@@_N@std@@@std@@@std@@@1@AAU?$pair@$$CBW4SDL_Scancode@@_N@1@PAU?$_Tree_node@U?$pair@$$CBW4SDL_Scancode@@_N@std@@PAX@1@@Z$1
$LN60@Insert_hin:
  011dc	c7 45 fc 01 00
	00 00		 mov	 DWORD PTR __$EHRec$[ebp+12], 1
__tryend$??$_Insert_hint@AAU?$pair@$$CBW4SDL_Scancode@@_N@std@@PAU?$_Tree_node@U?$pair@$$CBW4SDL_Scancode@@_N@std@@PAX@2@@?$_Tree@V?$_Tmap_traits@W4SDL_Scancode@@_NU?$less@W4SDL_Scancode@@@std@@V?$allocator@U?$pair@$$CBW4SDL_Scancode@@_N@std@@@3@$0A@@std@@@std@@IAE?AV?$_Tree_iterator@V?$_Tree_val@U?$_Tree_simple_types@U?$pair@$$CBW4SDL_Scancode@@_N@std@@@std@@@std@@@1@V?$_Tree_const_iterator@V?$_Tree_val@U?$_Tree_simple_types@U?$pair@$$CBW4SDL_Scancode@@_N@std@@@std@@@std@@@1@AAU?$pair@$$CBW4SDL_Scancode@@_N@1@PAU?$_Tree_node@U?$pair@$$CBW4SDL_Scancode@@_N@std@@PAX@1@@Z$1:
; Line 1772
  011e3	8b 45 1c	 mov	 eax, DWORD PTR __Newnode$[ebp]
  011e6	50		 push	 eax
  011e7	8b 4d 18	 mov	 ecx, DWORD PTR __Val$[ebp]
  011ea	51		 push	 ecx
  011eb	e8 00 00 00 00	 call	 ??$forward@AAU?$pair@$$CBW4SDL_Scancode@@_N@std@@@std@@YAAAU?$pair@$$CBW4SDL_Scancode@@_N@0@AAU10@@Z ; std::forward<std::pair<enum SDL_Scancode const ,bool> &>
  011f0	83 c4 04	 add	 esp, 4
  011f3	50		 push	 eax
  011f4	0f b6 55 c7	 movzx	 edx, BYTE PTR __Leftish$[ebp]
  011f8	52		 push	 edx
  011f9	8d 85 e0 fe ff
	ff		 lea	 eax, DWORD PTR $T26[ebp]
  011ff	50		 push	 eax
  01200	8b 4d e4	 mov	 ecx, DWORD PTR _this$[ebp]
  01203	e8 00 00 00 00	 call	 ??$_Insert_nohint@AAU?$pair@$$CBW4SDL_Scancode@@_N@std@@PAU?$_Tree_node@U?$pair@$$CBW4SDL_Scancode@@_N@std@@PAX@2@@?$_Tree@V?$_Tmap_traits@W4SDL_Scancode@@_NU?$less@W4SDL_Scancode@@@std@@V?$allocator@U?$pair@$$CBW4SDL_Scancode@@_N@std@@@3@$0A@@std@@@std@@IAE?AU?$pair@V?$_Tree_iterator@V?$_Tree_val@U?$_Tree_simple_types@U?$pair@$$CBW4SDL_Scancode@@_N@std@@@std@@@std@@@std@@_N@1@_NAAU?$pair@$$CBW4SDL_Scancode@@_N@1@PAU?$_Tree_node@U?$pair@$$CBW4SDL_Scancode@@_N@std@@PAX@1@@Z ; std::_Tree<std::_Tmap_traits<enum SDL_Scancode,bool,std::less<enum SDL_Scancode>,std::allocator<std::pair<enum SDL_Scancode const ,bool> >,0> >::_Insert_nohint<std::pair<enum SDL_Scancode const ,bool> &,std::_Tree_node<std::pair<enum SDL_Scancode const ,bool>,void *> *>
  01208	89 85 88 fd ff
	ff		 mov	 DWORD PTR tv1027[ebp], eax
  0120e	8b 8d 88 fd ff
	ff		 mov	 ecx, DWORD PTR tv1027[ebp]
  01214	89 8d 84 fd ff
	ff		 mov	 DWORD PTR tv914[ebp], ecx
  0121a	c6 45 fc 0a	 mov	 BYTE PTR __$EHRec$[ebp+12], 10 ; 0000000aH
  0121e	8b 95 84 fd ff
	ff		 mov	 edx, DWORD PTR tv914[ebp]
  01224	52		 push	 edx
  01225	8b 4d 08	 mov	 ecx, DWORD PTR ___$ReturnUdt$[ebp]
  01228	e8 00 00 00 00	 call	 ??0?$_Tree_iterator@V?$_Tree_val@U?$_Tree_simple_types@U?$pair@$$CBW4SDL_Scancode@@_N@std@@@std@@@std@@@std@@QAE@ABV01@@Z
  0122d	8b 85 f8 fe ff
	ff		 mov	 eax, DWORD PTR $T27[ebp]
  01233	83 c8 01	 or	 eax, 1
  01236	89 85 f8 fe ff
	ff		 mov	 DWORD PTR $T27[ebp], eax
  0123c	c6 45 fc 01	 mov	 BYTE PTR __$EHRec$[ebp+12], 1
  01240	8d 8d e0 fe ff
	ff		 lea	 ecx, DWORD PTR $T26[ebp]
  01246	e8 00 00 00 00	 call	 ??1?$pair@V?$_Tree_iterator@V?$_Tree_val@U?$_Tree_simple_types@U?$pair@$$CBW4SDL_Scancode@@_N@std@@@std@@@std@@@std@@_N@std@@QAE@XZ
  0124b	c6 45 fc 00	 mov	 BYTE PTR __$EHRec$[ebp+12], 0
  0124f	8d 4d d0	 lea	 ecx, DWORD PTR __Next$[ebp]
  01252	e8 00 00 00 00	 call	 ??1?$_Tree_const_iterator@V?$_Tree_val@U?$_Tree_simple_types@U?$pair@$$CBW4SDL_Scancode@@_N@std@@@std@@@std@@@std@@QAE@XZ
  01257	c7 45 fc ff ff
	ff ff		 mov	 DWORD PTR __$EHRec$[ebp+12], -1
  0125e	8d 4d 0c	 lea	 ecx, DWORD PTR __Where$[ebp]
  01261	e8 00 00 00 00	 call	 ??1?$_Tree_const_iterator@V?$_Tree_val@U?$_Tree_simple_types@U?$pair@$$CBW4SDL_Scancode@@_N@std@@@std@@@std@@@std@@QAE@XZ
  01266	8b 45 08	 mov	 eax, DWORD PTR ___$ReturnUdt$[ebp]
$LN35@Insert_hin:
; Line 1773
  01269	52		 push	 edx
  0126a	8b cd		 mov	 ecx, ebp
  0126c	50		 push	 eax
  0126d	8d 15 00 00 00
	00		 lea	 edx, DWORD PTR $LN90@Insert_hin
  01273	e8 00 00 00 00	 call	 @_RTC_CheckStackVars@8
  01278	58		 pop	 eax
  01279	5a		 pop	 edx
  0127a	8b 4d f4	 mov	 ecx, DWORD PTR __$EHRec$[ebp+4]
  0127d	64 89 0d 00 00
	00 00		 mov	 DWORD PTR fs:0, ecx
  01284	59		 pop	 ecx
  01285	5f		 pop	 edi
  01286	5e		 pop	 esi
  01287	5b		 pop	 ebx
  01288	8b 4d ec	 mov	 ecx, DWORD PTR __$ArrayPad$[ebp]
  0128b	33 cd		 xor	 ecx, ebp
  0128d	e8 00 00 00 00	 call	 @__security_check_cookie@4
  01292	81 c4 b4 02 00
	00		 add	 esp, 692		; 000002b4H
  01298	3b ec		 cmp	 ebp, esp
  0129a	e8 00 00 00 00	 call	 __RTC_CheckEsp
  0129f	8b e5		 mov	 esp, ebp
  012a1	5d		 pop	 ebp
  012a2	c2 18 00	 ret	 24			; 00000018H
  012a5	8d 49 00	 npad	 3
$LN90@Insert_hin:
  012a8	01 00 00 00	 DD	 1
  012ac	00 00 00 00	 DD	 $LN89@Insert_hin
$LN89@Insert_hin:
  012b0	d0 ff ff ff	 DD	 -48			; ffffffd0H
  012b4	0c 00 00 00	 DD	 12			; 0000000cH
  012b8	00 00 00 00	 DD	 $LN87@Insert_hin
$LN87@Insert_hin:
  012bc	5f		 DB	 95			; 0000005fH
  012bd	4e		 DB	 78			; 0000004eH
  012be	65		 DB	 101			; 00000065H
  012bf	78		 DB	 120			; 00000078H
  012c0	74		 DB	 116			; 00000074H
  012c1	00		 DB	 0
_TEXT	ENDS
;	COMDAT text$x
text$x	SEGMENT
__unwindfunclet$??$_Insert_hint@AAU?$pair@$$CBW4SDL_Scancode@@_N@std@@PAU?$_Tree_node@U?$pair@$$CBW4SDL_Scancode@@_N@std@@PAX@2@@?$_Tree@V?$_Tmap_traits@W4SDL_Scancode@@_NU?$less@W4SDL_Scancode@@@std@@V?$allocator@U?$pair@$$CBW4SDL_Scancode@@_N@std@@@3@$0A@@std@@@std@@IAE?AV?$_Tree_iterator@V?$_Tree_val@U?$_Tree_simple_types@U?$pair@$$CBW4SDL_Scancode@@_N@std@@@std@@@std@@@1@V?$_Tree_const_iterator@V?$_Tree_val@U?$_Tree_simple_types@U?$pair@$$CBW4SDL_Scancode@@_N@std@@@std@@@std@@@1@AAU?$pair@$$CBW4SDL_Scancode@@_N@1@PAU?$_Tree_node@U?$pair@$$CBW4SDL_Scancode@@_N@std@@PAX@1@@Z$2:
  00000	8d 4d 0c	 lea	 ecx, DWORD PTR __Where$[ebp]
  00003	e9 00 00 00 00	 jmp	 ??1?$_Tree_const_iterator@V?$_Tree_val@U?$_Tree_simple_types@U?$pair@$$CBW4SDL_Scancode@@_N@std@@@std@@@std@@@std@@QAE@XZ
__unwindfunclet$??$_Insert_hint@AAU?$pair@$$CBW4SDL_Scancode@@_N@std@@PAU?$_Tree_node@U?$pair@$$CBW4SDL_Scancode@@_N@std@@PAX@2@@?$_Tree@V?$_Tmap_traits@W4SDL_Scancode@@_NU?$less@W4SDL_Scancode@@@std@@V?$allocator@U?$pair@$$CBW4SDL_Scancode@@_N@std@@@3@$0A@@std@@@std@@IAE?AV?$_Tree_iterator@V?$_Tree_val@U?$_Tree_simple_types@U?$pair@$$CBW4SDL_Scancode@@_N@std@@@std@@@std@@@1@V?$_Tree_const_iterator@V?$_Tree_val@U?$_Tree_simple_types@U?$pair@$$CBW4SDL_Scancode@@_N@std@@@std@@@std@@@1@AAU?$pair@$$CBW4SDL_Scancode@@_N@1@PAU?$_Tree_node@U?$pair@$$CBW4SDL_Scancode@@_N@std@@PAX@1@@Z$3:
  00008	8d 4d d0	 lea	 ecx, DWORD PTR __Next$[ebp]
  0000b	e9 00 00 00 00	 jmp	 ??1?$_Tree_const_iterator@V?$_Tree_val@U?$_Tree_simple_types@U?$pair@$$CBW4SDL_Scancode@@_N@std@@@std@@@std@@@std@@QAE@XZ
__unwindfunclet$??$_Insert_hint@AAU?$pair@$$CBW4SDL_Scancode@@_N@std@@PAU?$_Tree_node@U?$pair@$$CBW4SDL_Scancode@@_N@std@@PAX@2@@?$_Tree@V?$_Tmap_traits@W4SDL_Scancode@@_NU?$less@W4SDL_Scancode@@@std@@V?$allocator@U?$pair@$$CBW4SDL_Scancode@@_N@std@@@3@$0A@@std@@@std@@IAE?AV?$_Tree_iterator@V?$_Tree_val@U?$_Tree_simple_types@U?$pair@$$CBW4SDL_Scancode@@_N@std@@@std@@@std@@@1@V?$_Tree_const_iterator@V?$_Tree_val@U?$_Tree_simple_types@U?$pair@$$CBW4SDL_Scancode@@_N@std@@@std@@@std@@@1@AAU?$pair@$$CBW4SDL_Scancode@@_N@1@PAU?$_Tree_node@U?$pair@$$CBW4SDL_Scancode@@_N@std@@PAX@1@@Z$5:
  00010	8d 8d 9c fd ff
	ff		 lea	 ecx, DWORD PTR $T3[ebp]
  00016	e9 00 00 00 00	 jmp	 ??1?$_Tree_iterator@V?$_Tree_val@U?$_Tree_simple_types@U?$pair@$$CBW4SDL_Scancode@@_N@std@@@std@@@std@@@std@@QAE@XZ
__unwindfunclet$??$_Insert_hint@AAU?$pair@$$CBW4SDL_Scancode@@_N@std@@PAU?$_Tree_node@U?$pair@$$CBW4SDL_Scancode@@_N@std@@PAX@2@@?$_Tree@V?$_Tmap_traits@W4SDL_Scancode@@_NU?$less@W4SDL_Scancode@@@std@@V?$allocator@U?$pair@$$CBW4SDL_Scancode@@_N@std@@@3@$0A@@std@@@std@@IAE?AV?$_Tree_iterator@V?$_Tree_val@U?$_Tree_simple_types@U?$pair@$$CBW4SDL_Scancode@@_N@std@@@std@@@std@@@1@V?$_Tree_const_iterator@V?$_Tree_val@U?$_Tree_simple_types@U?$pair@$$CBW4SDL_Scancode@@_N@std@@@std@@@std@@@1@AAU?$pair@$$CBW4SDL_Scancode@@_N@1@PAU?$_Tree_node@U?$pair@$$CBW4SDL_Scancode@@_N@std@@PAX@1@@Z$6:
  0001b	8d 8d c8 fd ff
	ff		 lea	 ecx, DWORD PTR $T6[ebp]
  00021	e9 00 00 00 00	 jmp	 ??1?$_Tree_iterator@V?$_Tree_val@U?$_Tree_simple_types@U?$pair@$$CBW4SDL_Scancode@@_N@std@@@std@@@std@@@std@@QAE@XZ
__unwindfunclet$??$_Insert_hint@AAU?$pair@$$CBW4SDL_Scancode@@_N@std@@PAU?$_Tree_node@U?$pair@$$CBW4SDL_Scancode@@_N@std@@PAX@2@@?$_Tree@V?$_Tmap_traits@W4SDL_Scancode@@_NU?$less@W4SDL_Scancode@@@std@@V?$allocator@U?$pair@$$CBW4SDL_Scancode@@_N@std@@@3@$0A@@std@@@std@@IAE?AV?$_Tree_iterator@V?$_Tree_val@U?$_Tree_simple_types@U?$pair@$$CBW4SDL_Scancode@@_N@std@@@std@@@std@@@1@V?$_Tree_const_iterator@V?$_Tree_val@U?$_Tree_simple_types@U?$pair@$$CBW4SDL_Scancode@@_N@std@@@std@@@std@@@1@AAU?$pair@$$CBW4SDL_Scancode@@_N@1@PAU?$_Tree_node@U?$pair@$$CBW4SDL_Scancode@@_N@std@@PAX@1@@Z$7:
  00026	8b 85 f8 fe ff
	ff		 mov	 eax, DWORD PTR $T27[ebp]
  0002c	83 e0 02	 and	 eax, 2
  0002f	0f 84 12 00 00
	00		 je	 $LN51@Insert_hin
  00035	83 a5 f8 fe ff
	ff fd		 and	 DWORD PTR $T27[ebp], -3	; fffffffdH
  0003c	8d 8d 18 fe ff
	ff		 lea	 ecx, DWORD PTR $T12[ebp]
  00042	e9 00 00 00 00	 jmp	 ??1?$_Tree_iterator@V?$_Tree_val@U?$_Tree_simple_types@U?$pair@$$CBW4SDL_Scancode@@_N@std@@@std@@@std@@@std@@QAE@XZ
$LN51@Insert_hin:
  00047	c3		 ret	 0
__unwindfunclet$??$_Insert_hint@AAU?$pair@$$CBW4SDL_Scancode@@_N@std@@PAU?$_Tree_node@U?$pair@$$CBW4SDL_Scancode@@_N@std@@PAX@2@@?$_Tree@V?$_Tmap_traits@W4SDL_Scancode@@_NU?$less@W4SDL_Scancode@@@std@@V?$allocator@U?$pair@$$CBW4SDL_Scancode@@_N@std@@@3@$0A@@std@@@std@@IAE?AV?$_Tree_iterator@V?$_Tree_val@U?$_Tree_simple_types@U?$pair@$$CBW4SDL_Scancode@@_N@std@@@std@@@std@@@1@V?$_Tree_const_iterator@V?$_Tree_val@U?$_Tree_simple_types@U?$pair@$$CBW4SDL_Scancode@@_N@std@@@std@@@std@@@1@AAU?$pair@$$CBW4SDL_Scancode@@_N@1@PAU?$_Tree_node@U?$pair@$$CBW4SDL_Scancode@@_N@std@@PAX@1@@Z$8:
  00048	8d 8d 44 fe ff
	ff		 lea	 ecx, DWORD PTR $T15[ebp]
  0004e	e9 00 00 00 00	 jmp	 ??1?$_Tree_iterator@V?$_Tree_val@U?$_Tree_simple_types@U?$pair@$$CBW4SDL_Scancode@@_N@std@@@std@@@std@@@std@@QAE@XZ
__unwindfunclet$??$_Insert_hint@AAU?$pair@$$CBW4SDL_Scancode@@_N@std@@PAU?$_Tree_node@U?$pair@$$CBW4SDL_Scancode@@_N@std@@PAX@2@@?$_Tree@V?$_Tmap_traits@W4SDL_Scancode@@_NU?$less@W4SDL_Scancode@@@std@@V?$allocator@U?$pair@$$CBW4SDL_Scancode@@_N@std@@@3@$0A@@std@@@std@@IAE?AV?$_Tree_iterator@V?$_Tree_val@U?$_Tree_simple_types@U?$pair@$$CBW4SDL_Scancode@@_N@std@@@std@@@std@@@1@V?$_Tree_const_iterator@V?$_Tree_val@U?$_Tree_simple_types@U?$pair@$$CBW4SDL_Scancode@@_N@std@@@std@@@std@@@1@AAU?$pair@$$CBW4SDL_Scancode@@_N@1@PAU?$_Tree_node@U?$pair@$$CBW4SDL_Scancode@@_N@std@@PAX@1@@Z$9:
  00053	8d 8d 70 fe ff
	ff		 lea	 ecx, DWORD PTR $T18[ebp]
  00059	e9 00 00 00 00	 jmp	 ??1?$_Tree_iterator@V?$_Tree_val@U?$_Tree_simple_types@U?$pair@$$CBW4SDL_Scancode@@_N@std@@@std@@@std@@@std@@QAE@XZ
__unwindfunclet$??$_Insert_hint@AAU?$pair@$$CBW4SDL_Scancode@@_N@std@@PAU?$_Tree_node@U?$pair@$$CBW4SDL_Scancode@@_N@std@@PAX@2@@?$_Tree@V?$_Tmap_traits@W4SDL_Scancode@@_NU?$less@W4SDL_Scancode@@@std@@V?$allocator@U?$pair@$$CBW4SDL_Scancode@@_N@std@@@3@$0A@@std@@@std@@IAE?AV?$_Tree_iterator@V?$_Tree_val@U?$_Tree_simple_types@U?$pair@$$CBW4SDL_Scancode@@_N@std@@@std@@@std@@@1@V?$_Tree_const_iterator@V?$_Tree_val@U?$_Tree_simple_types@U?$pair@$$CBW4SDL_Scancode@@_N@std@@@std@@@std@@@1@AAU?$pair@$$CBW4SDL_Scancode@@_N@1@PAU?$_Tree_node@U?$pair@$$CBW4SDL_Scancode@@_N@std@@PAX@1@@Z$10:
  0005e	8b 85 f8 fe ff
	ff		 mov	 eax, DWORD PTR $T27[ebp]
  00064	83 e0 04	 and	 eax, 4
  00067	0f 84 12 00 00
	00		 je	 $LN56@Insert_hin
  0006d	83 a5 f8 fe ff
	ff fb		 and	 DWORD PTR $T27[ebp], -5	; fffffffbH
  00074	8d 8d c0 fe ff
	ff		 lea	 ecx, DWORD PTR $T24[ebp]
  0007a	e9 00 00 00 00	 jmp	 ??1?$_Tree_iterator@V?$_Tree_val@U?$_Tree_simple_types@U?$pair@$$CBW4SDL_Scancode@@_N@std@@@std@@@std@@@std@@QAE@XZ
$LN56@Insert_hin:
  0007f	c3		 ret	 0
__unwindfunclet$??$_Insert_hint@AAU?$pair@$$CBW4SDL_Scancode@@_N@std@@PAU?$_Tree_node@U?$pair@$$CBW4SDL_Scancode@@_N@std@@PAX@2@@?$_Tree@V?$_Tmap_traits@W4SDL_Scancode@@_NU?$less@W4SDL_Scancode@@@std@@V?$allocator@U?$pair@$$CBW4SDL_Scancode@@_N@std@@@3@$0A@@std@@@std@@IAE?AV?$_Tree_iterator@V?$_Tree_val@U?$_Tree_simple_types@U?$pair@$$CBW4SDL_Scancode@@_N@std@@@std@@@std@@@1@V?$_Tree_const_iterator@V?$_Tree_val@U?$_Tree_simple_types@U?$pair@$$CBW4SDL_Scancode@@_N@std@@@std@@@std@@@1@AAU?$pair@$$CBW4SDL_Scancode@@_N@1@PAU?$_Tree_node@U?$pair@$$CBW4SDL_Scancode@@_N@std@@PAX@1@@Z$11:
  00080	8d 8d e0 fe ff
	ff		 lea	 ecx, DWORD PTR $T26[ebp]
  00086	e9 00 00 00 00	 jmp	 ??1?$pair@V?$_Tree_iterator@V?$_Tree_val@U?$_Tree_simple_types@U?$pair@$$CBW4SDL_Scancode@@_N@std@@@std@@@std@@@std@@_N@std@@QAE@XZ
__ehhandler$??$_Insert_hint@AAU?$pair@$$CBW4SDL_Scancode@@_N@std@@PAU?$_Tree_node@U?$pair@$$CBW4SDL_Scancode@@_N@std@@PAX@2@@?$_Tree@V?$_Tmap_traits@W4SDL_Scancode@@_NU?$less@W4SDL_Scancode@@@std@@V?$allocator@U?$pair@$$CBW4SDL_Scancode@@_N@std@@@3@$0A@@std@@@std@@IAE?AV?$_Tree_iterator@V?$_Tree_val@U?$_Tree_simple_types@U?$pair@$$CBW4SDL_Scancode@@_N@std@@@std@@@std@@@1@V?$_Tree_const_iterator@V?$_Tree_val@U?$_Tree_simple_types@U?$pair@$$CBW4SDL_Scancode@@_N@std@@@std@@@std@@@1@AAU?$pair@$$CBW4SDL_Scancode@@_N@1@PAU?$_Tree_node@U?$pair@$$CBW4SDL_Scancode@@_N@std@@PAX@1@@Z:
  0008b	8b 54 24 08	 mov	 edx, DWORD PTR [esp+8]
  0008f	8d 42 0c	 lea	 eax, DWORD PTR [edx+12]
  00092	8b 8a 48 fd ff
	ff		 mov	 ecx, DWORD PTR [edx-696]
  00098	33 c8		 xor	 ecx, eax
  0009a	e8 00 00 00 00	 call	 @__security_check_cookie@4
  0009f	8b 4a f8	 mov	 ecx, DWORD PTR [edx-8]
  000a2	33 c8		 xor	 ecx, eax
  000a4	e8 00 00 00 00	 call	 @__security_check_cookie@4
  000a9	b8 00 00 00 00	 mov	 eax, OFFSET __ehfuncinfo$??$_Insert_hint@AAU?$pair@$$CBW4SDL_Scancode@@_N@std@@PAU?$_Tree_node@U?$pair@$$CBW4SDL_Scancode@@_N@std@@PAX@2@@?$_Tree@V?$_Tmap_traits@W4SDL_Scancode@@_NU?$less@W4SDL_Scancode@@@std@@V?$allocator@U?$pair@$$CBW4SDL_Scancode@@_N@std@@@3@$0A@@std@@@std@@IAE?AV?$_Tree_iterator@V?$_Tree_val@U?$_Tree_simple_types@U?$pair@$$CBW4SDL_Scancode@@_N@std@@@std@@@std@@@1@V?$_Tree_const_iterator@V?$_Tree_val@U?$_Tree_simple_types@U?$pair@$$CBW4SDL_Scancode@@_N@std@@@std@@@std@@@1@AAU?$pair@$$CBW4SDL_Scancode@@_N@1@PAU?$_Tree_node@U?$pair@$$CBW4SDL_Scancode@@_N@std@@PAX@1@@Z
  000ae	e9 00 00 00 00	 jmp	 ___CxxFrameHandler3
text$x	ENDS
??$_Insert_hint@AAU?$pair@$$CBW4SDL_Scancode@@_N@std@@PAU?$_Tree_node@U?$pair@$$CBW4SDL_Scancode@@_N@std@@PAX@2@@?$_Tree@V?$_Tmap_traits@W4SDL_Scancode@@_NU?$less@W4SDL_Scancode@@@std@@V?$allocator@U?$pair@$$CBW4SDL_Scancode@@_N@std@@@3@$0A@@std@@@std@@IAE?AV?$_Tree_iterator@V?$_Tree_val@U?$_Tree_simple_types@U?$pair@$$CBW4SDL_Scancode@@_N@std@@@std@@@std@@@1@V?$_Tree_const_iterator@V?$_Tree_val@U?$_Tree_simple_types@U?$pair@$$CBW4SDL_Scancode@@_N@std@@@std@@@std@@@1@AAU?$pair@$$CBW4SDL_Scancode@@_N@1@PAU?$_Tree_node@U?$pair@$$CBW4SDL_Scancode@@_N@std@@PAX@1@@Z ENDP ; std::_Tree<std::_Tmap_traits<enum SDL_Scancode,bool,std::less<enum SDL_Scancode>,std::allocator<std::pair<enum SDL_Scancode const ,bool> >,0> >::_Insert_hint<std::pair<enum SDL_Scancode const ,bool> &,std::_Tree_node<std::pair<enum SDL_Scancode const ,bool>,void *> *>
; Function compile flags: /Odtp /RTCsu /ZI
;	COMDAT ??$_Buynode@ABUpiecewise_construct_t@std@@V?$tuple@ABW4SDL_Scancode@@@2@V?$tuple@$$$V@2@@?$_Tree_buy@U?$pair@$$CBW4SDL_Scancode@@_N@std@@V?$allocator@U?$pair@$$CBW4SDL_Scancode@@_N@std@@@2@@std@@QAEPAU?$_Tree_node@U?$pair@$$CBW4SDL_Scancode@@_N@std@@PAX@1@ABUpiecewise_construct_t@1@$$QAV?$tuple@ABW4SDL_Scancode@@@1@$$QAV?$tuple@$$$V@1@@Z
_TEXT	SEGMENT
tv133 = -264						; size = 4
tv132 = -260						; size = 4
tv131 = -256						; size = 4
tv130 = -252						; size = 4
tv129 = -248						; size = 4
$T2 = -237						; size = 1
__Pnode$ = -36						; size = 4
_this$ = -24						; size = 4
__$EHRec$ = -16						; size = 16
_<_Val_0>$ = 8						; size = 4
_<_Val_1>$ = 12						; size = 4
_<_Val_2>$ = 16						; size = 4
??$_Buynode@ABUpiecewise_construct_t@std@@V?$tuple@ABW4SDL_Scancode@@@2@V?$tuple@$$$V@2@@?$_Tree_buy@U?$pair@$$CBW4SDL_Scancode@@_N@std@@V?$allocator@U?$pair@$$CBW4SDL_Scancode@@_N@std@@@2@@std@@QAEPAU?$_Tree_node@U?$pair@$$CBW4SDL_Scancode@@_N@std@@PAX@1@ABUpiecewise_construct_t@1@$$QAV?$tuple@ABW4SDL_Scancode@@@1@$$QAV?$tuple@$$$V@1@@Z PROC ; std::_Tree_buy<std::pair<enum SDL_Scancode const ,bool>,std::allocator<std::pair<enum SDL_Scancode const ,bool> > >::_Buynode<std::piecewise_construct_t const &,std::tuple<enum SDL_Scancode const &>,std::tuple<> >, COMDAT
; _this$ = ecx
; File c:\program files (x86)\microsoft visual studio 12.0\vc\include\xtree
; Line 923
  00000	55		 push	 ebp
  00001	8b ec		 mov	 ebp, esp
  00003	6a ff		 push	 -1
  00005	68 00 00 00 00	 push	 __ehhandler$??$_Buynode@ABUpiecewise_construct_t@std@@V?$tuple@ABW4SDL_Scancode@@@2@V?$tuple@$$$V@2@@?$_Tree_buy@U?$pair@$$CBW4SDL_Scancode@@_N@std@@V?$allocator@U?$pair@$$CBW4SDL_Scancode@@_N@std@@@2@@std@@QAEPAU?$_Tree_node@U?$pair@$$CBW4SDL_Scancode@@_N@std@@PAX@1@ABUpiecewise_construct_t@1@$$QAV?$tuple@ABW4SDL_Scancode@@@1@$$QAV?$tuple@$$$V@1@@Z
  0000a	64 a1 00 00 00
	00		 mov	 eax, DWORD PTR fs:0
  00010	50		 push	 eax
  00011	51		 push	 ecx
  00012	81 ec f8 00 00
	00		 sub	 esp, 248		; 000000f8H
  00018	53		 push	 ebx
  00019	56		 push	 esi
  0001a	57		 push	 edi
  0001b	51		 push	 ecx
  0001c	8d bd f8 fe ff
	ff		 lea	 edi, DWORD PTR [ebp-264]
  00022	b9 3e 00 00 00	 mov	 ecx, 62			; 0000003eH
  00027	b8 cc cc cc cc	 mov	 eax, -858993460		; ccccccccH
  0002c	f3 ab		 rep stosd
  0002e	59		 pop	 ecx
  0002f	a1 00 00 00 00	 mov	 eax, DWORD PTR ___security_cookie
  00034	33 c5		 xor	 eax, ebp
  00036	50		 push	 eax
  00037	8d 45 f4	 lea	 eax, DWORD PTR __$EHRec$[ebp+4]
  0003a	64 a3 00 00 00
	00		 mov	 DWORD PTR fs:0, eax
  00040	89 65 f0	 mov	 DWORD PTR __$EHRec$[ebp], esp
  00043	89 4d e8	 mov	 DWORD PTR _this$[ebp], ecx
; Line 925
  00046	8b 4d e8	 mov	 ecx, DWORD PTR _this$[ebp]
  00049	e8 00 00 00 00	 call	 ?_Buynode0@?$_Tree_buy@U?$pair@$$CBW4SDL_Scancode@@_N@std@@V?$allocator@U?$pair@$$CBW4SDL_Scancode@@_N@std@@@2@@std@@QAEPAU?$_Tree_node@U?$pair@$$CBW4SDL_Scancode@@_N@std@@PAX@2@XZ ; std::_Tree_buy<std::pair<enum SDL_Scancode const ,bool>,std::allocator<std::pair<enum SDL_Scancode const ,bool> > >::_Buynode0
  0004e	89 45 dc	 mov	 DWORD PTR __Pnode$[ebp], eax
; Line 927
  00051	8b 45 dc	 mov	 eax, DWORD PTR __Pnode$[ebp]
  00054	50		 push	 eax
  00055	e8 00 00 00 00	 call	 ?_Color@?$_Tree_val@U?$_Tree_simple_types@U?$pair@$$CBW4SDL_Scancode@@_N@std@@@std@@@std@@SAAADPAU?$_Tree_node@U?$pair@$$CBW4SDL_Scancode@@_N@std@@PAX@2@@Z ; std::_Tree_val<std::_Tree_simple_types<std::pair<enum SDL_Scancode const ,bool> > >::_Color
  0005a	83 c4 04	 add	 esp, 4
  0005d	c6 00 00	 mov	 BYTE PTR [eax], 0
; Line 928
  00060	8b 45 dc	 mov	 eax, DWORD PTR __Pnode$[ebp]
  00063	50		 push	 eax
  00064	e8 00 00 00 00	 call	 ?_Isnil@?$_Tree_val@U?$_Tree_simple_types@U?$pair@$$CBW4SDL_Scancode@@_N@std@@@std@@@std@@SAAADPAU?$_Tree_node@U?$pair@$$CBW4SDL_Scancode@@_N@std@@PAX@2@@Z ; std::_Tree_val<std::_Tree_simple_types<std::pair<enum SDL_Scancode const ,bool> > >::_Isnil
  00069	83 c4 04	 add	 esp, 4
  0006c	c6 00 00	 mov	 BYTE PTR [eax], 0
; Line 930
  0006f	c7 45 fc 00 00
	00 00		 mov	 DWORD PTR __$EHRec$[ebp+12], 0
; Line 933
  00076	8b 45 10	 mov	 eax, DWORD PTR _<_Val_2>$[ebp]
  00079	50		 push	 eax
  0007a	e8 00 00 00 00	 call	 ??$forward@V?$tuple@$$$V@std@@@std@@YA$$QAV?$tuple@$$$V@0@AAV10@@Z ; std::forward<std::tuple<> >
  0007f	83 c4 04	 add	 esp, 4
  00082	89 85 08 ff ff
	ff		 mov	 DWORD PTR tv129[ebp], eax
  00088	8b 4d 0c	 mov	 ecx, DWORD PTR _<_Val_1>$[ebp]
  0008b	51		 push	 ecx
  0008c	e8 00 00 00 00	 call	 ??$forward@V?$tuple@ABW4SDL_Scancode@@@std@@@std@@YA$$QAV?$tuple@ABW4SDL_Scancode@@@0@AAV10@@Z ; std::forward<std::tuple<enum SDL_Scancode const &> >
  00091	83 c4 04	 add	 esp, 4
  00094	89 85 04 ff ff
	ff		 mov	 DWORD PTR tv130[ebp], eax
  0009a	8b 55 08	 mov	 edx, DWORD PTR _<_Val_0>$[ebp]
  0009d	52		 push	 edx
  0009e	e8 00 00 00 00	 call	 ??$forward@ABUpiecewise_construct_t@std@@@std@@YAABUpiecewise_construct_t@0@ABU10@@Z ; std::forward<std::piecewise_construct_t const &>
  000a3	83 c4 04	 add	 esp, 4
  000a6	89 85 00 ff ff
	ff		 mov	 DWORD PTR tv131[ebp], eax
  000ac	8b 45 dc	 mov	 eax, DWORD PTR __Pnode$[ebp]
  000af	50		 push	 eax
  000b0	e8 00 00 00 00	 call	 ?_Myval@?$_Tree_val@U?$_Tree_simple_types@U?$pair@$$CBW4SDL_Scancode@@_N@std@@@std@@@std@@SAAAU?$pair@$$CBW4SDL_Scancode@@_N@2@PAU?$_Tree_node@U?$pair@$$CBW4SDL_Scancode@@_N@std@@PAX@2@@Z ; std::_Tree_val<std::_Tree_simple_types<std::pair<enum SDL_Scancode const ,bool> > >::_Myval
  000b5	83 c4 04	 add	 esp, 4
  000b8	89 85 fc fe ff
	ff		 mov	 DWORD PTR tv132[ebp], eax
  000be	8d 8d 13 ff ff
	ff		 lea	 ecx, DWORD PTR $T2[ebp]
  000c4	51		 push	 ecx
  000c5	8b 4d e8	 mov	 ecx, DWORD PTR _this$[ebp]
  000c8	e8 00 00 00 00	 call	 ?_Getal@?$_Tree_alloc@$0A@U?$_Tree_base_types@U?$pair@$$CBW4SDL_Scancode@@_N@std@@V?$allocator@U?$pair@$$CBW4SDL_Scancode@@_N@std@@@2@@std@@@std@@QBE?AU?$_Wrap_alloc@V?$allocator@U?$_Tree_node@U?$pair@$$CBW4SDL_Scancode@@_N@std@@PAX@std@@@std@@@2@XZ ; std::_Tree_alloc<0,std::_Tree_base_types<std::pair<enum SDL_Scancode const ,bool>,std::allocator<std::pair<enum SDL_Scancode const ,bool> > > >::_Getal
  000cd	89 85 f8 fe ff
	ff		 mov	 DWORD PTR tv133[ebp], eax
  000d3	8b 95 08 ff ff
	ff		 mov	 edx, DWORD PTR tv129[ebp]
  000d9	52		 push	 edx
  000da	8b 85 04 ff ff
	ff		 mov	 eax, DWORD PTR tv130[ebp]
  000e0	50		 push	 eax
  000e1	8b 8d 00 ff ff
	ff		 mov	 ecx, DWORD PTR tv131[ebp]
  000e7	51		 push	 ecx
  000e8	8b 95 fc fe ff
	ff		 mov	 edx, DWORD PTR tv132[ebp]
  000ee	52		 push	 edx
  000ef	e8 00 00 00 00	 call	 ??$addressof@U?$pair@$$CBW4SDL_Scancode@@_N@std@@@std@@YAPAU?$pair@$$CBW4SDL_Scancode@@_N@0@AAU10@@Z ; std::addressof<std::pair<enum SDL_Scancode const ,bool> >
  000f4	83 c4 04	 add	 esp, 4
  000f7	50		 push	 eax
  000f8	8b 8d f8 fe ff
	ff		 mov	 ecx, DWORD PTR tv133[ebp]
  000fe	e8 00 00 00 00	 call	 ??$construct@U?$pair@$$CBW4SDL_Scancode@@_N@std@@ABUpiecewise_construct_t@2@V?$tuple@ABW4SDL_Scancode@@@2@V?$tuple@$$$V@2@@?$_Wrap_alloc@V?$allocator@U?$_Tree_node@U?$pair@$$CBW4SDL_Scancode@@_N@std@@PAX@std@@@std@@@std@@QAEXPAU?$pair@$$CBW4SDL_Scancode@@_N@1@ABUpiecewise_construct_t@1@$$QAV?$tuple@ABW4SDL_Scancode@@@1@$$QAV?$tuple@$$$V@1@@Z ; std::_Wrap_alloc<std::allocator<std::_Tree_node<std::pair<enum SDL_Scancode const ,bool>,void *> > >::construct<std::pair<enum SDL_Scancode const ,bool>,std::piecewise_construct_t const &,std::tuple<enum SDL_Scancode const &>,std::tuple<> >
  00103	eb 1b		 jmp	 SHORT $LN4@Buynode
__catch$??$_Buynode@ABUpiecewise_construct_t@std@@V?$tuple@ABW4SDL_Scancode@@@2@V?$tuple@$$$V@2@@?$_Tree_buy@U?$pair@$$CBW4SDL_Scancode@@_N@std@@V?$allocator@U?$pair@$$CBW4SDL_Scancode@@_N@std@@@2@@std@@QAEPAU?$_Tree_node@U?$pair@$$CBW4SDL_Scancode@@_N@std@@PAX@1@ABUpiecewise_construct_t@1@$$QAV?$tuple@ABW4SDL_Scancode@@@1@$$QAV?$tuple@$$$V@1@@Z$0:
; Line 935
  00105	8b 45 dc	 mov	 eax, DWORD PTR __Pnode$[ebp]
  00108	50		 push	 eax
  00109	8b 4d e8	 mov	 ecx, DWORD PTR _this$[ebp]
  0010c	e8 00 00 00 00	 call	 ?_Freenode0@?$_Tree_buy@U?$pair@$$CBW4SDL_Scancode@@_N@std@@V?$allocator@U?$pair@$$CBW4SDL_Scancode@@_N@std@@@2@@std@@QAEXPAU?$_Tree_node@U?$pair@$$CBW4SDL_Scancode@@_N@std@@PAX@2@@Z ; std::_Tree_buy<std::pair<enum SDL_Scancode const ,bool>,std::allocator<std::pair<enum SDL_Scancode const ,bool> > >::_Freenode0
; Line 936
  00111	6a 00		 push	 0
  00113	6a 00		 push	 0
  00115	e8 00 00 00 00	 call	 __CxxThrowException@8
; Line 937
  0011a	b8 00 00 00 00	 mov	 eax, $LN7@Buynode
  0011f	c3		 ret	 0
$LN4@Buynode:
  00120	c7 45 fc ff ff
	ff ff		 mov	 DWORD PTR __$EHRec$[ebp+12], -1
  00127	eb 07		 jmp	 SHORT __tryend$??$_Buynode@ABUpiecewise_construct_t@std@@V?$tuple@ABW4SDL_Scancode@@@2@V?$tuple@$$$V@2@@?$_Tree_buy@U?$pair@$$CBW4SDL_Scancode@@_N@std@@V?$allocator@U?$pair@$$CBW4SDL_Scancode@@_N@std@@@2@@std@@QAEPAU?$_Tree_node@U?$pair@$$CBW4SDL_Scancode@@_N@std@@PAX@1@ABUpiecewise_construct_t@1@$$QAV?$tuple@ABW4SDL_Scancode@@@1@$$QAV?$tuple@$$$V@1@@Z$1
$LN7@Buynode:
  00129	c7 45 fc ff ff
	ff ff		 mov	 DWORD PTR __$EHRec$[ebp+12], -1
__tryend$??$_Buynode@ABUpiecewise_construct_t@std@@V?$tuple@ABW4SDL_Scancode@@@2@V?$tuple@$$$V@2@@?$_Tree_buy@U?$pair@$$CBW4SDL_Scancode@@_N@std@@V?$allocator@U?$pair@$$CBW4SDL_Scancode@@_N@std@@@2@@std@@QAEPAU?$_Tree_node@U?$pair@$$CBW4SDL_Scancode@@_N@std@@PAX@1@ABUpiecewise_construct_t@1@$$QAV?$tuple@ABW4SDL_Scancode@@@1@$$QAV?$tuple@$$$V@1@@Z$1:
; Line 939
  00130	8b 45 dc	 mov	 eax, DWORD PTR __Pnode$[ebp]
$LN3@Buynode:
; Line 940
  00133	8b 4d f4	 mov	 ecx, DWORD PTR __$EHRec$[ebp+4]
  00136	64 89 0d 00 00
	00 00		 mov	 DWORD PTR fs:0, ecx
  0013d	59		 pop	 ecx
  0013e	5f		 pop	 edi
  0013f	5e		 pop	 esi
  00140	5b		 pop	 ebx
  00141	81 c4 08 01 00
	00		 add	 esp, 264		; 00000108H
  00147	3b ec		 cmp	 ebp, esp
  00149	e8 00 00 00 00	 call	 __RTC_CheckEsp
  0014e	8b e5		 mov	 esp, ebp
  00150	5d		 pop	 ebp
  00151	c2 0c 00	 ret	 12			; 0000000cH
_TEXT	ENDS
;	COMDAT text$x
text$x	SEGMENT
__ehhandler$??$_Buynode@ABUpiecewise_construct_t@std@@V?$tuple@ABW4SDL_Scancode@@@2@V?$tuple@$$$V@2@@?$_Tree_buy@U?$pair@$$CBW4SDL_Scancode@@_N@std@@V?$allocator@U?$pair@$$CBW4SDL_Scancode@@_N@std@@@2@@std@@QAEPAU?$_Tree_node@U?$pair@$$CBW4SDL_Scancode@@_N@std@@PAX@1@ABUpiecewise_construct_t@1@$$QAV?$tuple@ABW4SDL_Scancode@@@1@$$QAV?$tuple@$$$V@1@@Z:
  00000	8b 54 24 08	 mov	 edx, DWORD PTR [esp+8]
  00004	8d 42 0c	 lea	 eax, DWORD PTR [edx+12]
  00007	8b 8a f4 fe ff
	ff		 mov	 ecx, DWORD PTR [edx-268]
  0000d	33 c8		 xor	 ecx, eax
  0000f	e8 00 00 00 00	 call	 @__security_check_cookie@4
  00014	b8 00 00 00 00	 mov	 eax, OFFSET __ehfuncinfo$??$_Buynode@ABUpiecewise_construct_t@std@@V?$tuple@ABW4SDL_Scancode@@@2@V?$tuple@$$$V@2@@?$_Tree_buy@U?$pair@$$CBW4SDL_Scancode@@_N@std@@V?$allocator@U?$pair@$$CBW4SDL_Scancode@@_N@std@@@2@@std@@QAEPAU?$_Tree_node@U?$pair@$$CBW4SDL_Scancode@@_N@std@@PAX@1@ABUpiecewise_construct_t@1@$$QAV?$tuple@ABW4SDL_Scancode@@@1@$$QAV?$tuple@$$$V@1@@Z
  00019	e9 00 00 00 00	 jmp	 ___CxxFrameHandler3
text$x	ENDS
??$_Buynode@ABUpiecewise_construct_t@std@@V?$tuple@ABW4SDL_Scancode@@@2@V?$tuple@$$$V@2@@?$_Tree_buy@U?$pair@$$CBW4SDL_Scancode@@_N@std@@V?$allocator@U?$pair@$$CBW4SDL_Scancode@@_N@std@@@2@@std@@QAEPAU?$_Tree_node@U?$pair@$$CBW4SDL_Scancode@@_N@std@@PAX@1@ABUpiecewise_construct_t@1@$$QAV?$tuple@ABW4SDL_Scancode@@@1@$$QAV?$tuple@$$$V@1@@Z ENDP ; std::_Tree_buy<std::pair<enum SDL_Scancode const ,bool>,std::allocator<std::pair<enum SDL_Scancode const ,bool> > >::_Buynode<std::piecewise_construct_t const &,std::tuple<enum SDL_Scancode const &>,std::tuple<> >
; Function compile flags: /Odtp /RTCsu /ZI
;	COMDAT ??$forward@V?$tuple@$$$V@std@@@std@@YA$$QAV?$tuple@$$$V@0@AAV10@@Z
_TEXT	SEGMENT
__Arg$ = 8						; size = 4
??$forward@V?$tuple@$$$V@std@@@std@@YA$$QAV?$tuple@$$$V@0@AAV10@@Z PROC ; std::forward<std::tuple<> >, COMDAT
; File c:\program files (x86)\microsoft visual studio 12.0\vc\include\type_traits
; Line 1504
  00000	55		 push	 ebp
  00001	8b ec		 mov	 ebp, esp
  00003	81 ec c0 00 00
	00		 sub	 esp, 192		; 000000c0H
  00009	53		 push	 ebx
  0000a	56		 push	 esi
  0000b	57		 push	 edi
  0000c	8d bd 40 ff ff
	ff		 lea	 edi, DWORD PTR [ebp-192]
  00012	b9 30 00 00 00	 mov	 ecx, 48			; 00000030H
  00017	b8 cc cc cc cc	 mov	 eax, -858993460		; ccccccccH
  0001c	f3 ab		 rep stosd
; Line 1505
  0001e	8b 45 08	 mov	 eax, DWORD PTR __Arg$[ebp]
; Line 1506
  00021	5f		 pop	 edi
  00022	5e		 pop	 esi
  00023	5b		 pop	 ebx
  00024	8b e5		 mov	 esp, ebp
  00026	5d		 pop	 ebp
  00027	c3		 ret	 0
??$forward@V?$tuple@$$$V@std@@@std@@YA$$QAV?$tuple@$$$V@0@AAV10@@Z ENDP ; std::forward<std::tuple<> >
_TEXT	ENDS
; Function compile flags: /Odtp /RTCsu /ZI
;	COMDAT ??$forward@V?$tuple@ABW4SDL_Scancode@@@std@@@std@@YA$$QAV?$tuple@ABW4SDL_Scancode@@@0@AAV10@@Z
_TEXT	SEGMENT
__Arg$ = 8						; size = 4
??$forward@V?$tuple@ABW4SDL_Scancode@@@std@@@std@@YA$$QAV?$tuple@ABW4SDL_Scancode@@@0@AAV10@@Z PROC ; std::forward<std::tuple<enum SDL_Scancode const &> >, COMDAT
; File c:\program files (x86)\microsoft visual studio 12.0\vc\include\type_traits
; Line 1504
  00000	55		 push	 ebp
  00001	8b ec		 mov	 ebp, esp
  00003	81 ec c0 00 00
	00		 sub	 esp, 192		; 000000c0H
  00009	53		 push	 ebx
  0000a	56		 push	 esi
  0000b	57		 push	 edi
  0000c	8d bd 40 ff ff
	ff		 lea	 edi, DWORD PTR [ebp-192]
  00012	b9 30 00 00 00	 mov	 ecx, 48			; 00000030H
  00017	b8 cc cc cc cc	 mov	 eax, -858993460		; ccccccccH
  0001c	f3 ab		 rep stosd
; Line 1505
  0001e	8b 45 08	 mov	 eax, DWORD PTR __Arg$[ebp]
; Line 1506
  00021	5f		 pop	 edi
  00022	5e		 pop	 esi
  00023	5b		 pop	 ebx
  00024	8b e5		 mov	 esp, ebp
  00026	5d		 pop	 ebp
  00027	c3		 ret	 0
??$forward@V?$tuple@ABW4SDL_Scancode@@@std@@@std@@YA$$QAV?$tuple@ABW4SDL_Scancode@@@0@AAV10@@Z ENDP ; std::forward<std::tuple<enum SDL_Scancode const &> >
_TEXT	ENDS
; Function compile flags: /Odtp /RTCsu /ZI
;	COMDAT ??$forward@ABUpiecewise_construct_t@std@@@std@@YAABUpiecewise_construct_t@0@ABU10@@Z
_TEXT	SEGMENT
__Arg$ = 8						; size = 4
??$forward@ABUpiecewise_construct_t@std@@@std@@YAABUpiecewise_construct_t@0@ABU10@@Z PROC ; std::forward<std::piecewise_construct_t const &>, COMDAT
; File c:\program files (x86)\microsoft visual studio 12.0\vc\include\type_traits
; Line 1504
  00000	55		 push	 ebp
  00001	8b ec		 mov	 ebp, esp
  00003	81 ec c0 00 00
	00		 sub	 esp, 192		; 000000c0H
  00009	53		 push	 ebx
  0000a	56		 push	 esi
  0000b	57		 push	 edi
  0000c	8d bd 40 ff ff
	ff		 lea	 edi, DWORD PTR [ebp-192]
  00012	b9 30 00 00 00	 mov	 ecx, 48			; 00000030H
  00017	b8 cc cc cc cc	 mov	 eax, -858993460		; ccccccccH
  0001c	f3 ab		 rep stosd
; Line 1505
  0001e	8b 45 08	 mov	 eax, DWORD PTR __Arg$[ebp]
; Line 1506
  00021	5f		 pop	 edi
  00022	5e		 pop	 esi
  00023	5b		 pop	 ebx
  00024	8b e5		 mov	 esp, ebp
  00026	5d		 pop	 ebp
  00027	c3		 ret	 0
??$forward@ABUpiecewise_construct_t@std@@@std@@YAABUpiecewise_construct_t@0@ABU10@@Z ENDP ; std::forward<std::piecewise_construct_t const &>
_TEXT	ENDS
; Function compile flags: /Odtp /RTCsu /ZI
;	COMDAT ??$?0ABW4SDL_Scancode@@PAPAX@?$tuple@ABW4SDL_Scancode@@@std@@QAE@$$QAV01@@Z
_TEXT	SEGMENT
_this$ = -8						; size = 4
__Right$ = 8						; size = 4
??$?0ABW4SDL_Scancode@@PAPAX@?$tuple@ABW4SDL_Scancode@@@std@@QAE@$$QAV01@@Z PROC ; std::tuple<enum SDL_Scancode const &>::tuple<enum SDL_Scancode const &><enum SDL_Scancode const &,void * *>, COMDAT
; _this$ = ecx
; File c:\program files (x86)\microsoft visual studio 12.0\vc\include\tuple
; Line 258
  00000	55		 push	 ebp
  00001	8b ec		 mov	 ebp, esp
  00003	81 ec cc 00 00
	00		 sub	 esp, 204		; 000000ccH
  00009	53		 push	 ebx
  0000a	56		 push	 esi
  0000b	57		 push	 edi
  0000c	51		 push	 ecx
  0000d	8d bd 34 ff ff
	ff		 lea	 edi, DWORD PTR [ebp-204]
  00013	b9 33 00 00 00	 mov	 ecx, 51			; 00000033H
  00018	b8 cc cc cc cc	 mov	 eax, -858993460		; ccccccccH
  0001d	f3 ab		 rep stosd
  0001f	59		 pop	 ecx
  00020	89 4d f8	 mov	 DWORD PTR _this$[ebp], ecx
  00023	8b 4d 08	 mov	 ecx, DWORD PTR __Right$[ebp]
  00026	e8 00 00 00 00	 call	 ?_Get_rest@?$tuple@ABW4SDL_Scancode@@@std@@QAEAAV?$tuple@$$$V@2@XZ ; std::tuple<enum SDL_Scancode const &>::_Get_rest
  0002b	50		 push	 eax
  0002c	e8 00 00 00 00	 call	 ??$forward@V?$tuple@$$$V@std@@@std@@YA$$QAV?$tuple@$$$V@0@AAV10@@Z ; std::forward<std::tuple<> >
  00031	83 c4 04	 add	 esp, 4
  00034	50		 push	 eax
  00035	8b 4d f8	 mov	 ecx, DWORD PTR _this$[ebp]
  00038	e8 00 00 00 00	 call	 ??0?$tuple@$$$V@std@@QAE@ABV01@@Z ; std::tuple<>::tuple<>
  0003d	8b 45 08	 mov	 eax, DWORD PTR __Right$[ebp]
  00040	8b 08		 mov	 ecx, DWORD PTR [eax]
  00042	51		 push	 ecx
  00043	e8 00 00 00 00	 call	 ??$forward@ABW4SDL_Scancode@@@std@@YAABW4SDL_Scancode@@ABW41@@Z ; std::forward<enum SDL_Scancode const &>
  00048	83 c4 04	 add	 esp, 4
  0004b	50		 push	 eax
  0004c	8b 4d f8	 mov	 ecx, DWORD PTR _this$[ebp]
  0004f	e8 00 00 00 00	 call	 ??$?0ABW4SDL_Scancode@@@?$_Tuple_val@ABW4SDL_Scancode@@@std@@QAE@ABW4SDL_Scancode@@@Z ; std::_Tuple_val<enum SDL_Scancode const &>::_Tuple_val<enum SDL_Scancode const &><enum SDL_Scancode const &>
; Line 259
  00054	8b 45 f8	 mov	 eax, DWORD PTR _this$[ebp]
  00057	5f		 pop	 edi
  00058	5e		 pop	 esi
  00059	5b		 pop	 ebx
  0005a	81 c4 cc 00 00
	00		 add	 esp, 204		; 000000ccH
  00060	3b ec		 cmp	 ebp, esp
  00062	e8 00 00 00 00	 call	 __RTC_CheckEsp
  00067	8b e5		 mov	 esp, ebp
  00069	5d		 pop	 ebp
  0006a	c2 04 00	 ret	 4
??$?0ABW4SDL_Scancode@@PAPAX@?$tuple@ABW4SDL_Scancode@@@std@@QAE@$$QAV01@@Z ENDP ; std::tuple<enum SDL_Scancode const &>::tuple<enum SDL_Scancode const &><enum SDL_Scancode const &,void * *>
_TEXT	ENDS
; Function compile flags: /Odtp /RTCsu /ZI
;	COMDAT ??$forward@ABW4SDL_Scancode@@@std@@YAABW4SDL_Scancode@@ABW41@@Z
_TEXT	SEGMENT
__Arg$ = 8						; size = 4
??$forward@ABW4SDL_Scancode@@@std@@YAABW4SDL_Scancode@@ABW41@@Z PROC ; std::forward<enum SDL_Scancode const &>, COMDAT
; File c:\program files (x86)\microsoft visual studio 12.0\vc\include\type_traits
; Line 1504
  00000	55		 push	 ebp
  00001	8b ec		 mov	 ebp, esp
  00003	81 ec c0 00 00
	00		 sub	 esp, 192		; 000000c0H
  00009	53		 push	 ebx
  0000a	56		 push	 esi
  0000b	57		 push	 edi
  0000c	8d bd 40 ff ff
	ff		 lea	 edi, DWORD PTR [ebp-192]
  00012	b9 30 00 00 00	 mov	 ecx, 48			; 00000030H
  00017	b8 cc cc cc cc	 mov	 eax, -858993460		; ccccccccH
  0001c	f3 ab		 rep stosd
; Line 1505
  0001e	8b 45 08	 mov	 eax, DWORD PTR __Arg$[ebp]
; Line 1506
  00021	5f		 pop	 edi
  00022	5e		 pop	 esi
  00023	5b		 pop	 ebx
  00024	8b e5		 mov	 esp, ebp
  00026	5d		 pop	 ebp
  00027	c3		 ret	 0
??$forward@ABW4SDL_Scancode@@@std@@YAABW4SDL_Scancode@@ABW41@@Z ENDP ; std::forward<enum SDL_Scancode const &>
_TEXT	ENDS
; Function compile flags: /Odtp /RTCsu /ZI
;	COMDAT ??$_Kfn@$$CBW4SDL_Scancode@@_N@?$_Tmap_traits@W4SDL_Scancode@@_NU?$less@W4SDL_Scancode@@@std@@V?$allocator@U?$pair@$$CBW4SDL_Scancode@@_N@std@@@3@$0A@@std@@SAABW4SDL_Scancode@@ABU?$pair@$$CBW4SDL_Scancode@@_N@1@@Z
_TEXT	SEGMENT
__Val$ = 8						; size = 4
??$_Kfn@$$CBW4SDL_Scancode@@_N@?$_Tmap_traits@W4SDL_Scancode@@_NU?$less@W4SDL_Scancode@@@std@@V?$allocator@U?$pair@$$CBW4SDL_Scancode@@_N@std@@@3@$0A@@std@@SAABW4SDL_Scancode@@ABU?$pair@$$CBW4SDL_Scancode@@_N@1@@Z PROC ; std::_Tmap_traits<enum SDL_Scancode,bool,std::less<enum SDL_Scancode>,std::allocator<std::pair<enum SDL_Scancode const ,bool> >,0>::_Kfn<enum SDL_Scancode const ,bool>, COMDAT
; File c:\program files (x86)\microsoft visual studio 12.0\vc\include\map
; Line 57
  00000	55		 push	 ebp
  00001	8b ec		 mov	 ebp, esp
  00003	81 ec c0 00 00
	00		 sub	 esp, 192		; 000000c0H
  00009	53		 push	 ebx
  0000a	56		 push	 esi
  0000b	57		 push	 edi
  0000c	8d bd 40 ff ff
	ff		 lea	 edi, DWORD PTR [ebp-192]
  00012	b9 30 00 00 00	 mov	 ecx, 48			; 00000030H
  00017	b8 cc cc cc cc	 mov	 eax, -858993460		; ccccccccH
  0001c	f3 ab		 rep stosd
; Line 59
  0001e	8b 45 08	 mov	 eax, DWORD PTR __Val$[ebp]
; Line 60
  00021	5f		 pop	 edi
  00022	5e		 pop	 esi
  00023	5b		 pop	 ebx
  00024	8b e5		 mov	 esp, ebp
  00026	5d		 pop	 ebp
  00027	c3		 ret	 0
??$_Kfn@$$CBW4SDL_Scancode@@_N@?$_Tmap_traits@W4SDL_Scancode@@_NU?$less@W4SDL_Scancode@@@std@@V?$allocator@U?$pair@$$CBW4SDL_Scancode@@_N@std@@@3@$0A@@std@@SAABW4SDL_Scancode@@ABU?$pair@$$CBW4SDL_Scancode@@_N@1@@Z ENDP ; std::_Tmap_traits<enum SDL_Scancode,bool,std::less<enum SDL_Scancode>,std::allocator<std::pair<enum SDL_Scancode const ,bool> >,0>::_Kfn<enum SDL_Scancode const ,bool>
_TEXT	ENDS
; Function compile flags: /Odtp /RTCsu /ZI
;	COMDAT ??$_Debug_lt_pred@U?$less@W4SDL_Scancode@@@std@@ABW4SDL_Scancode@@ABW43@@std@@YA_NU?$less@W4SDL_Scancode@@@0@ABW4SDL_Scancode@@1PB_WI@Z
_TEXT	SEGMENT
__Pred$ = 8						; size = 1
__Left$ = 12						; size = 4
__Right$ = 16						; size = 4
__File$ = 20						; size = 4
__Line$ = 24						; size = 4
??$_Debug_lt_pred@U?$less@W4SDL_Scancode@@@std@@ABW4SDL_Scancode@@ABW43@@std@@YA_NU?$less@W4SDL_Scancode@@@0@ABW4SDL_Scancode@@1PB_WI@Z PROC ; std::_Debug_lt_pred<std::less<enum SDL_Scancode>,enum SDL_Scancode const &,enum SDL_Scancode const &>, COMDAT
; File c:\program files (x86)\microsoft visual studio 12.0\vc\include\xutility
; Line 520
  00000	55		 push	 ebp
  00001	8b ec		 mov	 ebp, esp
  00003	81 ec c0 00 00
	00		 sub	 esp, 192		; 000000c0H
  00009	53		 push	 ebx
  0000a	56		 push	 esi
  0000b	57		 push	 edi
  0000c	8d bd 40 ff ff
	ff		 lea	 edi, DWORD PTR [ebp-192]
  00012	b9 30 00 00 00	 mov	 ecx, 48			; 00000030H
  00017	b8 cc cc cc cc	 mov	 eax, -858993460		; ccccccccH
  0001c	f3 ab		 rep stosd
; Line 521
  0001e	8b 45 10	 mov	 eax, DWORD PTR __Right$[ebp]
  00021	50		 push	 eax
  00022	e8 00 00 00 00	 call	 ??$forward@ABW4SDL_Scancode@@@std@@YAABW4SDL_Scancode@@ABW41@@Z ; std::forward<enum SDL_Scancode const &>
  00027	83 c4 04	 add	 esp, 4
  0002a	50		 push	 eax
  0002b	8b 4d 0c	 mov	 ecx, DWORD PTR __Left$[ebp]
  0002e	51		 push	 ecx
  0002f	e8 00 00 00 00	 call	 ??$forward@ABW4SDL_Scancode@@@std@@YAABW4SDL_Scancode@@ABW41@@Z ; std::forward<enum SDL_Scancode const &>
  00034	83 c4 04	 add	 esp, 4
  00037	50		 push	 eax
  00038	8d 4d 08	 lea	 ecx, DWORD PTR __Pred$[ebp]
  0003b	e8 00 00 00 00	 call	 ??R?$less@W4SDL_Scancode@@@std@@QBE_NABW4SDL_Scancode@@0@Z ; std::less<enum SDL_Scancode>::operator()
  00040	0f b6 d0	 movzx	 edx, al
  00043	85 d2		 test	 edx, edx
  00045	75 06		 jne	 SHORT $LN3@Debug_lt_p
; Line 522
  00047	32 c0		 xor	 al, al
  00049	eb 4c		 jmp	 SHORT $LN4@Debug_lt_p
  0004b	eb 48		 jmp	 SHORT $LN2@Debug_lt_p
$LN3@Debug_lt_p:
; Line 523
  0004d	8b 45 0c	 mov	 eax, DWORD PTR __Left$[ebp]
  00050	50		 push	 eax
  00051	e8 00 00 00 00	 call	 ??$forward@ABW4SDL_Scancode@@@std@@YAABW4SDL_Scancode@@ABW41@@Z ; std::forward<enum SDL_Scancode const &>
  00056	83 c4 04	 add	 esp, 4
  00059	50		 push	 eax
  0005a	8b 4d 10	 mov	 ecx, DWORD PTR __Right$[ebp]
  0005d	51		 push	 ecx
  0005e	e8 00 00 00 00	 call	 ??$forward@ABW4SDL_Scancode@@@std@@YAABW4SDL_Scancode@@ABW41@@Z ; std::forward<enum SDL_Scancode const &>
  00063	83 c4 04	 add	 esp, 4
  00066	50		 push	 eax
  00067	8d 4d 08	 lea	 ecx, DWORD PTR __Pred$[ebp]
  0006a	e8 00 00 00 00	 call	 ??R?$less@W4SDL_Scancode@@@std@@QBE_NABW4SDL_Scancode@@0@Z ; std::less<enum SDL_Scancode>::operator()
  0006f	0f b6 d0	 movzx	 edx, al
  00072	85 d2		 test	 edx, edx
  00074	74 1f		 je	 SHORT $LN2@Debug_lt_p
; Line 524
  00076	8b f4		 mov	 esi, esp
  00078	8b 45 18	 mov	 eax, DWORD PTR __Line$[ebp]
  0007b	50		 push	 eax
  0007c	8b 4d 14	 mov	 ecx, DWORD PTR __File$[ebp]
  0007f	51		 push	 ecx
  00080	68 00 00 00 00	 push	 OFFSET ??_C@_1CE@IGJMOCCK@?$AAi?$AAn?$AAv?$AAa?$AAl?$AAi?$AAd?$AA?5?$AAo?$AAp?$AAe?$AAr?$AAa?$AAt?$AAo?$AAr?$AA?$DM?$AA?$AA@
  00085	ff 15 00 00 00
	00		 call	 DWORD PTR __imp_?_Debug_message@std@@YAXPB_W0I@Z
  0008b	83 c4 0c	 add	 esp, 12			; 0000000cH
  0008e	3b f4		 cmp	 esi, esp
  00090	e8 00 00 00 00	 call	 __RTC_CheckEsp
$LN2@Debug_lt_p:
; Line 525
  00095	b0 01		 mov	 al, 1
$LN4@Debug_lt_p:
; Line 526
  00097	5f		 pop	 edi
  00098	5e		 pop	 esi
  00099	5b		 pop	 ebx
  0009a	81 c4 c0 00 00
	00		 add	 esp, 192		; 000000c0H
  000a0	3b ec		 cmp	 ebp, esp
  000a2	e8 00 00 00 00	 call	 __RTC_CheckEsp
  000a7	8b e5		 mov	 esp, ebp
  000a9	5d		 pop	 ebp
  000aa	c3		 ret	 0
??$_Debug_lt_pred@U?$less@W4SDL_Scancode@@@std@@ABW4SDL_Scancode@@ABW43@@std@@YA_NU?$less@W4SDL_Scancode@@@0@ABW4SDL_Scancode@@1PB_WI@Z ENDP ; std::_Debug_lt_pred<std::less<enum SDL_Scancode>,enum SDL_Scancode const &,enum SDL_Scancode const &>
_TEXT	ENDS
; Function compile flags: /Odtp /RTCsu /ZI
;	COMDAT ?pointer_to@?$pointer_traits@PAU?$pair@$$CBW4SDL_Scancode@@_N@std@@@std@@SAPAU?$pair@$$CBW4SDL_Scancode@@_N@2@AAU32@@Z
_TEXT	SEGMENT
__Val$ = 8						; size = 4
?pointer_to@?$pointer_traits@PAU?$pair@$$CBW4SDL_Scancode@@_N@std@@@std@@SAPAU?$pair@$$CBW4SDL_Scancode@@_N@2@AAU32@@Z PROC ; std::pointer_traits<std::pair<enum SDL_Scancode const ,bool> *>::pointer_to, COMDAT
; File c:\program files (x86)\microsoft visual studio 12.0\vc\include\xmemory0
; Line 233
  00000	55		 push	 ebp
  00001	8b ec		 mov	 ebp, esp
  00003	81 ec c0 00 00
	00		 sub	 esp, 192		; 000000c0H
  00009	53		 push	 ebx
  0000a	56		 push	 esi
  0000b	57		 push	 edi
  0000c	8d bd 40 ff ff
	ff		 lea	 edi, DWORD PTR [ebp-192]
  00012	b9 30 00 00 00	 mov	 ecx, 48			; 00000030H
  00017	b8 cc cc cc cc	 mov	 eax, -858993460		; ccccccccH
  0001c	f3 ab		 rep stosd
; Line 234
  0001e	8b 45 08	 mov	 eax, DWORD PTR __Val$[ebp]
  00021	50		 push	 eax
  00022	e8 00 00 00 00	 call	 ??$addressof@U?$pair@$$CBW4SDL_Scancode@@_N@std@@@std@@YAPAU?$pair@$$CBW4SDL_Scancode@@_N@0@AAU10@@Z ; std::addressof<std::pair<enum SDL_Scancode const ,bool> >
  00027	83 c4 04	 add	 esp, 4
; Line 235
  0002a	5f		 pop	 edi
  0002b	5e		 pop	 esi
  0002c	5b		 pop	 ebx
  0002d	81 c4 c0 00 00
	00		 add	 esp, 192		; 000000c0H
  00033	3b ec		 cmp	 ebp, esp
  00035	e8 00 00 00 00	 call	 __RTC_CheckEsp
  0003a	8b e5		 mov	 esp, ebp
  0003c	5d		 pop	 ebp
  0003d	c3		 ret	 0
?pointer_to@?$pointer_traits@PAU?$pair@$$CBW4SDL_Scancode@@_N@std@@@std@@SAPAU?$pair@$$CBW4SDL_Scancode@@_N@2@AAU32@@Z ENDP ; std::pointer_traits<std::pair<enum SDL_Scancode const ,bool> *>::pointer_to
_TEXT	ENDS
; Function compile flags: /Odtp /RTCsu /ZI
;	COMDAT ??$destroy@U?$pair@$$CBW4SDL_Scancode@@_N@std@@@?$_Wrap_alloc@V?$allocator@U?$_Tree_node@U?$pair@$$CBW4SDL_Scancode@@_N@std@@PAX@std@@@std@@@std@@QAEXPAU?$pair@$$CBW4SDL_Scancode@@_N@1@@Z
_TEXT	SEGMENT
_this$ = -8						; size = 4
__Ptr$ = 8						; size = 4
??$destroy@U?$pair@$$CBW4SDL_Scancode@@_N@std@@@?$_Wrap_alloc@V?$allocator@U?$_Tree_node@U?$pair@$$CBW4SDL_Scancode@@_N@std@@PAX@std@@@std@@@std@@QAEXPAU?$pair@$$CBW4SDL_Scancode@@_N@1@@Z PROC ; std::_Wrap_alloc<std::allocator<std::_Tree_node<std::pair<enum SDL_Scancode const ,bool>,void *> > >::destroy<std::pair<enum SDL_Scancode const ,bool> >, COMDAT
; _this$ = ecx
; File c:\program files (x86)\microsoft visual studio 12.0\vc\include\xmemory0
; Line 877
  00000	55		 push	 ebp
  00001	8b ec		 mov	 ebp, esp
  00003	81 ec cc 00 00
	00		 sub	 esp, 204		; 000000ccH
  00009	53		 push	 ebx
  0000a	56		 push	 esi
  0000b	57		 push	 edi
  0000c	51		 push	 ecx
  0000d	8d bd 34 ff ff
	ff		 lea	 edi, DWORD PTR [ebp-204]
  00013	b9 33 00 00 00	 mov	 ecx, 51			; 00000033H
  00018	b8 cc cc cc cc	 mov	 eax, -858993460		; ccccccccH
  0001d	f3 ab		 rep stosd
  0001f	59		 pop	 ecx
  00020	89 4d f8	 mov	 DWORD PTR _this$[ebp], ecx
; Line 879
  00023	8b 45 08	 mov	 eax, DWORD PTR __Ptr$[ebp]
  00026	50		 push	 eax
  00027	8b 4d f8	 mov	 ecx, DWORD PTR _this$[ebp]
  0002a	51		 push	 ecx
  0002b	e8 00 00 00 00	 call	 ??$destroy@U?$pair@$$CBW4SDL_Scancode@@_N@std@@@?$allocator_traits@V?$allocator@U?$_Tree_node@U?$pair@$$CBW4SDL_Scancode@@_N@std@@PAX@std@@@std@@@std@@SAXAAV?$allocator@U?$_Tree_node@U?$pair@$$CBW4SDL_Scancode@@_N@std@@PAX@std@@@1@PAU?$pair@$$CBW4SDL_Scancode@@_N@1@@Z ; std::allocator_traits<std::allocator<std::_Tree_node<std::pair<enum SDL_Scancode const ,bool>,void *> > >::destroy<std::pair<enum SDL_Scancode const ,bool> >
  00030	83 c4 08	 add	 esp, 8
; Line 880
  00033	5f		 pop	 edi
  00034	5e		 pop	 esi
  00035	5b		 pop	 ebx
  00036	81 c4 cc 00 00
	00		 add	 esp, 204		; 000000ccH
  0003c	3b ec		 cmp	 ebp, esp
  0003e	e8 00 00 00 00	 call	 __RTC_CheckEsp
  00043	8b e5		 mov	 esp, ebp
  00045	5d		 pop	 ebp
  00046	c2 04 00	 ret	 4
??$destroy@U?$pair@$$CBW4SDL_Scancode@@_N@std@@@?$_Wrap_alloc@V?$allocator@U?$_Tree_node@U?$pair@$$CBW4SDL_Scancode@@_N@std@@PAX@std@@@std@@@std@@QAEXPAU?$pair@$$CBW4SDL_Scancode@@_N@1@@Z ENDP ; std::_Wrap_alloc<std::allocator<std::_Tree_node<std::pair<enum SDL_Scancode const ,bool>,void *> > >::destroy<std::pair<enum SDL_Scancode const ,bool> >
_TEXT	ENDS
; Function compile flags: /Odtp /RTCsu /ZI
;	COMDAT ??$addressof@U?$pair@$$CBW4SDL_Scancode@@_N@std@@@std@@YAPAU?$pair@$$CBW4SDL_Scancode@@_N@0@AAU10@@Z
_TEXT	SEGMENT
__Val$ = 8						; size = 4
??$addressof@U?$pair@$$CBW4SDL_Scancode@@_N@std@@@std@@YAPAU?$pair@$$CBW4SDL_Scancode@@_N@0@AAU10@@Z PROC ; std::addressof<std::pair<enum SDL_Scancode const ,bool> >, COMDAT
; File c:\program files (x86)\microsoft visual studio 12.0\vc\include\xstddef
; Line 92
  00000	55		 push	 ebp
  00001	8b ec		 mov	 ebp, esp
  00003	81 ec c0 00 00
	00		 sub	 esp, 192		; 000000c0H
  00009	53		 push	 ebx
  0000a	56		 push	 esi
  0000b	57		 push	 edi
  0000c	8d bd 40 ff ff
	ff		 lea	 edi, DWORD PTR [ebp-192]
  00012	b9 30 00 00 00	 mov	 ecx, 48			; 00000030H
  00017	b8 cc cc cc cc	 mov	 eax, -858993460		; ccccccccH
  0001c	f3 ab		 rep stosd
; Line 95
  0001e	8b 45 08	 mov	 eax, DWORD PTR __Val$[ebp]
; Line 96
  00021	5f		 pop	 edi
  00022	5e		 pop	 esi
  00023	5b		 pop	 ebx
  00024	8b e5		 mov	 esp, ebp
  00026	5d		 pop	 ebp
  00027	c3		 ret	 0
??$addressof@U?$pair@$$CBW4SDL_Scancode@@_N@std@@@std@@YAPAU?$pair@$$CBW4SDL_Scancode@@_N@0@AAU10@@Z ENDP ; std::addressof<std::pair<enum SDL_Scancode const ,bool> >
_TEXT	ENDS
; Function compile flags: /Odtp /RTCsu /ZI
;	COMDAT ??$emplace_hint@ABUpiecewise_construct_t@std@@V?$tuple@ABW4SDL_Scancode@@@2@V?$tuple@$$$V@2@@?$_Tree@V?$_Tmap_traits@W4SDL_Scancode@@_NU?$less@W4SDL_Scancode@@@std@@V?$allocator@U?$pair@$$CBW4SDL_Scancode@@_N@std@@@3@$0A@@std@@@std@@QAE?AV?$_Tree_iterator@V?$_Tree_val@U?$_Tree_simple_types@U?$pair@$$CBW4SDL_Scancode@@_N@std@@@std@@@std@@@1@V?$_Tree_const_iterator@V?$_Tree_val@U?$_Tree_simple_types@U?$pair@$$CBW4SDL_Scancode@@_N@std@@@std@@@std@@@1@ABUpiecewise_construct_t@1@$$QAV?$tuple@ABW4SDL_Scancode@@@1@$$QAV?$tuple@$$$V@1@@Z
_TEXT	SEGMENT
tv81 = -260						; size = 4
tv138 = -256						; size = 4
$T2 = -248						; size = 4
$T3 = -236						; size = 4
__Newnode$ = -32					; size = 4
_this$ = -20						; size = 4
__$EHRec$ = -12						; size = 12
___$ReturnUdt$ = 8					; size = 4
__Where$ = 12						; size = 12
_<_Val_0>$ = 24						; size = 4
_<_Val_1>$ = 28						; size = 4
_<_Val_2>$ = 32						; size = 4
??$emplace_hint@ABUpiecewise_construct_t@std@@V?$tuple@ABW4SDL_Scancode@@@2@V?$tuple@$$$V@2@@?$_Tree@V?$_Tmap_traits@W4SDL_Scancode@@_NU?$less@W4SDL_Scancode@@@std@@V?$allocator@U?$pair@$$CBW4SDL_Scancode@@_N@std@@@3@$0A@@std@@@std@@QAE?AV?$_Tree_iterator@V?$_Tree_val@U?$_Tree_simple_types@U?$pair@$$CBW4SDL_Scancode@@_N@std@@@std@@@std@@@1@V?$_Tree_const_iterator@V?$_Tree_val@U?$_Tree_simple_types@U?$pair@$$CBW4SDL_Scancode@@_N@std@@@std@@@std@@@1@ABUpiecewise_construct_t@1@$$QAV?$tuple@ABW4SDL_Scancode@@@1@$$QAV?$tuple@$$$V@1@@Z PROC ; std::_Tree<std::_Tmap_traits<enum SDL_Scancode,bool,std::less<enum SDL_Scancode>,std::allocator<std::pair<enum SDL_Scancode const ,bool> >,0> >::emplace_hint<std::piecewise_construct_t const &,std::tuple<enum SDL_Scancode const &>,std::tuple<> >, COMDAT
; _this$ = ecx
; File c:\program files (x86)\microsoft visual studio 12.0\vc\include\xtree
; Line 1182
  00000	55		 push	 ebp
  00001	8b ec		 mov	 ebp, esp
  00003	6a ff		 push	 -1
  00005	68 00 00 00 00	 push	 __ehhandler$??$emplace_hint@ABUpiecewise_construct_t@std@@V?$tuple@ABW4SDL_Scancode@@@2@V?$tuple@$$$V@2@@?$_Tree@V?$_Tmap_traits@W4SDL_Scancode@@_NU?$less@W4SDL_Scancode@@@std@@V?$allocator@U?$pair@$$CBW4SDL_Scancode@@_N@std@@@3@$0A@@std@@@std@@QAE?AV?$_Tree_iterator@V?$_Tree_val@U?$_Tree_simple_types@U?$pair@$$CBW4SDL_Scancode@@_N@std@@@std@@@std@@@1@V?$_Tree_const_iterator@V?$_Tree_val@U?$_Tree_simple_types@U?$pair@$$CBW4SDL_Scancode@@_N@std@@@std@@@std@@@1@ABUpiecewise_construct_t@1@$$QAV?$tuple@ABW4SDL_Scancode@@@1@$$QAV?$tuple@$$$V@1@@Z
  0000a	64 a1 00 00 00
	00		 mov	 eax, DWORD PTR fs:0
  00010	50		 push	 eax
  00011	81 ec f8 00 00
	00		 sub	 esp, 248		; 000000f8H
  00017	53		 push	 ebx
  00018	56		 push	 esi
  00019	57		 push	 edi
  0001a	51		 push	 ecx
  0001b	8d bd fc fe ff
	ff		 lea	 edi, DWORD PTR [ebp-260]
  00021	b9 3e 00 00 00	 mov	 ecx, 62			; 0000003eH
  00026	b8 cc cc cc cc	 mov	 eax, -858993460		; ccccccccH
  0002b	f3 ab		 rep stosd
  0002d	59		 pop	 ecx
  0002e	a1 00 00 00 00	 mov	 eax, DWORD PTR ___security_cookie
  00033	33 c5		 xor	 eax, ebp
  00035	50		 push	 eax
  00036	8d 45 f4	 lea	 eax, DWORD PTR __$EHRec$[ebp]
  00039	64 a3 00 00 00
	00		 mov	 DWORD PTR fs:0, eax
  0003f	89 4d ec	 mov	 DWORD PTR _this$[ebp], ecx
  00042	c7 85 14 ff ff
	ff 00 00 00 00	 mov	 DWORD PTR $T3[ebp], 0
  0004c	c7 45 fc 00 00
	00 00		 mov	 DWORD PTR __$EHRec$[ebp+8], 0
; Line 1184
  00053	8b 45 20	 mov	 eax, DWORD PTR _<_Val_2>$[ebp]
  00056	50		 push	 eax
  00057	e8 00 00 00 00	 call	 ??$forward@V?$tuple@$$$V@std@@@std@@YA$$QAV?$tuple@$$$V@0@AAV10@@Z ; std::forward<std::tuple<> >
  0005c	83 c4 04	 add	 esp, 4
  0005f	50		 push	 eax
  00060	8b 4d 1c	 mov	 ecx, DWORD PTR _<_Val_1>$[ebp]
  00063	51		 push	 ecx
  00064	e8 00 00 00 00	 call	 ??$forward@V?$tuple@ABW4SDL_Scancode@@@std@@@std@@YA$$QAV?$tuple@ABW4SDL_Scancode@@@0@AAV10@@Z ; std::forward<std::tuple<enum SDL_Scancode const &> >
  00069	83 c4 04	 add	 esp, 4
  0006c	50		 push	 eax
  0006d	8b 55 18	 mov	 edx, DWORD PTR _<_Val_0>$[ebp]
  00070	52		 push	 edx
  00071	e8 00 00 00 00	 call	 ??$forward@ABUpiecewise_construct_t@std@@@std@@YAABUpiecewise_construct_t@0@ABU10@@Z ; std::forward<std::piecewise_construct_t const &>
  00076	83 c4 04	 add	 esp, 4
  00079	50		 push	 eax
  0007a	8b 4d ec	 mov	 ecx, DWORD PTR _this$[ebp]
  0007d	e8 00 00 00 00	 call	 ??$_Buynode@ABUpiecewise_construct_t@std@@V?$tuple@ABW4SDL_Scancode@@@2@V?$tuple@$$$V@2@@?$_Tree_buy@U?$pair@$$CBW4SDL_Scancode@@_N@std@@V?$allocator@U?$pair@$$CBW4SDL_Scancode@@_N@std@@@2@@std@@QAEPAU?$_Tree_node@U?$pair@$$CBW4SDL_Scancode@@_N@std@@PAX@1@ABUpiecewise_construct_t@1@$$QAV?$tuple@ABW4SDL_Scancode@@@1@$$QAV?$tuple@$$$V@1@@Z ; std::_Tree_buy<std::pair<enum SDL_Scancode const ,bool>,std::allocator<std::pair<enum SDL_Scancode const ,bool> > >::_Buynode<std::piecewise_construct_t const &,std::tuple<enum SDL_Scancode const &>,std::tuple<> >
  00082	89 45 e0	 mov	 DWORD PTR __Newnode$[ebp], eax
; Line 1186
  00085	8b 45 e0	 mov	 eax, DWORD PTR __Newnode$[ebp]
  00088	50		 push	 eax
  00089	8b 4d e0	 mov	 ecx, DWORD PTR __Newnode$[ebp]
  0008c	51		 push	 ecx
  0008d	e8 00 00 00 00	 call	 ?_Myval@?$_Tree_val@U?$_Tree_simple_types@U?$pair@$$CBW4SDL_Scancode@@_N@std@@@std@@@std@@SAAAU?$pair@$$CBW4SDL_Scancode@@_N@2@PAU?$_Tree_node@U?$pair@$$CBW4SDL_Scancode@@_N@std@@PAX@2@@Z ; std::_Tree_val<std::_Tree_simple_types<std::pair<enum SDL_Scancode const ,bool> > >::_Myval
  00092	83 c4 04	 add	 esp, 4
  00095	50		 push	 eax
  00096	83 ec 0c	 sub	 esp, 12			; 0000000cH
  00099	8b cc		 mov	 ecx, esp
  0009b	89 a5 08 ff ff
	ff		 mov	 DWORD PTR $T2[ebp], esp
  000a1	8d 55 0c	 lea	 edx, DWORD PTR __Where$[ebp]
  000a4	52		 push	 edx
  000a5	e8 00 00 00 00	 call	 ??0?$_Tree_const_iterator@V?$_Tree_val@U?$_Tree_simple_types@U?$pair@$$CBW4SDL_Scancode@@_N@std@@@std@@@std@@@std@@QAE@ABV01@@Z
  000aa	89 85 00 ff ff
	ff		 mov	 DWORD PTR tv138[ebp], eax
  000b0	8b 45 08	 mov	 eax, DWORD PTR ___$ReturnUdt$[ebp]
  000b3	50		 push	 eax
  000b4	8b 4d ec	 mov	 ecx, DWORD PTR _this$[ebp]
  000b7	e8 00 00 00 00	 call	 ??$_Insert_hint@AAU?$pair@$$CBW4SDL_Scancode@@_N@std@@PAU?$_Tree_node@U?$pair@$$CBW4SDL_Scancode@@_N@std@@PAX@2@@?$_Tree@V?$_Tmap_traits@W4SDL_Scancode@@_NU?$less@W4SDL_Scancode@@@std@@V?$allocator@U?$pair@$$CBW4SDL_Scancode@@_N@std@@@3@$0A@@std@@@std@@IAE?AV?$_Tree_iterator@V?$_Tree_val@U?$_Tree_simple_types@U?$pair@$$CBW4SDL_Scancode@@_N@std@@@std@@@std@@@1@V?$_Tree_const_iterator@V?$_Tree_val@U?$_Tree_simple_types@U?$pair@$$CBW4SDL_Scancode@@_N@std@@@std@@@std@@@1@AAU?$pair@$$CBW4SDL_Scancode@@_N@1@PAU?$_Tree_node@U?$pair@$$CBW4SDL_Scancode@@_N@std@@PAX@1@@Z ; std::_Tree<std::_Tmap_traits<enum SDL_Scancode,bool,std::less<enum SDL_Scancode>,std::allocator<std::pair<enum SDL_Scancode const ,bool> >,0> >::_Insert_hint<std::pair<enum SDL_Scancode const ,bool> &,std::_Tree_node<std::pair<enum SDL_Scancode const ,bool>,void *> *>
  000bc	89 85 fc fe ff
	ff		 mov	 DWORD PTR tv81[ebp], eax
  000c2	8b 8d 14 ff ff
	ff		 mov	 ecx, DWORD PTR $T3[ebp]
  000c8	83 c9 01	 or	 ecx, 1
  000cb	89 8d 14 ff ff
	ff		 mov	 DWORD PTR $T3[ebp], ecx
  000d1	c7 45 fc ff ff
	ff ff		 mov	 DWORD PTR __$EHRec$[ebp+8], -1
  000d8	8d 4d 0c	 lea	 ecx, DWORD PTR __Where$[ebp]
  000db	e8 00 00 00 00	 call	 ??1?$_Tree_const_iterator@V?$_Tree_val@U?$_Tree_simple_types@U?$pair@$$CBW4SDL_Scancode@@_N@std@@@std@@@std@@@std@@QAE@XZ
  000e0	8b 45 08	 mov	 eax, DWORD PTR ___$ReturnUdt$[ebp]
; Line 1187
  000e3	8b 4d f4	 mov	 ecx, DWORD PTR __$EHRec$[ebp]
  000e6	64 89 0d 00 00
	00 00		 mov	 DWORD PTR fs:0, ecx
  000ed	59		 pop	 ecx
  000ee	5f		 pop	 edi
  000ef	5e		 pop	 esi
  000f0	5b		 pop	 ebx
  000f1	81 c4 04 01 00
	00		 add	 esp, 260		; 00000104H
  000f7	3b ec		 cmp	 ebp, esp
  000f9	e8 00 00 00 00	 call	 __RTC_CheckEsp
  000fe	8b e5		 mov	 esp, ebp
  00100	5d		 pop	 ebp
  00101	c2 1c 00	 ret	 28			; 0000001cH
_TEXT	ENDS
;	COMDAT text$x
text$x	SEGMENT
__unwindfunclet$??$emplace_hint@ABUpiecewise_construct_t@std@@V?$tuple@ABW4SDL_Scancode@@@2@V?$tuple@$$$V@2@@?$_Tree@V?$_Tmap_traits@W4SDL_Scancode@@_NU?$less@W4SDL_Scancode@@@std@@V?$allocator@U?$pair@$$CBW4SDL_Scancode@@_N@std@@@3@$0A@@std@@@std@@QAE?AV?$_Tree_iterator@V?$_Tree_val@U?$_Tree_simple_types@U?$pair@$$CBW4SDL_Scancode@@_N@std@@@std@@@std@@@1@V?$_Tree_const_iterator@V?$_Tree_val@U?$_Tree_simple_types@U?$pair@$$CBW4SDL_Scancode@@_N@std@@@std@@@std@@@1@ABUpiecewise_construct_t@1@$$QAV?$tuple@ABW4SDL_Scancode@@@1@$$QAV?$tuple@$$$V@1@@Z$0:
  00000	8d 4d 0c	 lea	 ecx, DWORD PTR __Where$[ebp]
  00003	e9 00 00 00 00	 jmp	 ??1?$_Tree_const_iterator@V?$_Tree_val@U?$_Tree_simple_types@U?$pair@$$CBW4SDL_Scancode@@_N@std@@@std@@@std@@@std@@QAE@XZ
__ehhandler$??$emplace_hint@ABUpiecewise_construct_t@std@@V?$tuple@ABW4SDL_Scancode@@@2@V?$tuple@$$$V@2@@?$_Tree@V?$_Tmap_traits@W4SDL_Scancode@@_NU?$less@W4SDL_Scancode@@@std@@V?$allocator@U?$pair@$$CBW4SDL_Scancode@@_N@std@@@3@$0A@@std@@@std@@QAE?AV?$_Tree_iterator@V?$_Tree_val@U?$_Tree_simple_types@U?$pair@$$CBW4SDL_Scancode@@_N@std@@@std@@@std@@@1@V?$_Tree_const_iterator@V?$_Tree_val@U?$_Tree_simple_types@U?$pair@$$CBW4SDL_Scancode@@_N@std@@@std@@@std@@@1@ABUpiecewise_construct_t@1@$$QAV?$tuple@ABW4SDL_Scancode@@@1@$$QAV?$tuple@$$$V@1@@Z:
  00008	8b 54 24 08	 mov	 edx, DWORD PTR [esp+8]
  0000c	8d 42 0c	 lea	 eax, DWORD PTR [edx+12]
  0000f	8b 8a f8 fe ff
	ff		 mov	 ecx, DWORD PTR [edx-264]
  00015	33 c8		 xor	 ecx, eax
  00017	e8 00 00 00 00	 call	 @__security_check_cookie@4
  0001c	b8 00 00 00 00	 mov	 eax, OFFSET __ehfuncinfo$??$emplace_hint@ABUpiecewise_construct_t@std@@V?$tuple@ABW4SDL_Scancode@@@2@V?$tuple@$$$V@2@@?$_Tree@V?$_Tmap_traits@W4SDL_Scancode@@_NU?$less@W4SDL_Scancode@@@std@@V?$allocator@U?$pair@$$CBW4SDL_Scancode@@_N@std@@@3@$0A@@std@@@std@@QAE?AV?$_Tree_iterator@V?$_Tree_val@U?$_Tree_simple_types@U?$pair@$$CBW4SDL_Scancode@@_N@std@@@std@@@std@@@1@V?$_Tree_const_iterator@V?$_Tree_val@U?$_Tree_simple_types@U?$pair@$$CBW4SDL_Scancode@@_N@std@@@std@@@std@@@1@ABUpiecewise_construct_t@1@$$QAV?$tuple@ABW4SDL_Scancode@@@1@$$QAV?$tuple@$$$V@1@@Z
  00021	e9 00 00 00 00	 jmp	 ___CxxFrameHandler3
text$x	ENDS
??$emplace_hint@ABUpiecewise_construct_t@std@@V?$tuple@ABW4SDL_Scancode@@@2@V?$tuple@$$$V@2@@?$_Tree@V?$_Tmap_traits@W4SDL_Scancode@@_NU?$less@W4SDL_Scancode@@@std@@V?$allocator@U?$pair@$$CBW4SDL_Scancode@@_N@std@@@3@$0A@@std@@@std@@QAE?AV?$_Tree_iterator@V?$_Tree_val@U?$_Tree_simple_types@U?$pair@$$CBW4SDL_Scancode@@_N@std@@@std@@@std@@@1@V?$_Tree_const_iterator@V?$_Tree_val@U?$_Tree_simple_types@U?$pair@$$CBW4SDL_Scancode@@_N@std@@@std@@@std@@@1@ABUpiecewise_construct_t@1@$$QAV?$tuple@ABW4SDL_Scancode@@@1@$$QAV?$tuple@$$$V@1@@Z ENDP ; std::_Tree<std::_Tmap_traits<enum SDL_Scancode,bool,std::less<enum SDL_Scancode>,std::allocator<std::pair<enum SDL_Scancode const ,bool> >,0> >::emplace_hint<std::piecewise_construct_t const &,std::tuple<enum SDL_Scancode const &>,std::tuple<> >
; Function compile flags: /Odtp /RTCsu /ZI
;	COMDAT ?_Get_rest@?$tuple@ABW4SDL_Scancode@@@std@@QAEAAV?$tuple@$$$V@2@XZ
_TEXT	SEGMENT
_this$ = -8						; size = 4
?_Get_rest@?$tuple@ABW4SDL_Scancode@@@std@@QAEAAV?$tuple@$$$V@2@XZ PROC ; std::tuple<enum SDL_Scancode const &>::_Get_rest, COMDAT
; _this$ = ecx
; File c:\program files (x86)\microsoft visual studio 12.0\vc\include\tuple
; Line 438
  00000	55		 push	 ebp
  00001	8b ec		 mov	 ebp, esp
  00003	81 ec cc 00 00
	00		 sub	 esp, 204		; 000000ccH
  00009	53		 push	 ebx
  0000a	56		 push	 esi
  0000b	57		 push	 edi
  0000c	51		 push	 ecx
  0000d	8d bd 34 ff ff
	ff		 lea	 edi, DWORD PTR [ebp-204]
  00013	b9 33 00 00 00	 mov	 ecx, 51			; 00000033H
  00018	b8 cc cc cc cc	 mov	 eax, -858993460		; ccccccccH
  0001d	f3 ab		 rep stosd
  0001f	59		 pop	 ecx
  00020	89 4d f8	 mov	 DWORD PTR _this$[ebp], ecx
; Line 439
  00023	8b 45 f8	 mov	 eax, DWORD PTR _this$[ebp]
; Line 440
  00026	5f		 pop	 edi
  00027	5e		 pop	 esi
  00028	5b		 pop	 ebx
  00029	8b e5		 mov	 esp, ebp
  0002b	5d		 pop	 ebp
  0002c	c3		 ret	 0
?_Get_rest@?$tuple@ABW4SDL_Scancode@@@std@@QAEAAV?$tuple@$$$V@2@XZ ENDP ; std::tuple<enum SDL_Scancode const &>::_Get_rest
_TEXT	ENDS
; Function compile flags: /Odtp /RTCsu /ZI
;	COMDAT ??0?$tuple@ABW4SDL_Scancode@@@std@@QAE@ABW4SDL_Scancode@@@Z
_TEXT	SEGMENT
_this$ = -8						; size = 4
__This_arg$ = 8						; size = 4
??0?$tuple@ABW4SDL_Scancode@@@std@@QAE@ABW4SDL_Scancode@@@Z PROC ; std::tuple<enum SDL_Scancode const &>::tuple<enum SDL_Scancode const &>, COMDAT
; _this$ = ecx
; File c:\program files (x86)\microsoft visual studio 12.0\vc\include\tuple
; Line 215
  00000	55		 push	 ebp
  00001	8b ec		 mov	 ebp, esp
  00003	81 ec cc 00 00
	00		 sub	 esp, 204		; 000000ccH
  00009	53		 push	 ebx
  0000a	56		 push	 esi
  0000b	57		 push	 edi
  0000c	51		 push	 ecx
  0000d	8d bd 34 ff ff
	ff		 lea	 edi, DWORD PTR [ebp-204]
  00013	b9 33 00 00 00	 mov	 ecx, 51			; 00000033H
  00018	b8 cc cc cc cc	 mov	 eax, -858993460		; ccccccccH
  0001d	f3 ab		 rep stosd
  0001f	59		 pop	 ecx
  00020	89 4d f8	 mov	 DWORD PTR _this$[ebp], ecx
  00023	8b 4d f8	 mov	 ecx, DWORD PTR _this$[ebp]
  00026	e8 00 00 00 00	 call	 ??0?$tuple@$$$V@std@@QAE@XZ ; std::tuple<>::tuple<>
  0002b	8b 45 08	 mov	 eax, DWORD PTR __This_arg$[ebp]
  0002e	50		 push	 eax
  0002f	8b 4d f8	 mov	 ecx, DWORD PTR _this$[ebp]
  00032	e8 00 00 00 00	 call	 ??$?0ABW4SDL_Scancode@@@?$_Tuple_val@ABW4SDL_Scancode@@@std@@QAE@ABW4SDL_Scancode@@@Z ; std::_Tuple_val<enum SDL_Scancode const &>::_Tuple_val<enum SDL_Scancode const &><enum SDL_Scancode const &>
; Line 216
  00037	8b 45 f8	 mov	 eax, DWORD PTR _this$[ebp]
  0003a	5f		 pop	 edi
  0003b	5e		 pop	 esi
  0003c	5b		 pop	 ebx
  0003d	81 c4 cc 00 00
	00		 add	 esp, 204		; 000000ccH
  00043	3b ec		 cmp	 ebp, esp
  00045	e8 00 00 00 00	 call	 __RTC_CheckEsp
  0004a	8b e5		 mov	 esp, ebp
  0004c	5d		 pop	 ebp
  0004d	c2 04 00	 ret	 4
??0?$tuple@ABW4SDL_Scancode@@@std@@QAE@ABW4SDL_Scancode@@@Z ENDP ; std::tuple<enum SDL_Scancode const &>::tuple<enum SDL_Scancode const &>
_TEXT	ENDS
; Function compile flags: /Odtp /RTCsu /ZI
;	COMDAT ??$forward_as_tuple@ABW4SDL_Scancode@@@std@@YA?AV?$tuple@ABW4SDL_Scancode@@@0@ABW4SDL_Scancode@@@Z
_TEXT	SEGMENT
___$ReturnUdt$ = 8					; size = 4
_<_Args_0>$ = 12					; size = 4
??$forward_as_tuple@ABW4SDL_Scancode@@@std@@YA?AV?$tuple@ABW4SDL_Scancode@@@0@ABW4SDL_Scancode@@@Z PROC ; std::forward_as_tuple<enum SDL_Scancode const &>, COMDAT
; File c:\program files (x86)\microsoft visual studio 12.0\vc\include\tuple
; Line 628
  00000	55		 push	 ebp
  00001	8b ec		 mov	 ebp, esp
  00003	81 ec c0 00 00
	00		 sub	 esp, 192		; 000000c0H
  00009	53		 push	 ebx
  0000a	56		 push	 esi
  0000b	57		 push	 edi
  0000c	8d bd 40 ff ff
	ff		 lea	 edi, DWORD PTR [ebp-192]
  00012	b9 30 00 00 00	 mov	 ecx, 48			; 00000030H
  00017	b8 cc cc cc cc	 mov	 eax, -858993460		; ccccccccH
  0001c	f3 ab		 rep stosd
; Line 629
  0001e	8b 45 0c	 mov	 eax, DWORD PTR _<_Args_0>$[ebp]
  00021	50		 push	 eax
  00022	e8 00 00 00 00	 call	 ??$forward@ABW4SDL_Scancode@@@std@@YAABW4SDL_Scancode@@ABW41@@Z ; std::forward<enum SDL_Scancode const &>
  00027	83 c4 04	 add	 esp, 4
  0002a	50		 push	 eax
  0002b	8b 4d 08	 mov	 ecx, DWORD PTR ___$ReturnUdt$[ebp]
  0002e	e8 00 00 00 00	 call	 ??0?$tuple@ABW4SDL_Scancode@@@std@@QAE@ABW4SDL_Scancode@@@Z ; std::tuple<enum SDL_Scancode const &>::tuple<enum SDL_Scancode const &>
  00033	8b 45 08	 mov	 eax, DWORD PTR ___$ReturnUdt$[ebp]
; Line 630
  00036	5f		 pop	 edi
  00037	5e		 pop	 esi
  00038	5b		 pop	 ebx
  00039	81 c4 c0 00 00
	00		 add	 esp, 192		; 000000c0H
  0003f	3b ec		 cmp	 ebp, esp
  00041	e8 00 00 00 00	 call	 __RTC_CheckEsp
  00046	8b e5		 mov	 esp, ebp
  00048	5d		 pop	 ebp
  00049	c3		 ret	 0
??$forward_as_tuple@ABW4SDL_Scancode@@@std@@YA?AV?$tuple@ABW4SDL_Scancode@@@0@ABW4SDL_Scancode@@@Z ENDP ; std::forward_as_tuple<enum SDL_Scancode const &>
_TEXT	ENDS
; Function compile flags: /Odtp /RTCsu /ZI
;	COMDAT ?__autoclassinit2@?$_Tree_iterator@V?$_Tree_val@U?$_Tree_simple_types@U?$pair@$$CBW4SDL_Scancode@@_N@std@@@std@@@std@@@std@@QAEXI@Z
_TEXT	SEGMENT
_this$ = -8						; size = 4
_classSize$ = 8						; size = 4
?__autoclassinit2@?$_Tree_iterator@V?$_Tree_val@U?$_Tree_simple_types@U?$pair@$$CBW4SDL_Scancode@@_N@std@@@std@@@std@@@std@@QAEXI@Z PROC ; std::_Tree_iterator<std::_Tree_val<std::_Tree_simple_types<std::pair<enum SDL_Scancode const ,bool> > > >::__autoclassinit2, COMDAT
; _this$ = ecx
  00000	55		 push	 ebp
  00001	8b ec		 mov	 ebp, esp
  00003	81 ec cc 00 00
	00		 sub	 esp, 204		; 000000ccH
  00009	53		 push	 ebx
  0000a	56		 push	 esi
  0000b	57		 push	 edi
  0000c	51		 push	 ecx
  0000d	8d bd 34 ff ff
	ff		 lea	 edi, DWORD PTR [ebp-204]
  00013	b9 33 00 00 00	 mov	 ecx, 51			; 00000033H
  00018	b8 cc cc cc cc	 mov	 eax, -858993460		; ccccccccH
  0001d	f3 ab		 rep stosd
  0001f	59		 pop	 ecx
  00020	89 4d f8	 mov	 DWORD PTR _this$[ebp], ecx
  00023	8b 45 08	 mov	 eax, DWORD PTR _classSize$[ebp]
  00026	50		 push	 eax
  00027	6a 00		 push	 0
  00029	8b 4d f8	 mov	 ecx, DWORD PTR _this$[ebp]
  0002c	51		 push	 ecx
  0002d	e8 00 00 00 00	 call	 _memset
  00032	83 c4 0c	 add	 esp, 12			; 0000000cH
  00035	5f		 pop	 edi
  00036	5e		 pop	 esi
  00037	5b		 pop	 ebx
  00038	81 c4 cc 00 00
	00		 add	 esp, 204		; 000000ccH
  0003e	3b ec		 cmp	 ebp, esp
  00040	e8 00 00 00 00	 call	 __RTC_CheckEsp
  00045	8b e5		 mov	 esp, ebp
  00047	5d		 pop	 ebp
  00048	c2 04 00	 ret	 4
?__autoclassinit2@?$_Tree_iterator@V?$_Tree_val@U?$_Tree_simple_types@U?$pair@$$CBW4SDL_Scancode@@_N@std@@@std@@@std@@@std@@QAEXI@Z ENDP ; std::_Tree_iterator<std::_Tree_val<std::_Tree_simple_types<std::pair<enum SDL_Scancode const ,bool> > > >::__autoclassinit2
_TEXT	ENDS
; Function compile flags: /Odtp /RTCsu /ZI
;	COMDAT ??4?$_Tree_iterator@V?$_Tree_val@U?$_Tree_simple_types@U?$pair@$$CBW4SDL_Scancode@@_N@std@@@std@@@std@@@std@@QAEAAV01@ABV01@@Z
_TEXT	SEGMENT
_this$ = -8						; size = 4
___that$ = 8						; size = 4
??4?$_Tree_iterator@V?$_Tree_val@U?$_Tree_simple_types@U?$pair@$$CBW4SDL_Scancode@@_N@std@@@std@@@std@@@std@@QAEAAV01@ABV01@@Z PROC ; std::_Tree_iterator<std::_Tree_val<std::_Tree_simple_types<std::pair<enum SDL_Scancode const ,bool> > > >::operator=, COMDAT
; _this$ = ecx
  00000	55		 push	 ebp
  00001	8b ec		 mov	 ebp, esp
  00003	81 ec cc 00 00
	00		 sub	 esp, 204		; 000000ccH
  00009	53		 push	 ebx
  0000a	56		 push	 esi
  0000b	57		 push	 edi
  0000c	51		 push	 ecx
  0000d	8d bd 34 ff ff
	ff		 lea	 edi, DWORD PTR [ebp-204]
  00013	b9 33 00 00 00	 mov	 ecx, 51			; 00000033H
  00018	b8 cc cc cc cc	 mov	 eax, -858993460		; ccccccccH
  0001d	f3 ab		 rep stosd
  0001f	59		 pop	 ecx
  00020	89 4d f8	 mov	 DWORD PTR _this$[ebp], ecx
  00023	8b 45 08	 mov	 eax, DWORD PTR ___that$[ebp]
  00026	50		 push	 eax
  00027	8b 4d f8	 mov	 ecx, DWORD PTR _this$[ebp]
  0002a	e8 00 00 00 00	 call	 ??4?$_Tree_const_iterator@V?$_Tree_val@U?$_Tree_simple_types@U?$pair@$$CBW4SDL_Scancode@@_N@std@@@std@@@std@@@std@@QAEAAV01@ABV01@@Z
  0002f	8b 45 f8	 mov	 eax, DWORD PTR _this$[ebp]
  00032	5f		 pop	 edi
  00033	5e		 pop	 esi
  00034	5b		 pop	 ebx
  00035	81 c4 cc 00 00
	00		 add	 esp, 204		; 000000ccH
  0003b	3b ec		 cmp	 ebp, esp
  0003d	e8 00 00 00 00	 call	 __RTC_CheckEsp
  00042	8b e5		 mov	 esp, ebp
  00044	5d		 pop	 ebp
  00045	c2 04 00	 ret	 4
??4?$_Tree_iterator@V?$_Tree_val@U?$_Tree_simple_types@U?$pair@$$CBW4SDL_Scancode@@_N@std@@@std@@@std@@@std@@QAEAAV01@ABV01@@Z ENDP ; std::_Tree_iterator<std::_Tree_val<std::_Tree_simple_types<std::pair<enum SDL_Scancode const ,bool> > > >::operator=
_TEXT	ENDS
; Function compile flags: /Odtp /RTCsu /ZI
;	COMDAT ??0?$_Tree_iterator@V?$_Tree_val@U?$_Tree_simple_types@U?$pair@$$CBW4SDL_Scancode@@_N@std@@@std@@@std@@@std@@QAE@ABV01@@Z
_TEXT	SEGMENT
_this$ = -8						; size = 4
___that$ = 8						; size = 4
??0?$_Tree_iterator@V?$_Tree_val@U?$_Tree_simple_types@U?$pair@$$CBW4SDL_Scancode@@_N@std@@@std@@@std@@@std@@QAE@ABV01@@Z PROC ; std::_Tree_iterator<std::_Tree_val<std::_Tree_simple_types<std::pair<enum SDL_Scancode const ,bool> > > >::_Tree_iterator<std::_Tree_val<std::_Tree_simple_types<std::pair<enum SDL_Scancode const ,bool> > > >, COMDAT
; _this$ = ecx
  00000	55		 push	 ebp
  00001	8b ec		 mov	 ebp, esp
  00003	81 ec cc 00 00
	00		 sub	 esp, 204		; 000000ccH
  00009	53		 push	 ebx
  0000a	56		 push	 esi
  0000b	57		 push	 edi
  0000c	51		 push	 ecx
  0000d	8d bd 34 ff ff
	ff		 lea	 edi, DWORD PTR [ebp-204]
  00013	b9 33 00 00 00	 mov	 ecx, 51			; 00000033H
  00018	b8 cc cc cc cc	 mov	 eax, -858993460		; ccccccccH
  0001d	f3 ab		 rep stosd
  0001f	59		 pop	 ecx
  00020	89 4d f8	 mov	 DWORD PTR _this$[ebp], ecx
  00023	8b 45 08	 mov	 eax, DWORD PTR ___that$[ebp]
  00026	50		 push	 eax
  00027	8b 4d f8	 mov	 ecx, DWORD PTR _this$[ebp]
  0002a	e8 00 00 00 00	 call	 ??0?$_Tree_const_iterator@V?$_Tree_val@U?$_Tree_simple_types@U?$pair@$$CBW4SDL_Scancode@@_N@std@@@std@@@std@@@std@@QAE@ABV01@@Z
  0002f	8b 45 f8	 mov	 eax, DWORD PTR _this$[ebp]
  00032	5f		 pop	 edi
  00033	5e		 pop	 esi
  00034	5b		 pop	 ebx
  00035	81 c4 cc 00 00
	00		 add	 esp, 204		; 000000ccH
  0003b	3b ec		 cmp	 ebp, esp
  0003d	e8 00 00 00 00	 call	 __RTC_CheckEsp
  00042	8b e5		 mov	 esp, ebp
  00044	5d		 pop	 ebp
  00045	c2 04 00	 ret	 4
??0?$_Tree_iterator@V?$_Tree_val@U?$_Tree_simple_types@U?$pair@$$CBW4SDL_Scancode@@_N@std@@@std@@@std@@@std@@QAE@ABV01@@Z ENDP ; std::_Tree_iterator<std::_Tree_val<std::_Tree_simple_types<std::pair<enum SDL_Scancode const ,bool> > > >::_Tree_iterator<std::_Tree_val<std::_Tree_simple_types<std::pair<enum SDL_Scancode const ,bool> > > >
_TEXT	ENDS
; Function compile flags: /Odtp /RTCsu /ZI
;	COMDAT ??1?$_Tree_iterator@V?$_Tree_val@U?$_Tree_simple_types@U?$pair@$$CBW4SDL_Scancode@@_N@std@@@std@@@std@@@std@@QAE@XZ
_TEXT	SEGMENT
_this$ = -8						; size = 4
??1?$_Tree_iterator@V?$_Tree_val@U?$_Tree_simple_types@U?$pair@$$CBW4SDL_Scancode@@_N@std@@@std@@@std@@@std@@QAE@XZ PROC ; std::_Tree_iterator<std::_Tree_val<std::_Tree_simple_types<std::pair<enum SDL_Scancode const ,bool> > > >::~_Tree_iterator<std::_Tree_val<std::_Tree_simple_types<std::pair<enum SDL_Scancode const ,bool> > > >, COMDAT
; _this$ = ecx
  00000	55		 push	 ebp
  00001	8b ec		 mov	 ebp, esp
  00003	81 ec cc 00 00
	00		 sub	 esp, 204		; 000000ccH
  00009	53		 push	 ebx
  0000a	56		 push	 esi
  0000b	57		 push	 edi
  0000c	51		 push	 ecx
  0000d	8d bd 34 ff ff
	ff		 lea	 edi, DWORD PTR [ebp-204]
  00013	b9 33 00 00 00	 mov	 ecx, 51			; 00000033H
  00018	b8 cc cc cc cc	 mov	 eax, -858993460		; ccccccccH
  0001d	f3 ab		 rep stosd
  0001f	59		 pop	 ecx
  00020	89 4d f8	 mov	 DWORD PTR _this$[ebp], ecx
  00023	8b 4d f8	 mov	 ecx, DWORD PTR _this$[ebp]
  00026	e8 00 00 00 00	 call	 ??1?$_Tree_const_iterator@V?$_Tree_val@U?$_Tree_simple_types@U?$pair@$$CBW4SDL_Scancode@@_N@std@@@std@@@std@@@std@@QAE@XZ
  0002b	5f		 pop	 edi
  0002c	5e		 pop	 esi
  0002d	5b		 pop	 ebx
  0002e	81 c4 cc 00 00
	00		 add	 esp, 204		; 000000ccH
  00034	3b ec		 cmp	 ebp, esp
  00036	e8 00 00 00 00	 call	 __RTC_CheckEsp
  0003b	8b e5		 mov	 esp, ebp
  0003d	5d		 pop	 ebp
  0003e	c3		 ret	 0
??1?$_Tree_iterator@V?$_Tree_val@U?$_Tree_simple_types@U?$pair@$$CBW4SDL_Scancode@@_N@std@@@std@@@std@@@std@@QAE@XZ ENDP ; std::_Tree_iterator<std::_Tree_val<std::_Tree_simple_types<std::pair<enum SDL_Scancode const ,bool> > > >::~_Tree_iterator<std::_Tree_val<std::_Tree_simple_types<std::pair<enum SDL_Scancode const ,bool> > > >
_TEXT	ENDS
; Function compile flags: /Odtp /RTCsu /ZI
;	COMDAT ??F?$_Tree_iterator@V?$_Tree_val@U?$_Tree_simple_types@U?$pair@$$CBW4SDL_Scancode@@_N@std@@@std@@@std@@@std@@QAEAAV01@XZ
_TEXT	SEGMENT
_this$ = -8						; size = 4
??F?$_Tree_iterator@V?$_Tree_val@U?$_Tree_simple_types@U?$pair@$$CBW4SDL_Scancode@@_N@std@@@std@@@std@@@std@@QAEAAV01@XZ PROC ; std::_Tree_iterator<std::_Tree_val<std::_Tree_simple_types<std::pair<enum SDL_Scancode const ,bool> > > >::operator--, COMDAT
; _this$ = ecx
; File c:\program files (x86)\microsoft visual studio 12.0\vc\include\xtree
; Line 424
  00000	55		 push	 ebp
  00001	8b ec		 mov	 ebp, esp
  00003	81 ec cc 00 00
	00		 sub	 esp, 204		; 000000ccH
  00009	53		 push	 ebx
  0000a	56		 push	 esi
  0000b	57		 push	 edi
  0000c	51		 push	 ecx
  0000d	8d bd 34 ff ff
	ff		 lea	 edi, DWORD PTR [ebp-204]
  00013	b9 33 00 00 00	 mov	 ecx, 51			; 00000033H
  00018	b8 cc cc cc cc	 mov	 eax, -858993460		; ccccccccH
  0001d	f3 ab		 rep stosd
  0001f	59		 pop	 ecx
  00020	89 4d f8	 mov	 DWORD PTR _this$[ebp], ecx
; Line 425
  00023	8b 4d f8	 mov	 ecx, DWORD PTR _this$[ebp]
  00026	e8 00 00 00 00	 call	 ??F?$_Tree_const_iterator@V?$_Tree_val@U?$_Tree_simple_types@U?$pair@$$CBW4SDL_Scancode@@_N@std@@@std@@@std@@@std@@QAEAAV01@XZ ; std::_Tree_const_iterator<std::_Tree_val<std::_Tree_simple_types<std::pair<enum SDL_Scancode const ,bool> > > >::operator--
; Line 426
  0002b	8b 45 f8	 mov	 eax, DWORD PTR _this$[ebp]
; Line 427
  0002e	5f		 pop	 edi
  0002f	5e		 pop	 esi
  00030	5b		 pop	 ebx
  00031	81 c4 cc 00 00
	00		 add	 esp, 204		; 000000ccH
  00037	3b ec		 cmp	 ebp, esp
  00039	e8 00 00 00 00	 call	 __RTC_CheckEsp
  0003e	8b e5		 mov	 esp, ebp
  00040	5d		 pop	 ebp
  00041	c3		 ret	 0
??F?$_Tree_iterator@V?$_Tree_val@U?$_Tree_simple_types@U?$pair@$$CBW4SDL_Scancode@@_N@std@@@std@@@std@@@std@@QAEAAV01@XZ ENDP ; std::_Tree_iterator<std::_Tree_val<std::_Tree_simple_types<std::pair<enum SDL_Scancode const ,bool> > > >::operator--
_TEXT	ENDS
; Function compile flags: /Odtp /RTCsu /ZI
;	COMDAT ??C?$_Tree_iterator@V?$_Tree_val@U?$_Tree_simple_types@U?$pair@$$CBW4SDL_Scancode@@_N@std@@@std@@@std@@@std@@QBEPAU?$pair@$$CBW4SDL_Scancode@@_N@1@XZ
_TEXT	SEGMENT
_this$ = -8						; size = 4
??C?$_Tree_iterator@V?$_Tree_val@U?$_Tree_simple_types@U?$pair@$$CBW4SDL_Scancode@@_N@std@@@std@@@std@@@std@@QBEPAU?$pair@$$CBW4SDL_Scancode@@_N@1@XZ PROC ; std::_Tree_iterator<std::_Tree_val<std::_Tree_simple_types<std::pair<enum SDL_Scancode const ,bool> > > >::operator->, COMDAT
; _this$ = ecx
; File c:\program files (x86)\microsoft visual studio 12.0\vc\include\xtree
; Line 406
  00000	55		 push	 ebp
  00001	8b ec		 mov	 ebp, esp
  00003	81 ec cc 00 00
	00		 sub	 esp, 204		; 000000ccH
  00009	53		 push	 ebx
  0000a	56		 push	 esi
  0000b	57		 push	 edi
  0000c	51		 push	 ecx
  0000d	8d bd 34 ff ff
	ff		 lea	 edi, DWORD PTR [ebp-204]
  00013	b9 33 00 00 00	 mov	 ecx, 51			; 00000033H
  00018	b8 cc cc cc cc	 mov	 eax, -858993460		; ccccccccH
  0001d	f3 ab		 rep stosd
  0001f	59		 pop	 ecx
  00020	89 4d f8	 mov	 DWORD PTR _this$[ebp], ecx
; Line 407
  00023	8b 4d f8	 mov	 ecx, DWORD PTR _this$[ebp]
  00026	e8 00 00 00 00	 call	 ??D?$_Tree_iterator@V?$_Tree_val@U?$_Tree_simple_types@U?$pair@$$CBW4SDL_Scancode@@_N@std@@@std@@@std@@@std@@QBEAAU?$pair@$$CBW4SDL_Scancode@@_N@1@XZ ; std::_Tree_iterator<std::_Tree_val<std::_Tree_simple_types<std::pair<enum SDL_Scancode const ,bool> > > >::operator*
  0002b	50		 push	 eax
  0002c	e8 00 00 00 00	 call	 ?pointer_to@?$pointer_traits@PAU?$pair@$$CBW4SDL_Scancode@@_N@std@@@std@@SAPAU?$pair@$$CBW4SDL_Scancode@@_N@2@AAU32@@Z ; std::pointer_traits<std::pair<enum SDL_Scancode const ,bool> *>::pointer_to
  00031	83 c4 04	 add	 esp, 4
; Line 408
  00034	5f		 pop	 edi
  00035	5e		 pop	 esi
  00036	5b		 pop	 ebx
  00037	81 c4 cc 00 00
	00		 add	 esp, 204		; 000000ccH
  0003d	3b ec		 cmp	 ebp, esp
  0003f	e8 00 00 00 00	 call	 __RTC_CheckEsp
  00044	8b e5		 mov	 esp, ebp
  00046	5d		 pop	 ebp
  00047	c3		 ret	 0
??C?$_Tree_iterator@V?$_Tree_val@U?$_Tree_simple_types@U?$pair@$$CBW4SDL_Scancode@@_N@std@@@std@@@std@@@std@@QBEPAU?$pair@$$CBW4SDL_Scancode@@_N@1@XZ ENDP ; std::_Tree_iterator<std::_Tree_val<std::_Tree_simple_types<std::pair<enum SDL_Scancode const ,bool> > > >::operator->
_TEXT	ENDS
; Function compile flags: /Odtp /RTCsu /ZI
;	COMDAT ??D?$_Tree_iterator@V?$_Tree_val@U?$_Tree_simple_types@U?$pair@$$CBW4SDL_Scancode@@_N@std@@@std@@@std@@@std@@QBEAAU?$pair@$$CBW4SDL_Scancode@@_N@1@XZ
_TEXT	SEGMENT
_this$ = -8						; size = 4
??D?$_Tree_iterator@V?$_Tree_val@U?$_Tree_simple_types@U?$pair@$$CBW4SDL_Scancode@@_N@std@@@std@@@std@@@std@@QBEAAU?$pair@$$CBW4SDL_Scancode@@_N@1@XZ PROC ; std::_Tree_iterator<std::_Tree_val<std::_Tree_simple_types<std::pair<enum SDL_Scancode const ,bool> > > >::operator*, COMDAT
; _this$ = ecx
; File c:\program files (x86)\microsoft visual studio 12.0\vc\include\xtree
; Line 401
  00000	55		 push	 ebp
  00001	8b ec		 mov	 ebp, esp
  00003	81 ec cc 00 00
	00		 sub	 esp, 204		; 000000ccH
  00009	53		 push	 ebx
  0000a	56		 push	 esi
  0000b	57		 push	 edi
  0000c	51		 push	 ecx
  0000d	8d bd 34 ff ff
	ff		 lea	 edi, DWORD PTR [ebp-204]
  00013	b9 33 00 00 00	 mov	 ecx, 51			; 00000033H
  00018	b8 cc cc cc cc	 mov	 eax, -858993460		; ccccccccH
  0001d	f3 ab		 rep stosd
  0001f	59		 pop	 ecx
  00020	89 4d f8	 mov	 DWORD PTR _this$[ebp], ecx
; Line 402
  00023	8b 4d f8	 mov	 ecx, DWORD PTR _this$[ebp]
  00026	e8 00 00 00 00	 call	 ??D?$_Tree_const_iterator@V?$_Tree_val@U?$_Tree_simple_types@U?$pair@$$CBW4SDL_Scancode@@_N@std@@@std@@@std@@@std@@QBEABU?$pair@$$CBW4SDL_Scancode@@_N@1@XZ ; std::_Tree_const_iterator<std::_Tree_val<std::_Tree_simple_types<std::pair<enum SDL_Scancode const ,bool> > > >::operator*
; Line 403
  0002b	5f		 pop	 edi
  0002c	5e		 pop	 esi
  0002d	5b		 pop	 ebx
  0002e	81 c4 cc 00 00
	00		 add	 esp, 204		; 000000ccH
  00034	3b ec		 cmp	 ebp, esp
  00036	e8 00 00 00 00	 call	 __RTC_CheckEsp
  0003b	8b e5		 mov	 esp, ebp
  0003d	5d		 pop	 ebp
  0003e	c3		 ret	 0
??D?$_Tree_iterator@V?$_Tree_val@U?$_Tree_simple_types@U?$pair@$$CBW4SDL_Scancode@@_N@std@@@std@@@std@@@std@@QBEAAU?$pair@$$CBW4SDL_Scancode@@_N@1@XZ ENDP ; std::_Tree_iterator<std::_Tree_val<std::_Tree_simple_types<std::pair<enum SDL_Scancode const ,bool> > > >::operator*
_TEXT	ENDS
; Function compile flags: /Odtp /RTCsu /ZI
;	COMDAT ??0?$_Tree_iterator@V?$_Tree_val@U?$_Tree_simple_types@U?$pair@$$CBW4SDL_Scancode@@_N@std@@@std@@@std@@@std@@QAE@PAU?$_Tree_node@U?$pair@$$CBW4SDL_Scancode@@_N@std@@PAX@1@PBV?$_Tree_val@U?$_Tree_simple_types@U?$pair@$$CBW4SDL_Scancode@@_N@std@@@std@@@1@@Z
_TEXT	SEGMENT
_this$ = -8						; size = 4
__Pnode$ = 8						; size = 4
__Plist$ = 12						; size = 4
??0?$_Tree_iterator@V?$_Tree_val@U?$_Tree_simple_types@U?$pair@$$CBW4SDL_Scancode@@_N@std@@@std@@@std@@@std@@QAE@PAU?$_Tree_node@U?$pair@$$CBW4SDL_Scancode@@_N@std@@PAX@1@PBV?$_Tree_val@U?$_Tree_simple_types@U?$pair@$$CBW4SDL_Scancode@@_N@std@@@std@@@1@@Z PROC ; std::_Tree_iterator<std::_Tree_val<std::_Tree_simple_types<std::pair<enum SDL_Scancode const ,bool> > > >::_Tree_iterator<std::_Tree_val<std::_Tree_simple_types<std::pair<enum SDL_Scancode const ,bool> > > >, COMDAT
; _this$ = ecx
; File c:\program files (x86)\microsoft visual studio 12.0\vc\include\xtree
; Line 384
  00000	55		 push	 ebp
  00001	8b ec		 mov	 ebp, esp
  00003	81 ec cc 00 00
	00		 sub	 esp, 204		; 000000ccH
  00009	53		 push	 ebx
  0000a	56		 push	 esi
  0000b	57		 push	 edi
  0000c	51		 push	 ecx
  0000d	8d bd 34 ff ff
	ff		 lea	 edi, DWORD PTR [ebp-204]
  00013	b9 33 00 00 00	 mov	 ecx, 51			; 00000033H
  00018	b8 cc cc cc cc	 mov	 eax, -858993460		; ccccccccH
  0001d	f3 ab		 rep stosd
  0001f	59		 pop	 ecx
  00020	89 4d f8	 mov	 DWORD PTR _this$[ebp], ecx
  00023	8b 45 0c	 mov	 eax, DWORD PTR __Plist$[ebp]
  00026	50		 push	 eax
  00027	8b 4d 08	 mov	 ecx, DWORD PTR __Pnode$[ebp]
  0002a	51		 push	 ecx
  0002b	8b 4d f8	 mov	 ecx, DWORD PTR _this$[ebp]
  0002e	e8 00 00 00 00	 call	 ??0?$_Tree_const_iterator@V?$_Tree_val@U?$_Tree_simple_types@U?$pair@$$CBW4SDL_Scancode@@_N@std@@@std@@@std@@@std@@QAE@PAU?$_Tree_node@U?$pair@$$CBW4SDL_Scancode@@_N@std@@PAX@1@PBV?$_Tree_val@U?$_Tree_simple_types@U?$pair@$$CBW4SDL_Scancode@@_N@std@@@std@@@1@@Z ; std::_Tree_const_iterator<std::_Tree_val<std::_Tree_simple_types<std::pair<enum SDL_Scancode const ,bool> > > >::_Tree_const_iterator<std::_Tree_val<std::_Tree_simple_types<std::pair<enum SDL_Scancode const ,bool> > > >
; Line 385
  00033	8b 45 f8	 mov	 eax, DWORD PTR _this$[ebp]
  00036	5f		 pop	 edi
  00037	5e		 pop	 esi
  00038	5b		 pop	 ebx
  00039	81 c4 cc 00 00
	00		 add	 esp, 204		; 000000ccH
  0003f	3b ec		 cmp	 ebp, esp
  00041	e8 00 00 00 00	 call	 __RTC_CheckEsp
  00046	8b e5		 mov	 esp, ebp
  00048	5d		 pop	 ebp
  00049	c2 08 00	 ret	 8
??0?$_Tree_iterator@V?$_Tree_val@U?$_Tree_simple_types@U?$pair@$$CBW4SDL_Scancode@@_N@std@@@std@@@std@@@std@@QAE@PAU?$_Tree_node@U?$pair@$$CBW4SDL_Scancode@@_N@std@@PAX@1@PBV?$_Tree_val@U?$_Tree_simple_types@U?$pair@$$CBW4SDL_Scancode@@_N@std@@@std@@@1@@Z ENDP ; std::_Tree_iterator<std::_Tree_val<std::_Tree_simple_types<std::pair<enum SDL_Scancode const ,bool> > > >::_Tree_iterator<std::_Tree_val<std::_Tree_simple_types<std::pair<enum SDL_Scancode const ,bool> > > >
_TEXT	ENDS
; Function compile flags: /Odtp /RTCsu /ZI
;	COMDAT ?__autoclassinit2@?$_Tree_const_iterator@V?$_Tree_val@U?$_Tree_simple_types@U?$pair@$$CBW4SDL_Scancode@@_N@std@@@std@@@std@@@std@@QAEXI@Z
_TEXT	SEGMENT
_this$ = -8						; size = 4
_classSize$ = 8						; size = 4
?__autoclassinit2@?$_Tree_const_iterator@V?$_Tree_val@U?$_Tree_simple_types@U?$pair@$$CBW4SDL_Scancode@@_N@std@@@std@@@std@@@std@@QAEXI@Z PROC ; std::_Tree_const_iterator<std::_Tree_val<std::_Tree_simple_types<std::pair<enum SDL_Scancode const ,bool> > > >::__autoclassinit2, COMDAT
; _this$ = ecx
  00000	55		 push	 ebp
  00001	8b ec		 mov	 ebp, esp
  00003	81 ec cc 00 00
	00		 sub	 esp, 204		; 000000ccH
  00009	53		 push	 ebx
  0000a	56		 push	 esi
  0000b	57		 push	 edi
  0000c	51		 push	 ecx
  0000d	8d bd 34 ff ff
	ff		 lea	 edi, DWORD PTR [ebp-204]
  00013	b9 33 00 00 00	 mov	 ecx, 51			; 00000033H
  00018	b8 cc cc cc cc	 mov	 eax, -858993460		; ccccccccH
  0001d	f3 ab		 rep stosd
  0001f	59		 pop	 ecx
  00020	89 4d f8	 mov	 DWORD PTR _this$[ebp], ecx
  00023	8b 45 08	 mov	 eax, DWORD PTR _classSize$[ebp]
  00026	50		 push	 eax
  00027	6a 00		 push	 0
  00029	8b 4d f8	 mov	 ecx, DWORD PTR _this$[ebp]
  0002c	51		 push	 ecx
  0002d	e8 00 00 00 00	 call	 _memset
  00032	83 c4 0c	 add	 esp, 12			; 0000000cH
  00035	5f		 pop	 edi
  00036	5e		 pop	 esi
  00037	5b		 pop	 ebx
  00038	81 c4 cc 00 00
	00		 add	 esp, 204		; 000000ccH
  0003e	3b ec		 cmp	 ebp, esp
  00040	e8 00 00 00 00	 call	 __RTC_CheckEsp
  00045	8b e5		 mov	 esp, ebp
  00047	5d		 pop	 ebp
  00048	c2 04 00	 ret	 4
?__autoclassinit2@?$_Tree_const_iterator@V?$_Tree_val@U?$_Tree_simple_types@U?$pair@$$CBW4SDL_Scancode@@_N@std@@@std@@@std@@@std@@QAEXI@Z ENDP ; std::_Tree_const_iterator<std::_Tree_val<std::_Tree_simple_types<std::pair<enum SDL_Scancode const ,bool> > > >::__autoclassinit2
_TEXT	ENDS
; Function compile flags: /Odtp /RTCsu /ZI
;	COMDAT ??4?$_Tree_const_iterator@V?$_Tree_val@U?$_Tree_simple_types@U?$pair@$$CBW4SDL_Scancode@@_N@std@@@std@@@std@@@std@@QAEAAV01@ABV01@@Z
_TEXT	SEGMENT
_this$ = -8						; size = 4
___that$ = 8						; size = 4
??4?$_Tree_const_iterator@V?$_Tree_val@U?$_Tree_simple_types@U?$pair@$$CBW4SDL_Scancode@@_N@std@@@std@@@std@@@std@@QAEAAV01@ABV01@@Z PROC ; std::_Tree_const_iterator<std::_Tree_val<std::_Tree_simple_types<std::pair<enum SDL_Scancode const ,bool> > > >::operator=, COMDAT
; _this$ = ecx
  00000	55		 push	 ebp
  00001	8b ec		 mov	 ebp, esp
  00003	81 ec cc 00 00
	00		 sub	 esp, 204		; 000000ccH
  00009	53		 push	 ebx
  0000a	56		 push	 esi
  0000b	57		 push	 edi
  0000c	51		 push	 ecx
  0000d	8d bd 34 ff ff
	ff		 lea	 edi, DWORD PTR [ebp-204]
  00013	b9 33 00 00 00	 mov	 ecx, 51			; 00000033H
  00018	b8 cc cc cc cc	 mov	 eax, -858993460		; ccccccccH
  0001d	f3 ab		 rep stosd
  0001f	59		 pop	 ecx
  00020	89 4d f8	 mov	 DWORD PTR _this$[ebp], ecx
  00023	8b 45 08	 mov	 eax, DWORD PTR ___that$[ebp]
  00026	50		 push	 eax
  00027	8b 4d f8	 mov	 ecx, DWORD PTR _this$[ebp]
  0002a	e8 00 00 00 00	 call	 ??4?$_Tree_unchecked_const_iterator@V?$_Tree_val@U?$_Tree_simple_types@U?$pair@$$CBW4SDL_Scancode@@_N@std@@@std@@@std@@U_Iterator_base12@2@@std@@QAEAAV01@ABV01@@Z
  0002f	8b 45 f8	 mov	 eax, DWORD PTR _this$[ebp]
  00032	5f		 pop	 edi
  00033	5e		 pop	 esi
  00034	5b		 pop	 ebx
  00035	81 c4 cc 00 00
	00		 add	 esp, 204		; 000000ccH
  0003b	3b ec		 cmp	 ebp, esp
  0003d	e8 00 00 00 00	 call	 __RTC_CheckEsp
  00042	8b e5		 mov	 esp, ebp
  00044	5d		 pop	 ebp
  00045	c2 04 00	 ret	 4
??4?$_Tree_const_iterator@V?$_Tree_val@U?$_Tree_simple_types@U?$pair@$$CBW4SDL_Scancode@@_N@std@@@std@@@std@@@std@@QAEAAV01@ABV01@@Z ENDP ; std::_Tree_const_iterator<std::_Tree_val<std::_Tree_simple_types<std::pair<enum SDL_Scancode const ,bool> > > >::operator=
_TEXT	ENDS
; Function compile flags: /Odtp /RTCsu /ZI
;	COMDAT ??0?$_Tree_const_iterator@V?$_Tree_val@U?$_Tree_simple_types@U?$pair@$$CBW4SDL_Scancode@@_N@std@@@std@@@std@@@std@@QAE@ABV01@@Z
_TEXT	SEGMENT
_this$ = -8						; size = 4
___that$ = 8						; size = 4
??0?$_Tree_const_iterator@V?$_Tree_val@U?$_Tree_simple_types@U?$pair@$$CBW4SDL_Scancode@@_N@std@@@std@@@std@@@std@@QAE@ABV01@@Z PROC ; std::_Tree_const_iterator<std::_Tree_val<std::_Tree_simple_types<std::pair<enum SDL_Scancode const ,bool> > > >::_Tree_const_iterator<std::_Tree_val<std::_Tree_simple_types<std::pair<enum SDL_Scancode const ,bool> > > >, COMDAT
; _this$ = ecx
  00000	55		 push	 ebp
  00001	8b ec		 mov	 ebp, esp
  00003	81 ec cc 00 00
	00		 sub	 esp, 204		; 000000ccH
  00009	53		 push	 ebx
  0000a	56		 push	 esi
  0000b	57		 push	 edi
  0000c	51		 push	 ecx
  0000d	8d bd 34 ff ff
	ff		 lea	 edi, DWORD PTR [ebp-204]
  00013	b9 33 00 00 00	 mov	 ecx, 51			; 00000033H
  00018	b8 cc cc cc cc	 mov	 eax, -858993460		; ccccccccH
  0001d	f3 ab		 rep stosd
  0001f	59		 pop	 ecx
  00020	89 4d f8	 mov	 DWORD PTR _this$[ebp], ecx
  00023	8b 45 08	 mov	 eax, DWORD PTR ___that$[ebp]
  00026	50		 push	 eax
  00027	8b 4d f8	 mov	 ecx, DWORD PTR _this$[ebp]
  0002a	e8 00 00 00 00	 call	 ??0?$_Tree_unchecked_const_iterator@V?$_Tree_val@U?$_Tree_simple_types@U?$pair@$$CBW4SDL_Scancode@@_N@std@@@std@@@std@@U_Iterator_base12@2@@std@@QAE@ABV01@@Z
  0002f	8b 45 f8	 mov	 eax, DWORD PTR _this$[ebp]
  00032	5f		 pop	 edi
  00033	5e		 pop	 esi
  00034	5b		 pop	 ebx
  00035	81 c4 cc 00 00
	00		 add	 esp, 204		; 000000ccH
  0003b	3b ec		 cmp	 ebp, esp
  0003d	e8 00 00 00 00	 call	 __RTC_CheckEsp
  00042	8b e5		 mov	 esp, ebp
  00044	5d		 pop	 ebp
  00045	c2 04 00	 ret	 4
??0?$_Tree_const_iterator@V?$_Tree_val@U?$_Tree_simple_types@U?$pair@$$CBW4SDL_Scancode@@_N@std@@@std@@@std@@@std@@QAE@ABV01@@Z ENDP ; std::_Tree_const_iterator<std::_Tree_val<std::_Tree_simple_types<std::pair<enum SDL_Scancode const ,bool> > > >::_Tree_const_iterator<std::_Tree_val<std::_Tree_simple_types<std::pair<enum SDL_Scancode const ,bool> > > >
_TEXT	ENDS
; Function compile flags: /Odtp /RTCsu /ZI
;	COMDAT ??1?$_Tree_const_iterator@V?$_Tree_val@U?$_Tree_simple_types@U?$pair@$$CBW4SDL_Scancode@@_N@std@@@std@@@std@@@std@@QAE@XZ
_TEXT	SEGMENT
_this$ = -8						; size = 4
??1?$_Tree_const_iterator@V?$_Tree_val@U?$_Tree_simple_types@U?$pair@$$CBW4SDL_Scancode@@_N@std@@@std@@@std@@@std@@QAE@XZ PROC ; std::_Tree_const_iterator<std::_Tree_val<std::_Tree_simple_types<std::pair<enum SDL_Scancode const ,bool> > > >::~_Tree_const_iterator<std::_Tree_val<std::_Tree_simple_types<std::pair<enum SDL_Scancode const ,bool> > > >, COMDAT
; _this$ = ecx
  00000	55		 push	 ebp
  00001	8b ec		 mov	 ebp, esp
  00003	81 ec cc 00 00
	00		 sub	 esp, 204		; 000000ccH
  00009	53		 push	 ebx
  0000a	56		 push	 esi
  0000b	57		 push	 edi
  0000c	51		 push	 ecx
  0000d	8d bd 34 ff ff
	ff		 lea	 edi, DWORD PTR [ebp-204]
  00013	b9 33 00 00 00	 mov	 ecx, 51			; 00000033H
  00018	b8 cc cc cc cc	 mov	 eax, -858993460		; ccccccccH
  0001d	f3 ab		 rep stosd
  0001f	59		 pop	 ecx
  00020	89 4d f8	 mov	 DWORD PTR _this$[ebp], ecx
  00023	8b 4d f8	 mov	 ecx, DWORD PTR _this$[ebp]
  00026	e8 00 00 00 00	 call	 ??1?$_Tree_unchecked_const_iterator@V?$_Tree_val@U?$_Tree_simple_types@U?$pair@$$CBW4SDL_Scancode@@_N@std@@@std@@@std@@U_Iterator_base12@2@@std@@QAE@XZ
  0002b	5f		 pop	 edi
  0002c	5e		 pop	 esi
  0002d	5b		 pop	 ebx
  0002e	81 c4 cc 00 00
	00		 add	 esp, 204		; 000000ccH
  00034	3b ec		 cmp	 ebp, esp
  00036	e8 00 00 00 00	 call	 __RTC_CheckEsp
  0003b	8b e5		 mov	 esp, ebp
  0003d	5d		 pop	 ebp
  0003e	c3		 ret	 0
??1?$_Tree_const_iterator@V?$_Tree_val@U?$_Tree_simple_types@U?$pair@$$CBW4SDL_Scancode@@_N@std@@@std@@@std@@@std@@QAE@XZ ENDP ; std::_Tree_const_iterator<std::_Tree_val<std::_Tree_simple_types<std::pair<enum SDL_Scancode const ,bool> > > >::~_Tree_const_iterator<std::_Tree_val<std::_Tree_simple_types<std::pair<enum SDL_Scancode const ,bool> > > >
_TEXT	ENDS
; Function compile flags: /Odtp /RTCsu /ZI
;	COMDAT ??8?$_Tree_const_iterator@V?$_Tree_val@U?$_Tree_simple_types@U?$pair@$$CBW4SDL_Scancode@@_N@std@@@std@@@std@@@std@@QBE_NABV01@@Z
_TEXT	SEGMENT
tv146 = -208						; size = 4
_this$ = -8						; size = 4
__Right$ = 8						; size = 4
??8?$_Tree_const_iterator@V?$_Tree_val@U?$_Tree_simple_types@U?$pair@$$CBW4SDL_Scancode@@_N@std@@@std@@@std@@@std@@QBE_NABV01@@Z PROC ; std::_Tree_const_iterator<std::_Tree_val<std::_Tree_simple_types<std::pair<enum SDL_Scancode const ,bool> > > >::operator==, COMDAT
; _this$ = ecx
; File c:\program files (x86)\microsoft visual studio 12.0\vc\include\xtree
; Line 322
  00000	55		 push	 ebp
  00001	8b ec		 mov	 ebp, esp
  00003	81 ec d0 00 00
	00		 sub	 esp, 208		; 000000d0H
  00009	53		 push	 ebx
  0000a	56		 push	 esi
  0000b	57		 push	 edi
  0000c	51		 push	 ecx
  0000d	8d bd 30 ff ff
	ff		 lea	 edi, DWORD PTR [ebp-208]
  00013	b9 34 00 00 00	 mov	 ecx, 52			; 00000034H
  00018	b8 cc cc cc cc	 mov	 eax, -858993460		; ccccccccH
  0001d	f3 ab		 rep stosd
  0001f	59		 pop	 ecx
  00020	89 4d f8	 mov	 DWORD PTR _this$[ebp], ecx
; Line 325
  00023	8b 4d f8	 mov	 ecx, DWORD PTR _this$[ebp]
  00026	e8 00 00 00 00	 call	 ?_Getcont@_Iterator_base12@std@@QBEPBU_Container_base12@2@XZ ; std::_Iterator_base12::_Getcont
  0002b	85 c0		 test	 eax, eax
  0002d	74 1a		 je	 SHORT $LN1@operator
  0002f	8b 4d f8	 mov	 ecx, DWORD PTR _this$[ebp]
  00032	e8 00 00 00 00	 call	 ?_Getcont@_Iterator_base12@std@@QBEPBU_Container_base12@2@XZ ; std::_Iterator_base12::_Getcont
  00037	8b f0		 mov	 esi, eax
  00039	8b 4d 08	 mov	 ecx, DWORD PTR __Right$[ebp]
  0003c	e8 00 00 00 00	 call	 ?_Getcont@_Iterator_base12@std@@QBEPBU_Container_base12@2@XZ ; std::_Iterator_base12::_Getcont
  00041	3b f0		 cmp	 esi, eax
  00043	0f 84 86 00 00
	00		 je	 $LN2@operator
$LN1@operator:
; Line 327
  00049	8b f4		 mov	 esi, esp
  0004b	68 47 01 00 00	 push	 327			; 00000147H
  00050	68 00 00 00 00	 push	 OFFSET ??_C@_1IK@HBAODOLH@?$AAc?$AA?3?$AA?2?$AAp?$AAr?$AAo?$AAg?$AAr?$AAa?$AAm?$AA?5?$AAf?$AAi?$AAl?$AAe?$AAs?$AA?5?$AA?$CI?$AAx?$AA8?$AA6?$AA?$CJ?$AA?2?$AAm?$AAi?$AAc?$AAr?$AAo?$AAs?$AAo?$AAf?$AAt@
  00055	68 00 00 00 00	 push	 OFFSET ??_C@_1DO@CFEEPGGJ@?$AAm?$AAa?$AAp?$AA?1?$AAs?$AAe?$AAt?$AA?5?$AAi?$AAt?$AAe?$AAr?$AAa?$AAt?$AAo?$AAr?$AAs?$AA?5?$AAi?$AAn?$AAc?$AAo?$AAm?$AAp?$AAa?$AAt?$AAi?$AAb?$AAl?$AAe?$AA?$AA@
  0005a	ff 15 00 00 00
	00		 call	 DWORD PTR __imp_?_Debug_message@std@@YAXPB_W0I@Z
  00060	83 c4 0c	 add	 esp, 12			; 0000000cH
  00063	3b f4		 cmp	 esi, esp
  00065	e8 00 00 00 00	 call	 __RTC_CheckEsp
; Line 328
  0006a	b8 00 00 00 00	 mov	 eax, OFFSET ??_C@_0CI@FNPHFCCM@Standard?5C?$CL?$CL?5Libraries?5Invalid?5A@
  0006f	85 c0		 test	 eax, eax
  00071	74 04		 je	 SHORT $LN5@operator
  00073	33 c9		 xor	 ecx, ecx
  00075	75 30		 jne	 SHORT $LN6@operator
$LN5@operator:
  00077	8b f4		 mov	 esi, esp
  00079	68 00 00 00 00	 push	 OFFSET ??_C@_1FO@GJIHNDLM@?$AA?$CC?$AAS?$AAt?$AAa?$AAn?$AAd?$AAa?$AAr?$AAd?$AA?5?$AAC?$AA?$CL?$AA?$CL?$AA?5?$AAL?$AAi?$AAb?$AAr?$AAa?$AAr?$AAi?$AAe?$AAs?$AA?5?$AAI?$AAn?$AAv?$AAa?$AAl?$AAi?$AAd?$AA?5@
  0007e	68 00 00 00 00	 push	 OFFSET ??_C@_15GANGMFKL@?$AA?$CF?$AAs?$AA?$AA@
  00083	6a 00		 push	 0
  00085	68 48 01 00 00	 push	 328			; 00000148H
  0008a	68 00 00 00 00	 push	 OFFSET ??_C@_1IK@HBAODOLH@?$AAc?$AA?3?$AA?2?$AAp?$AAr?$AAo?$AAg?$AAr?$AAa?$AAm?$AA?5?$AAf?$AAi?$AAl?$AAe?$AAs?$AA?5?$AA?$CI?$AAx?$AA8?$AA6?$AA?$CJ?$AA?2?$AAm?$AAi?$AAc?$AAr?$AAo?$AAs?$AAo?$AAf?$AAt@
  0008f	6a 02		 push	 2
  00091	ff 15 00 00 00
	00		 call	 DWORD PTR __imp___CrtDbgReportW
  00097	83 c4 18	 add	 esp, 24			; 00000018H
  0009a	3b f4		 cmp	 esi, esp
  0009c	e8 00 00 00 00	 call	 __RTC_CheckEsp
  000a1	83 f8 01	 cmp	 eax, 1
  000a4	75 01		 jne	 SHORT $LN6@operator
  000a6	cc		 int	 3
$LN6@operator:
  000a7	8b f4		 mov	 esi, esp
  000a9	6a 00		 push	 0
  000ab	68 48 01 00 00	 push	 328			; 00000148H
  000b0	68 00 00 00 00	 push	 OFFSET ??_C@_1IK@HBAODOLH@?$AAc?$AA?3?$AA?2?$AAp?$AAr?$AAo?$AAg?$AAr?$AAa?$AAm?$AA?5?$AAf?$AAi?$AAl?$AAe?$AAs?$AA?5?$AA?$CI?$AAx?$AA8?$AA6?$AA?$CJ?$AA?2?$AAm?$AAi?$AAc?$AAr?$AAo?$AAs?$AAo?$AAf?$AAt@
  000b5	68 00 00 00 00	 push	 OFFSET ??_C@_1BCC@CENCGII@?$AAs?$AAt?$AAd?$AA?3?$AA?3?$AA_?$AAT?$AAr?$AAe?$AAe?$AA_?$AAc?$AAo?$AAn?$AAs?$AAt?$AA_?$AAi?$AAt?$AAe?$AAr?$AAa?$AAt?$AAo?$AAr?$AA?$DM?$AAc?$AAl?$AAa?$AAs?$AAs?$AA?5@
  000ba	68 00 00 00 00	 push	 OFFSET ??_C@_1CG@JNLFBNGN@?$AA?$CC?$AAi?$AAn?$AAv?$AAa?$AAl?$AAi?$AAd?$AA?5?$AAa?$AAr?$AAg?$AAu?$AAm?$AAe?$AAn?$AAt?$AA?$CC?$AA?$AA@
  000bf	ff 15 00 00 00
	00		 call	 DWORD PTR __imp___invalid_parameter
  000c5	83 c4 14	 add	 esp, 20			; 00000014H
  000c8	3b f4		 cmp	 esi, esp
  000ca	e8 00 00 00 00	 call	 __RTC_CheckEsp
$LN2@operator:
; Line 336
  000cf	8b 45 f8	 mov	 eax, DWORD PTR _this$[ebp]
  000d2	8b 4d 08	 mov	 ecx, DWORD PTR __Right$[ebp]
  000d5	8b 50 08	 mov	 edx, DWORD PTR [eax+8]
  000d8	3b 51 08	 cmp	 edx, DWORD PTR [ecx+8]
  000db	75 0c		 jne	 SHORT $LN7@operator
  000dd	c7 85 30 ff ff
	ff 01 00 00 00	 mov	 DWORD PTR tv146[ebp], 1
  000e7	eb 0a		 jmp	 SHORT $LN8@operator
$LN7@operator:
  000e9	c7 85 30 ff ff
	ff 00 00 00 00	 mov	 DWORD PTR tv146[ebp], 0
$LN8@operator:
  000f3	8a 85 30 ff ff
	ff		 mov	 al, BYTE PTR tv146[ebp]
; Line 337
  000f9	5f		 pop	 edi
  000fa	5e		 pop	 esi
  000fb	5b		 pop	 ebx
  000fc	81 c4 d0 00 00
	00		 add	 esp, 208		; 000000d0H
  00102	3b ec		 cmp	 ebp, esp
  00104	e8 00 00 00 00	 call	 __RTC_CheckEsp
  00109	8b e5		 mov	 esp, ebp
  0010b	5d		 pop	 ebp
  0010c	c2 04 00	 ret	 4
??8?$_Tree_const_iterator@V?$_Tree_val@U?$_Tree_simple_types@U?$pair@$$CBW4SDL_Scancode@@_N@std@@@std@@@std@@@std@@QBE_NABV01@@Z ENDP ; std::_Tree_const_iterator<std::_Tree_val<std::_Tree_simple_types<std::pair<enum SDL_Scancode const ,bool> > > >::operator==
_TEXT	ENDS
; Function compile flags: /Odtp /RTCsu /ZI
;	COMDAT ??F?$_Tree_const_iterator@V?$_Tree_val@U?$_Tree_simple_types@U?$pair@$$CBW4SDL_Scancode@@_N@std@@@std@@@std@@@std@@QAEAAV01@XZ
_TEXT	SEGMENT
__Ptrsav$ = -20						; size = 4
_this$ = -8						; size = 4
??F?$_Tree_const_iterator@V?$_Tree_val@U?$_Tree_simple_types@U?$pair@$$CBW4SDL_Scancode@@_N@std@@@std@@@std@@@std@@QAEAAV01@XZ PROC ; std::_Tree_const_iterator<std::_Tree_val<std::_Tree_simple_types<std::pair<enum SDL_Scancode const ,bool> > > >::operator--, COMDAT
; _this$ = ecx
; File c:\program files (x86)\microsoft visual studio 12.0\vc\include\xtree
; Line 283
  00000	55		 push	 ebp
  00001	8b ec		 mov	 ebp, esp
  00003	81 ec d8 00 00
	00		 sub	 esp, 216		; 000000d8H
  00009	53		 push	 ebx
  0000a	56		 push	 esi
  0000b	57		 push	 edi
  0000c	51		 push	 ecx
  0000d	8d bd 28 ff ff
	ff		 lea	 edi, DWORD PTR [ebp-216]
  00013	b9 36 00 00 00	 mov	 ecx, 54			; 00000036H
  00018	b8 cc cc cc cc	 mov	 eax, -858993460		; ccccccccH
  0001d	f3 ab		 rep stosd
  0001f	59		 pop	 ecx
  00020	89 4d f8	 mov	 DWORD PTR _this$[ebp], ecx
; Line 286
  00023	8b 4d f8	 mov	 ecx, DWORD PTR _this$[ebp]
  00026	e8 00 00 00 00	 call	 ?_Getcont@_Iterator_base12@std@@QBEPBU_Container_base12@2@XZ ; std::_Iterator_base12::_Getcont
  0002b	85 c0		 test	 eax, eax
  0002d	74 0d		 je	 SHORT $LN2@operator
  0002f	8b 45 f8	 mov	 eax, DWORD PTR _this$[ebp]
  00032	83 78 08 00	 cmp	 DWORD PTR [eax+8], 0
  00036	0f 85 86 00 00
	00		 jne	 $LN3@operator
$LN2@operator:
; Line 288
  0003c	8b f4		 mov	 esi, esp
  0003e	68 20 01 00 00	 push	 288			; 00000120H
  00043	68 00 00 00 00	 push	 OFFSET ??_C@_1IK@HBAODOLH@?$AAc?$AA?3?$AA?2?$AAp?$AAr?$AAo?$AAg?$AAr?$AAa?$AAm?$AA?5?$AAf?$AAi?$AAl?$AAe?$AAs?$AA?5?$AA?$CI?$AAx?$AA8?$AA6?$AA?$CJ?$AA?2?$AAm?$AAi?$AAc?$AAr?$AAo?$AAs?$AAo?$AAf?$AAt@
  00048	68 00 00 00 00	 push	 OFFSET ??_C@_1EG@OKCGOALM@?$AAm?$AAa?$AAp?$AA?1?$AAs?$AAe?$AAt?$AA?5?$AAi?$AAt?$AAe?$AAr?$AAa?$AAt?$AAo?$AAr?$AA?5?$AAn?$AAo?$AAt?$AA?5?$AAd?$AAe?$AAc?$AAr?$AAe?$AAm?$AAe?$AAn?$AAt?$AAa?$AAb@
  0004d	ff 15 00 00 00
	00		 call	 DWORD PTR __imp_?_Debug_message@std@@YAXPB_W0I@Z
  00053	83 c4 0c	 add	 esp, 12			; 0000000cH
  00056	3b f4		 cmp	 esi, esp
  00058	e8 00 00 00 00	 call	 __RTC_CheckEsp
; Line 289
  0005d	b8 00 00 00 00	 mov	 eax, OFFSET ??_C@_0CE@OFMIGAMM@Standard?5C?$CL?$CL?5Libraries?5Out?5of?5Ra@
  00062	85 c0		 test	 eax, eax
  00064	74 04		 je	 SHORT $LN6@operator
  00066	33 c9		 xor	 ecx, ecx
  00068	75 30		 jne	 SHORT $LN7@operator
$LN6@operator:
  0006a	8b f4		 mov	 esi, esp
  0006c	68 00 00 00 00	 push	 OFFSET ??_C@_1FG@IBPIFFN@?$AA?$CC?$AAS?$AAt?$AAa?$AAn?$AAd?$AAa?$AAr?$AAd?$AA?5?$AAC?$AA?$CL?$AA?$CL?$AA?5?$AAL?$AAi?$AAb?$AAr?$AAa?$AAr?$AAi?$AAe?$AAs?$AA?5?$AAO?$AAu?$AAt?$AA?5?$AAo?$AAf?$AA?5?$AAR@
  00071	68 00 00 00 00	 push	 OFFSET ??_C@_15GANGMFKL@?$AA?$CF?$AAs?$AA?$AA@
  00076	6a 00		 push	 0
  00078	68 21 01 00 00	 push	 289			; 00000121H
  0007d	68 00 00 00 00	 push	 OFFSET ??_C@_1IK@HBAODOLH@?$AAc?$AA?3?$AA?2?$AAp?$AAr?$AAo?$AAg?$AAr?$AAa?$AAm?$AA?5?$AAf?$AAi?$AAl?$AAe?$AAs?$AA?5?$AA?$CI?$AAx?$AA8?$AA6?$AA?$CJ?$AA?2?$AAm?$AAi?$AAc?$AAr?$AAo?$AAs?$AAo?$AAf?$AAt@
  00082	6a 02		 push	 2
  00084	ff 15 00 00 00
	00		 call	 DWORD PTR __imp___CrtDbgReportW
  0008a	83 c4 18	 add	 esp, 24			; 00000018H
  0008d	3b f4		 cmp	 esi, esp
  0008f	e8 00 00 00 00	 call	 __RTC_CheckEsp
  00094	83 f8 01	 cmp	 eax, 1
  00097	75 01		 jne	 SHORT $LN7@operator
  00099	cc		 int	 3
$LN7@operator:
  0009a	8b f4		 mov	 esi, esp
  0009c	6a 00		 push	 0
  0009e	68 21 01 00 00	 push	 289			; 00000121H
  000a3	68 00 00 00 00	 push	 OFFSET ??_C@_1IK@HBAODOLH@?$AAc?$AA?3?$AA?2?$AAp?$AAr?$AAo?$AAg?$AAr?$AAa?$AAm?$AA?5?$AAf?$AAi?$AAl?$AAe?$AAs?$AA?5?$AA?$CI?$AAx?$AA8?$AA6?$AA?$CJ?$AA?2?$AAm?$AAi?$AAc?$AAr?$AAo?$AAs?$AAo?$AAf?$AAt@
  000a8	68 00 00 00 00	 push	 OFFSET ??_C@_1BCC@FBICHDIM@?$AAs?$AAt?$AAd?$AA?3?$AA?3?$AA_?$AAT?$AAr?$AAe?$AAe?$AA_?$AAc?$AAo?$AAn?$AAs?$AAt?$AA_?$AAi?$AAt?$AAe?$AAr?$AAa?$AAt?$AAo?$AAr?$AA?$DM?$AAc?$AAl?$AAa?$AAs?$AAs?$AA?5@
  000ad	68 00 00 00 00	 push	 OFFSET ??_C@_1BO@MEPPHOO@?$AA?$CC?$AAo?$AAu?$AAt?$AA?5?$AAo?$AAf?$AA?5?$AAr?$AAa?$AAn?$AAg?$AAe?$AA?$CC?$AA?$AA@
  000b2	ff 15 00 00 00
	00		 call	 DWORD PTR __imp___invalid_parameter
  000b8	83 c4 14	 add	 esp, 20			; 00000014H
  000bb	3b f4		 cmp	 esi, esp
  000bd	e8 00 00 00 00	 call	 __RTC_CheckEsp
$LN3@operator:
; Line 292
  000c2	8b 45 f8	 mov	 eax, DWORD PTR _this$[ebp]
  000c5	8b 48 08	 mov	 ecx, DWORD PTR [eax+8]
  000c8	89 4d ec	 mov	 DWORD PTR __Ptrsav$[ebp], ecx
; Line 293
  000cb	8b 4d f8	 mov	 ecx, DWORD PTR _this$[ebp]
  000ce	e8 00 00 00 00	 call	 ??F?$_Tree_unchecked_const_iterator@V?$_Tree_val@U?$_Tree_simple_types@U?$pair@$$CBW4SDL_Scancode@@_N@std@@@std@@@std@@U_Iterator_base12@2@@std@@QAEAAV01@XZ ; std::_Tree_unchecked_const_iterator<std::_Tree_val<std::_Tree_simple_types<std::pair<enum SDL_Scancode const ,bool> > >,std::_Iterator_base12>::operator--
; Line 294
  000d3	8b 45 f8	 mov	 eax, DWORD PTR _this$[ebp]
  000d6	8b 4d ec	 mov	 ecx, DWORD PTR __Ptrsav$[ebp]
  000d9	3b 48 08	 cmp	 ecx, DWORD PTR [eax+8]
  000dc	0f 85 86 00 00
	00		 jne	 $LN1@operator
; Line 296
  000e2	8b f4		 mov	 esi, esp
  000e4	68 28 01 00 00	 push	 296			; 00000128H
  000e9	68 00 00 00 00	 push	 OFFSET ??_C@_1IK@HBAODOLH@?$AAc?$AA?3?$AA?2?$AAp?$AAr?$AAo?$AAg?$AAr?$AAa?$AAm?$AA?5?$AAf?$AAi?$AAl?$AAe?$AAs?$AA?5?$AA?$CI?$AAx?$AA8?$AA6?$AA?$CJ?$AA?2?$AAm?$AAi?$AAc?$AAr?$AAo?$AAs?$AAo?$AAf?$AAt@
  000ee	68 00 00 00 00	 push	 OFFSET ??_C@_1EG@OKCGOALM@?$AAm?$AAa?$AAp?$AA?1?$AAs?$AAe?$AAt?$AA?5?$AAi?$AAt?$AAe?$AAr?$AAa?$AAt?$AAo?$AAr?$AA?5?$AAn?$AAo?$AAt?$AA?5?$AAd?$AAe?$AAc?$AAr?$AAe?$AAm?$AAe?$AAn?$AAt?$AAa?$AAb@
  000f3	ff 15 00 00 00
	00		 call	 DWORD PTR __imp_?_Debug_message@std@@YAXPB_W0I@Z
  000f9	83 c4 0c	 add	 esp, 12			; 0000000cH
  000fc	3b f4		 cmp	 esi, esp
  000fe	e8 00 00 00 00	 call	 __RTC_CheckEsp
; Line 297
  00103	b8 00 00 00 00	 mov	 eax, OFFSET ??_C@_0CE@OFMIGAMM@Standard?5C?$CL?$CL?5Libraries?5Out?5of?5Ra@
  00108	85 c0		 test	 eax, eax
  0010a	74 04		 je	 SHORT $LN8@operator
  0010c	33 c9		 xor	 ecx, ecx
  0010e	75 30		 jne	 SHORT $LN9@operator
$LN8@operator:
  00110	8b f4		 mov	 esi, esp
  00112	68 00 00 00 00	 push	 OFFSET ??_C@_1FG@IBPIFFN@?$AA?$CC?$AAS?$AAt?$AAa?$AAn?$AAd?$AAa?$AAr?$AAd?$AA?5?$AAC?$AA?$CL?$AA?$CL?$AA?5?$AAL?$AAi?$AAb?$AAr?$AAa?$AAr?$AAi?$AAe?$AAs?$AA?5?$AAO?$AAu?$AAt?$AA?5?$AAo?$AAf?$AA?5?$AAR@
  00117	68 00 00 00 00	 push	 OFFSET ??_C@_15GANGMFKL@?$AA?$CF?$AAs?$AA?$AA@
  0011c	6a 00		 push	 0
  0011e	68 29 01 00 00	 push	 297			; 00000129H
  00123	68 00 00 00 00	 push	 OFFSET ??_C@_1IK@HBAODOLH@?$AAc?$AA?3?$AA?2?$AAp?$AAr?$AAo?$AAg?$AAr?$AAa?$AAm?$AA?5?$AAf?$AAi?$AAl?$AAe?$AAs?$AA?5?$AA?$CI?$AAx?$AA8?$AA6?$AA?$CJ?$AA?2?$AAm?$AAi?$AAc?$AAr?$AAo?$AAs?$AAo?$AAf?$AAt@
  00128	6a 02		 push	 2
  0012a	ff 15 00 00 00
	00		 call	 DWORD PTR __imp___CrtDbgReportW
  00130	83 c4 18	 add	 esp, 24			; 00000018H
  00133	3b f4		 cmp	 esi, esp
  00135	e8 00 00 00 00	 call	 __RTC_CheckEsp
  0013a	83 f8 01	 cmp	 eax, 1
  0013d	75 01		 jne	 SHORT $LN9@operator
  0013f	cc		 int	 3
$LN9@operator:
  00140	8b f4		 mov	 esi, esp
  00142	6a 00		 push	 0
  00144	68 29 01 00 00	 push	 297			; 00000129H
  00149	68 00 00 00 00	 push	 OFFSET ??_C@_1IK@HBAODOLH@?$AAc?$AA?3?$AA?2?$AAp?$AAr?$AAo?$AAg?$AAr?$AAa?$AAm?$AA?5?$AAf?$AAi?$AAl?$AAe?$AAs?$AA?5?$AA?$CI?$AAx?$AA8?$AA6?$AA?$CJ?$AA?2?$AAm?$AAi?$AAc?$AAr?$AAo?$AAs?$AAo?$AAf?$AAt@
  0014e	68 00 00 00 00	 push	 OFFSET ??_C@_1BCC@FBICHDIM@?$AAs?$AAt?$AAd?$AA?3?$AA?3?$AA_?$AAT?$AAr?$AAe?$AAe?$AA_?$AAc?$AAo?$AAn?$AAs?$AAt?$AA_?$AAi?$AAt?$AAe?$AAr?$AAa?$AAt?$AAo?$AAr?$AA?$DM?$AAc?$AAl?$AAa?$AAs?$AAs?$AA?5@
  00153	68 00 00 00 00	 push	 OFFSET ??_C@_1BO@MEPPHOO@?$AA?$CC?$AAo?$AAu?$AAt?$AA?5?$AAo?$AAf?$AA?5?$AAr?$AAa?$AAn?$AAg?$AAe?$AA?$CC?$AA?$AA@
  00158	ff 15 00 00 00
	00		 call	 DWORD PTR __imp___invalid_parameter
  0015e	83 c4 14	 add	 esp, 20			; 00000014H
  00161	3b f4		 cmp	 esi, esp
  00163	e8 00 00 00 00	 call	 __RTC_CheckEsp
$LN1@operator:
; Line 311
  00168	8b 45 f8	 mov	 eax, DWORD PTR _this$[ebp]
; Line 312
  0016b	5f		 pop	 edi
  0016c	5e		 pop	 esi
  0016d	5b		 pop	 ebx
  0016e	81 c4 d8 00 00
	00		 add	 esp, 216		; 000000d8H
  00174	3b ec		 cmp	 ebp, esp
  00176	e8 00 00 00 00	 call	 __RTC_CheckEsp
  0017b	8b e5		 mov	 esp, ebp
  0017d	5d		 pop	 ebp
  0017e	c3		 ret	 0
??F?$_Tree_const_iterator@V?$_Tree_val@U?$_Tree_simple_types@U?$pair@$$CBW4SDL_Scancode@@_N@std@@@std@@@std@@@std@@QAEAAV01@XZ ENDP ; std::_Tree_const_iterator<std::_Tree_val<std::_Tree_simple_types<std::pair<enum SDL_Scancode const ,bool> > > >::operator--
_TEXT	ENDS
; Function compile flags: /Odtp /RTCsu /ZI
;	COMDAT ??E?$_Tree_const_iterator@V?$_Tree_val@U?$_Tree_simple_types@U?$pair@$$CBW4SDL_Scancode@@_N@std@@@std@@@std@@@std@@QAEAAV01@XZ
_TEXT	SEGMENT
_this$ = -8						; size = 4
??E?$_Tree_const_iterator@V?$_Tree_val@U?$_Tree_simple_types@U?$pair@$$CBW4SDL_Scancode@@_N@std@@@std@@@std@@@std@@QAEAAV01@XZ PROC ; std::_Tree_const_iterator<std::_Tree_val<std::_Tree_simple_types<std::pair<enum SDL_Scancode const ,bool> > > >::operator++, COMDAT
; _this$ = ecx
; File c:\program files (x86)\microsoft visual studio 12.0\vc\include\xtree
; Line 256
  00000	55		 push	 ebp
  00001	8b ec		 mov	 ebp, esp
  00003	81 ec cc 00 00
	00		 sub	 esp, 204		; 000000ccH
  00009	53		 push	 ebx
  0000a	56		 push	 esi
  0000b	57		 push	 edi
  0000c	51		 push	 ecx
  0000d	8d bd 34 ff ff
	ff		 lea	 edi, DWORD PTR [ebp-204]
  00013	b9 33 00 00 00	 mov	 ecx, 51			; 00000033H
  00018	b8 cc cc cc cc	 mov	 eax, -858993460		; ccccccccH
  0001d	f3 ab		 rep stosd
  0001f	59		 pop	 ecx
  00020	89 4d f8	 mov	 DWORD PTR _this$[ebp], ecx
; Line 260
  00023	8b 4d f8	 mov	 ecx, DWORD PTR _this$[ebp]
  00026	e8 00 00 00 00	 call	 ?_Getcont@_Iterator_base12@std@@QBEPBU_Container_base12@2@XZ ; std::_Iterator_base12::_Getcont
  0002b	85 c0		 test	 eax, eax
  0002d	74 23		 je	 SHORT $LN1@operator
  0002f	8b 45 f8	 mov	 eax, DWORD PTR _this$[ebp]
  00032	83 78 08 00	 cmp	 DWORD PTR [eax+8], 0
  00036	74 1a		 je	 SHORT $LN1@operator
  00038	8b 45 f8	 mov	 eax, DWORD PTR _this$[ebp]
  0003b	8b 48 08	 mov	 ecx, DWORD PTR [eax+8]
  0003e	51		 push	 ecx
  0003f	e8 00 00 00 00	 call	 ?_Isnil@?$_Tree_val@U?$_Tree_simple_types@U?$pair@$$CBW4SDL_Scancode@@_N@std@@@std@@@std@@SAAADPAU?$_Tree_node@U?$pair@$$CBW4SDL_Scancode@@_N@std@@PAX@2@@Z ; std::_Tree_val<std::_Tree_simple_types<std::pair<enum SDL_Scancode const ,bool> > >::_Isnil
  00044	83 c4 04	 add	 esp, 4
  00047	0f be 10	 movsx	 edx, BYTE PTR [eax]
  0004a	85 d2		 test	 edx, edx
  0004c	0f 84 86 00 00
	00		 je	 $LN2@operator
$LN1@operator:
; Line 262
  00052	8b f4		 mov	 esi, esp
  00054	68 06 01 00 00	 push	 262			; 00000106H
  00059	68 00 00 00 00	 push	 OFFSET ??_C@_1IK@HBAODOLH@?$AAc?$AA?3?$AA?2?$AAp?$AAr?$AAo?$AAg?$AAr?$AAa?$AAm?$AA?5?$AAf?$AAi?$AAl?$AAe?$AAs?$AA?5?$AA?$CI?$AAx?$AA8?$AA6?$AA?$CJ?$AA?2?$AAm?$AAi?$AAc?$AAr?$AAo?$AAs?$AAo?$AAf?$AAt@
  0005e	68 00 00 00 00	 push	 OFFSET ??_C@_1EG@EHJFMBHJ@?$AAm?$AAa?$AAp?$AA?1?$AAs?$AAe?$AAt?$AA?5?$AAi?$AAt?$AAe?$AAr?$AAa?$AAt?$AAo?$AAr?$AA?5?$AAn?$AAo?$AAt?$AA?5?$AAi?$AAn?$AAc?$AAr?$AAe?$AAm?$AAe?$AAn?$AAt?$AAa?$AAb@
  00063	ff 15 00 00 00
	00		 call	 DWORD PTR __imp_?_Debug_message@std@@YAXPB_W0I@Z
  00069	83 c4 0c	 add	 esp, 12			; 0000000cH
  0006c	3b f4		 cmp	 esi, esp
  0006e	e8 00 00 00 00	 call	 __RTC_CheckEsp
; Line 263
  00073	b8 00 00 00 00	 mov	 eax, OFFSET ??_C@_0CE@OFMIGAMM@Standard?5C?$CL?$CL?5Libraries?5Out?5of?5Ra@
  00078	85 c0		 test	 eax, eax
  0007a	74 04		 je	 SHORT $LN5@operator
  0007c	33 c9		 xor	 ecx, ecx
  0007e	75 30		 jne	 SHORT $LN6@operator
$LN5@operator:
  00080	8b f4		 mov	 esi, esp
  00082	68 00 00 00 00	 push	 OFFSET ??_C@_1FG@IBPIFFN@?$AA?$CC?$AAS?$AAt?$AAa?$AAn?$AAd?$AAa?$AAr?$AAd?$AA?5?$AAC?$AA?$CL?$AA?$CL?$AA?5?$AAL?$AAi?$AAb?$AAr?$AAa?$AAr?$AAi?$AAe?$AAs?$AA?5?$AAO?$AAu?$AAt?$AA?5?$AAo?$AAf?$AA?5?$AAR@
  00087	68 00 00 00 00	 push	 OFFSET ??_C@_15GANGMFKL@?$AA?$CF?$AAs?$AA?$AA@
  0008c	6a 00		 push	 0
  0008e	68 07 01 00 00	 push	 263			; 00000107H
  00093	68 00 00 00 00	 push	 OFFSET ??_C@_1IK@HBAODOLH@?$AAc?$AA?3?$AA?2?$AAp?$AAr?$AAo?$AAg?$AAr?$AAa?$AAm?$AA?5?$AAf?$AAi?$AAl?$AAe?$AAs?$AA?5?$AA?$CI?$AAx?$AA8?$AA6?$AA?$CJ?$AA?2?$AAm?$AAi?$AAc?$AAr?$AAo?$AAs?$AAo?$AAf?$AAt@
  00098	6a 02		 push	 2
  0009a	ff 15 00 00 00
	00		 call	 DWORD PTR __imp___CrtDbgReportW
  000a0	83 c4 18	 add	 esp, 24			; 00000018H
  000a3	3b f4		 cmp	 esi, esp
  000a5	e8 00 00 00 00	 call	 __RTC_CheckEsp
  000aa	83 f8 01	 cmp	 eax, 1
  000ad	75 01		 jne	 SHORT $LN6@operator
  000af	cc		 int	 3
$LN6@operator:
  000b0	8b f4		 mov	 esi, esp
  000b2	6a 00		 push	 0
  000b4	68 07 01 00 00	 push	 263			; 00000107H
  000b9	68 00 00 00 00	 push	 OFFSET ??_C@_1IK@HBAODOLH@?$AAc?$AA?3?$AA?2?$AAp?$AAr?$AAo?$AAg?$AAr?$AAa?$AAm?$AA?5?$AAf?$AAi?$AAl?$AAe?$AAs?$AA?5?$AA?$CI?$AAx?$AA8?$AA6?$AA?$CJ?$AA?2?$AAm?$AAi?$AAc?$AAr?$AAo?$AAs?$AAo?$AAf?$AAt@
  000be	68 00 00 00 00	 push	 OFFSET ??_C@_1BCC@KCLAMPEN@?$AAs?$AAt?$AAd?$AA?3?$AA?3?$AA_?$AAT?$AAr?$AAe?$AAe?$AA_?$AAc?$AAo?$AAn?$AAs?$AAt?$AA_?$AAi?$AAt?$AAe?$AAr?$AAa?$AAt?$AAo?$AAr?$AA?$DM?$AAc?$AAl?$AAa?$AAs?$AAs?$AA?5@
  000c3	68 00 00 00 00	 push	 OFFSET ??_C@_1BO@MEPPHOO@?$AA?$CC?$AAo?$AAu?$AAt?$AA?5?$AAo?$AAf?$AA?5?$AAr?$AAa?$AAn?$AAg?$AAe?$AA?$CC?$AA?$AA@
  000c8	ff 15 00 00 00
	00		 call	 DWORD PTR __imp___invalid_parameter
  000ce	83 c4 14	 add	 esp, 20			; 00000014H
  000d1	3b f4		 cmp	 esi, esp
  000d3	e8 00 00 00 00	 call	 __RTC_CheckEsp
$LN2@operator:
; Line 271
  000d8	8b 4d f8	 mov	 ecx, DWORD PTR _this$[ebp]
  000db	e8 00 00 00 00	 call	 ??E?$_Tree_unchecked_const_iterator@V?$_Tree_val@U?$_Tree_simple_types@U?$pair@$$CBW4SDL_Scancode@@_N@std@@@std@@@std@@U_Iterator_base12@2@@std@@QAEAAV01@XZ ; std::_Tree_unchecked_const_iterator<std::_Tree_val<std::_Tree_simple_types<std::pair<enum SDL_Scancode const ,bool> > >,std::_Iterator_base12>::operator++
; Line 272
  000e0	8b 45 f8	 mov	 eax, DWORD PTR _this$[ebp]
; Line 273
  000e3	5f		 pop	 edi
  000e4	5e		 pop	 esi
  000e5	5b		 pop	 ebx
  000e6	81 c4 cc 00 00
	00		 add	 esp, 204		; 000000ccH
  000ec	3b ec		 cmp	 ebp, esp
  000ee	e8 00 00 00 00	 call	 __RTC_CheckEsp
  000f3	8b e5		 mov	 esp, ebp
  000f5	5d		 pop	 ebp
  000f6	c3		 ret	 0
??E?$_Tree_const_iterator@V?$_Tree_val@U?$_Tree_simple_types@U?$pair@$$CBW4SDL_Scancode@@_N@std@@@std@@@std@@@std@@QAEAAV01@XZ ENDP ; std::_Tree_const_iterator<std::_Tree_val<std::_Tree_simple_types<std::pair<enum SDL_Scancode const ,bool> > > >::operator++
_TEXT	ENDS
; Function compile flags: /Odtp /RTCsu /ZI
;	COMDAT ??D?$_Tree_const_iterator@V?$_Tree_val@U?$_Tree_simple_types@U?$pair@$$CBW4SDL_Scancode@@_N@std@@@std@@@std@@@std@@QBEABU?$pair@$$CBW4SDL_Scancode@@_N@1@XZ
_TEXT	SEGMENT
_this$ = -8						; size = 4
??D?$_Tree_const_iterator@V?$_Tree_val@U?$_Tree_simple_types@U?$pair@$$CBW4SDL_Scancode@@_N@std@@@std@@@std@@@std@@QBEABU?$pair@$$CBW4SDL_Scancode@@_N@1@XZ PROC ; std::_Tree_const_iterator<std::_Tree_val<std::_Tree_simple_types<std::pair<enum SDL_Scancode const ,bool> > > >::operator*, COMDAT
; _this$ = ecx
; File c:\program files (x86)\microsoft visual studio 12.0\vc\include\xtree
; Line 231
  00000	55		 push	 ebp
  00001	8b ec		 mov	 ebp, esp
  00003	81 ec cc 00 00
	00		 sub	 esp, 204		; 000000ccH
  00009	53		 push	 ebx
  0000a	56		 push	 esi
  0000b	57		 push	 edi
  0000c	51		 push	 ecx
  0000d	8d bd 34 ff ff
	ff		 lea	 edi, DWORD PTR [ebp-204]
  00013	b9 33 00 00 00	 mov	 ecx, 51			; 00000033H
  00018	b8 cc cc cc cc	 mov	 eax, -858993460		; ccccccccH
  0001d	f3 ab		 rep stosd
  0001f	59		 pop	 ecx
  00020	89 4d f8	 mov	 DWORD PTR _this$[ebp], ecx
; Line 235
  00023	8b 4d f8	 mov	 ecx, DWORD PTR _this$[ebp]
  00026	e8 00 00 00 00	 call	 ?_Getcont@_Iterator_base12@std@@QBEPBU_Container_base12@2@XZ ; std::_Iterator_base12::_Getcont
  0002b	85 c0		 test	 eax, eax
  0002d	74 20		 je	 SHORT $LN1@operator
  0002f	8b 45 f8	 mov	 eax, DWORD PTR _this$[ebp]
  00032	83 78 08 00	 cmp	 DWORD PTR [eax+8], 0
  00036	74 17		 je	 SHORT $LN1@operator
  00038	8b 4d f8	 mov	 ecx, DWORD PTR _this$[ebp]
  0003b	e8 00 00 00 00	 call	 ?_Getcont@_Iterator_base12@std@@QBEPBU_Container_base12@2@XZ ; std::_Iterator_base12::_Getcont
  00040	8b 4d f8	 mov	 ecx, DWORD PTR _this$[ebp]
  00043	8b 51 08	 mov	 edx, DWORD PTR [ecx+8]
  00046	3b 50 04	 cmp	 edx, DWORD PTR [eax+4]
  00049	0f 85 86 00 00
	00		 jne	 $LN2@operator
$LN1@operator:
; Line 237
  0004f	8b f4		 mov	 esi, esp
  00051	68 ed 00 00 00	 push	 237			; 000000edH
  00056	68 00 00 00 00	 push	 OFFSET ??_C@_1IK@HBAODOLH@?$AAc?$AA?3?$AA?2?$AAp?$AAr?$AAo?$AAg?$AAr?$AAa?$AAm?$AA?5?$AAf?$AAi?$AAl?$AAe?$AAs?$AA?5?$AA?$CI?$AAx?$AA8?$AA6?$AA?$CJ?$AA?2?$AAm?$AAi?$AAc?$AAr?$AAo?$AAs?$AAo?$AAf?$AAt@
  0005b	68 00 00 00 00	 push	 OFFSET ??_C@_1EI@FHEHNNNM@?$AAm?$AAa?$AAp?$AA?1?$AAs?$AAe?$AAt?$AA?5?$AAi?$AAt?$AAe?$AAr?$AAa?$AAt?$AAo?$AAr?$AA?5?$AAn?$AAo?$AAt?$AA?5?$AAd?$AAe?$AAr?$AAe?$AAf?$AAe?$AAr?$AAe?$AAn?$AAc?$AAa@
  00060	ff 15 00 00 00
	00		 call	 DWORD PTR __imp_?_Debug_message@std@@YAXPB_W0I@Z
  00066	83 c4 0c	 add	 esp, 12			; 0000000cH
  00069	3b f4		 cmp	 esi, esp
  0006b	e8 00 00 00 00	 call	 __RTC_CheckEsp
; Line 238
  00070	b8 00 00 00 00	 mov	 eax, OFFSET ??_C@_0CE@OFMIGAMM@Standard?5C?$CL?$CL?5Libraries?5Out?5of?5Ra@
  00075	85 c0		 test	 eax, eax
  00077	74 04		 je	 SHORT $LN5@operator
  00079	33 c9		 xor	 ecx, ecx
  0007b	75 30		 jne	 SHORT $LN6@operator
$LN5@operator:
  0007d	8b f4		 mov	 esi, esp
  0007f	68 00 00 00 00	 push	 OFFSET ??_C@_1FG@IBPIFFN@?$AA?$CC?$AAS?$AAt?$AAa?$AAn?$AAd?$AAa?$AAr?$AAd?$AA?5?$AAC?$AA?$CL?$AA?$CL?$AA?5?$AAL?$AAi?$AAb?$AAr?$AAa?$AAr?$AAi?$AAe?$AAs?$AA?5?$AAO?$AAu?$AAt?$AA?5?$AAo?$AAf?$AA?5?$AAR@
  00084	68 00 00 00 00	 push	 OFFSET ??_C@_15GANGMFKL@?$AA?$CF?$AAs?$AA?$AA@
  00089	6a 00		 push	 0
  0008b	68 ee 00 00 00	 push	 238			; 000000eeH
  00090	68 00 00 00 00	 push	 OFFSET ??_C@_1IK@HBAODOLH@?$AAc?$AA?3?$AA?2?$AAp?$AAr?$AAo?$AAg?$AAr?$AAa?$AAm?$AA?5?$AAf?$AAi?$AAl?$AAe?$AAs?$AA?5?$AA?$CI?$AAx?$AA8?$AA6?$AA?$CJ?$AA?2?$AAm?$AAi?$AAc?$AAr?$AAo?$AAs?$AAo?$AAf?$AAt@
  00095	6a 02		 push	 2
  00097	ff 15 00 00 00
	00		 call	 DWORD PTR __imp___CrtDbgReportW
  0009d	83 c4 18	 add	 esp, 24			; 00000018H
  000a0	3b f4		 cmp	 esi, esp
  000a2	e8 00 00 00 00	 call	 __RTC_CheckEsp
  000a7	83 f8 01	 cmp	 eax, 1
  000aa	75 01		 jne	 SHORT $LN6@operator
  000ac	cc		 int	 3
$LN6@operator:
  000ad	8b f4		 mov	 esi, esp
  000af	6a 00		 push	 0
  000b1	68 ee 00 00 00	 push	 238			; 000000eeH
  000b6	68 00 00 00 00	 push	 OFFSET ??_C@_1IK@HBAODOLH@?$AAc?$AA?3?$AA?2?$AAp?$AAr?$AAo?$AAg?$AAr?$AAa?$AAm?$AA?5?$AAf?$AAi?$AAl?$AAe?$AAs?$AA?5?$AA?$CI?$AAx?$AA8?$AA6?$AA?$CJ?$AA?2?$AAm?$AAi?$AAc?$AAr?$AAo?$AAs?$AAo?$AAf?$AAt@
  000bb	68 00 00 00 00	 push	 OFFSET ??_C@_1BCA@HNCBFHON@?$AAs?$AAt?$AAd?$AA?3?$AA?3?$AA_?$AAT?$AAr?$AAe?$AAe?$AA_?$AAc?$AAo?$AAn?$AAs?$AAt?$AA_?$AAi?$AAt?$AAe?$AAr?$AAa?$AAt?$AAo?$AAr?$AA?$DM?$AAc?$AAl?$AAa?$AAs?$AAs?$AA?5@
  000c0	68 00 00 00 00	 push	 OFFSET ??_C@_1BO@MEPPHOO@?$AA?$CC?$AAo?$AAu?$AAt?$AA?5?$AAo?$AAf?$AA?5?$AAr?$AAa?$AAn?$AAg?$AAe?$AA?$CC?$AA?$AA@
  000c5	ff 15 00 00 00
	00		 call	 DWORD PTR __imp___invalid_parameter
  000cb	83 c4 14	 add	 esp, 20			; 00000014H
  000ce	3b f4		 cmp	 esi, esp
  000d0	e8 00 00 00 00	 call	 __RTC_CheckEsp
$LN2@operator:
; Line 247
  000d5	8b 45 f8	 mov	 eax, DWORD PTR _this$[ebp]
  000d8	8b 48 08	 mov	 ecx, DWORD PTR [eax+8]
  000db	51		 push	 ecx
  000dc	e8 00 00 00 00	 call	 ?_Myval@?$_Tree_val@U?$_Tree_simple_types@U?$pair@$$CBW4SDL_Scancode@@_N@std@@@std@@@std@@SAAAU?$pair@$$CBW4SDL_Scancode@@_N@2@PAU?$_Tree_node@U?$pair@$$CBW4SDL_Scancode@@_N@std@@PAX@2@@Z ; std::_Tree_val<std::_Tree_simple_types<std::pair<enum SDL_Scancode const ,bool> > >::_Myval
  000e1	83 c4 04	 add	 esp, 4
; Line 248
  000e4	5f		 pop	 edi
  000e5	5e		 pop	 esi
  000e6	5b		 pop	 ebx
  000e7	81 c4 cc 00 00
	00		 add	 esp, 204		; 000000ccH
  000ed	3b ec		 cmp	 ebp, esp
  000ef	e8 00 00 00 00	 call	 __RTC_CheckEsp
  000f4	8b e5		 mov	 esp, ebp
  000f6	5d		 pop	 ebp
  000f7	c3		 ret	 0
??D?$_Tree_const_iterator@V?$_Tree_val@U?$_Tree_simple_types@U?$pair@$$CBW4SDL_Scancode@@_N@std@@@std@@@std@@@std@@QBEABU?$pair@$$CBW4SDL_Scancode@@_N@1@XZ ENDP ; std::_Tree_const_iterator<std::_Tree_val<std::_Tree_simple_types<std::pair<enum SDL_Scancode const ,bool> > > >::operator*
_TEXT	ENDS
; Function compile flags: /Odtp /RTCsu /ZI
;	COMDAT ??0?$_Tree_const_iterator@V?$_Tree_val@U?$_Tree_simple_types@U?$pair@$$CBW4SDL_Scancode@@_N@std@@@std@@@std@@@std@@QAE@PAU?$_Tree_node@U?$pair@$$CBW4SDL_Scancode@@_N@std@@PAX@1@PBV?$_Tree_val@U?$_Tree_simple_types@U?$pair@$$CBW4SDL_Scancode@@_N@std@@@std@@@1@@Z
_TEXT	SEGMENT
_this$ = -8						; size = 4
__Pnode$ = 8						; size = 4
__Plist$ = 12						; size = 4
??0?$_Tree_const_iterator@V?$_Tree_val@U?$_Tree_simple_types@U?$pair@$$CBW4SDL_Scancode@@_N@std@@@std@@@std@@@std@@QAE@PAU?$_Tree_node@U?$pair@$$CBW4SDL_Scancode@@_N@std@@PAX@1@PBV?$_Tree_val@U?$_Tree_simple_types@U?$pair@$$CBW4SDL_Scancode@@_N@std@@@std@@@1@@Z PROC ; std::_Tree_const_iterator<std::_Tree_val<std::_Tree_simple_types<std::pair<enum SDL_Scancode const ,bool> > > >::_Tree_const_iterator<std::_Tree_val<std::_Tree_simple_types<std::pair<enum SDL_Scancode const ,bool> > > >, COMDAT
; _this$ = ecx
; File c:\program files (x86)\microsoft visual studio 12.0\vc\include\xtree
; Line 214
  00000	55		 push	 ebp
  00001	8b ec		 mov	 ebp, esp
  00003	81 ec cc 00 00
	00		 sub	 esp, 204		; 000000ccH
  00009	53		 push	 ebx
  0000a	56		 push	 esi
  0000b	57		 push	 edi
  0000c	51		 push	 ecx
  0000d	8d bd 34 ff ff
	ff		 lea	 edi, DWORD PTR [ebp-204]
  00013	b9 33 00 00 00	 mov	 ecx, 51			; 00000033H
  00018	b8 cc cc cc cc	 mov	 eax, -858993460		; ccccccccH
  0001d	f3 ab		 rep stosd
  0001f	59		 pop	 ecx
  00020	89 4d f8	 mov	 DWORD PTR _this$[ebp], ecx
  00023	8b 45 0c	 mov	 eax, DWORD PTR __Plist$[ebp]
  00026	50		 push	 eax
  00027	8b 4d 08	 mov	 ecx, DWORD PTR __Pnode$[ebp]
  0002a	51		 push	 ecx
  0002b	8b 4d f8	 mov	 ecx, DWORD PTR _this$[ebp]
  0002e	e8 00 00 00 00	 call	 ??0?$_Tree_unchecked_const_iterator@V?$_Tree_val@U?$_Tree_simple_types@U?$pair@$$CBW4SDL_Scancode@@_N@std@@@std@@@std@@U_Iterator_base12@2@@std@@QAE@PAU?$_Tree_node@U?$pair@$$CBW4SDL_Scancode@@_N@std@@PAX@1@PBV?$_Tree_val@U?$_Tree_simple_types@U?$pair@$$CBW4SDL_Scancode@@_N@std@@@std@@@1@@Z ; std::_Tree_unchecked_const_iterator<std::_Tree_val<std::_Tree_simple_types<std::pair<enum SDL_Scancode const ,bool> > >,std::_Iterator_base12>::_Tree_unchecked_const_iterator<std::_Tree_val<std::_Tree_simple_types<std::pair<enum SDL_Scancode const ,bool> > >,std::_Iterator_base12>
; Line 215
  00033	8b 45 f8	 mov	 eax, DWORD PTR _this$[ebp]
  00036	5f		 pop	 edi
  00037	5e		 pop	 esi
  00038	5b		 pop	 ebx
  00039	81 c4 cc 00 00
	00		 add	 esp, 204		; 000000ccH
  0003f	3b ec		 cmp	 ebp, esp
  00041	e8 00 00 00 00	 call	 __RTC_CheckEsp
  00046	8b e5		 mov	 esp, ebp
  00048	5d		 pop	 ebp
  00049	c2 08 00	 ret	 8
??0?$_Tree_const_iterator@V?$_Tree_val@U?$_Tree_simple_types@U?$pair@$$CBW4SDL_Scancode@@_N@std@@@std@@@std@@@std@@QAE@PAU?$_Tree_node@U?$pair@$$CBW4SDL_Scancode@@_N@std@@PAX@1@PBV?$_Tree_val@U?$_Tree_simple_types@U?$pair@$$CBW4SDL_Scancode@@_N@std@@@std@@@1@@Z ENDP ; std::_Tree_const_iterator<std::_Tree_val<std::_Tree_simple_types<std::pair<enum SDL_Scancode const ,bool> > > >::_Tree_const_iterator<std::_Tree_val<std::_Tree_simple_types<std::pair<enum SDL_Scancode const ,bool> > > >
_TEXT	ENDS
; Function compile flags: /Odtp /RTCsu /ZI
;	COMDAT ??0?$_Tree_const_iterator@V?$_Tree_val@U?$_Tree_simple_types@U?$pair@$$CBW4SDL_Scancode@@_N@std@@@std@@@std@@@std@@QAE@XZ
_TEXT	SEGMENT
_this$ = -8						; size = 4
??0?$_Tree_const_iterator@V?$_Tree_val@U?$_Tree_simple_types@U?$pair@$$CBW4SDL_Scancode@@_N@std@@@std@@@std@@@std@@QAE@XZ PROC ; std::_Tree_const_iterator<std::_Tree_val<std::_Tree_simple_types<std::pair<enum SDL_Scancode const ,bool> > > >::_Tree_const_iterator<std::_Tree_val<std::_Tree_simple_types<std::pair<enum SDL_Scancode const ,bool> > > >, COMDAT
; _this$ = ecx
; File c:\program files (x86)\microsoft visual studio 12.0\vc\include\xtree
; Line 209
  00000	55		 push	 ebp
  00001	8b ec		 mov	 ebp, esp
  00003	81 ec cc 00 00
	00		 sub	 esp, 204		; 000000ccH
  00009	53		 push	 ebx
  0000a	56		 push	 esi
  0000b	57		 push	 edi
  0000c	51		 push	 ecx
  0000d	8d bd 34 ff ff
	ff		 lea	 edi, DWORD PTR [ebp-204]
  00013	b9 33 00 00 00	 mov	 ecx, 51			; 00000033H
  00018	b8 cc cc cc cc	 mov	 eax, -858993460		; ccccccccH
  0001d	f3 ab		 rep stosd
  0001f	59		 pop	 ecx
  00020	89 4d f8	 mov	 DWORD PTR _this$[ebp], ecx
  00023	8b 4d f8	 mov	 ecx, DWORD PTR _this$[ebp]
  00026	e8 00 00 00 00	 call	 ??0?$_Tree_unchecked_const_iterator@V?$_Tree_val@U?$_Tree_simple_types@U?$pair@$$CBW4SDL_Scancode@@_N@std@@@std@@@std@@U_Iterator_base12@2@@std@@QAE@XZ ; std::_Tree_unchecked_const_iterator<std::_Tree_val<std::_Tree_simple_types<std::pair<enum SDL_Scancode const ,bool> > >,std::_Iterator_base12>::_Tree_unchecked_const_iterator<std::_Tree_val<std::_Tree_simple_types<std::pair<enum SDL_Scancode const ,bool> > >,std::_Iterator_base12>
; Line 210
  0002b	8b 45 f8	 mov	 eax, DWORD PTR _this$[ebp]
  0002e	5f		 pop	 edi
  0002f	5e		 pop	 esi
  00030	5b		 pop	 ebx
  00031	81 c4 cc 00 00
	00		 add	 esp, 204		; 000000ccH
  00037	3b ec		 cmp	 ebp, esp
  00039	e8 00 00 00 00	 call	 __RTC_CheckEsp
  0003e	8b e5		 mov	 esp, ebp
  00040	5d		 pop	 ebp
  00041	c3		 ret	 0
??0?$_Tree_const_iterator@V?$_Tree_val@U?$_Tree_simple_types@U?$pair@$$CBW4SDL_Scancode@@_N@std@@@std@@@std@@@std@@QAE@XZ ENDP ; std::_Tree_const_iterator<std::_Tree_val<std::_Tree_simple_types<std::pair<enum SDL_Scancode const ,bool> > > >::_Tree_const_iterator<std::_Tree_val<std::_Tree_simple_types<std::pair<enum SDL_Scancode const ,bool> > > >
_TEXT	ENDS
; Function compile flags: /Odtp /RTCsu /ZI
;	COMDAT ??4?$_Tree_unchecked_const_iterator@V?$_Tree_val@U?$_Tree_simple_types@U?$pair@$$CBW4SDL_Scancode@@_N@std@@@std@@@std@@U_Iterator_base12@2@@std@@QAEAAV01@ABV01@@Z
_TEXT	SEGMENT
_this$ = -8						; size = 4
___that$ = 8						; size = 4
??4?$_Tree_unchecked_const_iterator@V?$_Tree_val@U?$_Tree_simple_types@U?$pair@$$CBW4SDL_Scancode@@_N@std@@@std@@@std@@U_Iterator_base12@2@@std@@QAEAAV01@ABV01@@Z PROC ; std::_Tree_unchecked_const_iterator<std::_Tree_val<std::_Tree_simple_types<std::pair<enum SDL_Scancode const ,bool> > >,std::_Iterator_base12>::operator=, COMDAT
; _this$ = ecx
  00000	55		 push	 ebp
  00001	8b ec		 mov	 ebp, esp
  00003	81 ec cc 00 00
	00		 sub	 esp, 204		; 000000ccH
  00009	53		 push	 ebx
  0000a	56		 push	 esi
  0000b	57		 push	 edi
  0000c	51		 push	 ecx
  0000d	8d bd 34 ff ff
	ff		 lea	 edi, DWORD PTR [ebp-204]
  00013	b9 33 00 00 00	 mov	 ecx, 51			; 00000033H
  00018	b8 cc cc cc cc	 mov	 eax, -858993460		; ccccccccH
  0001d	f3 ab		 rep stosd
  0001f	59		 pop	 ecx
  00020	89 4d f8	 mov	 DWORD PTR _this$[ebp], ecx
  00023	8b 45 08	 mov	 eax, DWORD PTR ___that$[ebp]
  00026	50		 push	 eax
  00027	8b 4d f8	 mov	 ecx, DWORD PTR _this$[ebp]
  0002a	e8 00 00 00 00	 call	 ??4?$_Iterator012@Ubidirectional_iterator_tag@std@@U?$pair@$$CBW4SDL_Scancode@@_N@2@HPBU32@ABU32@U_Iterator_base12@2@@std@@QAEAAU01@ABU01@@Z
  0002f	8b 45 f8	 mov	 eax, DWORD PTR _this$[ebp]
  00032	8b 4d 08	 mov	 ecx, DWORD PTR ___that$[ebp]
  00035	8b 51 08	 mov	 edx, DWORD PTR [ecx+8]
  00038	89 50 08	 mov	 DWORD PTR [eax+8], edx
  0003b	8b 45 f8	 mov	 eax, DWORD PTR _this$[ebp]
  0003e	5f		 pop	 edi
  0003f	5e		 pop	 esi
  00040	5b		 pop	 ebx
  00041	81 c4 cc 00 00
	00		 add	 esp, 204		; 000000ccH
  00047	3b ec		 cmp	 ebp, esp
  00049	e8 00 00 00 00	 call	 __RTC_CheckEsp
  0004e	8b e5		 mov	 esp, ebp
  00050	5d		 pop	 ebp
  00051	c2 04 00	 ret	 4
??4?$_Tree_unchecked_const_iterator@V?$_Tree_val@U?$_Tree_simple_types@U?$pair@$$CBW4SDL_Scancode@@_N@std@@@std@@@std@@U_Iterator_base12@2@@std@@QAEAAV01@ABV01@@Z ENDP ; std::_Tree_unchecked_const_iterator<std::_Tree_val<std::_Tree_simple_types<std::pair<enum SDL_Scancode const ,bool> > >,std::_Iterator_base12>::operator=
_TEXT	ENDS
; Function compile flags: /Odtp /RTCsu /ZI
;	COMDAT ??0?$_Tree_unchecked_const_iterator@V?$_Tree_val@U?$_Tree_simple_types@U?$pair@$$CBW4SDL_Scancode@@_N@std@@@std@@@std@@U_Iterator_base12@2@@std@@QAE@ABV01@@Z
_TEXT	SEGMENT
_this$ = -8						; size = 4
___that$ = 8						; size = 4
??0?$_Tree_unchecked_const_iterator@V?$_Tree_val@U?$_Tree_simple_types@U?$pair@$$CBW4SDL_Scancode@@_N@std@@@std@@@std@@U_Iterator_base12@2@@std@@QAE@ABV01@@Z PROC ; std::_Tree_unchecked_const_iterator<std::_Tree_val<std::_Tree_simple_types<std::pair<enum SDL_Scancode const ,bool> > >,std::_Iterator_base12>::_Tree_unchecked_const_iterator<std::_Tree_val<std::_Tree_simple_types<std::pair<enum SDL_Scancode const ,bool> > >,std::_Iterator_base12>, COMDAT
; _this$ = ecx
  00000	55		 push	 ebp
  00001	8b ec		 mov	 ebp, esp
  00003	81 ec cc 00 00
	00		 sub	 esp, 204		; 000000ccH
  00009	53		 push	 ebx
  0000a	56		 push	 esi
  0000b	57		 push	 edi
  0000c	51		 push	 ecx
  0000d	8d bd 34 ff ff
	ff		 lea	 edi, DWORD PTR [ebp-204]
  00013	b9 33 00 00 00	 mov	 ecx, 51			; 00000033H
  00018	b8 cc cc cc cc	 mov	 eax, -858993460		; ccccccccH
  0001d	f3 ab		 rep stosd
  0001f	59		 pop	 ecx
  00020	89 4d f8	 mov	 DWORD PTR _this$[ebp], ecx
  00023	8b 45 08	 mov	 eax, DWORD PTR ___that$[ebp]
  00026	50		 push	 eax
  00027	8b 4d f8	 mov	 ecx, DWORD PTR _this$[ebp]
  0002a	e8 00 00 00 00	 call	 ??0?$_Iterator012@Ubidirectional_iterator_tag@std@@U?$pair@$$CBW4SDL_Scancode@@_N@2@HPBU32@ABU32@U_Iterator_base12@2@@std@@QAE@ABU01@@Z
  0002f	8b 45 f8	 mov	 eax, DWORD PTR _this$[ebp]
  00032	8b 4d 08	 mov	 ecx, DWORD PTR ___that$[ebp]
  00035	8b 51 08	 mov	 edx, DWORD PTR [ecx+8]
  00038	89 50 08	 mov	 DWORD PTR [eax+8], edx
  0003b	8b 45 f8	 mov	 eax, DWORD PTR _this$[ebp]
  0003e	5f		 pop	 edi
  0003f	5e		 pop	 esi
  00040	5b		 pop	 ebx
  00041	81 c4 cc 00 00
	00		 add	 esp, 204		; 000000ccH
  00047	3b ec		 cmp	 ebp, esp
  00049	e8 00 00 00 00	 call	 __RTC_CheckEsp
  0004e	8b e5		 mov	 esp, ebp
  00050	5d		 pop	 ebp
  00051	c2 04 00	 ret	 4
??0?$_Tree_unchecked_const_iterator@V?$_Tree_val@U?$_Tree_simple_types@U?$pair@$$CBW4SDL_Scancode@@_N@std@@@std@@@std@@U_Iterator_base12@2@@std@@QAE@ABV01@@Z ENDP ; std::_Tree_unchecked_const_iterator<std::_Tree_val<std::_Tree_simple_types<std::pair<enum SDL_Scancode const ,bool> > >,std::_Iterator_base12>::_Tree_unchecked_const_iterator<std::_Tree_val<std::_Tree_simple_types<std::pair<enum SDL_Scancode const ,bool> > >,std::_Iterator_base12>
_TEXT	ENDS
; Function compile flags: /Odtp /RTCsu /ZI
;	COMDAT ??1?$_Tree_unchecked_const_iterator@V?$_Tree_val@U?$_Tree_simple_types@U?$pair@$$CBW4SDL_Scancode@@_N@std@@@std@@@std@@U_Iterator_base12@2@@std@@QAE@XZ
_TEXT	SEGMENT
_this$ = -8						; size = 4
??1?$_Tree_unchecked_const_iterator@V?$_Tree_val@U?$_Tree_simple_types@U?$pair@$$CBW4SDL_Scancode@@_N@std@@@std@@@std@@U_Iterator_base12@2@@std@@QAE@XZ PROC ; std::_Tree_unchecked_const_iterator<std::_Tree_val<std::_Tree_simple_types<std::pair<enum SDL_Scancode const ,bool> > >,std::_Iterator_base12>::~_Tree_unchecked_const_iterator<std::_Tree_val<std::_Tree_simple_types<std::pair<enum SDL_Scancode const ,bool> > >,std::_Iterator_base12>, COMDAT
; _this$ = ecx
  00000	55		 push	 ebp
  00001	8b ec		 mov	 ebp, esp
  00003	81 ec cc 00 00
	00		 sub	 esp, 204		; 000000ccH
  00009	53		 push	 ebx
  0000a	56		 push	 esi
  0000b	57		 push	 edi
  0000c	51		 push	 ecx
  0000d	8d bd 34 ff ff
	ff		 lea	 edi, DWORD PTR [ebp-204]
  00013	b9 33 00 00 00	 mov	 ecx, 51			; 00000033H
  00018	b8 cc cc cc cc	 mov	 eax, -858993460		; ccccccccH
  0001d	f3 ab		 rep stosd
  0001f	59		 pop	 ecx
  00020	89 4d f8	 mov	 DWORD PTR _this$[ebp], ecx
  00023	8b 4d f8	 mov	 ecx, DWORD PTR _this$[ebp]
  00026	e8 00 00 00 00	 call	 ??1?$_Iterator012@Ubidirectional_iterator_tag@std@@U?$pair@$$CBW4SDL_Scancode@@_N@2@HPBU32@ABU32@U_Iterator_base12@2@@std@@QAE@XZ
  0002b	5f		 pop	 edi
  0002c	5e		 pop	 esi
  0002d	5b		 pop	 ebx
  0002e	81 c4 cc 00 00
	00		 add	 esp, 204		; 000000ccH
  00034	3b ec		 cmp	 ebp, esp
  00036	e8 00 00 00 00	 call	 __RTC_CheckEsp
  0003b	8b e5		 mov	 esp, ebp
  0003d	5d		 pop	 ebp
  0003e	c3		 ret	 0
??1?$_Tree_unchecked_const_iterator@V?$_Tree_val@U?$_Tree_simple_types@U?$pair@$$CBW4SDL_Scancode@@_N@std@@@std@@@std@@U_Iterator_base12@2@@std@@QAE@XZ ENDP ; std::_Tree_unchecked_const_iterator<std::_Tree_val<std::_Tree_simple_types<std::pair<enum SDL_Scancode const ,bool> > >,std::_Iterator_base12>::~_Tree_unchecked_const_iterator<std::_Tree_val<std::_Tree_simple_types<std::pair<enum SDL_Scancode const ,bool> > >,std::_Iterator_base12>
_TEXT	ENDS
; Function compile flags: /Odtp /RTCsu /ZI
;	COMDAT ?_Mynode@?$_Tree_unchecked_const_iterator@V?$_Tree_val@U?$_Tree_simple_types@U?$pair@$$CBW4SDL_Scancode@@_N@std@@@std@@@std@@U_Iterator_base12@2@@std@@QBEPAU?$_Tree_node@U?$pair@$$CBW4SDL_Scancode@@_N@std@@PAX@2@XZ
_TEXT	SEGMENT
_this$ = -8						; size = 4
?_Mynode@?$_Tree_unchecked_const_iterator@V?$_Tree_val@U?$_Tree_simple_types@U?$pair@$$CBW4SDL_Scancode@@_N@std@@@std@@@std@@U_Iterator_base12@2@@std@@QBEPAU?$_Tree_node@U?$pair@$$CBW4SDL_Scancode@@_N@std@@PAX@2@XZ PROC ; std::_Tree_unchecked_const_iterator<std::_Tree_val<std::_Tree_simple_types<std::pair<enum SDL_Scancode const ,bool> > >,std::_Iterator_base12>::_Mynode, COMDAT
; _this$ = ecx
; File c:\program files (x86)\microsoft visual studio 12.0\vc\include\xtree
; Line 122
  00000	55		 push	 ebp
  00001	8b ec		 mov	 ebp, esp
  00003	81 ec cc 00 00
	00		 sub	 esp, 204		; 000000ccH
  00009	53		 push	 ebx
  0000a	56		 push	 esi
  0000b	57		 push	 edi
  0000c	51		 push	 ecx
  0000d	8d bd 34 ff ff
	ff		 lea	 edi, DWORD PTR [ebp-204]
  00013	b9 33 00 00 00	 mov	 ecx, 51			; 00000033H
  00018	b8 cc cc cc cc	 mov	 eax, -858993460		; ccccccccH
  0001d	f3 ab		 rep stosd
  0001f	59		 pop	 ecx
  00020	89 4d f8	 mov	 DWORD PTR _this$[ebp], ecx
; Line 123
  00023	8b 45 f8	 mov	 eax, DWORD PTR _this$[ebp]
  00026	8b 40 08	 mov	 eax, DWORD PTR [eax+8]
; Line 124
  00029	5f		 pop	 edi
  0002a	5e		 pop	 esi
  0002b	5b		 pop	 ebx
  0002c	8b e5		 mov	 esp, ebp
  0002e	5d		 pop	 ebp
  0002f	c3		 ret	 0
?_Mynode@?$_Tree_unchecked_const_iterator@V?$_Tree_val@U?$_Tree_simple_types@U?$pair@$$CBW4SDL_Scancode@@_N@std@@@std@@@std@@U_Iterator_base12@2@@std@@QBEPAU?$_Tree_node@U?$pair@$$CBW4SDL_Scancode@@_N@std@@PAX@2@XZ ENDP ; std::_Tree_unchecked_const_iterator<std::_Tree_val<std::_Tree_simple_types<std::pair<enum SDL_Scancode const ,bool> > >,std::_Iterator_base12>::_Mynode
_TEXT	ENDS
; Function compile flags: /Odtp /RTCsu /ZI
;	COMDAT ??F?$_Tree_unchecked_const_iterator@V?$_Tree_val@U?$_Tree_simple_types@U?$pair@$$CBW4SDL_Scancode@@_N@std@@@std@@@std@@U_Iterator_base12@2@@std@@QAEAAV01@XZ
_TEXT	SEGMENT
__Pnode$1 = -20						; size = 4
_this$ = -8						; size = 4
??F?$_Tree_unchecked_const_iterator@V?$_Tree_val@U?$_Tree_simple_types@U?$pair@$$CBW4SDL_Scancode@@_N@std@@@std@@@std@@U_Iterator_base12@2@@std@@QAEAAV01@XZ PROC ; std::_Tree_unchecked_const_iterator<std::_Tree_val<std::_Tree_simple_types<std::pair<enum SDL_Scancode const ,bool> > >,std::_Iterator_base12>::operator--, COMDAT
; _this$ = ecx
; File c:\program files (x86)\microsoft visual studio 12.0\vc\include\xtree
; Line 84
  00000	55		 push	 ebp
  00001	8b ec		 mov	 ebp, esp
  00003	81 ec d8 00 00
	00		 sub	 esp, 216		; 000000d8H
  00009	53		 push	 ebx
  0000a	56		 push	 esi
  0000b	57		 push	 edi
  0000c	51		 push	 ecx
  0000d	8d bd 28 ff ff
	ff		 lea	 edi, DWORD PTR [ebp-216]
  00013	b9 36 00 00 00	 mov	 ecx, 54			; 00000036H
  00018	b8 cc cc cc cc	 mov	 eax, -858993460		; ccccccccH
  0001d	f3 ab		 rep stosd
  0001f	59		 pop	 ecx
  00020	89 4d f8	 mov	 DWORD PTR _this$[ebp], ecx
; Line 85
  00023	8b 45 f8	 mov	 eax, DWORD PTR _this$[ebp]
  00026	8b 48 08	 mov	 ecx, DWORD PTR [eax+8]
  00029	51		 push	 ecx
  0002a	e8 00 00 00 00	 call	 ?_Isnil@?$_Tree_val@U?$_Tree_simple_types@U?$pair@$$CBW4SDL_Scancode@@_N@std@@@std@@@std@@SAAADPAU?$_Tree_node@U?$pair@$$CBW4SDL_Scancode@@_N@std@@PAX@2@@Z ; std::_Tree_val<std::_Tree_simple_types<std::pair<enum SDL_Scancode const ,bool> > >::_Isnil
  0002f	83 c4 04	 add	 esp, 4
  00032	0f be 10	 movsx	 edx, BYTE PTR [eax]
  00035	85 d2		 test	 edx, edx
  00037	74 1c		 je	 SHORT $LN8@operator
; Line 86
  00039	8b 45 f8	 mov	 eax, DWORD PTR _this$[ebp]
  0003c	8b 48 08	 mov	 ecx, DWORD PTR [eax+8]
  0003f	51		 push	 ecx
  00040	e8 00 00 00 00	 call	 ?_Right@?$_Tree_val@U?$_Tree_simple_types@U?$pair@$$CBW4SDL_Scancode@@_N@std@@@std@@@std@@SAAAPAU?$_Tree_node@U?$pair@$$CBW4SDL_Scancode@@_N@std@@PAX@2@PAU32@@Z ; std::_Tree_val<std::_Tree_simple_types<std::pair<enum SDL_Scancode const ,bool> > >::_Right
  00045	83 c4 04	 add	 esp, 4
  00048	8b 55 f8	 mov	 edx, DWORD PTR _this$[ebp]
  0004b	8b 00		 mov	 eax, DWORD PTR [eax]
  0004d	89 42 08	 mov	 DWORD PTR [edx+8], eax
  00050	e9 ac 00 00 00	 jmp	 $LN7@operator
$LN8@operator:
; Line 87
  00055	8b 45 f8	 mov	 eax, DWORD PTR _this$[ebp]
  00058	8b 48 08	 mov	 ecx, DWORD PTR [eax+8]
  0005b	51		 push	 ecx
  0005c	e8 00 00 00 00	 call	 ?_Left@?$_Tree_val@U?$_Tree_simple_types@U?$pair@$$CBW4SDL_Scancode@@_N@std@@@std@@@std@@SAAAPAU?$_Tree_node@U?$pair@$$CBW4SDL_Scancode@@_N@std@@PAX@2@PAU32@@Z ; std::_Tree_val<std::_Tree_simple_types<std::pair<enum SDL_Scancode const ,bool> > >::_Left
  00061	83 c4 04	 add	 esp, 4
  00064	8b 10		 mov	 edx, DWORD PTR [eax]
  00066	52		 push	 edx
  00067	e8 00 00 00 00	 call	 ?_Isnil@?$_Tree_val@U?$_Tree_simple_types@U?$pair@$$CBW4SDL_Scancode@@_N@std@@@std@@@std@@SAAADPAU?$_Tree_node@U?$pair@$$CBW4SDL_Scancode@@_N@std@@PAX@2@@Z ; std::_Tree_val<std::_Tree_simple_types<std::pair<enum SDL_Scancode const ,bool> > >::_Isnil
  0006c	83 c4 04	 add	 esp, 4
  0006f	0f be 00	 movsx	 eax, BYTE PTR [eax]
  00072	85 c0		 test	 eax, eax
  00074	75 22		 jne	 SHORT $LN4@operator
; Line 89
  00076	8b 45 f8	 mov	 eax, DWORD PTR _this$[ebp]
  00079	8b 48 08	 mov	 ecx, DWORD PTR [eax+8]
  0007c	51		 push	 ecx
  0007d	e8 00 00 00 00	 call	 ?_Left@?$_Tree_val@U?$_Tree_simple_types@U?$pair@$$CBW4SDL_Scancode@@_N@std@@@std@@@std@@SAAAPAU?$_Tree_node@U?$pair@$$CBW4SDL_Scancode@@_N@std@@PAX@2@PAU32@@Z ; std::_Tree_val<std::_Tree_simple_types<std::pair<enum SDL_Scancode const ,bool> > >::_Left
  00082	83 c4 04	 add	 esp, 4
  00085	8b 10		 mov	 edx, DWORD PTR [eax]
  00087	52		 push	 edx
  00088	e8 00 00 00 00	 call	 ?_Max@?$_Tree_val@U?$_Tree_simple_types@U?$pair@$$CBW4SDL_Scancode@@_N@std@@@std@@@std@@SAPAU?$_Tree_node@U?$pair@$$CBW4SDL_Scancode@@_N@std@@PAX@2@PAU32@@Z ; std::_Tree_val<std::_Tree_simple_types<std::pair<enum SDL_Scancode const ,bool> > >::_Max
  0008d	83 c4 04	 add	 esp, 4
  00090	8b 4d f8	 mov	 ecx, DWORD PTR _this$[ebp]
  00093	89 41 08	 mov	 DWORD PTR [ecx+8], eax
; Line 90
  00096	eb 69		 jmp	 SHORT $LN7@operator
$LN4@operator:
; Line 94
  00098	8b 45 f8	 mov	 eax, DWORD PTR _this$[ebp]
  0009b	8b 48 08	 mov	 ecx, DWORD PTR [eax+8]
  0009e	51		 push	 ecx
  0009f	e8 00 00 00 00	 call	 ?_Parent@?$_Tree_val@U?$_Tree_simple_types@U?$pair@$$CBW4SDL_Scancode@@_N@std@@@std@@@std@@SAAAPAU?$_Tree_node@U?$pair@$$CBW4SDL_Scancode@@_N@std@@PAX@2@PAU32@@Z ; std::_Tree_val<std::_Tree_simple_types<std::pair<enum SDL_Scancode const ,bool> > >::_Parent
  000a4	83 c4 04	 add	 esp, 4
  000a7	8b 10		 mov	 edx, DWORD PTR [eax]
  000a9	89 55 ec	 mov	 DWORD PTR __Pnode$1[ebp], edx
  000ac	8b 45 ec	 mov	 eax, DWORD PTR __Pnode$1[ebp]
  000af	50		 push	 eax
  000b0	e8 00 00 00 00	 call	 ?_Isnil@?$_Tree_val@U?$_Tree_simple_types@U?$pair@$$CBW4SDL_Scancode@@_N@std@@@std@@@std@@SAAADPAU?$_Tree_node@U?$pair@$$CBW4SDL_Scancode@@_N@std@@PAX@2@@Z ; std::_Tree_val<std::_Tree_simple_types<std::pair<enum SDL_Scancode const ,bool> > >::_Isnil
  000b5	83 c4 04	 add	 esp, 4
  000b8	0f be 08	 movsx	 ecx, BYTE PTR [eax]
  000bb	85 c9		 test	 ecx, ecx
  000bd	75 21		 jne	 SHORT $LN3@operator
  000bf	8b 45 ec	 mov	 eax, DWORD PTR __Pnode$1[ebp]
  000c2	50		 push	 eax
  000c3	e8 00 00 00 00	 call	 ?_Left@?$_Tree_val@U?$_Tree_simple_types@U?$pair@$$CBW4SDL_Scancode@@_N@std@@@std@@@std@@SAAAPAU?$_Tree_node@U?$pair@$$CBW4SDL_Scancode@@_N@std@@PAX@2@PAU32@@Z ; std::_Tree_val<std::_Tree_simple_types<std::pair<enum SDL_Scancode const ,bool> > >::_Left
  000c8	83 c4 04	 add	 esp, 4
  000cb	8b 4d f8	 mov	 ecx, DWORD PTR _this$[ebp]
  000ce	8b 51 08	 mov	 edx, DWORD PTR [ecx+8]
  000d1	3b 10		 cmp	 edx, DWORD PTR [eax]
  000d3	75 0b		 jne	 SHORT $LN3@operator
; Line 95
  000d5	8b 45 f8	 mov	 eax, DWORD PTR _this$[ebp]
  000d8	8b 4d ec	 mov	 ecx, DWORD PTR __Pnode$1[ebp]
  000db	89 48 08	 mov	 DWORD PTR [eax+8], ecx
  000de	eb b8		 jmp	 SHORT $LN4@operator
$LN3@operator:
; Line 96
  000e0	8b 45 f8	 mov	 eax, DWORD PTR _this$[ebp]
  000e3	8b 48 08	 mov	 ecx, DWORD PTR [eax+8]
  000e6	51		 push	 ecx
  000e7	e8 00 00 00 00	 call	 ?_Isnil@?$_Tree_val@U?$_Tree_simple_types@U?$pair@$$CBW4SDL_Scancode@@_N@std@@@std@@@std@@SAAADPAU?$_Tree_node@U?$pair@$$CBW4SDL_Scancode@@_N@std@@PAX@2@@Z ; std::_Tree_val<std::_Tree_simple_types<std::pair<enum SDL_Scancode const ,bool> > >::_Isnil
  000ec	83 c4 04	 add	 esp, 4
  000ef	0f be 10	 movsx	 edx, BYTE PTR [eax]
  000f2	85 d2		 test	 edx, edx
  000f4	74 02		 je	 SHORT $LN2@operator
; Line 98
  000f6	eb 09		 jmp	 SHORT $LN7@operator
$LN2@operator:
; Line 99
  000f8	8b 45 f8	 mov	 eax, DWORD PTR _this$[ebp]
  000fb	8b 4d ec	 mov	 ecx, DWORD PTR __Pnode$1[ebp]
  000fe	89 48 08	 mov	 DWORD PTR [eax+8], ecx
$LN7@operator:
; Line 101
  00101	8b 45 f8	 mov	 eax, DWORD PTR _this$[ebp]
; Line 102
  00104	5f		 pop	 edi
  00105	5e		 pop	 esi
  00106	5b		 pop	 ebx
  00107	81 c4 d8 00 00
	00		 add	 esp, 216		; 000000d8H
  0010d	3b ec		 cmp	 ebp, esp
  0010f	e8 00 00 00 00	 call	 __RTC_CheckEsp
  00114	8b e5		 mov	 esp, ebp
  00116	5d		 pop	 ebp
  00117	c3		 ret	 0
??F?$_Tree_unchecked_const_iterator@V?$_Tree_val@U?$_Tree_simple_types@U?$pair@$$CBW4SDL_Scancode@@_N@std@@@std@@@std@@U_Iterator_base12@2@@std@@QAEAAV01@XZ ENDP ; std::_Tree_unchecked_const_iterator<std::_Tree_val<std::_Tree_simple_types<std::pair<enum SDL_Scancode const ,bool> > >,std::_Iterator_base12>::operator--
_TEXT	ENDS
; Function compile flags: /Odtp /RTCsu /ZI
;	COMDAT ??E?$_Tree_unchecked_const_iterator@V?$_Tree_val@U?$_Tree_simple_types@U?$pair@$$CBW4SDL_Scancode@@_N@std@@@std@@@std@@U_Iterator_base12@2@@std@@QAEAAV01@XZ
_TEXT	SEGMENT
__Pnode$1 = -20						; size = 4
_this$ = -8						; size = 4
??E?$_Tree_unchecked_const_iterator@V?$_Tree_val@U?$_Tree_simple_types@U?$pair@$$CBW4SDL_Scancode@@_N@std@@@std@@@std@@U_Iterator_base12@2@@std@@QAEAAV01@XZ PROC ; std::_Tree_unchecked_const_iterator<std::_Tree_val<std::_Tree_simple_types<std::pair<enum SDL_Scancode const ,bool> > >,std::_Iterator_base12>::operator++, COMDAT
; _this$ = ecx
; File c:\program files (x86)\microsoft visual studio 12.0\vc\include\xtree
; Line 59
  00000	55		 push	 ebp
  00001	8b ec		 mov	 ebp, esp
  00003	81 ec d8 00 00
	00		 sub	 esp, 216		; 000000d8H
  00009	53		 push	 ebx
  0000a	56		 push	 esi
  0000b	57		 push	 edi
  0000c	51		 push	 ecx
  0000d	8d bd 28 ff ff
	ff		 lea	 edi, DWORD PTR [ebp-216]
  00013	b9 36 00 00 00	 mov	 ecx, 54			; 00000036H
  00018	b8 cc cc cc cc	 mov	 eax, -858993460		; ccccccccH
  0001d	f3 ab		 rep stosd
  0001f	59		 pop	 ecx
  00020	89 4d f8	 mov	 DWORD PTR _this$[ebp], ecx
; Line 60
  00023	8b 45 f8	 mov	 eax, DWORD PTR _this$[ebp]
  00026	8b 48 08	 mov	 ecx, DWORD PTR [eax+8]
  00029	51		 push	 ecx
  0002a	e8 00 00 00 00	 call	 ?_Isnil@?$_Tree_val@U?$_Tree_simple_types@U?$pair@$$CBW4SDL_Scancode@@_N@std@@@std@@@std@@SAAADPAU?$_Tree_node@U?$pair@$$CBW4SDL_Scancode@@_N@std@@PAX@2@@Z ; std::_Tree_val<std::_Tree_simple_types<std::pair<enum SDL_Scancode const ,bool> > >::_Isnil
  0002f	83 c4 04	 add	 esp, 4
  00032	0f be 10	 movsx	 edx, BYTE PTR [eax]
  00035	85 d2		 test	 edx, edx
  00037	74 05		 je	 SHORT $LN6@operator
  00039	e9 94 00 00 00	 jmp	 $LN5@operator
$LN6@operator:
; Line 62
  0003e	8b 45 f8	 mov	 eax, DWORD PTR _this$[ebp]
  00041	8b 48 08	 mov	 ecx, DWORD PTR [eax+8]
  00044	51		 push	 ecx
  00045	e8 00 00 00 00	 call	 ?_Right@?$_Tree_val@U?$_Tree_simple_types@U?$pair@$$CBW4SDL_Scancode@@_N@std@@@std@@@std@@SAAAPAU?$_Tree_node@U?$pair@$$CBW4SDL_Scancode@@_N@std@@PAX@2@PAU32@@Z ; std::_Tree_val<std::_Tree_simple_types<std::pair<enum SDL_Scancode const ,bool> > >::_Right
  0004a	83 c4 04	 add	 esp, 4
  0004d	8b 10		 mov	 edx, DWORD PTR [eax]
  0004f	52		 push	 edx
  00050	e8 00 00 00 00	 call	 ?_Isnil@?$_Tree_val@U?$_Tree_simple_types@U?$pair@$$CBW4SDL_Scancode@@_N@std@@@std@@@std@@SAAADPAU?$_Tree_node@U?$pair@$$CBW4SDL_Scancode@@_N@std@@PAX@2@@Z ; std::_Tree_val<std::_Tree_simple_types<std::pair<enum SDL_Scancode const ,bool> > >::_Isnil
  00055	83 c4 04	 add	 esp, 4
  00058	0f be 00	 movsx	 eax, BYTE PTR [eax]
  0005b	85 c0		 test	 eax, eax
  0005d	75 22		 jne	 SHORT $LN2@operator
; Line 64
  0005f	8b 45 f8	 mov	 eax, DWORD PTR _this$[ebp]
  00062	8b 48 08	 mov	 ecx, DWORD PTR [eax+8]
  00065	51		 push	 ecx
  00066	e8 00 00 00 00	 call	 ?_Right@?$_Tree_val@U?$_Tree_simple_types@U?$pair@$$CBW4SDL_Scancode@@_N@std@@@std@@@std@@SAAAPAU?$_Tree_node@U?$pair@$$CBW4SDL_Scancode@@_N@std@@PAX@2@PAU32@@Z ; std::_Tree_val<std::_Tree_simple_types<std::pair<enum SDL_Scancode const ,bool> > >::_Right
  0006b	83 c4 04	 add	 esp, 4
  0006e	8b 10		 mov	 edx, DWORD PTR [eax]
  00070	52		 push	 edx
  00071	e8 00 00 00 00	 call	 ?_Min@?$_Tree_val@U?$_Tree_simple_types@U?$pair@$$CBW4SDL_Scancode@@_N@std@@@std@@@std@@SAPAU?$_Tree_node@U?$pair@$$CBW4SDL_Scancode@@_N@std@@PAX@2@PAU32@@Z ; std::_Tree_val<std::_Tree_simple_types<std::pair<enum SDL_Scancode const ,bool> > >::_Min
  00076	83 c4 04	 add	 esp, 4
  00079	8b 4d f8	 mov	 ecx, DWORD PTR _this$[ebp]
  0007c	89 41 08	 mov	 DWORD PTR [ecx+8], eax
; Line 65
  0007f	eb 51		 jmp	 SHORT $LN5@operator
$LN2@operator:
; Line 69
  00081	8b 45 f8	 mov	 eax, DWORD PTR _this$[ebp]
  00084	8b 48 08	 mov	 ecx, DWORD PTR [eax+8]
  00087	51		 push	 ecx
  00088	e8 00 00 00 00	 call	 ?_Parent@?$_Tree_val@U?$_Tree_simple_types@U?$pair@$$CBW4SDL_Scancode@@_N@std@@@std@@@std@@SAAAPAU?$_Tree_node@U?$pair@$$CBW4SDL_Scancode@@_N@std@@PAX@2@PAU32@@Z ; std::_Tree_val<std::_Tree_simple_types<std::pair<enum SDL_Scancode const ,bool> > >::_Parent
  0008d	83 c4 04	 add	 esp, 4
  00090	8b 10		 mov	 edx, DWORD PTR [eax]
  00092	89 55 ec	 mov	 DWORD PTR __Pnode$1[ebp], edx
  00095	8b 45 ec	 mov	 eax, DWORD PTR __Pnode$1[ebp]
  00098	50		 push	 eax
  00099	e8 00 00 00 00	 call	 ?_Isnil@?$_Tree_val@U?$_Tree_simple_types@U?$pair@$$CBW4SDL_Scancode@@_N@std@@@std@@@std@@SAAADPAU?$_Tree_node@U?$pair@$$CBW4SDL_Scancode@@_N@std@@PAX@2@@Z ; std::_Tree_val<std::_Tree_simple_types<std::pair<enum SDL_Scancode const ,bool> > >::_Isnil
  0009e	83 c4 04	 add	 esp, 4
  000a1	0f be 08	 movsx	 ecx, BYTE PTR [eax]
  000a4	85 c9		 test	 ecx, ecx
  000a6	75 21		 jne	 SHORT $LN1@operator
  000a8	8b 45 ec	 mov	 eax, DWORD PTR __Pnode$1[ebp]
  000ab	50		 push	 eax
  000ac	e8 00 00 00 00	 call	 ?_Right@?$_Tree_val@U?$_Tree_simple_types@U?$pair@$$CBW4SDL_Scancode@@_N@std@@@std@@@std@@SAAAPAU?$_Tree_node@U?$pair@$$CBW4SDL_Scancode@@_N@std@@PAX@2@PAU32@@Z ; std::_Tree_val<std::_Tree_simple_types<std::pair<enum SDL_Scancode const ,bool> > >::_Right
  000b1	83 c4 04	 add	 esp, 4
  000b4	8b 4d f8	 mov	 ecx, DWORD PTR _this$[ebp]
  000b7	8b 51 08	 mov	 edx, DWORD PTR [ecx+8]
  000ba	3b 10		 cmp	 edx, DWORD PTR [eax]
  000bc	75 0b		 jne	 SHORT $LN1@operator
; Line 70
  000be	8b 45 f8	 mov	 eax, DWORD PTR _this$[ebp]
  000c1	8b 4d ec	 mov	 ecx, DWORD PTR __Pnode$1[ebp]
  000c4	89 48 08	 mov	 DWORD PTR [eax+8], ecx
  000c7	eb b8		 jmp	 SHORT $LN2@operator
$LN1@operator:
; Line 71
  000c9	8b 45 f8	 mov	 eax, DWORD PTR _this$[ebp]
  000cc	8b 4d ec	 mov	 ecx, DWORD PTR __Pnode$1[ebp]
  000cf	89 48 08	 mov	 DWORD PTR [eax+8], ecx
$LN5@operator:
; Line 73
  000d2	8b 45 f8	 mov	 eax, DWORD PTR _this$[ebp]
; Line 74
  000d5	5f		 pop	 edi
  000d6	5e		 pop	 esi
  000d7	5b		 pop	 ebx
  000d8	81 c4 d8 00 00
	00		 add	 esp, 216		; 000000d8H
  000de	3b ec		 cmp	 ebp, esp
  000e0	e8 00 00 00 00	 call	 __RTC_CheckEsp
  000e5	8b e5		 mov	 esp, ebp
  000e7	5d		 pop	 ebp
  000e8	c3		 ret	 0
??E?$_Tree_unchecked_const_iterator@V?$_Tree_val@U?$_Tree_simple_types@U?$pair@$$CBW4SDL_Scancode@@_N@std@@@std@@@std@@U_Iterator_base12@2@@std@@QAEAAV01@XZ ENDP ; std::_Tree_unchecked_const_iterator<std::_Tree_val<std::_Tree_simple_types<std::pair<enum SDL_Scancode const ,bool> > >,std::_Iterator_base12>::operator++
_TEXT	ENDS
; Function compile flags: /Odtp /RTCsu /ZI
;	COMDAT ??0?$_Tree_unchecked_const_iterator@V?$_Tree_val@U?$_Tree_simple_types@U?$pair@$$CBW4SDL_Scancode@@_N@std@@@std@@@std@@U_Iterator_base12@2@@std@@QAE@PAU?$_Tree_node@U?$pair@$$CBW4SDL_Scancode@@_N@std@@PAX@1@PBV?$_Tree_val@U?$_Tree_simple_types@U?$pair@$$CBW4SDL_Scancode@@_N@std@@@std@@@1@@Z
_TEXT	SEGMENT
_this$ = -20						; size = 4
__$EHRec$ = -12						; size = 12
__Pnode$ = 8						; size = 4
__Plist$ = 12						; size = 4
??0?$_Tree_unchecked_const_iterator@V?$_Tree_val@U?$_Tree_simple_types@U?$pair@$$CBW4SDL_Scancode@@_N@std@@@std@@@std@@U_Iterator_base12@2@@std@@QAE@PAU?$_Tree_node@U?$pair@$$CBW4SDL_Scancode@@_N@std@@PAX@1@PBV?$_Tree_val@U?$_Tree_simple_types@U?$pair@$$CBW4SDL_Scancode@@_N@std@@@std@@@1@@Z PROC ; std::_Tree_unchecked_const_iterator<std::_Tree_val<std::_Tree_simple_types<std::pair<enum SDL_Scancode const ,bool> > >,std::_Iterator_base12>::_Tree_unchecked_const_iterator<std::_Tree_val<std::_Tree_simple_types<std::pair<enum SDL_Scancode const ,bool> > >,std::_Iterator_base12>, COMDAT
; _this$ = ecx
; File c:\program files (x86)\microsoft visual studio 12.0\vc\include\xtree
; Line 44
  00000	55		 push	 ebp
  00001	8b ec		 mov	 ebp, esp
  00003	6a ff		 push	 -1
  00005	68 00 00 00 00	 push	 __ehhandler$??0?$_Tree_unchecked_const_iterator@V?$_Tree_val@U?$_Tree_simple_types@U?$pair@$$CBW4SDL_Scancode@@_N@std@@@std@@@std@@U_Iterator_base12@2@@std@@QAE@PAU?$_Tree_node@U?$pair@$$CBW4SDL_Scancode@@_N@std@@PAX@1@PBV?$_Tree_val@U?$_Tree_simple_types@U?$pair@$$CBW4SDL_Scancode@@_N@std@@@std@@@1@@Z
  0000a	64 a1 00 00 00
	00		 mov	 eax, DWORD PTR fs:0
  00010	50		 push	 eax
  00011	81 ec cc 00 00
	00		 sub	 esp, 204		; 000000ccH
  00017	53		 push	 ebx
  00018	56		 push	 esi
  00019	57		 push	 edi
  0001a	51		 push	 ecx
  0001b	8d bd 28 ff ff
	ff		 lea	 edi, DWORD PTR [ebp-216]
  00021	b9 33 00 00 00	 mov	 ecx, 51			; 00000033H
  00026	b8 cc cc cc cc	 mov	 eax, -858993460		; ccccccccH
  0002b	f3 ab		 rep stosd
  0002d	59		 pop	 ecx
  0002e	a1 00 00 00 00	 mov	 eax, DWORD PTR ___security_cookie
  00033	33 c5		 xor	 eax, ebp
  00035	50		 push	 eax
  00036	8d 45 f4	 lea	 eax, DWORD PTR __$EHRec$[ebp]
  00039	64 a3 00 00 00
	00		 mov	 DWORD PTR fs:0, eax
  0003f	89 4d ec	 mov	 DWORD PTR _this$[ebp], ecx
  00042	8b 4d ec	 mov	 ecx, DWORD PTR _this$[ebp]
  00045	e8 00 00 00 00	 call	 ??0?$_Iterator012@Ubidirectional_iterator_tag@std@@U?$pair@$$CBW4SDL_Scancode@@_N@2@HPBU32@ABU32@U_Iterator_base12@2@@std@@QAE@XZ
  0004a	c7 45 fc 00 00
	00 00		 mov	 DWORD PTR __$EHRec$[ebp+8], 0
  00051	8b 45 ec	 mov	 eax, DWORD PTR _this$[ebp]
  00054	8b 4d 08	 mov	 ecx, DWORD PTR __Pnode$[ebp]
  00057	89 48 08	 mov	 DWORD PTR [eax+8], ecx
; Line 45
  0005a	8b 45 0c	 mov	 eax, DWORD PTR __Plist$[ebp]
  0005d	50		 push	 eax
  0005e	8b 4d ec	 mov	 ecx, DWORD PTR _this$[ebp]
  00061	e8 00 00 00 00	 call	 ?_Adopt@_Iterator_base12@std@@QAEXPBU_Container_base12@2@@Z ; std::_Iterator_base12::_Adopt
; Line 46
  00066	c7 45 fc ff ff
	ff ff		 mov	 DWORD PTR __$EHRec$[ebp+8], -1
  0006d	8b 45 ec	 mov	 eax, DWORD PTR _this$[ebp]
  00070	8b 4d f4	 mov	 ecx, DWORD PTR __$EHRec$[ebp]
  00073	64 89 0d 00 00
	00 00		 mov	 DWORD PTR fs:0, ecx
  0007a	59		 pop	 ecx
  0007b	5f		 pop	 edi
  0007c	5e		 pop	 esi
  0007d	5b		 pop	 ebx
  0007e	81 c4 d8 00 00
	00		 add	 esp, 216		; 000000d8H
  00084	3b ec		 cmp	 ebp, esp
  00086	e8 00 00 00 00	 call	 __RTC_CheckEsp
  0008b	8b e5		 mov	 esp, ebp
  0008d	5d		 pop	 ebp
  0008e	c2 08 00	 ret	 8
_TEXT	ENDS
;	COMDAT text$x
text$x	SEGMENT
__unwindfunclet$??0?$_Tree_unchecked_const_iterator@V?$_Tree_val@U?$_Tree_simple_types@U?$pair@$$CBW4SDL_Scancode@@_N@std@@@std@@@std@@U_Iterator_base12@2@@std@@QAE@PAU?$_Tree_node@U?$pair@$$CBW4SDL_Scancode@@_N@std@@PAX@1@PBV?$_Tree_val@U?$_Tree_simple_types@U?$pair@$$CBW4SDL_Scancode@@_N@std@@@std@@@1@@Z$0:
  00000	8b 4d ec	 mov	 ecx, DWORD PTR _this$[ebp]
  00003	e9 00 00 00 00	 jmp	 ??1?$_Iterator012@Ubidirectional_iterator_tag@std@@U?$pair@$$CBW4SDL_Scancode@@_N@2@HPBU32@ABU32@U_Iterator_base12@2@@std@@QAE@XZ
__ehhandler$??0?$_Tree_unchecked_const_iterator@V?$_Tree_val@U?$_Tree_simple_types@U?$pair@$$CBW4SDL_Scancode@@_N@std@@@std@@@std@@U_Iterator_base12@2@@std@@QAE@PAU?$_Tree_node@U?$pair@$$CBW4SDL_Scancode@@_N@std@@PAX@1@PBV?$_Tree_val@U?$_Tree_simple_types@U?$pair@$$CBW4SDL_Scancode@@_N@std@@@std@@@1@@Z:
  00008	8b 54 24 08	 mov	 edx, DWORD PTR [esp+8]
  0000c	8d 42 0c	 lea	 eax, DWORD PTR [edx+12]
  0000f	8b 8a 24 ff ff
	ff		 mov	 ecx, DWORD PTR [edx-220]
  00015	33 c8		 xor	 ecx, eax
  00017	e8 00 00 00 00	 call	 @__security_check_cookie@4
  0001c	b8 00 00 00 00	 mov	 eax, OFFSET __ehfuncinfo$??0?$_Tree_unchecked_const_iterator@V?$_Tree_val@U?$_Tree_simple_types@U?$pair@$$CBW4SDL_Scancode@@_N@std@@@std@@@std@@U_Iterator_base12@2@@std@@QAE@PAU?$_Tree_node@U?$pair@$$CBW4SDL_Scancode@@_N@std@@PAX@1@PBV?$_Tree_val@U?$_Tree_simple_types@U?$pair@$$CBW4SDL_Scancode@@_N@std@@@std@@@1@@Z
  00021	e9 00 00 00 00	 jmp	 ___CxxFrameHandler3
text$x	ENDS
??0?$_Tree_unchecked_const_iterator@V?$_Tree_val@U?$_Tree_simple_types@U?$pair@$$CBW4SDL_Scancode@@_N@std@@@std@@@std@@U_Iterator_base12@2@@std@@QAE@PAU?$_Tree_node@U?$pair@$$CBW4SDL_Scancode@@_N@std@@PAX@1@PBV?$_Tree_val@U?$_Tree_simple_types@U?$pair@$$CBW4SDL_Scancode@@_N@std@@@std@@@1@@Z ENDP ; std::_Tree_unchecked_const_iterator<std::_Tree_val<std::_Tree_simple_types<std::pair<enum SDL_Scancode const ,bool> > >,std::_Iterator_base12>::_Tree_unchecked_const_iterator<std::_Tree_val<std::_Tree_simple_types<std::pair<enum SDL_Scancode const ,bool> > >,std::_Iterator_base12>
; Function compile flags: /Odtp /RTCsu /ZI
;	COMDAT ??0?$_Tree_unchecked_const_iterator@V?$_Tree_val@U?$_Tree_simple_types@U?$pair@$$CBW4SDL_Scancode@@_N@std@@@std@@@std@@U_Iterator_base12@2@@std@@QAE@XZ
_TEXT	SEGMENT
_this$ = -8						; size = 4
??0?$_Tree_unchecked_const_iterator@V?$_Tree_val@U?$_Tree_simple_types@U?$pair@$$CBW4SDL_Scancode@@_N@std@@@std@@@std@@U_Iterator_base12@2@@std@@QAE@XZ PROC ; std::_Tree_unchecked_const_iterator<std::_Tree_val<std::_Tree_simple_types<std::pair<enum SDL_Scancode const ,bool> > >,std::_Iterator_base12>::_Tree_unchecked_const_iterator<std::_Tree_val<std::_Tree_simple_types<std::pair<enum SDL_Scancode const ,bool> > >,std::_Iterator_base12>, COMDAT
; _this$ = ecx
; File c:\program files (x86)\microsoft visual studio 12.0\vc\include\xtree
; Line 39
  00000	55		 push	 ebp
  00001	8b ec		 mov	 ebp, esp
  00003	81 ec cc 00 00
	00		 sub	 esp, 204		; 000000ccH
  00009	53		 push	 ebx
  0000a	56		 push	 esi
  0000b	57		 push	 edi
  0000c	51		 push	 ecx
  0000d	8d bd 34 ff ff
	ff		 lea	 edi, DWORD PTR [ebp-204]
  00013	b9 33 00 00 00	 mov	 ecx, 51			; 00000033H
  00018	b8 cc cc cc cc	 mov	 eax, -858993460		; ccccccccH
  0001d	f3 ab		 rep stosd
  0001f	59		 pop	 ecx
  00020	89 4d f8	 mov	 DWORD PTR _this$[ebp], ecx
  00023	8b 4d f8	 mov	 ecx, DWORD PTR _this$[ebp]
  00026	e8 00 00 00 00	 call	 ??0?$_Iterator012@Ubidirectional_iterator_tag@std@@U?$pair@$$CBW4SDL_Scancode@@_N@2@HPBU32@ABU32@U_Iterator_base12@2@@std@@QAE@XZ
  0002b	8b 45 f8	 mov	 eax, DWORD PTR _this$[ebp]
  0002e	c7 40 08 00 00
	00 00		 mov	 DWORD PTR [eax+8], 0
; Line 40
  00035	8b 45 f8	 mov	 eax, DWORD PTR _this$[ebp]
  00038	5f		 pop	 edi
  00039	5e		 pop	 esi
  0003a	5b		 pop	 ebx
  0003b	81 c4 cc 00 00
	00		 add	 esp, 204		; 000000ccH
  00041	3b ec		 cmp	 ebp, esp
  00043	e8 00 00 00 00	 call	 __RTC_CheckEsp
  00048	8b e5		 mov	 esp, ebp
  0004a	5d		 pop	 ebp
  0004b	c3		 ret	 0
??0?$_Tree_unchecked_const_iterator@V?$_Tree_val@U?$_Tree_simple_types@U?$pair@$$CBW4SDL_Scancode@@_N@std@@@std@@@std@@U_Iterator_base12@2@@std@@QAE@XZ ENDP ; std::_Tree_unchecked_const_iterator<std::_Tree_val<std::_Tree_simple_types<std::pair<enum SDL_Scancode const ,bool> > >,std::_Iterator_base12>::_Tree_unchecked_const_iterator<std::_Tree_val<std::_Tree_simple_types<std::pair<enum SDL_Scancode const ,bool> > >,std::_Iterator_base12>
_TEXT	ENDS
; Function compile flags: /Odtp /RTCsu /ZI
;	COMDAT ??4?$_Iterator012@Ubidirectional_iterator_tag@std@@U?$pair@$$CBW4SDL_Scancode@@_N@2@HPBU32@ABU32@U_Iterator_base12@2@@std@@QAEAAU01@ABU01@@Z
_TEXT	SEGMENT
_this$ = -8						; size = 4
___that$ = 8						; size = 4
??4?$_Iterator012@Ubidirectional_iterator_tag@std@@U?$pair@$$CBW4SDL_Scancode@@_N@2@HPBU32@ABU32@U_Iterator_base12@2@@std@@QAEAAU01@ABU01@@Z PROC ; std::_Iterator012<std::bidirectional_iterator_tag,std::pair<enum SDL_Scancode const ,bool>,int,std::pair<enum SDL_Scancode const ,bool> const *,std::pair<enum SDL_Scancode const ,bool> const &,std::_Iterator_base12>::operator=, COMDAT
; _this$ = ecx
  00000	55		 push	 ebp
  00001	8b ec		 mov	 ebp, esp
  00003	81 ec cc 00 00
	00		 sub	 esp, 204		; 000000ccH
  00009	53		 push	 ebx
  0000a	56		 push	 esi
  0000b	57		 push	 edi
  0000c	51		 push	 ecx
  0000d	8d bd 34 ff ff
	ff		 lea	 edi, DWORD PTR [ebp-204]
  00013	b9 33 00 00 00	 mov	 ecx, 51			; 00000033H
  00018	b8 cc cc cc cc	 mov	 eax, -858993460		; ccccccccH
  0001d	f3 ab		 rep stosd
  0001f	59		 pop	 ecx
  00020	89 4d f8	 mov	 DWORD PTR _this$[ebp], ecx
  00023	8b 45 08	 mov	 eax, DWORD PTR ___that$[ebp]
  00026	50		 push	 eax
  00027	8b 4d f8	 mov	 ecx, DWORD PTR _this$[ebp]
  0002a	e8 00 00 00 00	 call	 ??4_Iterator_base12@std@@QAEAAU01@ABU01@@Z ; std::_Iterator_base12::operator=
  0002f	8b 45 f8	 mov	 eax, DWORD PTR _this$[ebp]
  00032	5f		 pop	 edi
  00033	5e		 pop	 esi
  00034	5b		 pop	 ebx
  00035	81 c4 cc 00 00
	00		 add	 esp, 204		; 000000ccH
  0003b	3b ec		 cmp	 ebp, esp
  0003d	e8 00 00 00 00	 call	 __RTC_CheckEsp
  00042	8b e5		 mov	 esp, ebp
  00044	5d		 pop	 ebp
  00045	c2 04 00	 ret	 4
??4?$_Iterator012@Ubidirectional_iterator_tag@std@@U?$pair@$$CBW4SDL_Scancode@@_N@2@HPBU32@ABU32@U_Iterator_base12@2@@std@@QAEAAU01@ABU01@@Z ENDP ; std::_Iterator012<std::bidirectional_iterator_tag,std::pair<enum SDL_Scancode const ,bool>,int,std::pair<enum SDL_Scancode const ,bool> const *,std::pair<enum SDL_Scancode const ,bool> const &,std::_Iterator_base12>::operator=
_TEXT	ENDS
; Function compile flags: /Odtp /RTCsu /ZI
;	COMDAT ??0?$_Iterator012@Ubidirectional_iterator_tag@std@@U?$pair@$$CBW4SDL_Scancode@@_N@2@HPBU32@ABU32@U_Iterator_base12@2@@std@@QAE@ABU01@@Z
_TEXT	SEGMENT
_this$ = -8						; size = 4
___that$ = 8						; size = 4
??0?$_Iterator012@Ubidirectional_iterator_tag@std@@U?$pair@$$CBW4SDL_Scancode@@_N@2@HPBU32@ABU32@U_Iterator_base12@2@@std@@QAE@ABU01@@Z PROC ; std::_Iterator012<std::bidirectional_iterator_tag,std::pair<enum SDL_Scancode const ,bool>,int,std::pair<enum SDL_Scancode const ,bool> const *,std::pair<enum SDL_Scancode const ,bool> const &,std::_Iterator_base12>::_Iterator012<std::bidirectional_iterator_tag,std::pair<enum SDL_Scancode const ,bool>,int,std::pair<enum SDL_Scancode const ,bool> const *,std::pair<enum SDL_Scancode const ,bool> const &,std::_Iterator_base12>, COMDAT
; _this$ = ecx
  00000	55		 push	 ebp
  00001	8b ec		 mov	 ebp, esp
  00003	81 ec cc 00 00
	00		 sub	 esp, 204		; 000000ccH
  00009	53		 push	 ebx
  0000a	56		 push	 esi
  0000b	57		 push	 edi
  0000c	51		 push	 ecx
  0000d	8d bd 34 ff ff
	ff		 lea	 edi, DWORD PTR [ebp-204]
  00013	b9 33 00 00 00	 mov	 ecx, 51			; 00000033H
  00018	b8 cc cc cc cc	 mov	 eax, -858993460		; ccccccccH
  0001d	f3 ab		 rep stosd
  0001f	59		 pop	 ecx
  00020	89 4d f8	 mov	 DWORD PTR _this$[ebp], ecx
  00023	8b 45 08	 mov	 eax, DWORD PTR ___that$[ebp]
  00026	50		 push	 eax
  00027	8b 4d f8	 mov	 ecx, DWORD PTR _this$[ebp]
  0002a	e8 00 00 00 00	 call	 ??0_Iterator_base12@std@@QAE@ABU01@@Z ; std::_Iterator_base12::_Iterator_base12
  0002f	8b 45 f8	 mov	 eax, DWORD PTR _this$[ebp]
  00032	5f		 pop	 edi
  00033	5e		 pop	 esi
  00034	5b		 pop	 ebx
  00035	81 c4 cc 00 00
	00		 add	 esp, 204		; 000000ccH
  0003b	3b ec		 cmp	 ebp, esp
  0003d	e8 00 00 00 00	 call	 __RTC_CheckEsp
  00042	8b e5		 mov	 esp, ebp
  00044	5d		 pop	 ebp
  00045	c2 04 00	 ret	 4
??0?$_Iterator012@Ubidirectional_iterator_tag@std@@U?$pair@$$CBW4SDL_Scancode@@_N@2@HPBU32@ABU32@U_Iterator_base12@2@@std@@QAE@ABU01@@Z ENDP ; std::_Iterator012<std::bidirectional_iterator_tag,std::pair<enum SDL_Scancode const ,bool>,int,std::pair<enum SDL_Scancode const ,bool> const *,std::pair<enum SDL_Scancode const ,bool> const &,std::_Iterator_base12>::_Iterator012<std::bidirectional_iterator_tag,std::pair<enum SDL_Scancode const ,bool>,int,std::pair<enum SDL_Scancode const ,bool> const *,std::pair<enum SDL_Scancode const ,bool> const &,std::_Iterator_base12>
_TEXT	ENDS
; Function compile flags: /Odtp /RTCsu /ZI
;	COMDAT ??1?$_Iterator012@Ubidirectional_iterator_tag@std@@U?$pair@$$CBW4SDL_Scancode@@_N@2@HPBU32@ABU32@U_Iterator_base12@2@@std@@QAE@XZ
_TEXT	SEGMENT
_this$ = -8						; size = 4
??1?$_Iterator012@Ubidirectional_iterator_tag@std@@U?$pair@$$CBW4SDL_Scancode@@_N@2@HPBU32@ABU32@U_Iterator_base12@2@@std@@QAE@XZ PROC ; std::_Iterator012<std::bidirectional_iterator_tag,std::pair<enum SDL_Scancode const ,bool>,int,std::pair<enum SDL_Scancode const ,bool> const *,std::pair<enum SDL_Scancode const ,bool> const &,std::_Iterator_base12>::~_Iterator012<std::bidirectional_iterator_tag,std::pair<enum SDL_Scancode const ,bool>,int,std::pair<enum SDL_Scancode const ,bool> const *,std::pair<enum SDL_Scancode const ,bool> const &,std::_Iterator_base12>, COMDAT
; _this$ = ecx
  00000	55		 push	 ebp
  00001	8b ec		 mov	 ebp, esp
  00003	81 ec cc 00 00
	00		 sub	 esp, 204		; 000000ccH
  00009	53		 push	 ebx
  0000a	56		 push	 esi
  0000b	57		 push	 edi
  0000c	51		 push	 ecx
  0000d	8d bd 34 ff ff
	ff		 lea	 edi, DWORD PTR [ebp-204]
  00013	b9 33 00 00 00	 mov	 ecx, 51			; 00000033H
  00018	b8 cc cc cc cc	 mov	 eax, -858993460		; ccccccccH
  0001d	f3 ab		 rep stosd
  0001f	59		 pop	 ecx
  00020	89 4d f8	 mov	 DWORD PTR _this$[ebp], ecx
  00023	8b 4d f8	 mov	 ecx, DWORD PTR _this$[ebp]
  00026	e8 00 00 00 00	 call	 ??1_Iterator_base12@std@@QAE@XZ ; std::_Iterator_base12::~_Iterator_base12
  0002b	5f		 pop	 edi
  0002c	5e		 pop	 esi
  0002d	5b		 pop	 ebx
  0002e	81 c4 cc 00 00
	00		 add	 esp, 204		; 000000ccH
  00034	3b ec		 cmp	 ebp, esp
  00036	e8 00 00 00 00	 call	 __RTC_CheckEsp
  0003b	8b e5		 mov	 esp, ebp
  0003d	5d		 pop	 ebp
  0003e	c3		 ret	 0
??1?$_Iterator012@Ubidirectional_iterator_tag@std@@U?$pair@$$CBW4SDL_Scancode@@_N@2@HPBU32@ABU32@U_Iterator_base12@2@@std@@QAE@XZ ENDP ; std::_Iterator012<std::bidirectional_iterator_tag,std::pair<enum SDL_Scancode const ,bool>,int,std::pair<enum SDL_Scancode const ,bool> const *,std::pair<enum SDL_Scancode const ,bool> const &,std::_Iterator_base12>::~_Iterator012<std::bidirectional_iterator_tag,std::pair<enum SDL_Scancode const ,bool>,int,std::pair<enum SDL_Scancode const ,bool> const *,std::pair<enum SDL_Scancode const ,bool> const &,std::_Iterator_base12>
_TEXT	ENDS
; Function compile flags: /Odtp /RTCsu /ZI
;	COMDAT ??0?$_Iterator012@Ubidirectional_iterator_tag@std@@U?$pair@$$CBW4SDL_Scancode@@_N@2@HPBU32@ABU32@U_Iterator_base12@2@@std@@QAE@XZ
_TEXT	SEGMENT
_this$ = -8						; size = 4
??0?$_Iterator012@Ubidirectional_iterator_tag@std@@U?$pair@$$CBW4SDL_Scancode@@_N@2@HPBU32@ABU32@U_Iterator_base12@2@@std@@QAE@XZ PROC ; std::_Iterator012<std::bidirectional_iterator_tag,std::pair<enum SDL_Scancode const ,bool>,int,std::pair<enum SDL_Scancode const ,bool> const *,std::pair<enum SDL_Scancode const ,bool> const &,std::_Iterator_base12>::_Iterator012<std::bidirectional_iterator_tag,std::pair<enum SDL_Scancode const ,bool>,int,std::pair<enum SDL_Scancode const ,bool> const *,std::pair<enum SDL_Scancode const ,bool> const &,std::_Iterator_base12>, COMDAT
; _this$ = ecx
  00000	55		 push	 ebp
  00001	8b ec		 mov	 ebp, esp
  00003	81 ec cc 00 00
	00		 sub	 esp, 204		; 000000ccH
  00009	53		 push	 ebx
  0000a	56		 push	 esi
  0000b	57		 push	 edi
  0000c	51		 push	 ecx
  0000d	8d bd 34 ff ff
	ff		 lea	 edi, DWORD PTR [ebp-204]
  00013	b9 33 00 00 00	 mov	 ecx, 51			; 00000033H
  00018	b8 cc cc cc cc	 mov	 eax, -858993460		; ccccccccH
  0001d	f3 ab		 rep stosd
  0001f	59		 pop	 ecx
  00020	89 4d f8	 mov	 DWORD PTR _this$[ebp], ecx
  00023	8b 4d f8	 mov	 ecx, DWORD PTR _this$[ebp]
  00026	e8 00 00 00 00	 call	 ??0_Iterator_base12@std@@QAE@XZ ; std::_Iterator_base12::_Iterator_base12
  0002b	8b 45 f8	 mov	 eax, DWORD PTR _this$[ebp]
  0002e	5f		 pop	 edi
  0002f	5e		 pop	 esi
  00030	5b		 pop	 ebx
  00031	81 c4 cc 00 00
	00		 add	 esp, 204		; 000000ccH
  00037	3b ec		 cmp	 ebp, esp
  00039	e8 00 00 00 00	 call	 __RTC_CheckEsp
  0003e	8b e5		 mov	 esp, ebp
  00040	5d		 pop	 ebp
  00041	c3		 ret	 0
??0?$_Iterator012@Ubidirectional_iterator_tag@std@@U?$pair@$$CBW4SDL_Scancode@@_N@2@HPBU32@ABU32@U_Iterator_base12@2@@std@@QAE@XZ ENDP ; std::_Iterator012<std::bidirectional_iterator_tag,std::pair<enum SDL_Scancode const ,bool>,int,std::pair<enum SDL_Scancode const ,bool> const *,std::pair<enum SDL_Scancode const ,bool> const &,std::_Iterator_base12>::_Iterator012<std::bidirectional_iterator_tag,std::pair<enum SDL_Scancode const ,bool>,int,std::pair<enum SDL_Scancode const ,bool> const *,std::pair<enum SDL_Scancode const ,bool> const &,std::_Iterator_base12>
_TEXT	ENDS
; Function compile flags: /Odtp /RTCsu /ZI
;	COMDAT ??A?$map@W4SDL_Scancode@@_NU?$less@W4SDL_Scancode@@@std@@V?$allocator@U?$pair@$$CBW4SDL_Scancode@@_N@std@@@3@@std@@QAEAA_NABW4SDL_Scancode@@@Z
_TEXT	SEGMENT
tv213 = -376						; size = 4
tv155 = -376						; size = 4
tv204 = -372						; size = 4
tv166 = -372						; size = 4
tv211 = -368						; size = 4
tv71 = -368						; size = 4
$T2 = -357						; size = 1
$T3 = -348						; size = 12
$T4 = -325						; size = 1
$T5 = -313						; size = 1
$T6 = -304						; size = 4
$T7 = -292						; size = 4
$T8 = -280						; size = 12
$T9 = -260						; size = 4
$T10 = -248						; size = 4
__Where$ = -44						; size = 12
_this$ = -24						; size = 4
__$ArrayPad$ = -16					; size = 4
__$EHRec$ = -12						; size = 12
__Keyval$ = 8						; size = 4
??A?$map@W4SDL_Scancode@@_NU?$less@W4SDL_Scancode@@@std@@V?$allocator@U?$pair@$$CBW4SDL_Scancode@@_N@std@@@3@@std@@QAEAA_NABW4SDL_Scancode@@@Z PROC ; std::map<enum SDL_Scancode,bool,std::less<enum SDL_Scancode>,std::allocator<std::pair<enum SDL_Scancode const ,bool> > >::operator[], COMDAT
; _this$ = ecx
; File c:\program files (x86)\microsoft visual studio 12.0\vc\include\map
; Line 225
  00000	55		 push	 ebp
  00001	8b ec		 mov	 ebp, esp
  00003	6a ff		 push	 -1
  00005	68 00 00 00 00	 push	 __ehhandler$??A?$map@W4SDL_Scancode@@_NU?$less@W4SDL_Scancode@@@std@@V?$allocator@U?$pair@$$CBW4SDL_Scancode@@_N@std@@@3@@std@@QAEAA_NABW4SDL_Scancode@@@Z
  0000a	64 a1 00 00 00
	00		 mov	 eax, DWORD PTR fs:0
  00010	50		 push	 eax
  00011	81 ec 6c 01 00
	00		 sub	 esp, 364		; 0000016cH
  00017	53		 push	 ebx
  00018	56		 push	 esi
  00019	57		 push	 edi
  0001a	51		 push	 ecx
  0001b	8d bd 88 fe ff
	ff		 lea	 edi, DWORD PTR [ebp-376]
  00021	b9 5b 00 00 00	 mov	 ecx, 91			; 0000005bH
  00026	b8 cc cc cc cc	 mov	 eax, -858993460		; ccccccccH
  0002b	f3 ab		 rep stosd
  0002d	59		 pop	 ecx
  0002e	a1 00 00 00 00	 mov	 eax, DWORD PTR ___security_cookie
  00033	33 c5		 xor	 eax, ebp
  00035	89 45 f0	 mov	 DWORD PTR __$ArrayPad$[ebp], eax
  00038	50		 push	 eax
  00039	8d 45 f4	 lea	 eax, DWORD PTR __$EHRec$[ebp]
  0003c	64 a3 00 00 00
	00		 mov	 DWORD PTR fs:0, eax
  00042	89 4d e8	 mov	 DWORD PTR _this$[ebp], ecx
  00045	c7 85 08 ff ff
	ff 00 00 00 00	 mov	 DWORD PTR $T10[ebp], 0
; Line 226
  0004f	6a 0c		 push	 12			; 0000000cH
  00051	8d 4d d4	 lea	 ecx, DWORD PTR __Where$[ebp]
  00054	e8 00 00 00 00	 call	 ?__autoclassinit2@?$_Tree_iterator@V?$_Tree_val@U?$_Tree_simple_types@U?$pair@$$CBW4SDL_Scancode@@_N@std@@@std@@@std@@@std@@QAEXI@Z
  00059	8b 45 08	 mov	 eax, DWORD PTR __Keyval$[ebp]
  0005c	50		 push	 eax
  0005d	8d 4d d4	 lea	 ecx, DWORD PTR __Where$[ebp]
  00060	51		 push	 ecx
  00061	8b 4d e8	 mov	 ecx, DWORD PTR _this$[ebp]
  00064	e8 00 00 00 00	 call	 ?lower_bound@?$_Tree@V?$_Tmap_traits@W4SDL_Scancode@@_NU?$less@W4SDL_Scancode@@@std@@V?$allocator@U?$pair@$$CBW4SDL_Scancode@@_N@std@@@3@$0A@@std@@@std@@QAE?AV?$_Tree_iterator@V?$_Tree_val@U?$_Tree_simple_types@U?$pair@$$CBW4SDL_Scancode@@_N@std@@@std@@@std@@@2@ABW4SDL_Scancode@@@Z ; std::_Tree<std::_Tmap_traits<enum SDL_Scancode,bool,std::less<enum SDL_Scancode>,std::allocator<std::pair<enum SDL_Scancode const ,bool> >,0> >::lower_bound
  00069	c7 45 fc 00 00
	00 00		 mov	 DWORD PTR __$EHRec$[ebp+8], 0
; Line 228
  00070	8d 85 a4 fe ff
	ff		 lea	 eax, DWORD PTR $T3[ebp]
  00076	50		 push	 eax
  00077	8b 4d e8	 mov	 ecx, DWORD PTR _this$[ebp]
  0007a	e8 00 00 00 00	 call	 ?end@?$_Tree@V?$_Tmap_traits@W4SDL_Scancode@@_NU?$less@W4SDL_Scancode@@@std@@V?$allocator@U?$pair@$$CBW4SDL_Scancode@@_N@std@@@3@$0A@@std@@@std@@QAE?AV?$_Tree_iterator@V?$_Tree_val@U?$_Tree_simple_types@U?$pair@$$CBW4SDL_Scancode@@_N@std@@@std@@@std@@@2@XZ ; std::_Tree<std::_Tmap_traits<enum SDL_Scancode,bool,std::less<enum SDL_Scancode>,std::allocator<std::pair<enum SDL_Scancode const ,bool> >,0> >::end
  0007f	89 85 90 fe ff
	ff		 mov	 DWORD PTR tv71[ebp], eax
  00085	8b 8d 90 fe ff
	ff		 mov	 ecx, DWORD PTR tv71[ebp]
  0008b	89 8d 8c fe ff
	ff		 mov	 DWORD PTR tv204[ebp], ecx
  00091	c6 45 fc 01	 mov	 BYTE PTR __$EHRec$[ebp+8], 1
  00095	8b 95 08 ff ff
	ff		 mov	 edx, DWORD PTR $T10[ebp]
  0009b	83 ca 01	 or	 edx, 1
  0009e	89 95 08 ff ff
	ff		 mov	 DWORD PTR $T10[ebp], edx
  000a4	8b 85 8c fe ff
	ff		 mov	 eax, DWORD PTR tv204[ebp]
  000aa	50		 push	 eax
  000ab	8d 4d d4	 lea	 ecx, DWORD PTR __Where$[ebp]
  000ae	e8 00 00 00 00	 call	 ??8?$_Tree_const_iterator@V?$_Tree_val@U?$_Tree_simple_types@U?$pair@$$CBW4SDL_Scancode@@_N@std@@@std@@@std@@@std@@QBE_NABV01@@Z ; std::_Tree_const_iterator<std::_Tree_val<std::_Tree_simple_types<std::pair<enum SDL_Scancode const ,bool> > > >::operator==
  000b3	0f b6 c8	 movzx	 ecx, al
  000b6	85 c9		 test	 ecx, ecx
  000b8	75 3f		 jne	 SHORT $LN4@operator
  000ba	8d 4d d4	 lea	 ecx, DWORD PTR __Where$[ebp]
  000bd	e8 00 00 00 00	 call	 ?_Mynode@?$_Tree_unchecked_const_iterator@V?$_Tree_val@U?$_Tree_simple_types@U?$pair@$$CBW4SDL_Scancode@@_N@std@@@std@@@std@@U_Iterator_base12@2@@std@@QBEPAU?$_Tree_node@U?$pair@$$CBW4SDL_Scancode@@_N@std@@PAX@2@XZ ; std::_Tree_unchecked_const_iterator<std::_Tree_val<std::_Tree_simple_types<std::pair<enum SDL_Scancode const ,bool> > >,std::_Iterator_base12>::_Mynode
  000c2	50		 push	 eax
  000c3	8b 4d e8	 mov	 ecx, DWORD PTR _this$[ebp]
  000c6	e8 00 00 00 00	 call	 ?_Key@?$_Tree@V?$_Tmap_traits@W4SDL_Scancode@@_NU?$less@W4SDL_Scancode@@@std@@V?$allocator@U?$pair@$$CBW4SDL_Scancode@@_N@std@@@3@$0A@@std@@@std@@IBEABW4SDL_Scancode@@PAU?$_Tree_node@U?$pair@$$CBW4SDL_Scancode@@_N@std@@PAX@2@@Z ; std::_Tree<std::_Tmap_traits<enum SDL_Scancode,bool,std::less<enum SDL_Scancode>,std::allocator<std::pair<enum SDL_Scancode const ,bool> >,0> >::_Key
  000cb	50		 push	 eax
  000cc	8b 55 08	 mov	 edx, DWORD PTR __Keyval$[ebp]
  000cf	52		 push	 edx
  000d0	8d 85 bb fe ff
	ff		 lea	 eax, DWORD PTR $T4[ebp]
  000d6	50		 push	 eax
  000d7	8b 4d e8	 mov	 ecx, DWORD PTR _this$[ebp]
  000da	e8 00 00 00 00	 call	 ?_Getcomp@?$_Tree_comp@$0A@V?$_Tmap_traits@W4SDL_Scancode@@_NU?$less@W4SDL_Scancode@@@std@@V?$allocator@U?$pair@$$CBW4SDL_Scancode@@_N@std@@@3@$0A@@std@@@std@@QBE?AU?$less@W4SDL_Scancode@@@2@XZ ; std::_Tree_comp<0,std::_Tmap_traits<enum SDL_Scancode,bool,std::less<enum SDL_Scancode>,std::allocator<std::pair<enum SDL_Scancode const ,bool> >,0> >::_Getcomp
  000df	8b c8		 mov	 ecx, eax
  000e1	e8 00 00 00 00	 call	 ??R?$less@W4SDL_Scancode@@@std@@QBE_NABW4SDL_Scancode@@0@Z ; std::less<enum SDL_Scancode>::operator()
  000e6	0f b6 c8	 movzx	 ecx, al
  000e9	85 c9		 test	 ecx, ecx
  000eb	75 0c		 jne	 SHORT $LN4@operator
  000ed	c7 85 88 fe ff
	ff 00 00 00 00	 mov	 DWORD PTR tv155[ebp], 0
  000f7	eb 0a		 jmp	 SHORT $LN5@operator
$LN4@operator:
  000f9	c7 85 88 fe ff
	ff 01 00 00 00	 mov	 DWORD PTR tv155[ebp], 1
$LN5@operator:
  00103	8a 95 88 fe ff
	ff		 mov	 dl, BYTE PTR tv155[ebp]
  00109	88 95 9b fe ff
	ff		 mov	 BYTE PTR $T2[ebp], dl
  0010f	c7 45 fc 00 00
	00 00		 mov	 DWORD PTR __$EHRec$[ebp+8], 0
  00116	8b 85 08 ff ff
	ff		 mov	 eax, DWORD PTR $T10[ebp]
  0011c	83 e0 01	 and	 eax, 1
  0011f	74 12		 je	 SHORT $LN9@operator
  00121	83 a5 08 ff ff
	ff fe		 and	 DWORD PTR $T10[ebp], -2	; fffffffeH
  00128	8d 8d a4 fe ff
	ff		 lea	 ecx, DWORD PTR $T3[ebp]
  0012e	e8 00 00 00 00	 call	 ??1?$_Tree_iterator@V?$_Tree_val@U?$_Tree_simple_types@U?$pair@$$CBW4SDL_Scancode@@_N@std@@@std@@@std@@@std@@QAE@XZ
$LN9@operator:
  00133	0f b6 8d 9b fe
	ff ff		 movzx	 ecx, BYTE PTR $T2[ebp]
  0013a	85 c9		 test	 ecx, ecx
  0013c	0f 84 82 00 00
	00		 je	 $LN1@operator
; Line 233
  00142	8d 8d c7 fe ff
	ff		 lea	 ecx, DWORD PTR $T5[ebp]
  00148	e8 00 00 00 00	 call	 ??0?$tuple@$$$V@std@@QAE@XZ ; std::tuple<>::tuple<>
  0014d	50		 push	 eax
  0014e	8b 45 08	 mov	 eax, DWORD PTR __Keyval$[ebp]
  00151	50		 push	 eax
  00152	8d 8d d0 fe ff
	ff		 lea	 ecx, DWORD PTR $T6[ebp]
  00158	51		 push	 ecx
  00159	e8 00 00 00 00	 call	 ??$forward_as_tuple@ABW4SDL_Scancode@@@std@@YA?AV?$tuple@ABW4SDL_Scancode@@@0@ABW4SDL_Scancode@@@Z ; std::forward_as_tuple<enum SDL_Scancode const &>
  0015e	83 c4 08	 add	 esp, 8
  00161	50		 push	 eax
  00162	68 00 00 00 00	 push	 OFFSET _piecewise_construct
  00167	83 ec 0c	 sub	 esp, 12			; 0000000cH
  0016a	8b cc		 mov	 ecx, esp
  0016c	89 a5 dc fe ff
	ff		 mov	 DWORD PTR $T7[ebp], esp
  00172	8d 55 d4	 lea	 edx, DWORD PTR __Where$[ebp]
  00175	52		 push	 edx
  00176	e8 00 00 00 00	 call	 ??0?$_Tree_const_iterator@V?$_Tree_val@U?$_Tree_simple_types@U?$pair@$$CBW4SDL_Scancode@@_N@std@@@std@@@std@@@std@@QAE@ABV01@@Z
  0017b	89 85 90 fe ff
	ff		 mov	 DWORD PTR tv211[ebp], eax
  00181	8d 85 e8 fe ff
	ff		 lea	 eax, DWORD PTR $T8[ebp]
  00187	50		 push	 eax
  00188	8b 4d e8	 mov	 ecx, DWORD PTR _this$[ebp]
  0018b	e8 00 00 00 00	 call	 ??$emplace_hint@ABUpiecewise_construct_t@std@@V?$tuple@ABW4SDL_Scancode@@@2@V?$tuple@$$$V@2@@?$_Tree@V?$_Tmap_traits@W4SDL_Scancode@@_NU?$less@W4SDL_Scancode@@@std@@V?$allocator@U?$pair@$$CBW4SDL_Scancode@@_N@std@@@3@$0A@@std@@@std@@QAE?AV?$_Tree_iterator@V?$_Tree_val@U?$_Tree_simple_types@U?$pair@$$CBW4SDL_Scancode@@_N@std@@@std@@@std@@@1@V?$_Tree_const_iterator@V?$_Tree_val@U?$_Tree_simple_types@U?$pair@$$CBW4SDL_Scancode@@_N@std@@@std@@@std@@@1@ABUpiecewise_construct_t@1@$$QAV?$tuple@ABW4SDL_Scancode@@@1@$$QAV?$tuple@$$$V@1@@Z ; std::_Tree<std::_Tmap_traits<enum SDL_Scancode,bool,std::less<enum SDL_Scancode>,std::allocator<std::pair<enum SDL_Scancode const ,bool> >,0> >::emplace_hint<std::piecewise_construct_t const &,std::tuple<enum SDL_Scancode const &>,std::tuple<> >
  00190	89 85 8c fe ff
	ff		 mov	 DWORD PTR tv166[ebp], eax
  00196	8b 8d 8c fe ff
	ff		 mov	 ecx, DWORD PTR tv166[ebp]
  0019c	89 8d 88 fe ff
	ff		 mov	 DWORD PTR tv213[ebp], ecx
  001a2	c6 45 fc 02	 mov	 BYTE PTR __$EHRec$[ebp+8], 2
  001a6	8b 95 88 fe ff
	ff		 mov	 edx, DWORD PTR tv213[ebp]
  001ac	52		 push	 edx
  001ad	8d 4d d4	 lea	 ecx, DWORD PTR __Where$[ebp]
  001b0	e8 00 00 00 00	 call	 ??4?$_Tree_iterator@V?$_Tree_val@U?$_Tree_simple_types@U?$pair@$$CBW4SDL_Scancode@@_N@std@@@std@@@std@@@std@@QAEAAV01@ABV01@@Z
  001b5	c6 45 fc 00	 mov	 BYTE PTR __$EHRec$[ebp+8], 0
  001b9	8d 8d e8 fe ff
	ff		 lea	 ecx, DWORD PTR $T8[ebp]
  001bf	e8 00 00 00 00	 call	 ??1?$_Tree_iterator@V?$_Tree_val@U?$_Tree_simple_types@U?$pair@$$CBW4SDL_Scancode@@_N@std@@@std@@@std@@@std@@QAE@XZ
$LN1@operator:
; Line 236
  001c4	8d 4d d4	 lea	 ecx, DWORD PTR __Where$[ebp]
  001c7	e8 00 00 00 00	 call	 ??C?$_Tree_iterator@V?$_Tree_val@U?$_Tree_simple_types@U?$pair@$$CBW4SDL_Scancode@@_N@std@@@std@@@std@@@std@@QBEPAU?$pair@$$CBW4SDL_Scancode@@_N@1@XZ ; std::_Tree_iterator<std::_Tree_val<std::_Tree_simple_types<std::pair<enum SDL_Scancode const ,bool> > > >::operator->
  001cc	83 c0 04	 add	 eax, 4
  001cf	89 85 fc fe ff
	ff		 mov	 DWORD PTR $T9[ebp], eax
  001d5	c7 45 fc ff ff
	ff ff		 mov	 DWORD PTR __$EHRec$[ebp+8], -1
  001dc	8d 4d d4	 lea	 ecx, DWORD PTR __Where$[ebp]
  001df	e8 00 00 00 00	 call	 ??1?$_Tree_iterator@V?$_Tree_val@U?$_Tree_simple_types@U?$pair@$$CBW4SDL_Scancode@@_N@std@@@std@@@std@@@std@@QAE@XZ
  001e4	8b 85 fc fe ff
	ff		 mov	 eax, DWORD PTR $T9[ebp]
; Line 237
  001ea	52		 push	 edx
  001eb	8b cd		 mov	 ecx, ebp
  001ed	50		 push	 eax
  001ee	8d 15 00 00 00
	00		 lea	 edx, DWORD PTR $LN15@operator
  001f4	e8 00 00 00 00	 call	 @_RTC_CheckStackVars@8
  001f9	58		 pop	 eax
  001fa	5a		 pop	 edx
  001fb	8b 4d f4	 mov	 ecx, DWORD PTR __$EHRec$[ebp]
  001fe	64 89 0d 00 00
	00 00		 mov	 DWORD PTR fs:0, ecx
  00205	59		 pop	 ecx
  00206	5f		 pop	 edi
  00207	5e		 pop	 esi
  00208	5b		 pop	 ebx
  00209	8b 4d f0	 mov	 ecx, DWORD PTR __$ArrayPad$[ebp]
  0020c	33 cd		 xor	 ecx, ebp
  0020e	e8 00 00 00 00	 call	 @__security_check_cookie@4
  00213	81 c4 78 01 00
	00		 add	 esp, 376		; 00000178H
  00219	3b ec		 cmp	 ebp, esp
  0021b	e8 00 00 00 00	 call	 __RTC_CheckEsp
  00220	8b e5		 mov	 esp, ebp
  00222	5d		 pop	 ebp
  00223	c2 04 00	 ret	 4
  00226	8b ff		 npad	 2
$LN15@operator:
  00228	01 00 00 00	 DD	 1
  0022c	00 00 00 00	 DD	 $LN14@operator
$LN14@operator:
  00230	d4 ff ff ff	 DD	 -44			; ffffffd4H
  00234	0c 00 00 00	 DD	 12			; 0000000cH
  00238	00 00 00 00	 DD	 $LN12@operator
$LN12@operator:
  0023c	5f		 DB	 95			; 0000005fH
  0023d	57		 DB	 87			; 00000057H
  0023e	68		 DB	 104			; 00000068H
  0023f	65		 DB	 101			; 00000065H
  00240	72		 DB	 114			; 00000072H
  00241	65		 DB	 101			; 00000065H
  00242	00		 DB	 0
_TEXT	ENDS
;	COMDAT text$x
text$x	SEGMENT
__unwindfunclet$??A?$map@W4SDL_Scancode@@_NU?$less@W4SDL_Scancode@@@std@@V?$allocator@U?$pair@$$CBW4SDL_Scancode@@_N@std@@@3@@std@@QAEAA_NABW4SDL_Scancode@@@Z$0:
  00000	8d 4d d4	 lea	 ecx, DWORD PTR __Where$[ebp]
  00003	e9 00 00 00 00	 jmp	 ??1?$_Tree_iterator@V?$_Tree_val@U?$_Tree_simple_types@U?$pair@$$CBW4SDL_Scancode@@_N@std@@@std@@@std@@@std@@QAE@XZ
__unwindfunclet$??A?$map@W4SDL_Scancode@@_NU?$less@W4SDL_Scancode@@@std@@V?$allocator@U?$pair@$$CBW4SDL_Scancode@@_N@std@@@3@@std@@QAEAA_NABW4SDL_Scancode@@@Z$1:
  00008	8b 85 08 ff ff
	ff		 mov	 eax, DWORD PTR $T10[ebp]
  0000e	83 e0 01	 and	 eax, 1
  00011	0f 84 12 00 00
	00		 je	 $LN8@operator
  00017	83 a5 08 ff ff
	ff fe		 and	 DWORD PTR $T10[ebp], -2	; fffffffeH
  0001e	8d 8d a4 fe ff
	ff		 lea	 ecx, DWORD PTR $T3[ebp]
  00024	e9 00 00 00 00	 jmp	 ??1?$_Tree_iterator@V?$_Tree_val@U?$_Tree_simple_types@U?$pair@$$CBW4SDL_Scancode@@_N@std@@@std@@@std@@@std@@QAE@XZ
$LN8@operator:
  00029	c3		 ret	 0
__unwindfunclet$??A?$map@W4SDL_Scancode@@_NU?$less@W4SDL_Scancode@@@std@@V?$allocator@U?$pair@$$CBW4SDL_Scancode@@_N@std@@@3@@std@@QAEAA_NABW4SDL_Scancode@@@Z$3:
  0002a	8d 8d e8 fe ff
	ff		 lea	 ecx, DWORD PTR $T8[ebp]
  00030	e9 00 00 00 00	 jmp	 ??1?$_Tree_iterator@V?$_Tree_val@U?$_Tree_simple_types@U?$pair@$$CBW4SDL_Scancode@@_N@std@@@std@@@std@@@std@@QAE@XZ
__ehhandler$??A?$map@W4SDL_Scancode@@_NU?$less@W4SDL_Scancode@@@std@@V?$allocator@U?$pair@$$CBW4SDL_Scancode@@_N@std@@@3@@std@@QAEAA_NABW4SDL_Scancode@@@Z:
  00035	8b 54 24 08	 mov	 edx, DWORD PTR [esp+8]
  00039	8d 42 0c	 lea	 eax, DWORD PTR [edx+12]
  0003c	8b 8a 84 fe ff
	ff		 mov	 ecx, DWORD PTR [edx-380]
  00042	33 c8		 xor	 ecx, eax
  00044	e8 00 00 00 00	 call	 @__security_check_cookie@4
  00049	8b 4a fc	 mov	 ecx, DWORD PTR [edx-4]
  0004c	33 c8		 xor	 ecx, eax
  0004e	e8 00 00 00 00	 call	 @__security_check_cookie@4
  00053	b8 00 00 00 00	 mov	 eax, OFFSET __ehfuncinfo$??A?$map@W4SDL_Scancode@@_NU?$less@W4SDL_Scancode@@@std@@V?$allocator@U?$pair@$$CBW4SDL_Scancode@@_N@std@@@3@@std@@QAEAA_NABW4SDL_Scancode@@@Z
  00058	e9 00 00 00 00	 jmp	 ___CxxFrameHandler3
text$x	ENDS
??A?$map@W4SDL_Scancode@@_NU?$less@W4SDL_Scancode@@@std@@V?$allocator@U?$pair@$$CBW4SDL_Scancode@@_N@std@@@3@@std@@QAEAA_NABW4SDL_Scancode@@@Z ENDP ; std::map<enum SDL_Scancode,bool,std::less<enum SDL_Scancode>,std::allocator<std::pair<enum SDL_Scancode const ,bool> > >::operator[]
; Function compile flags: /Odtp /RTCsu /ZI
;	COMDAT ?_Key@?$_Tree@V?$_Tmap_traits@W4SDL_Scancode@@_NU?$less@W4SDL_Scancode@@@std@@V?$allocator@U?$pair@$$CBW4SDL_Scancode@@_N@std@@@3@$0A@@std@@@std@@IBEABW4SDL_Scancode@@PAU?$_Tree_node@U?$pair@$$CBW4SDL_Scancode@@_N@std@@PAX@2@@Z
_TEXT	SEGMENT
_this$ = -8						; size = 4
__Pnode$ = 8						; size = 4
?_Key@?$_Tree@V?$_Tmap_traits@W4SDL_Scancode@@_NU?$less@W4SDL_Scancode@@@std@@V?$allocator@U?$pair@$$CBW4SDL_Scancode@@_N@std@@@3@$0A@@std@@@std@@IBEABW4SDL_Scancode@@PAU?$_Tree_node@U?$pair@$$CBW4SDL_Scancode@@_N@std@@PAX@2@@Z PROC ; std::_Tree<std::_Tmap_traits<enum SDL_Scancode,bool,std::less<enum SDL_Scancode>,std::allocator<std::pair<enum SDL_Scancode const ,bool> >,0> >::_Key, COMDAT
; _this$ = ecx
; File c:\program files (x86)\microsoft visual studio 12.0\vc\include\xtree
; Line 2239
  00000	55		 push	 ebp
  00001	8b ec		 mov	 ebp, esp
  00003	81 ec cc 00 00
	00		 sub	 esp, 204		; 000000ccH
  00009	53		 push	 ebx
  0000a	56		 push	 esi
  0000b	57		 push	 edi
  0000c	51		 push	 ecx
  0000d	8d bd 34 ff ff
	ff		 lea	 edi, DWORD PTR [ebp-204]
  00013	b9 33 00 00 00	 mov	 ecx, 51			; 00000033H
  00018	b8 cc cc cc cc	 mov	 eax, -858993460		; ccccccccH
  0001d	f3 ab		 rep stosd
  0001f	59		 pop	 ecx
  00020	89 4d f8	 mov	 DWORD PTR _this$[ebp], ecx
; Line 2240
  00023	8b 45 08	 mov	 eax, DWORD PTR __Pnode$[ebp]
  00026	50		 push	 eax
  00027	e8 00 00 00 00	 call	 ?_Myval@?$_Tree_val@U?$_Tree_simple_types@U?$pair@$$CBW4SDL_Scancode@@_N@std@@@std@@@std@@SAAAU?$pair@$$CBW4SDL_Scancode@@_N@2@PAU?$_Tree_node@U?$pair@$$CBW4SDL_Scancode@@_N@std@@PAX@2@@Z ; std::_Tree_val<std::_Tree_simple_types<std::pair<enum SDL_Scancode const ,bool> > >::_Myval
  0002c	83 c4 04	 add	 esp, 4
  0002f	50		 push	 eax
  00030	8b 4d f8	 mov	 ecx, DWORD PTR _this$[ebp]
  00033	e8 00 00 00 00	 call	 ?_Kfn@?$_Tree@V?$_Tmap_traits@W4SDL_Scancode@@_NU?$less@W4SDL_Scancode@@@std@@V?$allocator@U?$pair@$$CBW4SDL_Scancode@@_N@std@@@3@$0A@@std@@@std@@IBEABW4SDL_Scancode@@ABU?$pair@$$CBW4SDL_Scancode@@_N@2@@Z ; std::_Tree<std::_Tmap_traits<enum SDL_Scancode,bool,std::less<enum SDL_Scancode>,std::allocator<std::pair<enum SDL_Scancode const ,bool> >,0> >::_Kfn
; Line 2241
  00038	5f		 pop	 edi
  00039	5e		 pop	 esi
  0003a	5b		 pop	 ebx
  0003b	81 c4 cc 00 00
	00		 add	 esp, 204		; 000000ccH
  00041	3b ec		 cmp	 ebp, esp
  00043	e8 00 00 00 00	 call	 __RTC_CheckEsp
  00048	8b e5		 mov	 esp, ebp
  0004a	5d		 pop	 ebp
  0004b	c2 04 00	 ret	 4
?_Key@?$_Tree@V?$_Tmap_traits@W4SDL_Scancode@@_NU?$less@W4SDL_Scancode@@@std@@V?$allocator@U?$pair@$$CBW4SDL_Scancode@@_N@std@@@3@$0A@@std@@@std@@IBEABW4SDL_Scancode@@PAU?$_Tree_node@U?$pair@$$CBW4SDL_Scancode@@_N@std@@PAX@2@@Z ENDP ; std::_Tree<std::_Tmap_traits<enum SDL_Scancode,bool,std::less<enum SDL_Scancode>,std::allocator<std::pair<enum SDL_Scancode const ,bool> >,0> >::_Key
_TEXT	ENDS
; Function compile flags: /Odtp /RTCsu /ZI
;	COMDAT ?_Kfn@?$_Tree@V?$_Tmap_traits@W4SDL_Scancode@@_NU?$less@W4SDL_Scancode@@@std@@V?$allocator@U?$pair@$$CBW4SDL_Scancode@@_N@std@@@3@$0A@@std@@@std@@IBEABW4SDL_Scancode@@ABU?$pair@$$CBW4SDL_Scancode@@_N@2@@Z
_TEXT	SEGMENT
_this$ = -8						; size = 4
__Val$ = 8						; size = 4
?_Kfn@?$_Tree@V?$_Tmap_traits@W4SDL_Scancode@@_NU?$less@W4SDL_Scancode@@@std@@V?$allocator@U?$pair@$$CBW4SDL_Scancode@@_N@std@@@3@$0A@@std@@@std@@IBEABW4SDL_Scancode@@ABU?$pair@$$CBW4SDL_Scancode@@_N@2@@Z PROC ; std::_Tree<std::_Tmap_traits<enum SDL_Scancode,bool,std::less<enum SDL_Scancode>,std::allocator<std::pair<enum SDL_Scancode const ,bool> >,0> >::_Kfn, COMDAT
; _this$ = ecx
; File c:\program files (x86)\microsoft visual studio 12.0\vc\include\xtree
; Line 2234
  00000	55		 push	 ebp
  00001	8b ec		 mov	 ebp, esp
  00003	81 ec cc 00 00
	00		 sub	 esp, 204		; 000000ccH
  00009	53		 push	 ebx
  0000a	56		 push	 esi
  0000b	57		 push	 edi
  0000c	51		 push	 ecx
  0000d	8d bd 34 ff ff
	ff		 lea	 edi, DWORD PTR [ebp-204]
  00013	b9 33 00 00 00	 mov	 ecx, 51			; 00000033H
  00018	b8 cc cc cc cc	 mov	 eax, -858993460		; ccccccccH
  0001d	f3 ab		 rep stosd
  0001f	59		 pop	 ecx
  00020	89 4d f8	 mov	 DWORD PTR _this$[ebp], ecx
; Line 2235
  00023	8b 45 08	 mov	 eax, DWORD PTR __Val$[ebp]
  00026	50		 push	 eax
  00027	e8 00 00 00 00	 call	 ??$_Kfn@$$CBW4SDL_Scancode@@_N@?$_Tmap_traits@W4SDL_Scancode@@_NU?$less@W4SDL_Scancode@@@std@@V?$allocator@U?$pair@$$CBW4SDL_Scancode@@_N@std@@@3@$0A@@std@@SAABW4SDL_Scancode@@ABU?$pair@$$CBW4SDL_Scancode@@_N@1@@Z ; std::_Tmap_traits<enum SDL_Scancode,bool,std::less<enum SDL_Scancode>,std::allocator<std::pair<enum SDL_Scancode const ,bool> >,0>::_Kfn<enum SDL_Scancode const ,bool>
  0002c	83 c4 04	 add	 esp, 4
; Line 2236
  0002f	5f		 pop	 edi
  00030	5e		 pop	 esi
  00031	5b		 pop	 ebx
  00032	81 c4 cc 00 00
	00		 add	 esp, 204		; 000000ccH
  00038	3b ec		 cmp	 ebp, esp
  0003a	e8 00 00 00 00	 call	 __RTC_CheckEsp
  0003f	8b e5		 mov	 esp, ebp
  00041	5d		 pop	 ebp
  00042	c2 04 00	 ret	 4
?_Kfn@?$_Tree@V?$_Tmap_traits@W4SDL_Scancode@@_NU?$less@W4SDL_Scancode@@@std@@V?$allocator@U?$pair@$$CBW4SDL_Scancode@@_N@std@@@3@$0A@@std@@@std@@IBEABW4SDL_Scancode@@ABU?$pair@$$CBW4SDL_Scancode@@_N@2@@Z ENDP ; std::_Tree<std::_Tmap_traits<enum SDL_Scancode,bool,std::less<enum SDL_Scancode>,std::allocator<std::pair<enum SDL_Scancode const ,bool> >,0> >::_Kfn
_TEXT	ENDS
; Function compile flags: /Odtp /RTCsu /ZI
;	COMDAT ?_Orphan_ptr@?$_Tree@V?$_Tmap_traits@W4SDL_Scancode@@_NU?$less@W4SDL_Scancode@@@std@@V?$allocator@U?$pair@$$CBW4SDL_Scancode@@_N@std@@@3@$0A@@std@@@std@@IBEXAAV12@PAU?$_Tree_node@U?$pair@$$CBW4SDL_Scancode@@_N@std@@PAX@2@@Z
_TEXT	SEGMENT
__Pnext$ = -48						; size = 4
__Lock$ = -36						; size = 4
_this$ = -24						; size = 4
__$ArrayPad$ = -16					; size = 4
__$EHRec$ = -12						; size = 12
__Cont$ = 8						; size = 4
__Ptr$ = 12						; size = 4
?_Orphan_ptr@?$_Tree@V?$_Tmap_traits@W4SDL_Scancode@@_NU?$less@W4SDL_Scancode@@@std@@V?$allocator@U?$pair@$$CBW4SDL_Scancode@@_N@std@@@3@$0A@@std@@@std@@IBEXAAV12@PAU?$_Tree_node@U?$pair@$$CBW4SDL_Scancode@@_N@std@@PAX@2@@Z PROC ; std::_Tree<std::_Tmap_traits<enum SDL_Scancode,bool,std::less<enum SDL_Scancode>,std::allocator<std::pair<enum SDL_Scancode const ,bool> >,0> >::_Orphan_ptr, COMDAT
; _this$ = ecx
; File c:\program files (x86)\microsoft visual studio 12.0\vc\include\xtree
; Line 2212
  00000	55		 push	 ebp
  00001	8b ec		 mov	 ebp, esp
  00003	6a ff		 push	 -1
  00005	68 00 00 00 00	 push	 __ehhandler$?_Orphan_ptr@?$_Tree@V?$_Tmap_traits@W4SDL_Scancode@@_NU?$less@W4SDL_Scancode@@@std@@V?$allocator@U?$pair@$$CBW4SDL_Scancode@@_N@std@@@3@$0A@@std@@@std@@IBEXAAV12@PAU?$_Tree_node@U?$pair@$$CBW4SDL_Scancode@@_N@std@@PAX@2@@Z
  0000a	64 a1 00 00 00
	00		 mov	 eax, DWORD PTR fs:0
  00010	50		 push	 eax
  00011	81 ec e8 00 00
	00		 sub	 esp, 232		; 000000e8H
  00017	53		 push	 ebx
  00018	56		 push	 esi
  00019	57		 push	 edi
  0001a	51		 push	 ecx
  0001b	8d bd 0c ff ff
	ff		 lea	 edi, DWORD PTR [ebp-244]
  00021	b9 3a 00 00 00	 mov	 ecx, 58			; 0000003aH
  00026	b8 cc cc cc cc	 mov	 eax, -858993460		; ccccccccH
  0002b	f3 ab		 rep stosd
  0002d	59		 pop	 ecx
  0002e	a1 00 00 00 00	 mov	 eax, DWORD PTR ___security_cookie
  00033	33 c5		 xor	 eax, ebp
  00035	89 45 f0	 mov	 DWORD PTR __$ArrayPad$[ebp], eax
  00038	50		 push	 eax
  00039	8d 45 f4	 lea	 eax, DWORD PTR __$EHRec$[ebp]
  0003c	64 a3 00 00 00
	00		 mov	 DWORD PTR fs:0, eax
  00042	89 4d e8	 mov	 DWORD PTR _this$[ebp], ecx
; Line 2213
  00045	8b f4		 mov	 esi, esp
  00047	6a 03		 push	 3
  00049	8d 4d dc	 lea	 ecx, DWORD PTR __Lock$[ebp]
  0004c	ff 15 00 00 00
	00		 call	 DWORD PTR __imp_??0_Lockit@std@@QAE@H@Z
  00052	3b f4		 cmp	 esi, esp
  00054	e8 00 00 00 00	 call	 __RTC_CheckEsp
  00059	c7 45 fc 00 00
	00 00		 mov	 DWORD PTR __$EHRec$[ebp+8], 0
; Line 2214
  00060	8b f4		 mov	 esi, esp
  00062	8b 4d 08	 mov	 ecx, DWORD PTR __Cont$[ebp]
  00065	ff 15 00 00 00
	00		 call	 DWORD PTR __imp_?_Getpfirst@_Container_base12@std@@QBEPAPAU_Iterator_base12@2@XZ
  0006b	3b f4		 cmp	 esi, esp
  0006d	e8 00 00 00 00	 call	 __RTC_CheckEsp
  00072	89 45 d0	 mov	 DWORD PTR __Pnext$[ebp], eax
; Line 2215
  00075	83 7d d0 00	 cmp	 DWORD PTR __Pnext$[ebp], 0
  00079	74 57		 je	 SHORT $LN6@Orphan_ptr
$LN5@Orphan_ptr:
; Line 2216
  0007b	8b 45 d0	 mov	 eax, DWORD PTR __Pnext$[ebp]
  0007e	83 38 00	 cmp	 DWORD PTR [eax], 0
  00081	74 4f		 je	 SHORT $LN6@Orphan_ptr
; Line 2218
  00083	8b 45 d0	 mov	 eax, DWORD PTR __Pnext$[ebp]
  00086	8b 08		 mov	 ecx, DWORD PTR [eax]
  00088	8b 55 e8	 mov	 edx, DWORD PTR _this$[ebp]
  0008b	8b 41 08	 mov	 eax, DWORD PTR [ecx+8]
  0008e	3b 42 04	 cmp	 eax, DWORD PTR [edx+4]
  00091	74 13		 je	 SHORT $LN2@Orphan_ptr
  00093	83 7d 0c 00	 cmp	 DWORD PTR __Ptr$[ebp], 0
  00097	74 1c		 je	 SHORT $LN3@Orphan_ptr
  00099	8b 45 d0	 mov	 eax, DWORD PTR __Pnext$[ebp]
  0009c	8b 08		 mov	 ecx, DWORD PTR [eax]
  0009e	8b 51 08	 mov	 edx, DWORD PTR [ecx+8]
  000a1	3b 55 0c	 cmp	 edx, DWORD PTR __Ptr$[ebp]
  000a4	74 0f		 je	 SHORT $LN3@Orphan_ptr
$LN2@Orphan_ptr:
; Line 2219
  000a6	8b 45 d0	 mov	 eax, DWORD PTR __Pnext$[ebp]
  000a9	8b 08		 mov	 ecx, DWORD PTR [eax]
  000ab	e8 00 00 00 00	 call	 ?_Getpnext@_Iterator_base12@std@@QAEPAPAU12@XZ ; std::_Iterator_base12::_Getpnext
  000b0	89 45 d0	 mov	 DWORD PTR __Pnext$[ebp], eax
; Line 2220
  000b3	eb 1b		 jmp	 SHORT $LN1@Orphan_ptr
$LN3@Orphan_ptr:
; Line 2222
  000b5	8b 45 d0	 mov	 eax, DWORD PTR __Pnext$[ebp]
  000b8	8b 08		 mov	 ecx, DWORD PTR [eax]
  000ba	e8 00 00 00 00	 call	 ?_Clrcont@_Iterator_base12@std@@QAEXXZ ; std::_Iterator_base12::_Clrcont
; Line 2223
  000bf	8b 45 d0	 mov	 eax, DWORD PTR __Pnext$[ebp]
  000c2	8b 08		 mov	 ecx, DWORD PTR [eax]
  000c4	e8 00 00 00 00	 call	 ?_Getpnext@_Iterator_base12@std@@QAEPAPAU12@XZ ; std::_Iterator_base12::_Getpnext
  000c9	8b 4d d0	 mov	 ecx, DWORD PTR __Pnext$[ebp]
  000cc	8b 10		 mov	 edx, DWORD PTR [eax]
  000ce	89 11		 mov	 DWORD PTR [ecx], edx
$LN1@Orphan_ptr:
; Line 2224
  000d0	eb a9		 jmp	 SHORT $LN5@Orphan_ptr
$LN6@Orphan_ptr:
; Line 2225
  000d2	c7 45 fc ff ff
	ff ff		 mov	 DWORD PTR __$EHRec$[ebp+8], -1
  000d9	8b f4		 mov	 esi, esp
  000db	8d 4d dc	 lea	 ecx, DWORD PTR __Lock$[ebp]
  000de	ff 15 00 00 00
	00		 call	 DWORD PTR __imp_??1_Lockit@std@@QAE@XZ
  000e4	3b f4		 cmp	 esi, esp
  000e6	e8 00 00 00 00	 call	 __RTC_CheckEsp
  000eb	52		 push	 edx
  000ec	8b cd		 mov	 ecx, ebp
  000ee	50		 push	 eax
  000ef	8d 15 00 00 00
	00		 lea	 edx, DWORD PTR $LN13@Orphan_ptr
  000f5	e8 00 00 00 00	 call	 @_RTC_CheckStackVars@8
  000fa	58		 pop	 eax
  000fb	5a		 pop	 edx
  000fc	8b 4d f4	 mov	 ecx, DWORD PTR __$EHRec$[ebp]
  000ff	64 89 0d 00 00
	00 00		 mov	 DWORD PTR fs:0, ecx
  00106	59		 pop	 ecx
  00107	5f		 pop	 edi
  00108	5e		 pop	 esi
  00109	5b		 pop	 ebx
  0010a	8b 4d f0	 mov	 ecx, DWORD PTR __$ArrayPad$[ebp]
  0010d	33 cd		 xor	 ecx, ebp
  0010f	e8 00 00 00 00	 call	 @__security_check_cookie@4
  00114	81 c4 f4 00 00
	00		 add	 esp, 244		; 000000f4H
  0011a	3b ec		 cmp	 ebp, esp
  0011c	e8 00 00 00 00	 call	 __RTC_CheckEsp
  00121	8b e5		 mov	 esp, ebp
  00123	5d		 pop	 ebp
  00124	c2 08 00	 ret	 8
  00127	90		 npad	 1
$LN13@Orphan_ptr:
  00128	01 00 00 00	 DD	 1
  0012c	00 00 00 00	 DD	 $LN12@Orphan_ptr
$LN12@Orphan_ptr:
  00130	dc ff ff ff	 DD	 -36			; ffffffdcH
  00134	04 00 00 00	 DD	 4
  00138	00 00 00 00	 DD	 $LN10@Orphan_ptr
$LN10@Orphan_ptr:
  0013c	5f		 DB	 95			; 0000005fH
  0013d	4c		 DB	 76			; 0000004cH
  0013e	6f		 DB	 111			; 0000006fH
  0013f	63		 DB	 99			; 00000063H
  00140	6b		 DB	 107			; 0000006bH
  00141	00		 DB	 0
_TEXT	ENDS
;	COMDAT text$x
text$x	SEGMENT
__unwindfunclet$?_Orphan_ptr@?$_Tree@V?$_Tmap_traits@W4SDL_Scancode@@_NU?$less@W4SDL_Scancode@@@std@@V?$allocator@U?$pair@$$CBW4SDL_Scancode@@_N@std@@@3@$0A@@std@@@std@@IBEXAAV12@PAU?$_Tree_node@U?$pair@$$CBW4SDL_Scancode@@_N@std@@PAX@2@@Z$0:
  00000	8b f4		 mov	 esi, esp
  00002	8d 4d dc	 lea	 ecx, DWORD PTR __Lock$[ebp]
  00005	ff 15 00 00 00
	00		 call	 DWORD PTR __imp_??1_Lockit@std@@QAE@XZ
  0000b	3b f4		 cmp	 esi, esp
  0000d	e9 00 00 00 00	 jmp	 __RTC_CheckEsp
__ehhandler$?_Orphan_ptr@?$_Tree@V?$_Tmap_traits@W4SDL_Scancode@@_NU?$less@W4SDL_Scancode@@@std@@V?$allocator@U?$pair@$$CBW4SDL_Scancode@@_N@std@@@3@$0A@@std@@@std@@IBEXAAV12@PAU?$_Tree_node@U?$pair@$$CBW4SDL_Scancode@@_N@std@@PAX@2@@Z:
  00012	8b 54 24 08	 mov	 edx, DWORD PTR [esp+8]
  00016	8d 42 0c	 lea	 eax, DWORD PTR [edx+12]
  00019	8b 8a 08 ff ff
	ff		 mov	 ecx, DWORD PTR [edx-248]
  0001f	33 c8		 xor	 ecx, eax
  00021	e8 00 00 00 00	 call	 @__security_check_cookie@4
  00026	8b 4a fc	 mov	 ecx, DWORD PTR [edx-4]
  00029	33 c8		 xor	 ecx, eax
  0002b	e8 00 00 00 00	 call	 @__security_check_cookie@4
  00030	b8 00 00 00 00	 mov	 eax, OFFSET __ehfuncinfo$?_Orphan_ptr@?$_Tree@V?$_Tmap_traits@W4SDL_Scancode@@_NU?$less@W4SDL_Scancode@@@std@@V?$allocator@U?$pair@$$CBW4SDL_Scancode@@_N@std@@@3@$0A@@std@@@std@@IBEXAAV12@PAU?$_Tree_node@U?$pair@$$CBW4SDL_Scancode@@_N@std@@PAX@2@@Z
  00035	e9 00 00 00 00	 jmp	 ___CxxFrameHandler3
text$x	ENDS
?_Orphan_ptr@?$_Tree@V?$_Tmap_traits@W4SDL_Scancode@@_NU?$less@W4SDL_Scancode@@@std@@V?$allocator@U?$pair@$$CBW4SDL_Scancode@@_N@std@@@3@$0A@@std@@@std@@IBEXAAV12@PAU?$_Tree_node@U?$pair@$$CBW4SDL_Scancode@@_N@std@@PAX@2@@Z ENDP ; std::_Tree<std::_Tmap_traits<enum SDL_Scancode,bool,std::less<enum SDL_Scancode>,std::allocator<std::pair<enum SDL_Scancode const ,bool> >,0> >::_Orphan_ptr
; Function compile flags: /Odtp /RTCsu /ZI
;	COMDAT ?_Rrotate@?$_Tree@V?$_Tmap_traits@W4SDL_Scancode@@_NU?$less@W4SDL_Scancode@@@std@@V?$allocator@U?$pair@$$CBW4SDL_Scancode@@_N@std@@@3@$0A@@std@@@std@@IAEXPAU?$_Tree_node@U?$pair@$$CBW4SDL_Scancode@@_N@std@@PAX@2@@Z
_TEXT	SEGMENT
__Pnode$ = -20						; size = 4
_this$ = -8						; size = 4
__Wherenode$ = 8					; size = 4
?_Rrotate@?$_Tree@V?$_Tmap_traits@W4SDL_Scancode@@_NU?$less@W4SDL_Scancode@@@std@@V?$allocator@U?$pair@$$CBW4SDL_Scancode@@_N@std@@@3@$0A@@std@@@std@@IAEXPAU?$_Tree_node@U?$pair@$$CBW4SDL_Scancode@@_N@std@@PAX@2@@Z PROC ; std::_Tree<std::_Tmap_traits<enum SDL_Scancode,bool,std::less<enum SDL_Scancode>,std::allocator<std::pair<enum SDL_Scancode const ,bool> >,0> >::_Rrotate, COMDAT
; _this$ = ecx
; File c:\program files (x86)\microsoft visual studio 12.0\vc\include\xtree
; Line 2157
  00000	55		 push	 ebp
  00001	8b ec		 mov	 ebp, esp
  00003	81 ec d8 00 00
	00		 sub	 esp, 216		; 000000d8H
  00009	53		 push	 ebx
  0000a	56		 push	 esi
  0000b	57		 push	 edi
  0000c	51		 push	 ecx
  0000d	8d bd 28 ff ff
	ff		 lea	 edi, DWORD PTR [ebp-216]
  00013	b9 36 00 00 00	 mov	 ecx, 54			; 00000036H
  00018	b8 cc cc cc cc	 mov	 eax, -858993460		; ccccccccH
  0001d	f3 ab		 rep stosd
  0001f	59		 pop	 ecx
  00020	89 4d f8	 mov	 DWORD PTR _this$[ebp], ecx
; Line 2158
  00023	8b 45 08	 mov	 eax, DWORD PTR __Wherenode$[ebp]
  00026	50		 push	 eax
  00027	e8 00 00 00 00	 call	 ?_Left@?$_Tree_val@U?$_Tree_simple_types@U?$pair@$$CBW4SDL_Scancode@@_N@std@@@std@@@std@@SAAAPAU?$_Tree_node@U?$pair@$$CBW4SDL_Scancode@@_N@std@@PAX@2@PAU32@@Z ; std::_Tree_val<std::_Tree_simple_types<std::pair<enum SDL_Scancode const ,bool> > >::_Left
  0002c	83 c4 04	 add	 esp, 4
  0002f	8b 08		 mov	 ecx, DWORD PTR [eax]
  00031	89 4d ec	 mov	 DWORD PTR __Pnode$[ebp], ecx
; Line 2159
  00034	8b 45 ec	 mov	 eax, DWORD PTR __Pnode$[ebp]
  00037	50		 push	 eax
  00038	e8 00 00 00 00	 call	 ?_Right@?$_Tree_val@U?$_Tree_simple_types@U?$pair@$$CBW4SDL_Scancode@@_N@std@@@std@@@std@@SAAAPAU?$_Tree_node@U?$pair@$$CBW4SDL_Scancode@@_N@std@@PAX@2@PAU32@@Z ; std::_Tree_val<std::_Tree_simple_types<std::pair<enum SDL_Scancode const ,bool> > >::_Right
  0003d	83 c4 04	 add	 esp, 4
  00040	8b f0		 mov	 esi, eax
  00042	8b 4d 08	 mov	 ecx, DWORD PTR __Wherenode$[ebp]
  00045	51		 push	 ecx
  00046	e8 00 00 00 00	 call	 ?_Left@?$_Tree_val@U?$_Tree_simple_types@U?$pair@$$CBW4SDL_Scancode@@_N@std@@@std@@@std@@SAAAPAU?$_Tree_node@U?$pair@$$CBW4SDL_Scancode@@_N@std@@PAX@2@PAU32@@Z ; std::_Tree_val<std::_Tree_simple_types<std::pair<enum SDL_Scancode const ,bool> > >::_Left
  0004b	83 c4 04	 add	 esp, 4
  0004e	8b 16		 mov	 edx, DWORD PTR [esi]
  00050	89 10		 mov	 DWORD PTR [eax], edx
; Line 2161
  00052	8b 45 ec	 mov	 eax, DWORD PTR __Pnode$[ebp]
  00055	50		 push	 eax
  00056	e8 00 00 00 00	 call	 ?_Right@?$_Tree_val@U?$_Tree_simple_types@U?$pair@$$CBW4SDL_Scancode@@_N@std@@@std@@@std@@SAAAPAU?$_Tree_node@U?$pair@$$CBW4SDL_Scancode@@_N@std@@PAX@2@PAU32@@Z ; std::_Tree_val<std::_Tree_simple_types<std::pair<enum SDL_Scancode const ,bool> > >::_Right
  0005b	83 c4 04	 add	 esp, 4
  0005e	8b 08		 mov	 ecx, DWORD PTR [eax]
  00060	51		 push	 ecx
  00061	e8 00 00 00 00	 call	 ?_Isnil@?$_Tree_val@U?$_Tree_simple_types@U?$pair@$$CBW4SDL_Scancode@@_N@std@@@std@@@std@@SAAADPAU?$_Tree_node@U?$pair@$$CBW4SDL_Scancode@@_N@std@@PAX@2@@Z ; std::_Tree_val<std::_Tree_simple_types<std::pair<enum SDL_Scancode const ,bool> > >::_Isnil
  00066	83 c4 04	 add	 esp, 4
  00069	0f be 10	 movsx	 edx, BYTE PTR [eax]
  0006c	85 d2		 test	 edx, edx
  0006e	75 1c		 jne	 SHORT $LN5@Rrotate
; Line 2162
  00070	8b 45 ec	 mov	 eax, DWORD PTR __Pnode$[ebp]
  00073	50		 push	 eax
  00074	e8 00 00 00 00	 call	 ?_Right@?$_Tree_val@U?$_Tree_simple_types@U?$pair@$$CBW4SDL_Scancode@@_N@std@@@std@@@std@@SAAAPAU?$_Tree_node@U?$pair@$$CBW4SDL_Scancode@@_N@std@@PAX@2@PAU32@@Z ; std::_Tree_val<std::_Tree_simple_types<std::pair<enum SDL_Scancode const ,bool> > >::_Right
  00079	83 c4 04	 add	 esp, 4
  0007c	8b 08		 mov	 ecx, DWORD PTR [eax]
  0007e	51		 push	 ecx
  0007f	e8 00 00 00 00	 call	 ?_Parent@?$_Tree_val@U?$_Tree_simple_types@U?$pair@$$CBW4SDL_Scancode@@_N@std@@@std@@@std@@SAAAPAU?$_Tree_node@U?$pair@$$CBW4SDL_Scancode@@_N@std@@PAX@2@PAU32@@Z ; std::_Tree_val<std::_Tree_simple_types<std::pair<enum SDL_Scancode const ,bool> > >::_Parent
  00084	83 c4 04	 add	 esp, 4
  00087	8b 55 08	 mov	 edx, DWORD PTR __Wherenode$[ebp]
  0008a	89 10		 mov	 DWORD PTR [eax], edx
$LN5@Rrotate:
; Line 2163
  0008c	8b 45 08	 mov	 eax, DWORD PTR __Wherenode$[ebp]
  0008f	50		 push	 eax
  00090	e8 00 00 00 00	 call	 ?_Parent@?$_Tree_val@U?$_Tree_simple_types@U?$pair@$$CBW4SDL_Scancode@@_N@std@@@std@@@std@@SAAAPAU?$_Tree_node@U?$pair@$$CBW4SDL_Scancode@@_N@std@@PAX@2@PAU32@@Z ; std::_Tree_val<std::_Tree_simple_types<std::pair<enum SDL_Scancode const ,bool> > >::_Parent
  00095	83 c4 04	 add	 esp, 4
  00098	8b f0		 mov	 esi, eax
  0009a	8b 4d ec	 mov	 ecx, DWORD PTR __Pnode$[ebp]
  0009d	51		 push	 ecx
  0009e	e8 00 00 00 00	 call	 ?_Parent@?$_Tree_val@U?$_Tree_simple_types@U?$pair@$$CBW4SDL_Scancode@@_N@std@@@std@@@std@@SAAAPAU?$_Tree_node@U?$pair@$$CBW4SDL_Scancode@@_N@std@@PAX@2@PAU32@@Z ; std::_Tree_val<std::_Tree_simple_types<std::pair<enum SDL_Scancode const ,bool> > >::_Parent
  000a3	83 c4 04	 add	 esp, 4
  000a6	8b 16		 mov	 edx, DWORD PTR [esi]
  000a8	89 10		 mov	 DWORD PTR [eax], edx
; Line 2165
  000aa	8b 4d f8	 mov	 ecx, DWORD PTR _this$[ebp]
  000ad	e8 00 00 00 00	 call	 ?_Root@?$_Tree@V?$_Tmap_traits@W4SDL_Scancode@@_NU?$less@W4SDL_Scancode@@@std@@V?$allocator@U?$pair@$$CBW4SDL_Scancode@@_N@std@@@3@$0A@@std@@@std@@IBEAAPAU?$_Tree_node@U?$pair@$$CBW4SDL_Scancode@@_N@std@@PAX@2@XZ ; std::_Tree<std::_Tmap_traits<enum SDL_Scancode,bool,std::less<enum SDL_Scancode>,std::allocator<std::pair<enum SDL_Scancode const ,bool> >,0> >::_Root
  000b2	8b 4d 08	 mov	 ecx, DWORD PTR __Wherenode$[ebp]
  000b5	3b 08		 cmp	 ecx, DWORD PTR [eax]
  000b7	75 0f		 jne	 SHORT $LN4@Rrotate
; Line 2166
  000b9	8b 4d f8	 mov	 ecx, DWORD PTR _this$[ebp]
  000bc	e8 00 00 00 00	 call	 ?_Root@?$_Tree@V?$_Tmap_traits@W4SDL_Scancode@@_NU?$less@W4SDL_Scancode@@@std@@V?$allocator@U?$pair@$$CBW4SDL_Scancode@@_N@std@@@3@$0A@@std@@@std@@IBEAAPAU?$_Tree_node@U?$pair@$$CBW4SDL_Scancode@@_N@std@@PAX@2@XZ ; std::_Tree<std::_Tmap_traits<enum SDL_Scancode,bool,std::less<enum SDL_Scancode>,std::allocator<std::pair<enum SDL_Scancode const ,bool> >,0> >::_Root
  000c1	8b 4d ec	 mov	 ecx, DWORD PTR __Pnode$[ebp]
  000c4	89 08		 mov	 DWORD PTR [eax], ecx
  000c6	eb 58		 jmp	 SHORT $LN3@Rrotate
$LN4@Rrotate:
; Line 2167
  000c8	8b 45 08	 mov	 eax, DWORD PTR __Wherenode$[ebp]
  000cb	50		 push	 eax
  000cc	e8 00 00 00 00	 call	 ?_Parent@?$_Tree_val@U?$_Tree_simple_types@U?$pair@$$CBW4SDL_Scancode@@_N@std@@@std@@@std@@SAAAPAU?$_Tree_node@U?$pair@$$CBW4SDL_Scancode@@_N@std@@PAX@2@PAU32@@Z ; std::_Tree_val<std::_Tree_simple_types<std::pair<enum SDL_Scancode const ,bool> > >::_Parent
  000d1	83 c4 04	 add	 esp, 4
  000d4	8b 08		 mov	 ecx, DWORD PTR [eax]
  000d6	51		 push	 ecx
  000d7	e8 00 00 00 00	 call	 ?_Right@?$_Tree_val@U?$_Tree_simple_types@U?$pair@$$CBW4SDL_Scancode@@_N@std@@@std@@@std@@SAAAPAU?$_Tree_node@U?$pair@$$CBW4SDL_Scancode@@_N@std@@PAX@2@PAU32@@Z ; std::_Tree_val<std::_Tree_simple_types<std::pair<enum SDL_Scancode const ,bool> > >::_Right
  000dc	83 c4 04	 add	 esp, 4
  000df	8b 55 08	 mov	 edx, DWORD PTR __Wherenode$[ebp]
  000e2	3b 10		 cmp	 edx, DWORD PTR [eax]
  000e4	75 1e		 jne	 SHORT $LN2@Rrotate
; Line 2168
  000e6	8b 45 08	 mov	 eax, DWORD PTR __Wherenode$[ebp]
  000e9	50		 push	 eax
  000ea	e8 00 00 00 00	 call	 ?_Parent@?$_Tree_val@U?$_Tree_simple_types@U?$pair@$$CBW4SDL_Scancode@@_N@std@@@std@@@std@@SAAAPAU?$_Tree_node@U?$pair@$$CBW4SDL_Scancode@@_N@std@@PAX@2@PAU32@@Z ; std::_Tree_val<std::_Tree_simple_types<std::pair<enum SDL_Scancode const ,bool> > >::_Parent
  000ef	83 c4 04	 add	 esp, 4
  000f2	8b 08		 mov	 ecx, DWORD PTR [eax]
  000f4	51		 push	 ecx
  000f5	e8 00 00 00 00	 call	 ?_Right@?$_Tree_val@U?$_Tree_simple_types@U?$pair@$$CBW4SDL_Scancode@@_N@std@@@std@@@std@@SAAAPAU?$_Tree_node@U?$pair@$$CBW4SDL_Scancode@@_N@std@@PAX@2@PAU32@@Z ; std::_Tree_val<std::_Tree_simple_types<std::pair<enum SDL_Scancode const ,bool> > >::_Right
  000fa	83 c4 04	 add	 esp, 4
  000fd	8b 55 ec	 mov	 edx, DWORD PTR __Pnode$[ebp]
  00100	89 10		 mov	 DWORD PTR [eax], edx
; Line 2169
  00102	eb 1c		 jmp	 SHORT $LN3@Rrotate
$LN2@Rrotate:
; Line 2170
  00104	8b 45 08	 mov	 eax, DWORD PTR __Wherenode$[ebp]
  00107	50		 push	 eax
  00108	e8 00 00 00 00	 call	 ?_Parent@?$_Tree_val@U?$_Tree_simple_types@U?$pair@$$CBW4SDL_Scancode@@_N@std@@@std@@@std@@SAAAPAU?$_Tree_node@U?$pair@$$CBW4SDL_Scancode@@_N@std@@PAX@2@PAU32@@Z ; std::_Tree_val<std::_Tree_simple_types<std::pair<enum SDL_Scancode const ,bool> > >::_Parent
  0010d	83 c4 04	 add	 esp, 4
  00110	8b 08		 mov	 ecx, DWORD PTR [eax]
  00112	51		 push	 ecx
  00113	e8 00 00 00 00	 call	 ?_Left@?$_Tree_val@U?$_Tree_simple_types@U?$pair@$$CBW4SDL_Scancode@@_N@std@@@std@@@std@@SAAAPAU?$_Tree_node@U?$pair@$$CBW4SDL_Scancode@@_N@std@@PAX@2@PAU32@@Z ; std::_Tree_val<std::_Tree_simple_types<std::pair<enum SDL_Scancode const ,bool> > >::_Left
  00118	83 c4 04	 add	 esp, 4
  0011b	8b 55 ec	 mov	 edx, DWORD PTR __Pnode$[ebp]
  0011e	89 10		 mov	 DWORD PTR [eax], edx
$LN3@Rrotate:
; Line 2172
  00120	8b 45 ec	 mov	 eax, DWORD PTR __Pnode$[ebp]
  00123	50		 push	 eax
  00124	e8 00 00 00 00	 call	 ?_Right@?$_Tree_val@U?$_Tree_simple_types@U?$pair@$$CBW4SDL_Scancode@@_N@std@@@std@@@std@@SAAAPAU?$_Tree_node@U?$pair@$$CBW4SDL_Scancode@@_N@std@@PAX@2@PAU32@@Z ; std::_Tree_val<std::_Tree_simple_types<std::pair<enum SDL_Scancode const ,bool> > >::_Right
  00129	83 c4 04	 add	 esp, 4
  0012c	8b 4d 08	 mov	 ecx, DWORD PTR __Wherenode$[ebp]
  0012f	89 08		 mov	 DWORD PTR [eax], ecx
; Line 2173
  00131	8b 45 08	 mov	 eax, DWORD PTR __Wherenode$[ebp]
  00134	50		 push	 eax
  00135	e8 00 00 00 00	 call	 ?_Parent@?$_Tree_val@U?$_Tree_simple_types@U?$pair@$$CBW4SDL_Scancode@@_N@std@@@std@@@std@@SAAAPAU?$_Tree_node@U?$pair@$$CBW4SDL_Scancode@@_N@std@@PAX@2@PAU32@@Z ; std::_Tree_val<std::_Tree_simple_types<std::pair<enum SDL_Scancode const ,bool> > >::_Parent
  0013a	83 c4 04	 add	 esp, 4
  0013d	8b 4d ec	 mov	 ecx, DWORD PTR __Pnode$[ebp]
  00140	89 08		 mov	 DWORD PTR [eax], ecx
; Line 2174
  00142	5f		 pop	 edi
  00143	5e		 pop	 esi
  00144	5b		 pop	 ebx
  00145	81 c4 d8 00 00
	00		 add	 esp, 216		; 000000d8H
  0014b	3b ec		 cmp	 ebp, esp
  0014d	e8 00 00 00 00	 call	 __RTC_CheckEsp
  00152	8b e5		 mov	 esp, ebp
  00154	5d		 pop	 ebp
  00155	c2 04 00	 ret	 4
?_Rrotate@?$_Tree@V?$_Tmap_traits@W4SDL_Scancode@@_NU?$less@W4SDL_Scancode@@@std@@V?$allocator@U?$pair@$$CBW4SDL_Scancode@@_N@std@@@3@$0A@@std@@@std@@IAEXPAU?$_Tree_node@U?$pair@$$CBW4SDL_Scancode@@_N@std@@PAX@2@@Z ENDP ; std::_Tree<std::_Tmap_traits<enum SDL_Scancode,bool,std::less<enum SDL_Scancode>,std::allocator<std::pair<enum SDL_Scancode const ,bool> >,0> >::_Rrotate
_TEXT	ENDS
; Function compile flags: /Odtp /RTCsu /ZI
;	COMDAT ?_Root@?$_Tree@V?$_Tmap_traits@W4SDL_Scancode@@_NU?$less@W4SDL_Scancode@@@std@@V?$allocator@U?$pair@$$CBW4SDL_Scancode@@_N@std@@@3@$0A@@std@@@std@@IBEAAPAU?$_Tree_node@U?$pair@$$CBW4SDL_Scancode@@_N@std@@PAX@2@XZ
_TEXT	SEGMENT
_this$ = -8						; size = 4
?_Root@?$_Tree@V?$_Tmap_traits@W4SDL_Scancode@@_NU?$less@W4SDL_Scancode@@@std@@V?$allocator@U?$pair@$$CBW4SDL_Scancode@@_N@std@@@3@$0A@@std@@@std@@IBEAAPAU?$_Tree_node@U?$pair@$$CBW4SDL_Scancode@@_N@std@@PAX@2@XZ PROC ; std::_Tree<std::_Tmap_traits<enum SDL_Scancode,bool,std::less<enum SDL_Scancode>,std::allocator<std::pair<enum SDL_Scancode const ,bool> >,0> >::_Root, COMDAT
; _this$ = ecx
; File c:\program files (x86)\microsoft visual studio 12.0\vc\include\xtree
; Line 2152
  00000	55		 push	 ebp
  00001	8b ec		 mov	 ebp, esp
  00003	81 ec cc 00 00
	00		 sub	 esp, 204		; 000000ccH
  00009	53		 push	 ebx
  0000a	56		 push	 esi
  0000b	57		 push	 edi
  0000c	51		 push	 ecx
  0000d	8d bd 34 ff ff
	ff		 lea	 edi, DWORD PTR [ebp-204]
  00013	b9 33 00 00 00	 mov	 ecx, 51			; 00000033H
  00018	b8 cc cc cc cc	 mov	 eax, -858993460		; ccccccccH
  0001d	f3 ab		 rep stosd
  0001f	59		 pop	 ecx
  00020	89 4d f8	 mov	 DWORD PTR _this$[ebp], ecx
; Line 2153
  00023	8b 45 f8	 mov	 eax, DWORD PTR _this$[ebp]
  00026	8b 48 04	 mov	 ecx, DWORD PTR [eax+4]
  00029	51		 push	 ecx
  0002a	e8 00 00 00 00	 call	 ?_Parent@?$_Tree_val@U?$_Tree_simple_types@U?$pair@$$CBW4SDL_Scancode@@_N@std@@@std@@@std@@SAAAPAU?$_Tree_node@U?$pair@$$CBW4SDL_Scancode@@_N@std@@PAX@2@PAU32@@Z ; std::_Tree_val<std::_Tree_simple_types<std::pair<enum SDL_Scancode const ,bool> > >::_Parent
  0002f	83 c4 04	 add	 esp, 4
; Line 2154
  00032	5f		 pop	 edi
  00033	5e		 pop	 esi
  00034	5b		 pop	 ebx
  00035	81 c4 cc 00 00
	00		 add	 esp, 204		; 000000ccH
  0003b	3b ec		 cmp	 ebp, esp
  0003d	e8 00 00 00 00	 call	 __RTC_CheckEsp
  00042	8b e5		 mov	 esp, ebp
  00044	5d		 pop	 ebp
  00045	c3		 ret	 0
?_Root@?$_Tree@V?$_Tmap_traits@W4SDL_Scancode@@_NU?$less@W4SDL_Scancode@@@std@@V?$allocator@U?$pair@$$CBW4SDL_Scancode@@_N@std@@@3@$0A@@std@@@std@@IBEAAPAU?$_Tree_node@U?$pair@$$CBW4SDL_Scancode@@_N@std@@PAX@2@XZ ENDP ; std::_Tree<std::_Tmap_traits<enum SDL_Scancode,bool,std::less<enum SDL_Scancode>,std::allocator<std::pair<enum SDL_Scancode const ,bool> >,0> >::_Root
_TEXT	ENDS
; Function compile flags: /Odtp /RTCsu /ZI
;	COMDAT ?_Rmost@?$_Tree@V?$_Tmap_traits@W4SDL_Scancode@@_NU?$less@W4SDL_Scancode@@@std@@V?$allocator@U?$pair@$$CBW4SDL_Scancode@@_N@std@@@3@$0A@@std@@@std@@IBEAAPAU?$_Tree_node@U?$pair@$$CBW4SDL_Scancode@@_N@std@@PAX@2@XZ
_TEXT	SEGMENT
_this$ = -8						; size = 4
?_Rmost@?$_Tree@V?$_Tmap_traits@W4SDL_Scancode@@_NU?$less@W4SDL_Scancode@@@std@@V?$allocator@U?$pair@$$CBW4SDL_Scancode@@_N@std@@@3@$0A@@std@@@std@@IBEAAPAU?$_Tree_node@U?$pair@$$CBW4SDL_Scancode@@_N@std@@PAX@2@XZ PROC ; std::_Tree<std::_Tmap_traits<enum SDL_Scancode,bool,std::less<enum SDL_Scancode>,std::allocator<std::pair<enum SDL_Scancode const ,bool> >,0> >::_Rmost, COMDAT
; _this$ = ecx
; File c:\program files (x86)\microsoft visual studio 12.0\vc\include\xtree
; Line 2147
  00000	55		 push	 ebp
  00001	8b ec		 mov	 ebp, esp
  00003	81 ec cc 00 00
	00		 sub	 esp, 204		; 000000ccH
  00009	53		 push	 ebx
  0000a	56		 push	 esi
  0000b	57		 push	 edi
  0000c	51		 push	 ecx
  0000d	8d bd 34 ff ff
	ff		 lea	 edi, DWORD PTR [ebp-204]
  00013	b9 33 00 00 00	 mov	 ecx, 51			; 00000033H
  00018	b8 cc cc cc cc	 mov	 eax, -858993460		; ccccccccH
  0001d	f3 ab		 rep stosd
  0001f	59		 pop	 ecx
  00020	89 4d f8	 mov	 DWORD PTR _this$[ebp], ecx
; Line 2148
  00023	8b 45 f8	 mov	 eax, DWORD PTR _this$[ebp]
  00026	8b 48 04	 mov	 ecx, DWORD PTR [eax+4]
  00029	51		 push	 ecx
  0002a	e8 00 00 00 00	 call	 ?_Right@?$_Tree_val@U?$_Tree_simple_types@U?$pair@$$CBW4SDL_Scancode@@_N@std@@@std@@@std@@SAAAPAU?$_Tree_node@U?$pair@$$CBW4SDL_Scancode@@_N@std@@PAX@2@PAU32@@Z ; std::_Tree_val<std::_Tree_simple_types<std::pair<enum SDL_Scancode const ,bool> > >::_Right
  0002f	83 c4 04	 add	 esp, 4
; Line 2149
  00032	5f		 pop	 edi
  00033	5e		 pop	 esi
  00034	5b		 pop	 ebx
  00035	81 c4 cc 00 00
	00		 add	 esp, 204		; 000000ccH
  0003b	3b ec		 cmp	 ebp, esp
  0003d	e8 00 00 00 00	 call	 __RTC_CheckEsp
  00042	8b e5		 mov	 esp, ebp
  00044	5d		 pop	 ebp
  00045	c3		 ret	 0
?_Rmost@?$_Tree@V?$_Tmap_traits@W4SDL_Scancode@@_NU?$less@W4SDL_Scancode@@@std@@V?$allocator@U?$pair@$$CBW4SDL_Scancode@@_N@std@@@3@$0A@@std@@@std@@IBEAAPAU?$_Tree_node@U?$pair@$$CBW4SDL_Scancode@@_N@std@@PAX@2@XZ ENDP ; std::_Tree<std::_Tmap_traits<enum SDL_Scancode,bool,std::less<enum SDL_Scancode>,std::allocator<std::pair<enum SDL_Scancode const ,bool> >,0> >::_Rmost
_TEXT	ENDS
; Function compile flags: /Odtp /RTCsu /ZI
;	COMDAT ?_Lrotate@?$_Tree@V?$_Tmap_traits@W4SDL_Scancode@@_NU?$less@W4SDL_Scancode@@@std@@V?$allocator@U?$pair@$$CBW4SDL_Scancode@@_N@std@@@3@$0A@@std@@@std@@IAEXPAU?$_Tree_node@U?$pair@$$CBW4SDL_Scancode@@_N@std@@PAX@2@@Z
_TEXT	SEGMENT
__Pnode$ = -20						; size = 4
_this$ = -8						; size = 4
__Wherenode$ = 8					; size = 4
?_Lrotate@?$_Tree@V?$_Tmap_traits@W4SDL_Scancode@@_NU?$less@W4SDL_Scancode@@@std@@V?$allocator@U?$pair@$$CBW4SDL_Scancode@@_N@std@@@3@$0A@@std@@@std@@IAEXPAU?$_Tree_node@U?$pair@$$CBW4SDL_Scancode@@_N@std@@PAX@2@@Z PROC ; std::_Tree<std::_Tmap_traits<enum SDL_Scancode,bool,std::less<enum SDL_Scancode>,std::allocator<std::pair<enum SDL_Scancode const ,bool> >,0> >::_Lrotate, COMDAT
; _this$ = ecx
; File c:\program files (x86)\microsoft visual studio 12.0\vc\include\xtree
; Line 2127
  00000	55		 push	 ebp
  00001	8b ec		 mov	 ebp, esp
  00003	81 ec d8 00 00
	00		 sub	 esp, 216		; 000000d8H
  00009	53		 push	 ebx
  0000a	56		 push	 esi
  0000b	57		 push	 edi
  0000c	51		 push	 ecx
  0000d	8d bd 28 ff ff
	ff		 lea	 edi, DWORD PTR [ebp-216]
  00013	b9 36 00 00 00	 mov	 ecx, 54			; 00000036H
  00018	b8 cc cc cc cc	 mov	 eax, -858993460		; ccccccccH
  0001d	f3 ab		 rep stosd
  0001f	59		 pop	 ecx
  00020	89 4d f8	 mov	 DWORD PTR _this$[ebp], ecx
; Line 2128
  00023	8b 45 08	 mov	 eax, DWORD PTR __Wherenode$[ebp]
  00026	50		 push	 eax
  00027	e8 00 00 00 00	 call	 ?_Right@?$_Tree_val@U?$_Tree_simple_types@U?$pair@$$CBW4SDL_Scancode@@_N@std@@@std@@@std@@SAAAPAU?$_Tree_node@U?$pair@$$CBW4SDL_Scancode@@_N@std@@PAX@2@PAU32@@Z ; std::_Tree_val<std::_Tree_simple_types<std::pair<enum SDL_Scancode const ,bool> > >::_Right
  0002c	83 c4 04	 add	 esp, 4
  0002f	8b 08		 mov	 ecx, DWORD PTR [eax]
  00031	89 4d ec	 mov	 DWORD PTR __Pnode$[ebp], ecx
; Line 2129
  00034	8b 45 ec	 mov	 eax, DWORD PTR __Pnode$[ebp]
  00037	50		 push	 eax
  00038	e8 00 00 00 00	 call	 ?_Left@?$_Tree_val@U?$_Tree_simple_types@U?$pair@$$CBW4SDL_Scancode@@_N@std@@@std@@@std@@SAAAPAU?$_Tree_node@U?$pair@$$CBW4SDL_Scancode@@_N@std@@PAX@2@PAU32@@Z ; std::_Tree_val<std::_Tree_simple_types<std::pair<enum SDL_Scancode const ,bool> > >::_Left
  0003d	83 c4 04	 add	 esp, 4
  00040	8b f0		 mov	 esi, eax
  00042	8b 4d 08	 mov	 ecx, DWORD PTR __Wherenode$[ebp]
  00045	51		 push	 ecx
  00046	e8 00 00 00 00	 call	 ?_Right@?$_Tree_val@U?$_Tree_simple_types@U?$pair@$$CBW4SDL_Scancode@@_N@std@@@std@@@std@@SAAAPAU?$_Tree_node@U?$pair@$$CBW4SDL_Scancode@@_N@std@@PAX@2@PAU32@@Z ; std::_Tree_val<std::_Tree_simple_types<std::pair<enum SDL_Scancode const ,bool> > >::_Right
  0004b	83 c4 04	 add	 esp, 4
  0004e	8b 16		 mov	 edx, DWORD PTR [esi]
  00050	89 10		 mov	 DWORD PTR [eax], edx
; Line 2131
  00052	8b 45 ec	 mov	 eax, DWORD PTR __Pnode$[ebp]
  00055	50		 push	 eax
  00056	e8 00 00 00 00	 call	 ?_Left@?$_Tree_val@U?$_Tree_simple_types@U?$pair@$$CBW4SDL_Scancode@@_N@std@@@std@@@std@@SAAAPAU?$_Tree_node@U?$pair@$$CBW4SDL_Scancode@@_N@std@@PAX@2@PAU32@@Z ; std::_Tree_val<std::_Tree_simple_types<std::pair<enum SDL_Scancode const ,bool> > >::_Left
  0005b	83 c4 04	 add	 esp, 4
  0005e	8b 08		 mov	 ecx, DWORD PTR [eax]
  00060	51		 push	 ecx
  00061	e8 00 00 00 00	 call	 ?_Isnil@?$_Tree_val@U?$_Tree_simple_types@U?$pair@$$CBW4SDL_Scancode@@_N@std@@@std@@@std@@SAAADPAU?$_Tree_node@U?$pair@$$CBW4SDL_Scancode@@_N@std@@PAX@2@@Z ; std::_Tree_val<std::_Tree_simple_types<std::pair<enum SDL_Scancode const ,bool> > >::_Isnil
  00066	83 c4 04	 add	 esp, 4
  00069	0f be 10	 movsx	 edx, BYTE PTR [eax]
  0006c	85 d2		 test	 edx, edx
  0006e	75 1c		 jne	 SHORT $LN5@Lrotate
; Line 2132
  00070	8b 45 ec	 mov	 eax, DWORD PTR __Pnode$[ebp]
  00073	50		 push	 eax
  00074	e8 00 00 00 00	 call	 ?_Left@?$_Tree_val@U?$_Tree_simple_types@U?$pair@$$CBW4SDL_Scancode@@_N@std@@@std@@@std@@SAAAPAU?$_Tree_node@U?$pair@$$CBW4SDL_Scancode@@_N@std@@PAX@2@PAU32@@Z ; std::_Tree_val<std::_Tree_simple_types<std::pair<enum SDL_Scancode const ,bool> > >::_Left
  00079	83 c4 04	 add	 esp, 4
  0007c	8b 08		 mov	 ecx, DWORD PTR [eax]
  0007e	51		 push	 ecx
  0007f	e8 00 00 00 00	 call	 ?_Parent@?$_Tree_val@U?$_Tree_simple_types@U?$pair@$$CBW4SDL_Scancode@@_N@std@@@std@@@std@@SAAAPAU?$_Tree_node@U?$pair@$$CBW4SDL_Scancode@@_N@std@@PAX@2@PAU32@@Z ; std::_Tree_val<std::_Tree_simple_types<std::pair<enum SDL_Scancode const ,bool> > >::_Parent
  00084	83 c4 04	 add	 esp, 4
  00087	8b 55 08	 mov	 edx, DWORD PTR __Wherenode$[ebp]
  0008a	89 10		 mov	 DWORD PTR [eax], edx
$LN5@Lrotate:
; Line 2133
  0008c	8b 45 08	 mov	 eax, DWORD PTR __Wherenode$[ebp]
  0008f	50		 push	 eax
  00090	e8 00 00 00 00	 call	 ?_Parent@?$_Tree_val@U?$_Tree_simple_types@U?$pair@$$CBW4SDL_Scancode@@_N@std@@@std@@@std@@SAAAPAU?$_Tree_node@U?$pair@$$CBW4SDL_Scancode@@_N@std@@PAX@2@PAU32@@Z ; std::_Tree_val<std::_Tree_simple_types<std::pair<enum SDL_Scancode const ,bool> > >::_Parent
  00095	83 c4 04	 add	 esp, 4
  00098	8b f0		 mov	 esi, eax
  0009a	8b 4d ec	 mov	 ecx, DWORD PTR __Pnode$[ebp]
  0009d	51		 push	 ecx
  0009e	e8 00 00 00 00	 call	 ?_Parent@?$_Tree_val@U?$_Tree_simple_types@U?$pair@$$CBW4SDL_Scancode@@_N@std@@@std@@@std@@SAAAPAU?$_Tree_node@U?$pair@$$CBW4SDL_Scancode@@_N@std@@PAX@2@PAU32@@Z ; std::_Tree_val<std::_Tree_simple_types<std::pair<enum SDL_Scancode const ,bool> > >::_Parent
  000a3	83 c4 04	 add	 esp, 4
  000a6	8b 16		 mov	 edx, DWORD PTR [esi]
  000a8	89 10		 mov	 DWORD PTR [eax], edx
; Line 2135
  000aa	8b 4d f8	 mov	 ecx, DWORD PTR _this$[ebp]
  000ad	e8 00 00 00 00	 call	 ?_Root@?$_Tree@V?$_Tmap_traits@W4SDL_Scancode@@_NU?$less@W4SDL_Scancode@@@std@@V?$allocator@U?$pair@$$CBW4SDL_Scancode@@_N@std@@@3@$0A@@std@@@std@@IBEAAPAU?$_Tree_node@U?$pair@$$CBW4SDL_Scancode@@_N@std@@PAX@2@XZ ; std::_Tree<std::_Tmap_traits<enum SDL_Scancode,bool,std::less<enum SDL_Scancode>,std::allocator<std::pair<enum SDL_Scancode const ,bool> >,0> >::_Root
  000b2	8b 4d 08	 mov	 ecx, DWORD PTR __Wherenode$[ebp]
  000b5	3b 08		 cmp	 ecx, DWORD PTR [eax]
  000b7	75 0f		 jne	 SHORT $LN4@Lrotate
; Line 2136
  000b9	8b 4d f8	 mov	 ecx, DWORD PTR _this$[ebp]
  000bc	e8 00 00 00 00	 call	 ?_Root@?$_Tree@V?$_Tmap_traits@W4SDL_Scancode@@_NU?$less@W4SDL_Scancode@@@std@@V?$allocator@U?$pair@$$CBW4SDL_Scancode@@_N@std@@@3@$0A@@std@@@std@@IBEAAPAU?$_Tree_node@U?$pair@$$CBW4SDL_Scancode@@_N@std@@PAX@2@XZ ; std::_Tree<std::_Tmap_traits<enum SDL_Scancode,bool,std::less<enum SDL_Scancode>,std::allocator<std::pair<enum SDL_Scancode const ,bool> >,0> >::_Root
  000c1	8b 4d ec	 mov	 ecx, DWORD PTR __Pnode$[ebp]
  000c4	89 08		 mov	 DWORD PTR [eax], ecx
  000c6	eb 58		 jmp	 SHORT $LN3@Lrotate
$LN4@Lrotate:
; Line 2137
  000c8	8b 45 08	 mov	 eax, DWORD PTR __Wherenode$[ebp]
  000cb	50		 push	 eax
  000cc	e8 00 00 00 00	 call	 ?_Parent@?$_Tree_val@U?$_Tree_simple_types@U?$pair@$$CBW4SDL_Scancode@@_N@std@@@std@@@std@@SAAAPAU?$_Tree_node@U?$pair@$$CBW4SDL_Scancode@@_N@std@@PAX@2@PAU32@@Z ; std::_Tree_val<std::_Tree_simple_types<std::pair<enum SDL_Scancode const ,bool> > >::_Parent
  000d1	83 c4 04	 add	 esp, 4
  000d4	8b 08		 mov	 ecx, DWORD PTR [eax]
  000d6	51		 push	 ecx
  000d7	e8 00 00 00 00	 call	 ?_Left@?$_Tree_val@U?$_Tree_simple_types@U?$pair@$$CBW4SDL_Scancode@@_N@std@@@std@@@std@@SAAAPAU?$_Tree_node@U?$pair@$$CBW4SDL_Scancode@@_N@std@@PAX@2@PAU32@@Z ; std::_Tree_val<std::_Tree_simple_types<std::pair<enum SDL_Scancode const ,bool> > >::_Left
  000dc	83 c4 04	 add	 esp, 4
  000df	8b 55 08	 mov	 edx, DWORD PTR __Wherenode$[ebp]
  000e2	3b 10		 cmp	 edx, DWORD PTR [eax]
  000e4	75 1e		 jne	 SHORT $LN2@Lrotate
; Line 2138
  000e6	8b 45 08	 mov	 eax, DWORD PTR __Wherenode$[ebp]
  000e9	50		 push	 eax
  000ea	e8 00 00 00 00	 call	 ?_Parent@?$_Tree_val@U?$_Tree_simple_types@U?$pair@$$CBW4SDL_Scancode@@_N@std@@@std@@@std@@SAAAPAU?$_Tree_node@U?$pair@$$CBW4SDL_Scancode@@_N@std@@PAX@2@PAU32@@Z ; std::_Tree_val<std::_Tree_simple_types<std::pair<enum SDL_Scancode const ,bool> > >::_Parent
  000ef	83 c4 04	 add	 esp, 4
  000f2	8b 08		 mov	 ecx, DWORD PTR [eax]
  000f4	51		 push	 ecx
  000f5	e8 00 00 00 00	 call	 ?_Left@?$_Tree_val@U?$_Tree_simple_types@U?$pair@$$CBW4SDL_Scancode@@_N@std@@@std@@@std@@SAAAPAU?$_Tree_node@U?$pair@$$CBW4SDL_Scancode@@_N@std@@PAX@2@PAU32@@Z ; std::_Tree_val<std::_Tree_simple_types<std::pair<enum SDL_Scancode const ,bool> > >::_Left
  000fa	83 c4 04	 add	 esp, 4
  000fd	8b 55 ec	 mov	 edx, DWORD PTR __Pnode$[ebp]
  00100	89 10		 mov	 DWORD PTR [eax], edx
; Line 2139
  00102	eb 1c		 jmp	 SHORT $LN3@Lrotate
$LN2@Lrotate:
; Line 2140
  00104	8b 45 08	 mov	 eax, DWORD PTR __Wherenode$[ebp]
  00107	50		 push	 eax
  00108	e8 00 00 00 00	 call	 ?_Parent@?$_Tree_val@U?$_Tree_simple_types@U?$pair@$$CBW4SDL_Scancode@@_N@std@@@std@@@std@@SAAAPAU?$_Tree_node@U?$pair@$$CBW4SDL_Scancode@@_N@std@@PAX@2@PAU32@@Z ; std::_Tree_val<std::_Tree_simple_types<std::pair<enum SDL_Scancode const ,bool> > >::_Parent
  0010d	83 c4 04	 add	 esp, 4
  00110	8b 08		 mov	 ecx, DWORD PTR [eax]
  00112	51		 push	 ecx
  00113	e8 00 00 00 00	 call	 ?_Right@?$_Tree_val@U?$_Tree_simple_types@U?$pair@$$CBW4SDL_Scancode@@_N@std@@@std@@@std@@SAAAPAU?$_Tree_node@U?$pair@$$CBW4SDL_Scancode@@_N@std@@PAX@2@PAU32@@Z ; std::_Tree_val<std::_Tree_simple_types<std::pair<enum SDL_Scancode const ,bool> > >::_Right
  00118	83 c4 04	 add	 esp, 4
  0011b	8b 55 ec	 mov	 edx, DWORD PTR __Pnode$[ebp]
  0011e	89 10		 mov	 DWORD PTR [eax], edx
$LN3@Lrotate:
; Line 2142
  00120	8b 45 ec	 mov	 eax, DWORD PTR __Pnode$[ebp]
  00123	50		 push	 eax
  00124	e8 00 00 00 00	 call	 ?_Left@?$_Tree_val@U?$_Tree_simple_types@U?$pair@$$CBW4SDL_Scancode@@_N@std@@@std@@@std@@SAAAPAU?$_Tree_node@U?$pair@$$CBW4SDL_Scancode@@_N@std@@PAX@2@PAU32@@Z ; std::_Tree_val<std::_Tree_simple_types<std::pair<enum SDL_Scancode const ,bool> > >::_Left
  00129	83 c4 04	 add	 esp, 4
  0012c	8b 4d 08	 mov	 ecx, DWORD PTR __Wherenode$[ebp]
  0012f	89 08		 mov	 DWORD PTR [eax], ecx
; Line 2143
  00131	8b 45 08	 mov	 eax, DWORD PTR __Wherenode$[ebp]
  00134	50		 push	 eax
  00135	e8 00 00 00 00	 call	 ?_Parent@?$_Tree_val@U?$_Tree_simple_types@U?$pair@$$CBW4SDL_Scancode@@_N@std@@@std@@@std@@SAAAPAU?$_Tree_node@U?$pair@$$CBW4SDL_Scancode@@_N@std@@PAX@2@PAU32@@Z ; std::_Tree_val<std::_Tree_simple_types<std::pair<enum SDL_Scancode const ,bool> > >::_Parent
  0013a	83 c4 04	 add	 esp, 4
  0013d	8b 4d ec	 mov	 ecx, DWORD PTR __Pnode$[ebp]
  00140	89 08		 mov	 DWORD PTR [eax], ecx
; Line 2144
  00142	5f		 pop	 edi
  00143	5e		 pop	 esi
  00144	5b		 pop	 ebx
  00145	81 c4 d8 00 00
	00		 add	 esp, 216		; 000000d8H
  0014b	3b ec		 cmp	 ebp, esp
  0014d	e8 00 00 00 00	 call	 __RTC_CheckEsp
  00152	8b e5		 mov	 esp, ebp
  00154	5d		 pop	 ebp
  00155	c2 04 00	 ret	 4
?_Lrotate@?$_Tree@V?$_Tmap_traits@W4SDL_Scancode@@_NU?$less@W4SDL_Scancode@@@std@@V?$allocator@U?$pair@$$CBW4SDL_Scancode@@_N@std@@@3@$0A@@std@@@std@@IAEXPAU?$_Tree_node@U?$pair@$$CBW4SDL_Scancode@@_N@std@@PAX@2@@Z ENDP ; std::_Tree<std::_Tmap_traits<enum SDL_Scancode,bool,std::less<enum SDL_Scancode>,std::allocator<std::pair<enum SDL_Scancode const ,bool> >,0> >::_Lrotate
_TEXT	ENDS
; Function compile flags: /Odtp /RTCsu /ZI
;	COMDAT ?_Lmost@?$_Tree@V?$_Tmap_traits@W4SDL_Scancode@@_NU?$less@W4SDL_Scancode@@@std@@V?$allocator@U?$pair@$$CBW4SDL_Scancode@@_N@std@@@3@$0A@@std@@@std@@IBEAAPAU?$_Tree_node@U?$pair@$$CBW4SDL_Scancode@@_N@std@@PAX@2@XZ
_TEXT	SEGMENT
_this$ = -8						; size = 4
?_Lmost@?$_Tree@V?$_Tmap_traits@W4SDL_Scancode@@_NU?$less@W4SDL_Scancode@@@std@@V?$allocator@U?$pair@$$CBW4SDL_Scancode@@_N@std@@@3@$0A@@std@@@std@@IBEAAPAU?$_Tree_node@U?$pair@$$CBW4SDL_Scancode@@_N@std@@PAX@2@XZ PROC ; std::_Tree<std::_Tmap_traits<enum SDL_Scancode,bool,std::less<enum SDL_Scancode>,std::allocator<std::pair<enum SDL_Scancode const ,bool> >,0> >::_Lmost, COMDAT
; _this$ = ecx
; File c:\program files (x86)\microsoft visual studio 12.0\vc\include\xtree
; Line 2122
  00000	55		 push	 ebp
  00001	8b ec		 mov	 ebp, esp
  00003	81 ec cc 00 00
	00		 sub	 esp, 204		; 000000ccH
  00009	53		 push	 ebx
  0000a	56		 push	 esi
  0000b	57		 push	 edi
  0000c	51		 push	 ecx
  0000d	8d bd 34 ff ff
	ff		 lea	 edi, DWORD PTR [ebp-204]
  00013	b9 33 00 00 00	 mov	 ecx, 51			; 00000033H
  00018	b8 cc cc cc cc	 mov	 eax, -858993460		; ccccccccH
  0001d	f3 ab		 rep stosd
  0001f	59		 pop	 ecx
  00020	89 4d f8	 mov	 DWORD PTR _this$[ebp], ecx
; Line 2123
  00023	8b 45 f8	 mov	 eax, DWORD PTR _this$[ebp]
  00026	8b 48 04	 mov	 ecx, DWORD PTR [eax+4]
  00029	51		 push	 ecx
  0002a	e8 00 00 00 00	 call	 ?_Left@?$_Tree_val@U?$_Tree_simple_types@U?$pair@$$CBW4SDL_Scancode@@_N@std@@@std@@@std@@SAAAPAU?$_Tree_node@U?$pair@$$CBW4SDL_Scancode@@_N@std@@PAX@2@PAU32@@Z ; std::_Tree_val<std::_Tree_simple_types<std::pair<enum SDL_Scancode const ,bool> > >::_Left
  0002f	83 c4 04	 add	 esp, 4
; Line 2124
  00032	5f		 pop	 edi
  00033	5e		 pop	 esi
  00034	5b		 pop	 ebx
  00035	81 c4 cc 00 00
	00		 add	 esp, 204		; 000000ccH
  0003b	3b ec		 cmp	 ebp, esp
  0003d	e8 00 00 00 00	 call	 __RTC_CheckEsp
  00042	8b e5		 mov	 esp, ebp
  00044	5d		 pop	 ebp
  00045	c3		 ret	 0
?_Lmost@?$_Tree@V?$_Tmap_traits@W4SDL_Scancode@@_NU?$less@W4SDL_Scancode@@@std@@V?$allocator@U?$pair@$$CBW4SDL_Scancode@@_N@std@@@3@$0A@@std@@@std@@IBEAAPAU?$_Tree_node@U?$pair@$$CBW4SDL_Scancode@@_N@std@@PAX@2@XZ ENDP ; std::_Tree<std::_Tmap_traits<enum SDL_Scancode,bool,std::less<enum SDL_Scancode>,std::allocator<std::pair<enum SDL_Scancode const ,bool> >,0> >::_Lmost
_TEXT	ENDS
; Function compile flags: /Odtp /RTCsu /ZI
;	COMDAT ?_Lbound@?$_Tree@V?$_Tmap_traits@W4SDL_Scancode@@_NU?$less@W4SDL_Scancode@@@std@@V?$allocator@U?$pair@$$CBW4SDL_Scancode@@_N@std@@@3@$0A@@std@@@std@@IAEPAU?$_Tree_node@U?$pair@$$CBW4SDL_Scancode@@_N@std@@PAX@2@ABW4SDL_Scancode@@@Z
_TEXT	SEGMENT
$T1 = -233						; size = 1
__Wherenode$ = -32					; size = 4
__Pnode$ = -20						; size = 4
_this$ = -8						; size = 4
__Keyval$ = 8						; size = 4
?_Lbound@?$_Tree@V?$_Tmap_traits@W4SDL_Scancode@@_NU?$less@W4SDL_Scancode@@@std@@V?$allocator@U?$pair@$$CBW4SDL_Scancode@@_N@std@@@3@$0A@@std@@@std@@IAEPAU?$_Tree_node@U?$pair@$$CBW4SDL_Scancode@@_N@std@@PAX@2@ABW4SDL_Scancode@@@Z PROC ; std::_Tree<std::_Tmap_traits<enum SDL_Scancode,bool,std::less<enum SDL_Scancode>,std::allocator<std::pair<enum SDL_Scancode const ,bool> >,0> >::_Lbound, COMDAT
; _this$ = ecx
; File c:\program files (x86)\microsoft visual studio 12.0\vc\include\xtree
; Line 2105
  00000	55		 push	 ebp
  00001	8b ec		 mov	 ebp, esp
  00003	81 ec f0 00 00
	00		 sub	 esp, 240		; 000000f0H
  00009	53		 push	 ebx
  0000a	56		 push	 esi
  0000b	57		 push	 edi
  0000c	51		 push	 ecx
  0000d	8d bd 10 ff ff
	ff		 lea	 edi, DWORD PTR [ebp-240]
  00013	b9 3c 00 00 00	 mov	 ecx, 60			; 0000003cH
  00018	b8 cc cc cc cc	 mov	 eax, -858993460		; ccccccccH
  0001d	f3 ab		 rep stosd
  0001f	59		 pop	 ecx
  00020	89 4d f8	 mov	 DWORD PTR _this$[ebp], ecx
; Line 2106
  00023	8b 4d f8	 mov	 ecx, DWORD PTR _this$[ebp]
  00026	e8 00 00 00 00	 call	 ?_Root@?$_Tree@V?$_Tmap_traits@W4SDL_Scancode@@_NU?$less@W4SDL_Scancode@@@std@@V?$allocator@U?$pair@$$CBW4SDL_Scancode@@_N@std@@@3@$0A@@std@@@std@@IBEAAPAU?$_Tree_node@U?$pair@$$CBW4SDL_Scancode@@_N@std@@PAX@2@XZ ; std::_Tree<std::_Tmap_traits<enum SDL_Scancode,bool,std::less<enum SDL_Scancode>,std::allocator<std::pair<enum SDL_Scancode const ,bool> >,0> >::_Root
  0002b	8b 00		 mov	 eax, DWORD PTR [eax]
  0002d	89 45 ec	 mov	 DWORD PTR __Pnode$[ebp], eax
; Line 2107
  00030	8b 45 f8	 mov	 eax, DWORD PTR _this$[ebp]
  00033	8b 48 04	 mov	 ecx, DWORD PTR [eax+4]
  00036	89 4d e0	 mov	 DWORD PTR __Wherenode$[ebp], ecx
$LN4@Lbound:
; Line 2109
  00039	8b 45 ec	 mov	 eax, DWORD PTR __Pnode$[ebp]
  0003c	50		 push	 eax
  0003d	e8 00 00 00 00	 call	 ?_Isnil@?$_Tree_val@U?$_Tree_simple_types@U?$pair@$$CBW4SDL_Scancode@@_N@std@@@std@@@std@@SAAADPAU?$_Tree_node@U?$pair@$$CBW4SDL_Scancode@@_N@std@@PAX@2@@Z ; std::_Tree_val<std::_Tree_simple_types<std::pair<enum SDL_Scancode const ,bool> > >::_Isnil
  00042	83 c4 04	 add	 esp, 4
  00045	0f be 08	 movsx	 ecx, BYTE PTR [eax]
  00048	85 c9		 test	 ecx, ecx
  0004a	75 6b		 jne	 SHORT $LN3@Lbound
; Line 2110
  0004c	68 3e 08 00 00	 push	 2110			; 0000083eH
  00051	68 00 00 00 00	 push	 OFFSET ??_C@_1IK@HBAODOLH@?$AAc?$AA?3?$AA?2?$AAp?$AAr?$AAo?$AAg?$AAr?$AAa?$AAm?$AA?5?$AAf?$AAi?$AAl?$AAe?$AAs?$AA?5?$AA?$CI?$AAx?$AA8?$AA6?$AA?$CJ?$AA?2?$AAm?$AAi?$AAc?$AAr?$AAo?$AAs?$AAo?$AAf?$AAt@
  00056	8b 45 08	 mov	 eax, DWORD PTR __Keyval$[ebp]
  00059	50		 push	 eax
  0005a	8b 4d ec	 mov	 ecx, DWORD PTR __Pnode$[ebp]
  0005d	51		 push	 ecx
  0005e	8b 4d f8	 mov	 ecx, DWORD PTR _this$[ebp]
  00061	e8 00 00 00 00	 call	 ?_Key@?$_Tree@V?$_Tmap_traits@W4SDL_Scancode@@_NU?$less@W4SDL_Scancode@@@std@@V?$allocator@U?$pair@$$CBW4SDL_Scancode@@_N@std@@@3@$0A@@std@@@std@@IBEABW4SDL_Scancode@@PAU?$_Tree_node@U?$pair@$$CBW4SDL_Scancode@@_N@std@@PAX@2@@Z ; std::_Tree<std::_Tmap_traits<enum SDL_Scancode,bool,std::less<enum SDL_Scancode>,std::allocator<std::pair<enum SDL_Scancode const ,bool> >,0> >::_Key
  00066	50		 push	 eax
  00067	8d 95 17 ff ff
	ff		 lea	 edx, DWORD PTR $T1[ebp]
  0006d	52		 push	 edx
  0006e	8b 4d f8	 mov	 ecx, DWORD PTR _this$[ebp]
  00071	e8 00 00 00 00	 call	 ?_Getcomp@?$_Tree_comp@$0A@V?$_Tmap_traits@W4SDL_Scancode@@_NU?$less@W4SDL_Scancode@@@std@@V?$allocator@U?$pair@$$CBW4SDL_Scancode@@_N@std@@@3@$0A@@std@@@std@@QBE?AU?$less@W4SDL_Scancode@@@2@XZ ; std::_Tree_comp<0,std::_Tmap_traits<enum SDL_Scancode,bool,std::less<enum SDL_Scancode>,std::allocator<std::pair<enum SDL_Scancode const ,bool> >,0> >::_Getcomp
  00076	8a 00		 mov	 al, BYTE PTR [eax]
  00078	0f b6 c8	 movzx	 ecx, al
  0007b	51		 push	 ecx
  0007c	e8 00 00 00 00	 call	 ??$_Debug_lt_pred@U?$less@W4SDL_Scancode@@@std@@ABW4SDL_Scancode@@ABW43@@std@@YA_NU?$less@W4SDL_Scancode@@@0@ABW4SDL_Scancode@@1PB_WI@Z ; std::_Debug_lt_pred<std::less<enum SDL_Scancode>,enum SDL_Scancode const &,enum SDL_Scancode const &>
  00081	83 c4 14	 add	 esp, 20			; 00000014H
  00084	0f b6 d0	 movzx	 edx, al
  00087	85 d2		 test	 edx, edx
  00089	74 13		 je	 SHORT $LN2@Lbound
; Line 2111
  0008b	8b 45 ec	 mov	 eax, DWORD PTR __Pnode$[ebp]
  0008e	50		 push	 eax
  0008f	e8 00 00 00 00	 call	 ?_Right@?$_Tree_val@U?$_Tree_simple_types@U?$pair@$$CBW4SDL_Scancode@@_N@std@@@std@@@std@@SAAAPAU?$_Tree_node@U?$pair@$$CBW4SDL_Scancode@@_N@std@@PAX@2@PAU32@@Z ; std::_Tree_val<std::_Tree_simple_types<std::pair<enum SDL_Scancode const ,bool> > >::_Right
  00094	83 c4 04	 add	 esp, 4
  00097	8b 08		 mov	 ecx, DWORD PTR [eax]
  00099	89 4d ec	 mov	 DWORD PTR __Pnode$[ebp], ecx
; Line 2112
  0009c	eb 17		 jmp	 SHORT $LN1@Lbound
$LN2@Lbound:
; Line 2114
  0009e	8b 45 ec	 mov	 eax, DWORD PTR __Pnode$[ebp]
  000a1	89 45 e0	 mov	 DWORD PTR __Wherenode$[ebp], eax
; Line 2115
  000a4	8b 45 ec	 mov	 eax, DWORD PTR __Pnode$[ebp]
  000a7	50		 push	 eax
  000a8	e8 00 00 00 00	 call	 ?_Left@?$_Tree_val@U?$_Tree_simple_types@U?$pair@$$CBW4SDL_Scancode@@_N@std@@@std@@@std@@SAAAPAU?$_Tree_node@U?$pair@$$CBW4SDL_Scancode@@_N@std@@PAX@2@PAU32@@Z ; std::_Tree_val<std::_Tree_simple_types<std::pair<enum SDL_Scancode const ,bool> > >::_Left
  000ad	83 c4 04	 add	 esp, 4
  000b0	8b 08		 mov	 ecx, DWORD PTR [eax]
  000b2	89 4d ec	 mov	 DWORD PTR __Pnode$[ebp], ecx
$LN1@Lbound:
; Line 2116
  000b5	eb 82		 jmp	 SHORT $LN4@Lbound
$LN3@Lbound:
; Line 2118
  000b7	8b 45 e0	 mov	 eax, DWORD PTR __Wherenode$[ebp]
; Line 2119
  000ba	5f		 pop	 edi
  000bb	5e		 pop	 esi
  000bc	5b		 pop	 ebx
  000bd	81 c4 f0 00 00
	00		 add	 esp, 240		; 000000f0H
  000c3	3b ec		 cmp	 ebp, esp
  000c5	e8 00 00 00 00	 call	 __RTC_CheckEsp
  000ca	8b e5		 mov	 esp, ebp
  000cc	5d		 pop	 ebp
  000cd	c2 04 00	 ret	 4
?_Lbound@?$_Tree@V?$_Tmap_traits@W4SDL_Scancode@@_NU?$less@W4SDL_Scancode@@@std@@V?$allocator@U?$pair@$$CBW4SDL_Scancode@@_N@std@@@3@$0A@@std@@@std@@IAEPAU?$_Tree_node@U?$pair@$$CBW4SDL_Scancode@@_N@std@@PAX@2@ABW4SDL_Scancode@@@Z ENDP ; std::_Tree<std::_Tmap_traits<enum SDL_Scancode,bool,std::less<enum SDL_Scancode>,std::allocator<std::pair<enum SDL_Scancode const ,bool> >,0> >::_Lbound
_TEXT	ENDS
; Function compile flags: /Odtp /RTCsu /ZI
;	COMDAT ?_Erase@?$_Tree@V?$_Tmap_traits@W4SDL_Scancode@@_NU?$less@W4SDL_Scancode@@@std@@V?$allocator@U?$pair@$$CBW4SDL_Scancode@@_N@std@@@3@$0A@@std@@@std@@IAEXPAU?$_Tree_node@U?$pair@$$CBW4SDL_Scancode@@_N@std@@PAX@2@@Z
_TEXT	SEGMENT
$T1 = -233						; size = 1
$T2 = -221						; size = 1
__Pnode$3 = -20						; size = 4
_this$ = -8						; size = 4
__Rootnode$ = 8						; size = 4
?_Erase@?$_Tree@V?$_Tmap_traits@W4SDL_Scancode@@_NU?$less@W4SDL_Scancode@@@std@@V?$allocator@U?$pair@$$CBW4SDL_Scancode@@_N@std@@@3@$0A@@std@@@std@@IAEXPAU?$_Tree_node@U?$pair@$$CBW4SDL_Scancode@@_N@std@@PAX@2@@Z PROC ; std::_Tree<std::_Tmap_traits<enum SDL_Scancode,bool,std::less<enum SDL_Scancode>,std::allocator<std::pair<enum SDL_Scancode const ,bool> >,0> >::_Erase, COMDAT
; _this$ = ecx
; File c:\program files (x86)\microsoft visual studio 12.0\vc\include\xtree
; Line 2074
  00000	55		 push	 ebp
  00001	8b ec		 mov	 ebp, esp
  00003	81 ec f0 00 00
	00		 sub	 esp, 240		; 000000f0H
  00009	53		 push	 ebx
  0000a	56		 push	 esi
  0000b	57		 push	 edi
  0000c	51		 push	 ecx
  0000d	8d bd 10 ff ff
	ff		 lea	 edi, DWORD PTR [ebp-240]
  00013	b9 3c 00 00 00	 mov	 ecx, 60			; 0000003cH
  00018	b8 cc cc cc cc	 mov	 eax, -858993460		; ccccccccH
  0001d	f3 ab		 rep stosd
  0001f	59		 pop	 ecx
  00020	89 4d f8	 mov	 DWORD PTR _this$[ebp], ecx
; Line 2075
  00023	8b 45 08	 mov	 eax, DWORD PTR __Rootnode$[ebp]
  00026	89 45 ec	 mov	 DWORD PTR __Pnode$3[ebp], eax
; Line 2076
  00029	eb 06		 jmp	 SHORT $LN3@Erase
$LN2@Erase:
  0002b	8b 45 ec	 mov	 eax, DWORD PTR __Pnode$3[ebp]
  0002e	89 45 08	 mov	 DWORD PTR __Rootnode$[ebp], eax
$LN3@Erase:
  00031	8b 45 ec	 mov	 eax, DWORD PTR __Pnode$3[ebp]
  00034	50		 push	 eax
  00035	e8 00 00 00 00	 call	 ?_Isnil@?$_Tree_val@U?$_Tree_simple_types@U?$pair@$$CBW4SDL_Scancode@@_N@std@@@std@@@std@@SAAADPAU?$_Tree_node@U?$pair@$$CBW4SDL_Scancode@@_N@std@@PAX@2@@Z ; std::_Tree_val<std::_Tree_simple_types<std::pair<enum SDL_Scancode const ,bool> > >::_Isnil
  0003a	83 c4 04	 add	 esp, 4
  0003d	0f be 08	 movsx	 ecx, BYTE PTR [eax]
  00040	85 c9		 test	 ecx, ecx
  00042	75 75		 jne	 SHORT $LN4@Erase
; Line 2078
  00044	8b 45 ec	 mov	 eax, DWORD PTR __Pnode$3[ebp]
  00047	50		 push	 eax
  00048	e8 00 00 00 00	 call	 ?_Right@?$_Tree_val@U?$_Tree_simple_types@U?$pair@$$CBW4SDL_Scancode@@_N@std@@@std@@@std@@SAAAPAU?$_Tree_node@U?$pair@$$CBW4SDL_Scancode@@_N@std@@PAX@2@PAU32@@Z ; std::_Tree_val<std::_Tree_simple_types<std::pair<enum SDL_Scancode const ,bool> > >::_Right
  0004d	83 c4 04	 add	 esp, 4
  00050	8b 08		 mov	 ecx, DWORD PTR [eax]
  00052	51		 push	 ecx
  00053	8b 4d f8	 mov	 ecx, DWORD PTR _this$[ebp]
  00056	e8 00 00 00 00	 call	 ?_Erase@?$_Tree@V?$_Tmap_traits@W4SDL_Scancode@@_NU?$less@W4SDL_Scancode@@@std@@V?$allocator@U?$pair@$$CBW4SDL_Scancode@@_N@std@@@3@$0A@@std@@@std@@IAEXPAU?$_Tree_node@U?$pair@$$CBW4SDL_Scancode@@_N@std@@PAX@2@@Z ; std::_Tree<std::_Tmap_traits<enum SDL_Scancode,bool,std::less<enum SDL_Scancode>,std::allocator<std::pair<enum SDL_Scancode const ,bool> >,0> >::_Erase
; Line 2079
  0005b	8b 45 ec	 mov	 eax, DWORD PTR __Pnode$3[ebp]
  0005e	50		 push	 eax
  0005f	e8 00 00 00 00	 call	 ?_Left@?$_Tree_val@U?$_Tree_simple_types@U?$pair@$$CBW4SDL_Scancode@@_N@std@@@std@@@std@@SAAAPAU?$_Tree_node@U?$pair@$$CBW4SDL_Scancode@@_N@std@@PAX@2@PAU32@@Z ; std::_Tree_val<std::_Tree_simple_types<std::pair<enum SDL_Scancode const ,bool> > >::_Left
  00064	83 c4 04	 add	 esp, 4
  00067	8b 08		 mov	 ecx, DWORD PTR [eax]
  00069	89 4d ec	 mov	 DWORD PTR __Pnode$3[ebp], ecx
; Line 2081
  0006c	8b 45 08	 mov	 eax, DWORD PTR __Rootnode$[ebp]
  0006f	50		 push	 eax
  00070	e8 00 00 00 00	 call	 ?_Myval@?$_Tree_val@U?$_Tree_simple_types@U?$pair@$$CBW4SDL_Scancode@@_N@std@@@std@@@std@@SAAAU?$pair@$$CBW4SDL_Scancode@@_N@2@PAU?$_Tree_node@U?$pair@$$CBW4SDL_Scancode@@_N@std@@PAX@2@@Z ; std::_Tree_val<std::_Tree_simple_types<std::pair<enum SDL_Scancode const ,bool> > >::_Myval
  00075	83 c4 04	 add	 esp, 4
  00078	50		 push	 eax
  00079	e8 00 00 00 00	 call	 ??$addressof@U?$pair@$$CBW4SDL_Scancode@@_N@std@@@std@@YAPAU?$pair@$$CBW4SDL_Scancode@@_N@0@AAU10@@Z ; std::addressof<std::pair<enum SDL_Scancode const ,bool> >
  0007e	83 c4 04	 add	 esp, 4
  00081	50		 push	 eax
  00082	8d 8d 17 ff ff
	ff		 lea	 ecx, DWORD PTR $T1[ebp]
  00088	51		 push	 ecx
  00089	8b 4d f8	 mov	 ecx, DWORD PTR _this$[ebp]
  0008c	e8 00 00 00 00	 call	 ?_Getal@?$_Tree_alloc@$0A@U?$_Tree_base_types@U?$pair@$$CBW4SDL_Scancode@@_N@std@@V?$allocator@U?$pair@$$CBW4SDL_Scancode@@_N@std@@@2@@std@@@std@@QBE?AU?$_Wrap_alloc@V?$allocator@U?$_Tree_node@U?$pair@$$CBW4SDL_Scancode@@_N@std@@PAX@std@@@std@@@2@XZ ; std::_Tree_alloc<0,std::_Tree_base_types<std::pair<enum SDL_Scancode const ,bool>,std::allocator<std::pair<enum SDL_Scancode const ,bool> > > >::_Getal
  00091	8b c8		 mov	 ecx, eax
  00093	e8 00 00 00 00	 call	 ??$destroy@U?$pair@$$CBW4SDL_Scancode@@_N@std@@@?$_Wrap_alloc@V?$allocator@U?$_Tree_node@U?$pair@$$CBW4SDL_Scancode@@_N@std@@PAX@std@@@std@@@std@@QAEXPAU?$pair@$$CBW4SDL_Scancode@@_N@1@@Z ; std::_Wrap_alloc<std::allocator<std::_Tree_node<std::pair<enum SDL_Scancode const ,bool>,void *> > >::destroy<std::pair<enum SDL_Scancode const ,bool> >
; Line 2083
  00098	6a 01		 push	 1
  0009a	8b 45 08	 mov	 eax, DWORD PTR __Rootnode$[ebp]
  0009d	50		 push	 eax
  0009e	8d 8d 23 ff ff
	ff		 lea	 ecx, DWORD PTR $T2[ebp]
  000a4	51		 push	 ecx
  000a5	8b 4d f8	 mov	 ecx, DWORD PTR _this$[ebp]
  000a8	e8 00 00 00 00	 call	 ?_Getal@?$_Tree_alloc@$0A@U?$_Tree_base_types@U?$pair@$$CBW4SDL_Scancode@@_N@std@@V?$allocator@U?$pair@$$CBW4SDL_Scancode@@_N@std@@@2@@std@@@std@@QBE?AU?$_Wrap_alloc@V?$allocator@U?$_Tree_node@U?$pair@$$CBW4SDL_Scancode@@_N@std@@PAX@std@@@std@@@2@XZ ; std::_Tree_alloc<0,std::_Tree_base_types<std::pair<enum SDL_Scancode const ,bool>,std::allocator<std::pair<enum SDL_Scancode const ,bool> > > >::_Getal
  000ad	8b c8		 mov	 ecx, eax
  000af	e8 00 00 00 00	 call	 ?deallocate@?$_Wrap_alloc@V?$allocator@U?$_Tree_node@U?$pair@$$CBW4SDL_Scancode@@_N@std@@PAX@std@@@std@@@std@@QAEXPAU?$_Tree_node@U?$pair@$$CBW4SDL_Scancode@@_N@std@@PAX@2@I@Z ; std::_Wrap_alloc<std::allocator<std::_Tree_node<std::pair<enum SDL_Scancode const ,bool>,void *> > >::deallocate
; Line 2084
  000b4	e9 72 ff ff ff	 jmp	 $LN2@Erase
$LN4@Erase:
; Line 2085
  000b9	5f		 pop	 edi
  000ba	5e		 pop	 esi
  000bb	5b		 pop	 ebx
  000bc	81 c4 f0 00 00
	00		 add	 esp, 240		; 000000f0H
  000c2	3b ec		 cmp	 ebp, esp
  000c4	e8 00 00 00 00	 call	 __RTC_CheckEsp
  000c9	8b e5		 mov	 esp, ebp
  000cb	5d		 pop	 ebp
  000cc	c2 04 00	 ret	 4
?_Erase@?$_Tree@V?$_Tmap_traits@W4SDL_Scancode@@_NU?$less@W4SDL_Scancode@@@std@@V?$allocator@U?$pair@$$CBW4SDL_Scancode@@_N@std@@@3@$0A@@std@@@std@@IAEXPAU?$_Tree_node@U?$pair@$$CBW4SDL_Scancode@@_N@std@@PAX@2@@Z ENDP ; std::_Tree<std::_Tmap_traits<enum SDL_Scancode,bool,std::less<enum SDL_Scancode>,std::allocator<std::pair<enum SDL_Scancode const ,bool> >,0> >::_Erase
_TEXT	ENDS
; Function compile flags: /Odtp /RTCsu /ZI
;	COMDAT ?_Destroy_if_not_nil@?$_Tree@V?$_Tmap_traits@W4SDL_Scancode@@_NU?$less@W4SDL_Scancode@@@std@@V?$allocator@U?$pair@$$CBW4SDL_Scancode@@_N@std@@@3@$0A@@std@@@std@@IAEXPAU?$_Tree_node@U?$pair@$$CBW4SDL_Scancode@@_N@std@@PAX@2@@Z
_TEXT	SEGMENT
$T1 = -221						; size = 1
$T2 = -209						; size = 1
_this$ = -8						; size = 4
__Newnode$ = 8						; size = 4
?_Destroy_if_not_nil@?$_Tree@V?$_Tmap_traits@W4SDL_Scancode@@_NU?$less@W4SDL_Scancode@@@std@@V?$allocator@U?$pair@$$CBW4SDL_Scancode@@_N@std@@@3@$0A@@std@@@std@@IAEXPAU?$_Tree_node@U?$pair@$$CBW4SDL_Scancode@@_N@std@@PAX@2@@Z PROC ; std::_Tree<std::_Tmap_traits<enum SDL_Scancode,bool,std::less<enum SDL_Scancode>,std::allocator<std::pair<enum SDL_Scancode const ,bool> >,0> >::_Destroy_if_not_nil, COMDAT
; _this$ = ecx
; File c:\program files (x86)\microsoft visual studio 12.0\vc\include\xtree
; Line 1648
  00000	55		 push	 ebp
  00001	8b ec		 mov	 ebp, esp
  00003	81 ec e4 00 00
	00		 sub	 esp, 228		; 000000e4H
  00009	53		 push	 ebx
  0000a	56		 push	 esi
  0000b	57		 push	 edi
  0000c	51		 push	 ecx
  0000d	8d bd 1c ff ff
	ff		 lea	 edi, DWORD PTR [ebp-228]
  00013	b9 39 00 00 00	 mov	 ecx, 57			; 00000039H
  00018	b8 cc cc cc cc	 mov	 eax, -858993460		; ccccccccH
  0001d	f3 ab		 rep stosd
  0001f	59		 pop	 ecx
  00020	89 4d f8	 mov	 DWORD PTR _this$[ebp], ecx
; Line 1650
  00023	8b 45 08	 mov	 eax, DWORD PTR __Newnode$[ebp]
  00026	50		 push	 eax
  00027	e8 00 00 00 00	 call	 ?_Myval@?$_Tree_val@U?$_Tree_simple_types@U?$pair@$$CBW4SDL_Scancode@@_N@std@@@std@@@std@@SAAAU?$pair@$$CBW4SDL_Scancode@@_N@2@PAU?$_Tree_node@U?$pair@$$CBW4SDL_Scancode@@_N@std@@PAX@2@@Z ; std::_Tree_val<std::_Tree_simple_types<std::pair<enum SDL_Scancode const ,bool> > >::_Myval
  0002c	83 c4 04	 add	 esp, 4
  0002f	50		 push	 eax
  00030	e8 00 00 00 00	 call	 ??$addressof@U?$pair@$$CBW4SDL_Scancode@@_N@std@@@std@@YAPAU?$pair@$$CBW4SDL_Scancode@@_N@0@AAU10@@Z ; std::addressof<std::pair<enum SDL_Scancode const ,bool> >
  00035	83 c4 04	 add	 esp, 4
  00038	50		 push	 eax
  00039	8d 8d 23 ff ff
	ff		 lea	 ecx, DWORD PTR $T1[ebp]
  0003f	51		 push	 ecx
  00040	8b 4d f8	 mov	 ecx, DWORD PTR _this$[ebp]
  00043	e8 00 00 00 00	 call	 ?_Getal@?$_Tree_alloc@$0A@U?$_Tree_base_types@U?$pair@$$CBW4SDL_Scancode@@_N@std@@V?$allocator@U?$pair@$$CBW4SDL_Scancode@@_N@std@@@2@@std@@@std@@QBE?AU?$_Wrap_alloc@V?$allocator@U?$_Tree_node@U?$pair@$$CBW4SDL_Scancode@@_N@std@@PAX@std@@@std@@@2@XZ ; std::_Tree_alloc<0,std::_Tree_base_types<std::pair<enum SDL_Scancode const ,bool>,std::allocator<std::pair<enum SDL_Scancode const ,bool> > > >::_Getal
  00048	8b c8		 mov	 ecx, eax
  0004a	e8 00 00 00 00	 call	 ??$destroy@U?$pair@$$CBW4SDL_Scancode@@_N@std@@@?$_Wrap_alloc@V?$allocator@U?$_Tree_node@U?$pair@$$CBW4SDL_Scancode@@_N@std@@PAX@std@@@std@@@std@@QAEXPAU?$pair@$$CBW4SDL_Scancode@@_N@1@@Z ; std::_Wrap_alloc<std::allocator<std::_Tree_node<std::pair<enum SDL_Scancode const ,bool>,void *> > >::destroy<std::pair<enum SDL_Scancode const ,bool> >
; Line 1652
  0004f	6a 01		 push	 1
  00051	8b 45 08	 mov	 eax, DWORD PTR __Newnode$[ebp]
  00054	50		 push	 eax
  00055	8d 8d 2f ff ff
	ff		 lea	 ecx, DWORD PTR $T2[ebp]
  0005b	51		 push	 ecx
  0005c	8b 4d f8	 mov	 ecx, DWORD PTR _this$[ebp]
  0005f	e8 00 00 00 00	 call	 ?_Getal@?$_Tree_alloc@$0A@U?$_Tree_base_types@U?$pair@$$CBW4SDL_Scancode@@_N@std@@V?$allocator@U?$pair@$$CBW4SDL_Scancode@@_N@std@@@2@@std@@@std@@QBE?AU?$_Wrap_alloc@V?$allocator@U?$_Tree_node@U?$pair@$$CBW4SDL_Scancode@@_N@std@@PAX@std@@@std@@@2@XZ ; std::_Tree_alloc<0,std::_Tree_base_types<std::pair<enum SDL_Scancode const ,bool>,std::allocator<std::pair<enum SDL_Scancode const ,bool> > > >::_Getal
  00064	8b c8		 mov	 ecx, eax
  00066	e8 00 00 00 00	 call	 ?deallocate@?$_Wrap_alloc@V?$allocator@U?$_Tree_node@U?$pair@$$CBW4SDL_Scancode@@_N@std@@PAX@std@@@std@@@std@@QAEXPAU?$_Tree_node@U?$pair@$$CBW4SDL_Scancode@@_N@std@@PAX@2@I@Z ; std::_Wrap_alloc<std::allocator<std::_Tree_node<std::pair<enum SDL_Scancode const ,bool>,void *> > >::deallocate
; Line 1653
  0006b	5f		 pop	 edi
  0006c	5e		 pop	 esi
  0006d	5b		 pop	 ebx
  0006e	81 c4 e4 00 00
	00		 add	 esp, 228		; 000000e4H
  00074	3b ec		 cmp	 ebp, esp
  00076	e8 00 00 00 00	 call	 __RTC_CheckEsp
  0007b	8b e5		 mov	 esp, ebp
  0007d	5d		 pop	 ebp
  0007e	c2 04 00	 ret	 4
?_Destroy_if_not_nil@?$_Tree@V?$_Tmap_traits@W4SDL_Scancode@@_NU?$less@W4SDL_Scancode@@@std@@V?$allocator@U?$pair@$$CBW4SDL_Scancode@@_N@std@@@3@$0A@@std@@@std@@IAEXPAU?$_Tree_node@U?$pair@$$CBW4SDL_Scancode@@_N@std@@PAX@2@@Z ENDP ; std::_Tree<std::_Tmap_traits<enum SDL_Scancode,bool,std::less<enum SDL_Scancode>,std::allocator<std::pair<enum SDL_Scancode const ,bool> >,0> >::_Destroy_if_not_nil
_TEXT	ENDS
; Function compile flags: /Odtp /RTCsu /ZI
;	COMDAT ?lower_bound@?$_Tree@V?$_Tmap_traits@W4SDL_Scancode@@_NU?$less@W4SDL_Scancode@@@std@@V?$allocator@U?$pair@$$CBW4SDL_Scancode@@_N@std@@@3@$0A@@std@@@std@@QAE?AV?$_Tree_iterator@V?$_Tree_val@U?$_Tree_simple_types@U?$pair@$$CBW4SDL_Scancode@@_N@std@@@std@@@std@@@2@ABW4SDL_Scancode@@@Z
_TEXT	SEGMENT
$T1 = -212						; size = 4
_this$ = -8						; size = 4
___$ReturnUdt$ = 8					; size = 4
__Keyval$ = 12						; size = 4
?lower_bound@?$_Tree@V?$_Tmap_traits@W4SDL_Scancode@@_NU?$less@W4SDL_Scancode@@@std@@V?$allocator@U?$pair@$$CBW4SDL_Scancode@@_N@std@@@3@$0A@@std@@@std@@QAE?AV?$_Tree_iterator@V?$_Tree_val@U?$_Tree_simple_types@U?$pair@$$CBW4SDL_Scancode@@_N@std@@@std@@@std@@@2@ABW4SDL_Scancode@@@Z PROC ; std::_Tree<std::_Tmap_traits<enum SDL_Scancode,bool,std::less<enum SDL_Scancode>,std::allocator<std::pair<enum SDL_Scancode const ,bool> >,0> >::lower_bound, COMDAT
; _this$ = ecx
; File c:\program files (x86)\microsoft visual studio 12.0\vc\include\xtree
; Line 1574
  00000	55		 push	 ebp
  00001	8b ec		 mov	 ebp, esp
  00003	81 ec d8 00 00
	00		 sub	 esp, 216		; 000000d8H
  00009	53		 push	 ebx
  0000a	56		 push	 esi
  0000b	57		 push	 edi
  0000c	51		 push	 ecx
  0000d	8d bd 28 ff ff
	ff		 lea	 edi, DWORD PTR [ebp-216]
  00013	b9 36 00 00 00	 mov	 ecx, 54			; 00000036H
  00018	b8 cc cc cc cc	 mov	 eax, -858993460		; ccccccccH
  0001d	f3 ab		 rep stosd
  0001f	59		 pop	 ecx
  00020	89 4d f8	 mov	 DWORD PTR _this$[ebp], ecx
  00023	c7 85 2c ff ff
	ff 00 00 00 00	 mov	 DWORD PTR $T1[ebp], 0
; Line 1575
  0002d	8b 45 f8	 mov	 eax, DWORD PTR _this$[ebp]
  00030	50		 push	 eax
  00031	8b 4d 0c	 mov	 ecx, DWORD PTR __Keyval$[ebp]
  00034	51		 push	 ecx
  00035	8b 4d f8	 mov	 ecx, DWORD PTR _this$[ebp]
  00038	e8 00 00 00 00	 call	 ?_Lbound@?$_Tree@V?$_Tmap_traits@W4SDL_Scancode@@_NU?$less@W4SDL_Scancode@@@std@@V?$allocator@U?$pair@$$CBW4SDL_Scancode@@_N@std@@@3@$0A@@std@@@std@@IAEPAU?$_Tree_node@U?$pair@$$CBW4SDL_Scancode@@_N@std@@PAX@2@ABW4SDL_Scancode@@@Z ; std::_Tree<std::_Tmap_traits<enum SDL_Scancode,bool,std::less<enum SDL_Scancode>,std::allocator<std::pair<enum SDL_Scancode const ,bool> >,0> >::_Lbound
  0003d	50		 push	 eax
  0003e	8b 4d 08	 mov	 ecx, DWORD PTR ___$ReturnUdt$[ebp]
  00041	e8 00 00 00 00	 call	 ??0?$_Tree_iterator@V?$_Tree_val@U?$_Tree_simple_types@U?$pair@$$CBW4SDL_Scancode@@_N@std@@@std@@@std@@@std@@QAE@PAU?$_Tree_node@U?$pair@$$CBW4SDL_Scancode@@_N@std@@PAX@1@PBV?$_Tree_val@U?$_Tree_simple_types@U?$pair@$$CBW4SDL_Scancode@@_N@std@@@std@@@1@@Z ; std::_Tree_iterator<std::_Tree_val<std::_Tree_simple_types<std::pair<enum SDL_Scancode const ,bool> > > >::_Tree_iterator<std::_Tree_val<std::_Tree_simple_types<std::pair<enum SDL_Scancode const ,bool> > > >
  00046	8b 95 2c ff ff
	ff		 mov	 edx, DWORD PTR $T1[ebp]
  0004c	83 ca 01	 or	 edx, 1
  0004f	89 95 2c ff ff
	ff		 mov	 DWORD PTR $T1[ebp], edx
  00055	8b 45 08	 mov	 eax, DWORD PTR ___$ReturnUdt$[ebp]
; Line 1576
  00058	5f		 pop	 edi
  00059	5e		 pop	 esi
  0005a	5b		 pop	 ebx
  0005b	81 c4 d8 00 00
	00		 add	 esp, 216		; 000000d8H
  00061	3b ec		 cmp	 ebp, esp
  00063	e8 00 00 00 00	 call	 __RTC_CheckEsp
  00068	8b e5		 mov	 esp, ebp
  0006a	5d		 pop	 ebp
  0006b	c2 08 00	 ret	 8
?lower_bound@?$_Tree@V?$_Tmap_traits@W4SDL_Scancode@@_NU?$less@W4SDL_Scancode@@@std@@V?$allocator@U?$pair@$$CBW4SDL_Scancode@@_N@std@@@3@$0A@@std@@@std@@QAE?AV?$_Tree_iterator@V?$_Tree_val@U?$_Tree_simple_types@U?$pair@$$CBW4SDL_Scancode@@_N@std@@@std@@@std@@@2@ABW4SDL_Scancode@@@Z ENDP ; std::_Tree<std::_Tmap_traits<enum SDL_Scancode,bool,std::less<enum SDL_Scancode>,std::allocator<std::pair<enum SDL_Scancode const ,bool> >,0> >::lower_bound
_TEXT	ENDS
; Function compile flags: /Odtp /RTCsu /ZI
;	COMDAT ?clear@?$_Tree@V?$_Tmap_traits@W4SDL_Scancode@@_NU?$less@W4SDL_Scancode@@@std@@V?$allocator@U?$pair@$$CBW4SDL_Scancode@@_N@std@@@3@$0A@@std@@@std@@QAEXXZ
_TEXT	SEGMENT
_this$ = -8						; size = 4
?clear@?$_Tree@V?$_Tmap_traits@W4SDL_Scancode@@_NU?$less@W4SDL_Scancode@@@std@@V?$allocator@U?$pair@$$CBW4SDL_Scancode@@_N@std@@@3@$0A@@std@@@std@@QAEXXZ PROC ; std::_Tree<std::_Tmap_traits<enum SDL_Scancode,bool,std::less<enum SDL_Scancode>,std::allocator<std::pair<enum SDL_Scancode const ,bool> >,0> >::clear, COMDAT
; _this$ = ecx
; File c:\program files (x86)\microsoft visual studio 12.0\vc\include\xtree
; Line 1535
  00000	55		 push	 ebp
  00001	8b ec		 mov	 ebp, esp
  00003	81 ec cc 00 00
	00		 sub	 esp, 204		; 000000ccH
  00009	53		 push	 ebx
  0000a	56		 push	 esi
  0000b	57		 push	 edi
  0000c	51		 push	 ecx
  0000d	8d bd 34 ff ff
	ff		 lea	 edi, DWORD PTR [ebp-204]
  00013	b9 33 00 00 00	 mov	 ecx, 51			; 00000033H
  00018	b8 cc cc cc cc	 mov	 eax, -858993460		; ccccccccH
  0001d	f3 ab		 rep stosd
  0001f	59		 pop	 ecx
  00020	89 4d f8	 mov	 DWORD PTR _this$[ebp], ecx
; Line 1537
  00023	6a 00		 push	 0
  00025	8b 45 f8	 mov	 eax, DWORD PTR _this$[ebp]
  00028	50		 push	 eax
  00029	8b 4d f8	 mov	 ecx, DWORD PTR _this$[ebp]
  0002c	e8 00 00 00 00	 call	 ?_Orphan_ptr@?$_Tree@V?$_Tmap_traits@W4SDL_Scancode@@_NU?$less@W4SDL_Scancode@@@std@@V?$allocator@U?$pair@$$CBW4SDL_Scancode@@_N@std@@@3@$0A@@std@@@std@@IBEXAAV12@PAU?$_Tree_node@U?$pair@$$CBW4SDL_Scancode@@_N@std@@PAX@2@@Z ; std::_Tree<std::_Tmap_traits<enum SDL_Scancode,bool,std::less<enum SDL_Scancode>,std::allocator<std::pair<enum SDL_Scancode const ,bool> >,0> >::_Orphan_ptr
; Line 1540
  00031	8b 4d f8	 mov	 ecx, DWORD PTR _this$[ebp]
  00034	e8 00 00 00 00	 call	 ?_Root@?$_Tree@V?$_Tmap_traits@W4SDL_Scancode@@_NU?$less@W4SDL_Scancode@@@std@@V?$allocator@U?$pair@$$CBW4SDL_Scancode@@_N@std@@@3@$0A@@std@@@std@@IBEAAPAU?$_Tree_node@U?$pair@$$CBW4SDL_Scancode@@_N@std@@PAX@2@XZ ; std::_Tree<std::_Tmap_traits<enum SDL_Scancode,bool,std::less<enum SDL_Scancode>,std::allocator<std::pair<enum SDL_Scancode const ,bool> >,0> >::_Root
  00039	8b 00		 mov	 eax, DWORD PTR [eax]
  0003b	50		 push	 eax
  0003c	8b 4d f8	 mov	 ecx, DWORD PTR _this$[ebp]
  0003f	e8 00 00 00 00	 call	 ?_Erase@?$_Tree@V?$_Tmap_traits@W4SDL_Scancode@@_NU?$less@W4SDL_Scancode@@@std@@V?$allocator@U?$pair@$$CBW4SDL_Scancode@@_N@std@@@3@$0A@@std@@@std@@IAEXPAU?$_Tree_node@U?$pair@$$CBW4SDL_Scancode@@_N@std@@PAX@2@@Z ; std::_Tree<std::_Tmap_traits<enum SDL_Scancode,bool,std::less<enum SDL_Scancode>,std::allocator<std::pair<enum SDL_Scancode const ,bool> >,0> >::_Erase
; Line 1541
  00044	8b 4d f8	 mov	 ecx, DWORD PTR _this$[ebp]
  00047	e8 00 00 00 00	 call	 ?_Root@?$_Tree@V?$_Tmap_traits@W4SDL_Scancode@@_NU?$less@W4SDL_Scancode@@@std@@V?$allocator@U?$pair@$$CBW4SDL_Scancode@@_N@std@@@3@$0A@@std@@@std@@IBEAAPAU?$_Tree_node@U?$pair@$$CBW4SDL_Scancode@@_N@std@@PAX@2@XZ ; std::_Tree<std::_Tmap_traits<enum SDL_Scancode,bool,std::less<enum SDL_Scancode>,std::allocator<std::pair<enum SDL_Scancode const ,bool> >,0> >::_Root
  0004c	8b 4d f8	 mov	 ecx, DWORD PTR _this$[ebp]
  0004f	8b 51 04	 mov	 edx, DWORD PTR [ecx+4]
  00052	89 10		 mov	 DWORD PTR [eax], edx
; Line 1542
  00054	8b 4d f8	 mov	 ecx, DWORD PTR _this$[ebp]
  00057	e8 00 00 00 00	 call	 ?_Lmost@?$_Tree@V?$_Tmap_traits@W4SDL_Scancode@@_NU?$less@W4SDL_Scancode@@@std@@V?$allocator@U?$pair@$$CBW4SDL_Scancode@@_N@std@@@3@$0A@@std@@@std@@IBEAAPAU?$_Tree_node@U?$pair@$$CBW4SDL_Scancode@@_N@std@@PAX@2@XZ ; std::_Tree<std::_Tmap_traits<enum SDL_Scancode,bool,std::less<enum SDL_Scancode>,std::allocator<std::pair<enum SDL_Scancode const ,bool> >,0> >::_Lmost
  0005c	8b 4d f8	 mov	 ecx, DWORD PTR _this$[ebp]
  0005f	8b 51 04	 mov	 edx, DWORD PTR [ecx+4]
  00062	89 10		 mov	 DWORD PTR [eax], edx
; Line 1543
  00064	8b 4d f8	 mov	 ecx, DWORD PTR _this$[ebp]
  00067	e8 00 00 00 00	 call	 ?_Rmost@?$_Tree@V?$_Tmap_traits@W4SDL_Scancode@@_NU?$less@W4SDL_Scancode@@@std@@V?$allocator@U?$pair@$$CBW4SDL_Scancode@@_N@std@@@3@$0A@@std@@@std@@IBEAAPAU?$_Tree_node@U?$pair@$$CBW4SDL_Scancode@@_N@std@@PAX@2@XZ ; std::_Tree<std::_Tmap_traits<enum SDL_Scancode,bool,std::less<enum SDL_Scancode>,std::allocator<std::pair<enum SDL_Scancode const ,bool> >,0> >::_Rmost
  0006c	8b 4d f8	 mov	 ecx, DWORD PTR _this$[ebp]
  0006f	8b 51 04	 mov	 edx, DWORD PTR [ecx+4]
  00072	89 10		 mov	 DWORD PTR [eax], edx
; Line 1544
  00074	8b 45 f8	 mov	 eax, DWORD PTR _this$[ebp]
  00077	c7 40 08 00 00
	00 00		 mov	 DWORD PTR [eax+8], 0
; Line 1545
  0007e	5f		 pop	 edi
  0007f	5e		 pop	 esi
  00080	5b		 pop	 ebx
  00081	81 c4 cc 00 00
	00		 add	 esp, 204		; 000000ccH
  00087	3b ec		 cmp	 ebp, esp
  00089	e8 00 00 00 00	 call	 __RTC_CheckEsp
  0008e	8b e5		 mov	 esp, ebp
  00090	5d		 pop	 ebp
  00091	c3		 ret	 0
?clear@?$_Tree@V?$_Tmap_traits@W4SDL_Scancode@@_NU?$less@W4SDL_Scancode@@@std@@V?$allocator@U?$pair@$$CBW4SDL_Scancode@@_N@std@@@3@$0A@@std@@@std@@QAEXXZ ENDP ; std::_Tree<std::_Tmap_traits<enum SDL_Scancode,bool,std::less<enum SDL_Scancode>,std::allocator<std::pair<enum SDL_Scancode const ,bool> >,0> >::clear
_TEXT	ENDS
; Function compile flags: /Odtp /RTCsu /ZI
;	COMDAT ?max_size@?$_Tree@V?$_Tmap_traits@W4SDL_Scancode@@_NU?$less@W4SDL_Scancode@@@std@@V?$allocator@U?$pair@$$CBW4SDL_Scancode@@_N@std@@@3@$0A@@std@@@std@@QBEIXZ
_TEXT	SEGMENT
$T1 = -209						; size = 1
_this$ = -8						; size = 4
?max_size@?$_Tree@V?$_Tmap_traits@W4SDL_Scancode@@_NU?$less@W4SDL_Scancode@@@std@@V?$allocator@U?$pair@$$CBW4SDL_Scancode@@_N@std@@@3@$0A@@std@@@std@@QBEIXZ PROC ; std::_Tree<std::_Tmap_traits<enum SDL_Scancode,bool,std::less<enum SDL_Scancode>,std::allocator<std::pair<enum SDL_Scancode const ,bool> >,0> >::max_size, COMDAT
; _this$ = ecx
; File c:\program files (x86)\microsoft visual studio 12.0\vc\include\xtree
; Line 1276
  00000	55		 push	 ebp
  00001	8b ec		 mov	 ebp, esp
  00003	81 ec d8 00 00
	00		 sub	 esp, 216		; 000000d8H
  00009	53		 push	 ebx
  0000a	56		 push	 esi
  0000b	57		 push	 edi
  0000c	51		 push	 ecx
  0000d	8d bd 28 ff ff
	ff		 lea	 edi, DWORD PTR [ebp-216]
  00013	b9 36 00 00 00	 mov	 ecx, 54			; 00000036H
  00018	b8 cc cc cc cc	 mov	 eax, -858993460		; ccccccccH
  0001d	f3 ab		 rep stosd
  0001f	59		 pop	 ecx
  00020	89 4d f8	 mov	 DWORD PTR _this$[ebp], ecx
; Line 1277
  00023	8d 85 2f ff ff
	ff		 lea	 eax, DWORD PTR $T1[ebp]
  00029	50		 push	 eax
  0002a	8b 4d f8	 mov	 ecx, DWORD PTR _this$[ebp]
  0002d	e8 00 00 00 00	 call	 ?_Getal@?$_Tree_alloc@$0A@U?$_Tree_base_types@U?$pair@$$CBW4SDL_Scancode@@_N@std@@V?$allocator@U?$pair@$$CBW4SDL_Scancode@@_N@std@@@2@@std@@@std@@QBE?AU?$_Wrap_alloc@V?$allocator@U?$_Tree_node@U?$pair@$$CBW4SDL_Scancode@@_N@std@@PAX@std@@@std@@@2@XZ ; std::_Tree_alloc<0,std::_Tree_base_types<std::pair<enum SDL_Scancode const ,bool>,std::allocator<std::pair<enum SDL_Scancode const ,bool> > > >::_Getal
  00032	8b c8		 mov	 ecx, eax
  00034	e8 00 00 00 00	 call	 ?max_size@?$_Wrap_alloc@V?$allocator@U?$_Tree_node@U?$pair@$$CBW4SDL_Scancode@@_N@std@@PAX@std@@@std@@@std@@QBEIXZ ; std::_Wrap_alloc<std::allocator<std::_Tree_node<std::pair<enum SDL_Scancode const ,bool>,void *> > >::max_size
; Line 1278
  00039	5f		 pop	 edi
  0003a	5e		 pop	 esi
  0003b	5b		 pop	 ebx
  0003c	81 c4 d8 00 00
	00		 add	 esp, 216		; 000000d8H
  00042	3b ec		 cmp	 ebp, esp
  00044	e8 00 00 00 00	 call	 __RTC_CheckEsp
  00049	8b e5		 mov	 esp, ebp
  0004b	5d		 pop	 ebp
  0004c	c3		 ret	 0
?max_size@?$_Tree@V?$_Tmap_traits@W4SDL_Scancode@@_NU?$less@W4SDL_Scancode@@@std@@V?$allocator@U?$pair@$$CBW4SDL_Scancode@@_N@std@@@3@$0A@@std@@@std@@QBEIXZ ENDP ; std::_Tree<std::_Tmap_traits<enum SDL_Scancode,bool,std::less<enum SDL_Scancode>,std::allocator<std::pair<enum SDL_Scancode const ,bool> >,0> >::max_size
_TEXT	ENDS
; Function compile flags: /Odtp /RTCsu /ZI
;	COMDAT ?size@?$_Tree@V?$_Tmap_traits@W4SDL_Scancode@@_NU?$less@W4SDL_Scancode@@@std@@V?$allocator@U?$pair@$$CBW4SDL_Scancode@@_N@std@@@3@$0A@@std@@@std@@QBEIXZ
_TEXT	SEGMENT
_this$ = -8						; size = 4
?size@?$_Tree@V?$_Tmap_traits@W4SDL_Scancode@@_NU?$less@W4SDL_Scancode@@@std@@V?$allocator@U?$pair@$$CBW4SDL_Scancode@@_N@std@@@3@$0A@@std@@@std@@QBEIXZ PROC ; std::_Tree<std::_Tmap_traits<enum SDL_Scancode,bool,std::less<enum SDL_Scancode>,std::allocator<std::pair<enum SDL_Scancode const ,bool> >,0> >::size, COMDAT
; _this$ = ecx
; File c:\program files (x86)\microsoft visual studio 12.0\vc\include\xtree
; Line 1271
  00000	55		 push	 ebp
  00001	8b ec		 mov	 ebp, esp
  00003	81 ec cc 00 00
	00		 sub	 esp, 204		; 000000ccH
  00009	53		 push	 ebx
  0000a	56		 push	 esi
  0000b	57		 push	 edi
  0000c	51		 push	 ecx
  0000d	8d bd 34 ff ff
	ff		 lea	 edi, DWORD PTR [ebp-204]
  00013	b9 33 00 00 00	 mov	 ecx, 51			; 00000033H
  00018	b8 cc cc cc cc	 mov	 eax, -858993460		; ccccccccH
  0001d	f3 ab		 rep stosd
  0001f	59		 pop	 ecx
  00020	89 4d f8	 mov	 DWORD PTR _this$[ebp], ecx
; Line 1272
  00023	8b 45 f8	 mov	 eax, DWORD PTR _this$[ebp]
  00026	8b 40 08	 mov	 eax, DWORD PTR [eax+8]
; Line 1273
  00029	5f		 pop	 edi
  0002a	5e		 pop	 esi
  0002b	5b		 pop	 ebx
  0002c	8b e5		 mov	 esp, ebp
  0002e	5d		 pop	 ebp
  0002f	c3		 ret	 0
?size@?$_Tree@V?$_Tmap_traits@W4SDL_Scancode@@_NU?$less@W4SDL_Scancode@@@std@@V?$allocator@U?$pair@$$CBW4SDL_Scancode@@_N@std@@@3@$0A@@std@@@std@@QBEIXZ ENDP ; std::_Tree<std::_Tmap_traits<enum SDL_Scancode,bool,std::less<enum SDL_Scancode>,std::allocator<std::pair<enum SDL_Scancode const ,bool> >,0> >::size
_TEXT	ENDS
; Function compile flags: /Odtp /RTCsu /ZI
;	COMDAT ?end@?$_Tree@V?$_Tmap_traits@W4SDL_Scancode@@_NU?$less@W4SDL_Scancode@@@std@@V?$allocator@U?$pair@$$CBW4SDL_Scancode@@_N@std@@@3@$0A@@std@@@std@@QAE?AV?$_Tree_iterator@V?$_Tree_val@U?$_Tree_simple_types@U?$pair@$$CBW4SDL_Scancode@@_N@std@@@std@@@std@@@2@XZ
_TEXT	SEGMENT
_this$ = -8						; size = 4
___$ReturnUdt$ = 8					; size = 4
?end@?$_Tree@V?$_Tmap_traits@W4SDL_Scancode@@_NU?$less@W4SDL_Scancode@@@std@@V?$allocator@U?$pair@$$CBW4SDL_Scancode@@_N@std@@@3@$0A@@std@@@std@@QAE?AV?$_Tree_iterator@V?$_Tree_val@U?$_Tree_simple_types@U?$pair@$$CBW4SDL_Scancode@@_N@std@@@std@@@std@@@2@XZ PROC ; std::_Tree<std::_Tmap_traits<enum SDL_Scancode,bool,std::less<enum SDL_Scancode>,std::allocator<std::pair<enum SDL_Scancode const ,bool> >,0> >::end, COMDAT
; _this$ = ecx
; File c:\program files (x86)\microsoft visual studio 12.0\vc\include\xtree
; Line 1221
  00000	55		 push	 ebp
  00001	8b ec		 mov	 ebp, esp
  00003	81 ec cc 00 00
	00		 sub	 esp, 204		; 000000ccH
  00009	53		 push	 ebx
  0000a	56		 push	 esi
  0000b	57		 push	 edi
  0000c	51		 push	 ecx
  0000d	8d bd 34 ff ff
	ff		 lea	 edi, DWORD PTR [ebp-204]
  00013	b9 33 00 00 00	 mov	 ecx, 51			; 00000033H
  00018	b8 cc cc cc cc	 mov	 eax, -858993460		; ccccccccH
  0001d	f3 ab		 rep stosd
  0001f	59		 pop	 ecx
  00020	89 4d f8	 mov	 DWORD PTR _this$[ebp], ecx
; Line 1222
  00023	8b 45 f8	 mov	 eax, DWORD PTR _this$[ebp]
  00026	50		 push	 eax
  00027	8b 4d f8	 mov	 ecx, DWORD PTR _this$[ebp]
  0002a	8b 51 04	 mov	 edx, DWORD PTR [ecx+4]
  0002d	52		 push	 edx
  0002e	8b 4d 08	 mov	 ecx, DWORD PTR ___$ReturnUdt$[ebp]
  00031	e8 00 00 00 00	 call	 ??0?$_Tree_iterator@V?$_Tree_val@U?$_Tree_simple_types@U?$pair@$$CBW4SDL_Scancode@@_N@std@@@std@@@std@@@std@@QAE@PAU?$_Tree_node@U?$pair@$$CBW4SDL_Scancode@@_N@std@@PAX@1@PBV?$_Tree_val@U?$_Tree_simple_types@U?$pair@$$CBW4SDL_Scancode@@_N@std@@@std@@@1@@Z ; std::_Tree_iterator<std::_Tree_val<std::_Tree_simple_types<std::pair<enum SDL_Scancode const ,bool> > > >::_Tree_iterator<std::_Tree_val<std::_Tree_simple_types<std::pair<enum SDL_Scancode const ,bool> > > >
  00036	8b 45 08	 mov	 eax, DWORD PTR ___$ReturnUdt$[ebp]
; Line 1223
  00039	5f		 pop	 edi
  0003a	5e		 pop	 esi
  0003b	5b		 pop	 ebx
  0003c	81 c4 cc 00 00
	00		 add	 esp, 204		; 000000ccH
  00042	3b ec		 cmp	 ebp, esp
  00044	e8 00 00 00 00	 call	 __RTC_CheckEsp
  00049	8b e5		 mov	 esp, ebp
  0004b	5d		 pop	 ebp
  0004c	c2 04 00	 ret	 4
?end@?$_Tree@V?$_Tmap_traits@W4SDL_Scancode@@_NU?$less@W4SDL_Scancode@@@std@@V?$allocator@U?$pair@$$CBW4SDL_Scancode@@_N@std@@@3@$0A@@std@@@std@@QAE?AV?$_Tree_iterator@V?$_Tree_val@U?$_Tree_simple_types@U?$pair@$$CBW4SDL_Scancode@@_N@std@@@std@@@std@@@2@XZ ENDP ; std::_Tree<std::_Tmap_traits<enum SDL_Scancode,bool,std::less<enum SDL_Scancode>,std::allocator<std::pair<enum SDL_Scancode const ,bool> >,0> >::end
_TEXT	ENDS
; Function compile flags: /Odtp /RTCsu /ZI
;	COMDAT ?begin@?$_Tree@V?$_Tmap_traits@W4SDL_Scancode@@_NU?$less@W4SDL_Scancode@@@std@@V?$allocator@U?$pair@$$CBW4SDL_Scancode@@_N@std@@@3@$0A@@std@@@std@@QAE?AV?$_Tree_iterator@V?$_Tree_val@U?$_Tree_simple_types@U?$pair@$$CBW4SDL_Scancode@@_N@std@@@std@@@std@@@2@XZ
_TEXT	SEGMENT
_this$ = -8						; size = 4
___$ReturnUdt$ = 8					; size = 4
?begin@?$_Tree@V?$_Tmap_traits@W4SDL_Scancode@@_NU?$less@W4SDL_Scancode@@@std@@V?$allocator@U?$pair@$$CBW4SDL_Scancode@@_N@std@@@3@$0A@@std@@@std@@QAE?AV?$_Tree_iterator@V?$_Tree_val@U?$_Tree_simple_types@U?$pair@$$CBW4SDL_Scancode@@_N@std@@@std@@@std@@@2@XZ PROC ; std::_Tree<std::_Tmap_traits<enum SDL_Scancode,bool,std::less<enum SDL_Scancode>,std::allocator<std::pair<enum SDL_Scancode const ,bool> >,0> >::begin, COMDAT
; _this$ = ecx
; File c:\program files (x86)\microsoft visual studio 12.0\vc\include\xtree
; Line 1211
  00000	55		 push	 ebp
  00001	8b ec		 mov	 ebp, esp
  00003	81 ec cc 00 00
	00		 sub	 esp, 204		; 000000ccH
  00009	53		 push	 ebx
  0000a	56		 push	 esi
  0000b	57		 push	 edi
  0000c	51		 push	 ecx
  0000d	8d bd 34 ff ff
	ff		 lea	 edi, DWORD PTR [ebp-204]
  00013	b9 33 00 00 00	 mov	 ecx, 51			; 00000033H
  00018	b8 cc cc cc cc	 mov	 eax, -858993460		; ccccccccH
  0001d	f3 ab		 rep stosd
  0001f	59		 pop	 ecx
  00020	89 4d f8	 mov	 DWORD PTR _this$[ebp], ecx
; Line 1212
  00023	8b 45 f8	 mov	 eax, DWORD PTR _this$[ebp]
  00026	50		 push	 eax
  00027	8b 4d f8	 mov	 ecx, DWORD PTR _this$[ebp]
  0002a	e8 00 00 00 00	 call	 ?_Lmost@?$_Tree@V?$_Tmap_traits@W4SDL_Scancode@@_NU?$less@W4SDL_Scancode@@@std@@V?$allocator@U?$pair@$$CBW4SDL_Scancode@@_N@std@@@3@$0A@@std@@@std@@IBEAAPAU?$_Tree_node@U?$pair@$$CBW4SDL_Scancode@@_N@std@@PAX@2@XZ ; std::_Tree<std::_Tmap_traits<enum SDL_Scancode,bool,std::less<enum SDL_Scancode>,std::allocator<std::pair<enum SDL_Scancode const ,bool> >,0> >::_Lmost
  0002f	8b 08		 mov	 ecx, DWORD PTR [eax]
  00031	51		 push	 ecx
  00032	8b 4d 08	 mov	 ecx, DWORD PTR ___$ReturnUdt$[ebp]
  00035	e8 00 00 00 00	 call	 ??0?$_Tree_iterator@V?$_Tree_val@U?$_Tree_simple_types@U?$pair@$$CBW4SDL_Scancode@@_N@std@@@std@@@std@@@std@@QAE@PAU?$_Tree_node@U?$pair@$$CBW4SDL_Scancode@@_N@std@@PAX@1@PBV?$_Tree_val@U?$_Tree_simple_types@U?$pair@$$CBW4SDL_Scancode@@_N@std@@@std@@@1@@Z ; std::_Tree_iterator<std::_Tree_val<std::_Tree_simple_types<std::pair<enum SDL_Scancode const ,bool> > > >::_Tree_iterator<std::_Tree_val<std::_Tree_simple_types<std::pair<enum SDL_Scancode const ,bool> > > >
  0003a	8b 45 08	 mov	 eax, DWORD PTR ___$ReturnUdt$[ebp]
; Line 1213
  0003d	5f		 pop	 edi
  0003e	5e		 pop	 esi
  0003f	5b		 pop	 ebx
  00040	81 c4 cc 00 00
	00		 add	 esp, 204		; 000000ccH
  00046	3b ec		 cmp	 ebp, esp
  00048	e8 00 00 00 00	 call	 __RTC_CheckEsp
  0004d	8b e5		 mov	 esp, ebp
  0004f	5d		 pop	 ebp
  00050	c2 04 00	 ret	 4
?begin@?$_Tree@V?$_Tmap_traits@W4SDL_Scancode@@_NU?$less@W4SDL_Scancode@@@std@@V?$allocator@U?$pair@$$CBW4SDL_Scancode@@_N@std@@@3@$0A@@std@@@std@@QAE?AV?$_Tree_iterator@V?$_Tree_val@U?$_Tree_simple_types@U?$pair@$$CBW4SDL_Scancode@@_N@std@@@std@@@std@@@2@XZ ENDP ; std::_Tree<std::_Tmap_traits<enum SDL_Scancode,bool,std::less<enum SDL_Scancode>,std::allocator<std::pair<enum SDL_Scancode const ,bool> >,0> >::begin
_TEXT	ENDS
; Function compile flags: /Odtp /RTCsu /ZI
;	COMDAT ?_Getcomp@?$_Tree_comp@$0A@V?$_Tmap_traits@W4SDL_Scancode@@_NU?$less@W4SDL_Scancode@@@std@@V?$allocator@U?$pair@$$CBW4SDL_Scancode@@_N@std@@@3@$0A@@std@@@std@@QBE?AU?$less@W4SDL_Scancode@@@2@XZ
_TEXT	SEGMENT
_this$ = -8						; size = 4
___$ReturnUdt$ = 8					; size = 4
?_Getcomp@?$_Tree_comp@$0A@V?$_Tmap_traits@W4SDL_Scancode@@_NU?$less@W4SDL_Scancode@@@std@@V?$allocator@U?$pair@$$CBW4SDL_Scancode@@_N@std@@@3@$0A@@std@@@std@@QBE?AU?$less@W4SDL_Scancode@@@2@XZ PROC ; std::_Tree_comp<0,std::_Tmap_traits<enum SDL_Scancode,bool,std::less<enum SDL_Scancode>,std::allocator<std::pair<enum SDL_Scancode const ,bool> >,0> >::_Getcomp, COMDAT
; _this$ = ecx
; File c:\program files (x86)\microsoft visual studio 12.0\vc\include\xtree
; Line 1006
  00000	55		 push	 ebp
  00001	8b ec		 mov	 ebp, esp
  00003	81 ec d8 00 00
	00		 sub	 esp, 216		; 000000d8H
  00009	53		 push	 ebx
  0000a	56		 push	 esi
  0000b	57		 push	 edi
  0000c	51		 push	 ecx
  0000d	8d bd 28 ff ff
	ff		 lea	 edi, DWORD PTR [ebp-216]
  00013	b9 36 00 00 00	 mov	 ecx, 54			; 00000036H
  00018	b8 cc cc cc cc	 mov	 eax, -858993460		; ccccccccH
  0001d	f3 ab		 rep stosd
  0001f	59		 pop	 ecx
  00020	89 4d f8	 mov	 DWORD PTR _this$[ebp], ecx
; Line 1007
  00023	8b 45 08	 mov	 eax, DWORD PTR ___$ReturnUdt$[ebp]
; Line 1008
  00026	5f		 pop	 edi
  00027	5e		 pop	 esi
  00028	5b		 pop	 ebx
  00029	8b e5		 mov	 esp, ebp
  0002b	5d		 pop	 ebp
  0002c	c2 04 00	 ret	 4
?_Getcomp@?$_Tree_comp@$0A@V?$_Tmap_traits@W4SDL_Scancode@@_NU?$less@W4SDL_Scancode@@@std@@V?$allocator@U?$pair@$$CBW4SDL_Scancode@@_N@std@@@3@$0A@@std@@@std@@QBE?AU?$less@W4SDL_Scancode@@@2@XZ ENDP ; std::_Tree_comp<0,std::_Tmap_traits<enum SDL_Scancode,bool,std::less<enum SDL_Scancode>,std::allocator<std::pair<enum SDL_Scancode const ,bool> >,0> >::_Getcomp
_TEXT	ENDS
; Function compile flags: /Odtp /RTCsu /ZI
;	COMDAT ?_Freenode0@?$_Tree_buy@U?$pair@$$CBW4SDL_Scancode@@_N@std@@V?$allocator@U?$pair@$$CBW4SDL_Scancode@@_N@std@@@2@@std@@QAEXPAU?$_Tree_node@U?$pair@$$CBW4SDL_Scancode@@_N@std@@PAX@2@@Z
_TEXT	SEGMENT
$T1 = -245						; size = 1
$T2 = -233						; size = 1
$T3 = -221						; size = 1
$T4 = -209						; size = 1
_this$ = -8						; size = 4
__Pnode$ = 8						; size = 4
?_Freenode0@?$_Tree_buy@U?$pair@$$CBW4SDL_Scancode@@_N@std@@V?$allocator@U?$pair@$$CBW4SDL_Scancode@@_N@std@@@2@@std@@QAEXPAU?$_Tree_node@U?$pair@$$CBW4SDL_Scancode@@_N@std@@PAX@2@@Z PROC ; std::_Tree_buy<std::pair<enum SDL_Scancode const ,bool>,std::allocator<std::pair<enum SDL_Scancode const ,bool> > >::_Freenode0, COMDAT
; _this$ = ecx
; File c:\program files (x86)\microsoft visual studio 12.0\vc\include\xtree
; Line 912
  00000	55		 push	 ebp
  00001	8b ec		 mov	 ebp, esp
  00003	81 ec fc 00 00
	00		 sub	 esp, 252		; 000000fcH
  00009	53		 push	 ebx
  0000a	56		 push	 esi
  0000b	57		 push	 edi
  0000c	51		 push	 ecx
  0000d	8d bd 04 ff ff
	ff		 lea	 edi, DWORD PTR [ebp-252]
  00013	b9 3f 00 00 00	 mov	 ecx, 63			; 0000003fH
  00018	b8 cc cc cc cc	 mov	 eax, -858993460		; ccccccccH
  0001d	f3 ab		 rep stosd
  0001f	59		 pop	 ecx
  00020	89 4d f8	 mov	 DWORD PTR _this$[ebp], ecx
; Line 914
  00023	8b 45 08	 mov	 eax, DWORD PTR __Pnode$[ebp]
  00026	50		 push	 eax
  00027	e8 00 00 00 00	 call	 ?_Left@?$_Tree_val@U?$_Tree_simple_types@U?$pair@$$CBW4SDL_Scancode@@_N@std@@@std@@@std@@SAAAPAU?$_Tree_node@U?$pair@$$CBW4SDL_Scancode@@_N@std@@PAX@2@PAU32@@Z ; std::_Tree_val<std::_Tree_simple_types<std::pair<enum SDL_Scancode const ,bool> > >::_Left
  0002c	83 c4 04	 add	 esp, 4
  0002f	50		 push	 eax
  00030	e8 00 00 00 00	 call	 ??$addressof@PAU?$_Tree_node@U?$pair@$$CBW4SDL_Scancode@@_N@std@@PAX@std@@@std@@YAPAPAU?$_Tree_node@U?$pair@$$CBW4SDL_Scancode@@_N@std@@PAX@0@AAPAU10@@Z ; std::addressof<std::_Tree_node<std::pair<enum SDL_Scancode const ,bool>,void *> *>
  00035	83 c4 04	 add	 esp, 4
  00038	50		 push	 eax
  00039	8d 8d 0b ff ff
	ff		 lea	 ecx, DWORD PTR $T1[ebp]
  0003f	51		 push	 ecx
  00040	8b 4d f8	 mov	 ecx, DWORD PTR _this$[ebp]
  00043	e8 00 00 00 00	 call	 ?_Getal@?$_Tree_alloc@$0A@U?$_Tree_base_types@U?$pair@$$CBW4SDL_Scancode@@_N@std@@V?$allocator@U?$pair@$$CBW4SDL_Scancode@@_N@std@@@2@@std@@@std@@QBE?AU?$_Wrap_alloc@V?$allocator@U?$_Tree_node@U?$pair@$$CBW4SDL_Scancode@@_N@std@@PAX@std@@@std@@@2@XZ ; std::_Tree_alloc<0,std::_Tree_base_types<std::pair<enum SDL_Scancode const ,bool>,std::allocator<std::pair<enum SDL_Scancode const ,bool> > > >::_Getal
  00048	8b c8		 mov	 ecx, eax
  0004a	e8 00 00 00 00	 call	 ??$destroy@PAU?$_Tree_node@U?$pair@$$CBW4SDL_Scancode@@_N@std@@PAX@std@@@?$_Wrap_alloc@V?$allocator@U?$_Tree_node@U?$pair@$$CBW4SDL_Scancode@@_N@std@@PAX@std@@@std@@@std@@QAEXPAPAU?$_Tree_node@U?$pair@$$CBW4SDL_Scancode@@_N@std@@PAX@1@@Z ; std::_Wrap_alloc<std::allocator<std::_Tree_node<std::pair<enum SDL_Scancode const ,bool>,void *> > >::destroy<std::_Tree_node<std::pair<enum SDL_Scancode const ,bool>,void *> *>
; Line 916
  0004f	8b 45 08	 mov	 eax, DWORD PTR __Pnode$[ebp]
  00052	50		 push	 eax
  00053	e8 00 00 00 00	 call	 ?_Parent@?$_Tree_val@U?$_Tree_simple_types@U?$pair@$$CBW4SDL_Scancode@@_N@std@@@std@@@std@@SAAAPAU?$_Tree_node@U?$pair@$$CBW4SDL_Scancode@@_N@std@@PAX@2@PAU32@@Z ; std::_Tree_val<std::_Tree_simple_types<std::pair<enum SDL_Scancode const ,bool> > >::_Parent
  00058	83 c4 04	 add	 esp, 4
  0005b	50		 push	 eax
  0005c	e8 00 00 00 00	 call	 ??$addressof@PAU?$_Tree_node@U?$pair@$$CBW4SDL_Scancode@@_N@std@@PAX@std@@@std@@YAPAPAU?$_Tree_node@U?$pair@$$CBW4SDL_Scancode@@_N@std@@PAX@0@AAPAU10@@Z ; std::addressof<std::_Tree_node<std::pair<enum SDL_Scancode const ,bool>,void *> *>
  00061	83 c4 04	 add	 esp, 4
  00064	50		 push	 eax
  00065	8d 8d 17 ff ff
	ff		 lea	 ecx, DWORD PTR $T2[ebp]
  0006b	51		 push	 ecx
  0006c	8b 4d f8	 mov	 ecx, DWORD PTR _this$[ebp]
  0006f	e8 00 00 00 00	 call	 ?_Getal@?$_Tree_alloc@$0A@U?$_Tree_base_types@U?$pair@$$CBW4SDL_Scancode@@_N@std@@V?$allocator@U?$pair@$$CBW4SDL_Scancode@@_N@std@@@2@@std@@@std@@QBE?AU?$_Wrap_alloc@V?$allocator@U?$_Tree_node@U?$pair@$$CBW4SDL_Scancode@@_N@std@@PAX@std@@@std@@@2@XZ ; std::_Tree_alloc<0,std::_Tree_base_types<std::pair<enum SDL_Scancode const ,bool>,std::allocator<std::pair<enum SDL_Scancode const ,bool> > > >::_Getal
  00074	8b c8		 mov	 ecx, eax
  00076	e8 00 00 00 00	 call	 ??$destroy@PAU?$_Tree_node@U?$pair@$$CBW4SDL_Scancode@@_N@std@@PAX@std@@@?$_Wrap_alloc@V?$allocator@U?$_Tree_node@U?$pair@$$CBW4SDL_Scancode@@_N@std@@PAX@std@@@std@@@std@@QAEXPAPAU?$_Tree_node@U?$pair@$$CBW4SDL_Scancode@@_N@std@@PAX@1@@Z ; std::_Wrap_alloc<std::allocator<std::_Tree_node<std::pair<enum SDL_Scancode const ,bool>,void *> > >::destroy<std::_Tree_node<std::pair<enum SDL_Scancode const ,bool>,void *> *>
; Line 918
  0007b	8b 45 08	 mov	 eax, DWORD PTR __Pnode$[ebp]
  0007e	50		 push	 eax
  0007f	e8 00 00 00 00	 call	 ?_Right@?$_Tree_val@U?$_Tree_simple_types@U?$pair@$$CBW4SDL_Scancode@@_N@std@@@std@@@std@@SAAAPAU?$_Tree_node@U?$pair@$$CBW4SDL_Scancode@@_N@std@@PAX@2@PAU32@@Z ; std::_Tree_val<std::_Tree_simple_types<std::pair<enum SDL_Scancode const ,bool> > >::_Right
  00084	83 c4 04	 add	 esp, 4
  00087	50		 push	 eax
  00088	e8 00 00 00 00	 call	 ??$addressof@PAU?$_Tree_node@U?$pair@$$CBW4SDL_Scancode@@_N@std@@PAX@std@@@std@@YAPAPAU?$_Tree_node@U?$pair@$$CBW4SDL_Scancode@@_N@std@@PAX@0@AAPAU10@@Z ; std::addressof<std::_Tree_node<std::pair<enum SDL_Scancode const ,bool>,void *> *>
  0008d	83 c4 04	 add	 esp, 4
  00090	50		 push	 eax
  00091	8d 8d 23 ff ff
	ff		 lea	 ecx, DWORD PTR $T3[ebp]
  00097	51		 push	 ecx
  00098	8b 4d f8	 mov	 ecx, DWORD PTR _this$[ebp]
  0009b	e8 00 00 00 00	 call	 ?_Getal@?$_Tree_alloc@$0A@U?$_Tree_base_types@U?$pair@$$CBW4SDL_Scancode@@_N@std@@V?$allocator@U?$pair@$$CBW4SDL_Scancode@@_N@std@@@2@@std@@@std@@QBE?AU?$_Wrap_alloc@V?$allocator@U?$_Tree_node@U?$pair@$$CBW4SDL_Scancode@@_N@std@@PAX@std@@@std@@@2@XZ ; std::_Tree_alloc<0,std::_Tree_base_types<std::pair<enum SDL_Scancode const ,bool>,std::allocator<std::pair<enum SDL_Scancode const ,bool> > > >::_Getal
  000a0	8b c8		 mov	 ecx, eax
  000a2	e8 00 00 00 00	 call	 ??$destroy@PAU?$_Tree_node@U?$pair@$$CBW4SDL_Scancode@@_N@std@@PAX@std@@@?$_Wrap_alloc@V?$allocator@U?$_Tree_node@U?$pair@$$CBW4SDL_Scancode@@_N@std@@PAX@std@@@std@@@std@@QAEXPAPAU?$_Tree_node@U?$pair@$$CBW4SDL_Scancode@@_N@std@@PAX@1@@Z ; std::_Wrap_alloc<std::allocator<std::_Tree_node<std::pair<enum SDL_Scancode const ,bool>,void *> > >::destroy<std::_Tree_node<std::pair<enum SDL_Scancode const ,bool>,void *> *>
; Line 919
  000a7	6a 01		 push	 1
  000a9	8b 45 08	 mov	 eax, DWORD PTR __Pnode$[ebp]
  000ac	50		 push	 eax
  000ad	8d 8d 2f ff ff
	ff		 lea	 ecx, DWORD PTR $T4[ebp]
  000b3	51		 push	 ecx
  000b4	8b 4d f8	 mov	 ecx, DWORD PTR _this$[ebp]
  000b7	e8 00 00 00 00	 call	 ?_Getal@?$_Tree_alloc@$0A@U?$_Tree_base_types@U?$pair@$$CBW4SDL_Scancode@@_N@std@@V?$allocator@U?$pair@$$CBW4SDL_Scancode@@_N@std@@@2@@std@@@std@@QBE?AU?$_Wrap_alloc@V?$allocator@U?$_Tree_node@U?$pair@$$CBW4SDL_Scancode@@_N@std@@PAX@std@@@std@@@2@XZ ; std::_Tree_alloc<0,std::_Tree_base_types<std::pair<enum SDL_Scancode const ,bool>,std::allocator<std::pair<enum SDL_Scancode const ,bool> > > >::_Getal
  000bc	8b c8		 mov	 ecx, eax
  000be	e8 00 00 00 00	 call	 ?deallocate@?$_Wrap_alloc@V?$allocator@U?$_Tree_node@U?$pair@$$CBW4SDL_Scancode@@_N@std@@PAX@std@@@std@@@std@@QAEXPAU?$_Tree_node@U?$pair@$$CBW4SDL_Scancode@@_N@std@@PAX@2@I@Z ; std::_Wrap_alloc<std::allocator<std::_Tree_node<std::pair<enum SDL_Scancode const ,bool>,void *> > >::deallocate
; Line 920
  000c3	5f		 pop	 edi
  000c4	5e		 pop	 esi
  000c5	5b		 pop	 ebx
  000c6	81 c4 fc 00 00
	00		 add	 esp, 252		; 000000fcH
  000cc	3b ec		 cmp	 ebp, esp
  000ce	e8 00 00 00 00	 call	 __RTC_CheckEsp
  000d3	8b e5		 mov	 esp, ebp
  000d5	5d		 pop	 ebp
  000d6	c2 04 00	 ret	 4
?_Freenode0@?$_Tree_buy@U?$pair@$$CBW4SDL_Scancode@@_N@std@@V?$allocator@U?$pair@$$CBW4SDL_Scancode@@_N@std@@@2@@std@@QAEXPAU?$_Tree_node@U?$pair@$$CBW4SDL_Scancode@@_N@std@@PAX@2@@Z ENDP ; std::_Tree_buy<std::pair<enum SDL_Scancode const ,bool>,std::allocator<std::pair<enum SDL_Scancode const ,bool> > >::_Freenode0
_TEXT	ENDS
; Function compile flags: /Odtp /RTCsu /ZI
;	COMDAT ?_Buynode0@?$_Tree_buy@U?$pair@$$CBW4SDL_Scancode@@_N@std@@V?$allocator@U?$pair@$$CBW4SDL_Scancode@@_N@std@@@2@@std@@QAEPAU?$_Tree_node@U?$pair@$$CBW4SDL_Scancode@@_N@std@@PAX@2@XZ
_TEXT	SEGMENT
tv181 = -300						; size = 4
tv179 = -300						; size = 4
tv177 = -300						; size = 4
tv180 = -296						; size = 4
tv178 = -296						; size = 4
tv176 = -296						; size = 4
$T2 = -285						; size = 1
$T3 = -273						; size = 1
$T4 = -261						; size = 1
$T5 = -249						; size = 1
$T6 = -237						; size = 1
__Pnode$ = -36						; size = 4
_this$ = -24						; size = 4
__$EHRec$ = -16						; size = 16
?_Buynode0@?$_Tree_buy@U?$pair@$$CBW4SDL_Scancode@@_N@std@@V?$allocator@U?$pair@$$CBW4SDL_Scancode@@_N@std@@@2@@std@@QAEPAU?$_Tree_node@U?$pair@$$CBW4SDL_Scancode@@_N@std@@PAX@2@XZ PROC ; std::_Tree_buy<std::pair<enum SDL_Scancode const ,bool>,std::allocator<std::pair<enum SDL_Scancode const ,bool> > >::_Buynode0, COMDAT
; _this$ = ecx
; File c:\program files (x86)\microsoft visual studio 12.0\vc\include\xtree
; Line 893
  00000	55		 push	 ebp
  00001	8b ec		 mov	 ebp, esp
  00003	6a ff		 push	 -1
  00005	68 00 00 00 00	 push	 __ehhandler$?_Buynode0@?$_Tree_buy@U?$pair@$$CBW4SDL_Scancode@@_N@std@@V?$allocator@U?$pair@$$CBW4SDL_Scancode@@_N@std@@@2@@std@@QAEPAU?$_Tree_node@U?$pair@$$CBW4SDL_Scancode@@_N@std@@PAX@2@XZ
  0000a	64 a1 00 00 00
	00		 mov	 eax, DWORD PTR fs:0
  00010	50		 push	 eax
  00011	51		 push	 ecx
  00012	81 ec 1c 01 00
	00		 sub	 esp, 284		; 0000011cH
  00018	53		 push	 ebx
  00019	56		 push	 esi
  0001a	57		 push	 edi
  0001b	51		 push	 ecx
  0001c	8d bd d4 fe ff
	ff		 lea	 edi, DWORD PTR [ebp-300]
  00022	b9 47 00 00 00	 mov	 ecx, 71			; 00000047H
  00027	b8 cc cc cc cc	 mov	 eax, -858993460		; ccccccccH
  0002c	f3 ab		 rep stosd
  0002e	59		 pop	 ecx
  0002f	a1 00 00 00 00	 mov	 eax, DWORD PTR ___security_cookie
  00034	33 c5		 xor	 eax, ebp
  00036	50		 push	 eax
  00037	8d 45 f4	 lea	 eax, DWORD PTR __$EHRec$[ebp+4]
  0003a	64 a3 00 00 00
	00		 mov	 DWORD PTR fs:0, eax
  00040	89 65 f0	 mov	 DWORD PTR __$EHRec$[ebp], esp
  00043	89 4d e8	 mov	 DWORD PTR _this$[ebp], ecx
; Line 894
  00046	6a 01		 push	 1
  00048	8d 85 e3 fe ff
	ff		 lea	 eax, DWORD PTR $T2[ebp]
  0004e	50		 push	 eax
  0004f	8b 4d e8	 mov	 ecx, DWORD PTR _this$[ebp]
  00052	e8 00 00 00 00	 call	 ?_Getal@?$_Tree_alloc@$0A@U?$_Tree_base_types@U?$pair@$$CBW4SDL_Scancode@@_N@std@@V?$allocator@U?$pair@$$CBW4SDL_Scancode@@_N@std@@@2@@std@@@std@@QBE?AU?$_Wrap_alloc@V?$allocator@U?$_Tree_node@U?$pair@$$CBW4SDL_Scancode@@_N@std@@PAX@std@@@std@@@2@XZ ; std::_Tree_alloc<0,std::_Tree_base_types<std::pair<enum SDL_Scancode const ,bool>,std::allocator<std::pair<enum SDL_Scancode const ,bool> > > >::_Getal
  00057	8b c8		 mov	 ecx, eax
  00059	e8 00 00 00 00	 call	 ?allocate@?$_Wrap_alloc@V?$allocator@U?$_Tree_node@U?$pair@$$CBW4SDL_Scancode@@_N@std@@PAX@std@@@std@@@std@@QAEPAU?$_Tree_node@U?$pair@$$CBW4SDL_Scancode@@_N@std@@PAX@2@I@Z ; std::_Wrap_alloc<std::allocator<std::_Tree_node<std::pair<enum SDL_Scancode const ,bool>,void *> > >::allocate
  0005e	89 45 dc	 mov	 DWORD PTR __Pnode$[ebp], eax
; Line 896
  00061	c7 45 fc 00 00
	00 00		 mov	 DWORD PTR __$EHRec$[ebp+12], 0
; Line 898
  00068	8b 45 dc	 mov	 eax, DWORD PTR __Pnode$[ebp]
  0006b	50		 push	 eax
  0006c	e8 00 00 00 00	 call	 ?_Left@?$_Tree_val@U?$_Tree_simple_types@U?$pair@$$CBW4SDL_Scancode@@_N@std@@@std@@@std@@SAAAPAU?$_Tree_node@U?$pair@$$CBW4SDL_Scancode@@_N@std@@PAX@2@PAU32@@Z ; std::_Tree_val<std::_Tree_simple_types<std::pair<enum SDL_Scancode const ,bool> > >::_Left
  00071	83 c4 04	 add	 esp, 4
  00074	89 85 d8 fe ff
	ff		 mov	 DWORD PTR tv176[ebp], eax
  0007a	8d 8d ef fe ff
	ff		 lea	 ecx, DWORD PTR $T3[ebp]
  00080	51		 push	 ecx
  00081	8b 4d e8	 mov	 ecx, DWORD PTR _this$[ebp]
  00084	e8 00 00 00 00	 call	 ?_Getal@?$_Tree_alloc@$0A@U?$_Tree_base_types@U?$pair@$$CBW4SDL_Scancode@@_N@std@@V?$allocator@U?$pair@$$CBW4SDL_Scancode@@_N@std@@@2@@std@@@std@@QBE?AU?$_Wrap_alloc@V?$allocator@U?$_Tree_node@U?$pair@$$CBW4SDL_Scancode@@_N@std@@PAX@std@@@std@@@2@XZ ; std::_Tree_alloc<0,std::_Tree_base_types<std::pair<enum SDL_Scancode const ,bool>,std::allocator<std::pair<enum SDL_Scancode const ,bool> > > >::_Getal
  00089	89 85 d4 fe ff
	ff		 mov	 DWORD PTR tv177[ebp], eax
  0008f	8b 55 e8	 mov	 edx, DWORD PTR _this$[ebp]
  00092	83 c2 04	 add	 edx, 4
  00095	52		 push	 edx
  00096	8b 85 d8 fe ff
	ff		 mov	 eax, DWORD PTR tv176[ebp]
  0009c	50		 push	 eax
  0009d	e8 00 00 00 00	 call	 ??$addressof@PAU?$_Tree_node@U?$pair@$$CBW4SDL_Scancode@@_N@std@@PAX@std@@@std@@YAPAPAU?$_Tree_node@U?$pair@$$CBW4SDL_Scancode@@_N@std@@PAX@0@AAPAU10@@Z ; std::addressof<std::_Tree_node<std::pair<enum SDL_Scancode const ,bool>,void *> *>
  000a2	83 c4 04	 add	 esp, 4
  000a5	50		 push	 eax
  000a6	8b 8d d4 fe ff
	ff		 mov	 ecx, DWORD PTR tv177[ebp]
  000ac	e8 00 00 00 00	 call	 ??$construct@PAU?$_Tree_node@U?$pair@$$CBW4SDL_Scancode@@_N@std@@PAX@std@@AAPAU12@@?$_Wrap_alloc@V?$allocator@U?$_Tree_node@U?$pair@$$CBW4SDL_Scancode@@_N@std@@PAX@std@@@std@@@std@@QAEXPAPAU?$_Tree_node@U?$pair@$$CBW4SDL_Scancode@@_N@std@@PAX@1@AAPAU21@@Z ; std::_Wrap_alloc<std::allocator<std::_Tree_node<std::pair<enum SDL_Scancode const ,bool>,void *> > >::construct<std::_Tree_node<std::pair<enum SDL_Scancode const ,bool>,void *> *,std::_Tree_node<std::pair<enum SDL_Scancode const ,bool>,void *> * &>
; Line 900
  000b1	8b 45 dc	 mov	 eax, DWORD PTR __Pnode$[ebp]
  000b4	50		 push	 eax
  000b5	e8 00 00 00 00	 call	 ?_Parent@?$_Tree_val@U?$_Tree_simple_types@U?$pair@$$CBW4SDL_Scancode@@_N@std@@@std@@@std@@SAAAPAU?$_Tree_node@U?$pair@$$CBW4SDL_Scancode@@_N@std@@PAX@2@PAU32@@Z ; std::_Tree_val<std::_Tree_simple_types<std::pair<enum SDL_Scancode const ,bool> > >::_Parent
  000ba	83 c4 04	 add	 esp, 4
  000bd	89 85 d8 fe ff
	ff		 mov	 DWORD PTR tv178[ebp], eax
  000c3	8d 8d fb fe ff
	ff		 lea	 ecx, DWORD PTR $T4[ebp]
  000c9	51		 push	 ecx
  000ca	8b 4d e8	 mov	 ecx, DWORD PTR _this$[ebp]
  000cd	e8 00 00 00 00	 call	 ?_Getal@?$_Tree_alloc@$0A@U?$_Tree_base_types@U?$pair@$$CBW4SDL_Scancode@@_N@std@@V?$allocator@U?$pair@$$CBW4SDL_Scancode@@_N@std@@@2@@std@@@std@@QBE?AU?$_Wrap_alloc@V?$allocator@U?$_Tree_node@U?$pair@$$CBW4SDL_Scancode@@_N@std@@PAX@std@@@std@@@2@XZ ; std::_Tree_alloc<0,std::_Tree_base_types<std::pair<enum SDL_Scancode const ,bool>,std::allocator<std::pair<enum SDL_Scancode const ,bool> > > >::_Getal
  000d2	89 85 d4 fe ff
	ff		 mov	 DWORD PTR tv179[ebp], eax
  000d8	8b 55 e8	 mov	 edx, DWORD PTR _this$[ebp]
  000db	83 c2 04	 add	 edx, 4
  000de	52		 push	 edx
  000df	8b 85 d8 fe ff
	ff		 mov	 eax, DWORD PTR tv178[ebp]
  000e5	50		 push	 eax
  000e6	e8 00 00 00 00	 call	 ??$addressof@PAU?$_Tree_node@U?$pair@$$CBW4SDL_Scancode@@_N@std@@PAX@std@@@std@@YAPAPAU?$_Tree_node@U?$pair@$$CBW4SDL_Scancode@@_N@std@@PAX@0@AAPAU10@@Z ; std::addressof<std::_Tree_node<std::pair<enum SDL_Scancode const ,bool>,void *> *>
  000eb	83 c4 04	 add	 esp, 4
  000ee	50		 push	 eax
  000ef	8b 8d d4 fe ff
	ff		 mov	 ecx, DWORD PTR tv179[ebp]
  000f5	e8 00 00 00 00	 call	 ??$construct@PAU?$_Tree_node@U?$pair@$$CBW4SDL_Scancode@@_N@std@@PAX@std@@AAPAU12@@?$_Wrap_alloc@V?$allocator@U?$_Tree_node@U?$pair@$$CBW4SDL_Scancode@@_N@std@@PAX@std@@@std@@@std@@QAEXPAPAU?$_Tree_node@U?$pair@$$CBW4SDL_Scancode@@_N@std@@PAX@1@AAPAU21@@Z ; std::_Wrap_alloc<std::allocator<std::_Tree_node<std::pair<enum SDL_Scancode const ,bool>,void *> > >::construct<std::_Tree_node<std::pair<enum SDL_Scancode const ,bool>,void *> *,std::_Tree_node<std::pair<enum SDL_Scancode const ,bool>,void *> * &>
; Line 902
  000fa	8b 45 dc	 mov	 eax, DWORD PTR __Pnode$[ebp]
  000fd	50		 push	 eax
  000fe	e8 00 00 00 00	 call	 ?_Right@?$_Tree_val@U?$_Tree_simple_types@U?$pair@$$CBW4SDL_Scancode@@_N@std@@@std@@@std@@SAAAPAU?$_Tree_node@U?$pair@$$CBW4SDL_Scancode@@_N@std@@PAX@2@PAU32@@Z ; std::_Tree_val<std::_Tree_simple_types<std::pair<enum SDL_Scancode const ,bool> > >::_Right
  00103	83 c4 04	 add	 esp, 4
  00106	89 85 d8 fe ff
	ff		 mov	 DWORD PTR tv180[ebp], eax
  0010c	8d 8d 07 ff ff
	ff		 lea	 ecx, DWORD PTR $T5[ebp]
  00112	51		 push	 ecx
  00113	8b 4d e8	 mov	 ecx, DWORD PTR _this$[ebp]
  00116	e8 00 00 00 00	 call	 ?_Getal@?$_Tree_alloc@$0A@U?$_Tree_base_types@U?$pair@$$CBW4SDL_Scancode@@_N@std@@V?$allocator@U?$pair@$$CBW4SDL_Scancode@@_N@std@@@2@@std@@@std@@QBE?AU?$_Wrap_alloc@V?$allocator@U?$_Tree_node@U?$pair@$$CBW4SDL_Scancode@@_N@std@@PAX@std@@@std@@@2@XZ ; std::_Tree_alloc<0,std::_Tree_base_types<std::pair<enum SDL_Scancode const ,bool>,std::allocator<std::pair<enum SDL_Scancode const ,bool> > > >::_Getal
  0011b	89 85 d4 fe ff
	ff		 mov	 DWORD PTR tv181[ebp], eax
  00121	8b 55 e8	 mov	 edx, DWORD PTR _this$[ebp]
  00124	83 c2 04	 add	 edx, 4
  00127	52		 push	 edx
  00128	8b 85 d8 fe ff
	ff		 mov	 eax, DWORD PTR tv180[ebp]
  0012e	50		 push	 eax
  0012f	e8 00 00 00 00	 call	 ??$addressof@PAU?$_Tree_node@U?$pair@$$CBW4SDL_Scancode@@_N@std@@PAX@std@@@std@@YAPAPAU?$_Tree_node@U?$pair@$$CBW4SDL_Scancode@@_N@std@@PAX@0@AAPAU10@@Z ; std::addressof<std::_Tree_node<std::pair<enum SDL_Scancode const ,bool>,void *> *>
  00134	83 c4 04	 add	 esp, 4
  00137	50		 push	 eax
  00138	8b 8d d4 fe ff
	ff		 mov	 ecx, DWORD PTR tv181[ebp]
  0013e	e8 00 00 00 00	 call	 ??$construct@PAU?$_Tree_node@U?$pair@$$CBW4SDL_Scancode@@_N@std@@PAX@std@@AAPAU12@@?$_Wrap_alloc@V?$allocator@U?$_Tree_node@U?$pair@$$CBW4SDL_Scancode@@_N@std@@PAX@std@@@std@@@std@@QAEXPAPAU?$_Tree_node@U?$pair@$$CBW4SDL_Scancode@@_N@std@@PAX@1@AAPAU21@@Z ; std::_Wrap_alloc<std::allocator<std::_Tree_node<std::pair<enum SDL_Scancode const ,bool>,void *> > >::construct<std::_Tree_node<std::pair<enum SDL_Scancode const ,bool>,void *> *,std::_Tree_node<std::pair<enum SDL_Scancode const ,bool>,void *> * &>
  00143	eb 2b		 jmp	 SHORT $LN4@Buynode0
__catch$?_Buynode0@?$_Tree_buy@U?$pair@$$CBW4SDL_Scancode@@_N@std@@V?$allocator@U?$pair@$$CBW4SDL_Scancode@@_N@std@@@2@@std@@QAEPAU?$_Tree_node@U?$pair@$$CBW4SDL_Scancode@@_N@std@@PAX@2@XZ$0:
; Line 904
  00145	6a 01		 push	 1
  00147	8b 45 dc	 mov	 eax, DWORD PTR __Pnode$[ebp]
  0014a	50		 push	 eax
  0014b	8d 8d 13 ff ff
	ff		 lea	 ecx, DWORD PTR $T6[ebp]
  00151	51		 push	 ecx
  00152	8b 4d e8	 mov	 ecx, DWORD PTR _this$[ebp]
  00155	e8 00 00 00 00	 call	 ?_Getal@?$_Tree_alloc@$0A@U?$_Tree_base_types@U?$pair@$$CBW4SDL_Scancode@@_N@std@@V?$allocator@U?$pair@$$CBW4SDL_Scancode@@_N@std@@@2@@std@@@std@@QBE?AU?$_Wrap_alloc@V?$allocator@U?$_Tree_node@U?$pair@$$CBW4SDL_Scancode@@_N@std@@PAX@std@@@std@@@2@XZ ; std::_Tree_alloc<0,std::_Tree_base_types<std::pair<enum SDL_Scancode const ,bool>,std::allocator<std::pair<enum SDL_Scancode const ,bool> > > >::_Getal
  0015a	8b c8		 mov	 ecx, eax
  0015c	e8 00 00 00 00	 call	 ?deallocate@?$_Wrap_alloc@V?$allocator@U?$_Tree_node@U?$pair@$$CBW4SDL_Scancode@@_N@std@@PAX@std@@@std@@@std@@QAEXPAU?$_Tree_node@U?$pair@$$CBW4SDL_Scancode@@_N@std@@PAX@2@I@Z ; std::_Wrap_alloc<std::allocator<std::_Tree_node<std::pair<enum SDL_Scancode const ,bool>,void *> > >::deallocate
; Line 905
  00161	6a 00		 push	 0
  00163	6a 00		 push	 0
  00165	e8 00 00 00 00	 call	 __CxxThrowException@8
; Line 906
  0016a	b8 00 00 00 00	 mov	 eax, $LN7@Buynode0
  0016f	c3		 ret	 0
$LN4@Buynode0:
  00170	c7 45 fc ff ff
	ff ff		 mov	 DWORD PTR __$EHRec$[ebp+12], -1
  00177	eb 07		 jmp	 SHORT __tryend$?_Buynode0@?$_Tree_buy@U?$pair@$$CBW4SDL_Scancode@@_N@std@@V?$allocator@U?$pair@$$CBW4SDL_Scancode@@_N@std@@@2@@std@@QAEPAU?$_Tree_node@U?$pair@$$CBW4SDL_Scancode@@_N@std@@PAX@2@XZ$1
$LN7@Buynode0:
  00179	c7 45 fc ff ff
	ff ff		 mov	 DWORD PTR __$EHRec$[ebp+12], -1
__tryend$?_Buynode0@?$_Tree_buy@U?$pair@$$CBW4SDL_Scancode@@_N@std@@V?$allocator@U?$pair@$$CBW4SDL_Scancode@@_N@std@@@2@@std@@QAEPAU?$_Tree_node@U?$pair@$$CBW4SDL_Scancode@@_N@std@@PAX@2@XZ$1:
; Line 908
  00180	8b 45 dc	 mov	 eax, DWORD PTR __Pnode$[ebp]
$LN3@Buynode0:
; Line 909
  00183	8b 4d f4	 mov	 ecx, DWORD PTR __$EHRec$[ebp+4]
  00186	64 89 0d 00 00
	00 00		 mov	 DWORD PTR fs:0, ecx
  0018d	59		 pop	 ecx
  0018e	5f		 pop	 edi
  0018f	5e		 pop	 esi
  00190	5b		 pop	 ebx
  00191	81 c4 2c 01 00
	00		 add	 esp, 300		; 0000012cH
  00197	3b ec		 cmp	 ebp, esp
  00199	e8 00 00 00 00	 call	 __RTC_CheckEsp
  0019e	8b e5		 mov	 esp, ebp
  001a0	5d		 pop	 ebp
  001a1	c3		 ret	 0
_TEXT	ENDS
;	COMDAT text$x
text$x	SEGMENT
__ehhandler$?_Buynode0@?$_Tree_buy@U?$pair@$$CBW4SDL_Scancode@@_N@std@@V?$allocator@U?$pair@$$CBW4SDL_Scancode@@_N@std@@@2@@std@@QAEPAU?$_Tree_node@U?$pair@$$CBW4SDL_Scancode@@_N@std@@PAX@2@XZ:
  00000	8b 54 24 08	 mov	 edx, DWORD PTR [esp+8]
  00004	8d 42 0c	 lea	 eax, DWORD PTR [edx+12]
  00007	8b 8a d0 fe ff
	ff		 mov	 ecx, DWORD PTR [edx-304]
  0000d	33 c8		 xor	 ecx, eax
  0000f	e8 00 00 00 00	 call	 @__security_check_cookie@4
  00014	b8 00 00 00 00	 mov	 eax, OFFSET __ehfuncinfo$?_Buynode0@?$_Tree_buy@U?$pair@$$CBW4SDL_Scancode@@_N@std@@V?$allocator@U?$pair@$$CBW4SDL_Scancode@@_N@std@@@2@@std@@QAEPAU?$_Tree_node@U?$pair@$$CBW4SDL_Scancode@@_N@std@@PAX@2@XZ
  00019	e9 00 00 00 00	 jmp	 ___CxxFrameHandler3
text$x	ENDS
?_Buynode0@?$_Tree_buy@U?$pair@$$CBW4SDL_Scancode@@_N@std@@V?$allocator@U?$pair@$$CBW4SDL_Scancode@@_N@std@@@2@@std@@QAEPAU?$_Tree_node@U?$pair@$$CBW4SDL_Scancode@@_N@std@@PAX@2@XZ ENDP ; std::_Tree_buy<std::pair<enum SDL_Scancode const ,bool>,std::allocator<std::pair<enum SDL_Scancode const ,bool> > >::_Buynode0
; Function compile flags: /Odtp /RTCsu /ZI
;	COMDAT ?_Getal@?$_Tree_alloc@$0A@U?$_Tree_base_types@U?$pair@$$CBW4SDL_Scancode@@_N@std@@V?$allocator@U?$pair@$$CBW4SDL_Scancode@@_N@std@@@2@@std@@@std@@QBE?AU?$_Wrap_alloc@V?$allocator@U?$_Tree_node@U?$pair@$$CBW4SDL_Scancode@@_N@std@@PAX@std@@@std@@@2@XZ
_TEXT	SEGMENT
_this$ = -8						; size = 4
___$ReturnUdt$ = 8					; size = 4
?_Getal@?$_Tree_alloc@$0A@U?$_Tree_base_types@U?$pair@$$CBW4SDL_Scancode@@_N@std@@V?$allocator@U?$pair@$$CBW4SDL_Scancode@@_N@std@@@2@@std@@@std@@QBE?AU?$_Wrap_alloc@V?$allocator@U?$_Tree_node@U?$pair@$$CBW4SDL_Scancode@@_N@std@@PAX@std@@@std@@@2@XZ PROC ; std::_Tree_alloc<0,std::_Tree_base_types<std::pair<enum SDL_Scancode const ,bool>,std::allocator<std::pair<enum SDL_Scancode const ,bool> > > >::_Getal, COMDAT
; _this$ = ecx
; File c:\program files (x86)\microsoft visual studio 12.0\vc\include\xtree
; Line 868
  00000	55		 push	 ebp
  00001	8b ec		 mov	 ebp, esp
  00003	81 ec cc 00 00
	00		 sub	 esp, 204		; 000000ccH
  00009	53		 push	 ebx
  0000a	56		 push	 esi
  0000b	57		 push	 edi
  0000c	51		 push	 ecx
  0000d	8d bd 34 ff ff
	ff		 lea	 edi, DWORD PTR [ebp-204]
  00013	b9 33 00 00 00	 mov	 ecx, 51			; 00000033H
  00018	b8 cc cc cc cc	 mov	 eax, -858993460		; ccccccccH
  0001d	f3 ab		 rep stosd
  0001f	59		 pop	 ecx
  00020	89 4d f8	 mov	 DWORD PTR _this$[ebp], ecx
; Line 869
  00023	8b 4d 08	 mov	 ecx, DWORD PTR ___$ReturnUdt$[ebp]
  00026	e8 00 00 00 00	 call	 ??0?$_Wrap_alloc@V?$allocator@U?$_Tree_node@U?$pair@$$CBW4SDL_Scancode@@_N@std@@PAX@std@@@std@@@std@@QAE@XZ ; std::_Wrap_alloc<std::allocator<std::_Tree_node<std::pair<enum SDL_Scancode const ,bool>,void *> > >::_Wrap_alloc<std::allocator<std::_Tree_node<std::pair<enum SDL_Scancode const ,bool>,void *> > >
  0002b	8b 45 08	 mov	 eax, DWORD PTR ___$ReturnUdt$[ebp]
; Line 870
  0002e	5f		 pop	 edi
  0002f	5e		 pop	 esi
  00030	5b		 pop	 ebx
  00031	81 c4 cc 00 00
	00		 add	 esp, 204		; 000000ccH
  00037	3b ec		 cmp	 ebp, esp
  00039	e8 00 00 00 00	 call	 __RTC_CheckEsp
  0003e	8b e5		 mov	 esp, ebp
  00040	5d		 pop	 ebp
  00041	c2 04 00	 ret	 4
?_Getal@?$_Tree_alloc@$0A@U?$_Tree_base_types@U?$pair@$$CBW4SDL_Scancode@@_N@std@@V?$allocator@U?$pair@$$CBW4SDL_Scancode@@_N@std@@@2@@std@@@std@@QBE?AU?$_Wrap_alloc@V?$allocator@U?$_Tree_node@U?$pair@$$CBW4SDL_Scancode@@_N@std@@PAX@std@@@std@@@2@XZ ENDP ; std::_Tree_alloc<0,std::_Tree_base_types<std::pair<enum SDL_Scancode const ,bool>,std::allocator<std::pair<enum SDL_Scancode const ,bool> > > >::_Getal
_TEXT	ENDS
; Function compile flags: /Odtp /RTCsu /ZI
;	COMDAT ?_Min@?$_Tree_val@U?$_Tree_simple_types@U?$pair@$$CBW4SDL_Scancode@@_N@std@@@std@@@std@@SAPAU?$_Tree_node@U?$pair@$$CBW4SDL_Scancode@@_N@std@@PAX@2@PAU32@@Z
_TEXT	SEGMENT
__Pnode$ = 8						; size = 4
?_Min@?$_Tree_val@U?$_Tree_simple_types@U?$pair@$$CBW4SDL_Scancode@@_N@std@@@std@@@std@@SAPAU?$_Tree_node@U?$pair@$$CBW4SDL_Scancode@@_N@std@@PAX@2@PAU32@@Z PROC ; std::_Tree_val<std::_Tree_simple_types<std::pair<enum SDL_Scancode const ,bool> > >::_Min, COMDAT
; File c:\program files (x86)\microsoft visual studio 12.0\vc\include\xtree
; Line 615
  00000	55		 push	 ebp
  00001	8b ec		 mov	 ebp, esp
  00003	81 ec c0 00 00
	00		 sub	 esp, 192		; 000000c0H
  00009	53		 push	 ebx
  0000a	56		 push	 esi
  0000b	57		 push	 edi
  0000c	8d bd 40 ff ff
	ff		 lea	 edi, DWORD PTR [ebp-192]
  00012	b9 30 00 00 00	 mov	 ecx, 48			; 00000030H
  00017	b8 cc cc cc cc	 mov	 eax, -858993460		; ccccccccH
  0001c	f3 ab		 rep stosd
$LN2@Min:
; Line 616
  0001e	8b 45 08	 mov	 eax, DWORD PTR __Pnode$[ebp]
  00021	50		 push	 eax
  00022	e8 00 00 00 00	 call	 ?_Left@?$_Tree_val@U?$_Tree_simple_types@U?$pair@$$CBW4SDL_Scancode@@_N@std@@@std@@@std@@SAAAPAU?$_Tree_node@U?$pair@$$CBW4SDL_Scancode@@_N@std@@PAX@2@PAU32@@Z ; std::_Tree_val<std::_Tree_simple_types<std::pair<enum SDL_Scancode const ,bool> > >::_Left
  00027	83 c4 04	 add	 esp, 4
  0002a	8b 08		 mov	 ecx, DWORD PTR [eax]
  0002c	51		 push	 ecx
  0002d	e8 00 00 00 00	 call	 ?_Isnil@?$_Tree_val@U?$_Tree_simple_types@U?$pair@$$CBW4SDL_Scancode@@_N@std@@@std@@@std@@SAAADPAU?$_Tree_node@U?$pair@$$CBW4SDL_Scancode@@_N@std@@PAX@2@@Z ; std::_Tree_val<std::_Tree_simple_types<std::pair<enum SDL_Scancode const ,bool> > >::_Isnil
  00032	83 c4 04	 add	 esp, 4
  00035	0f be 10	 movsx	 edx, BYTE PTR [eax]
  00038	85 d2		 test	 edx, edx
  0003a	75 13		 jne	 SHORT $LN1@Min
; Line 617
  0003c	8b 45 08	 mov	 eax, DWORD PTR __Pnode$[ebp]
  0003f	50		 push	 eax
  00040	e8 00 00 00 00	 call	 ?_Left@?$_Tree_val@U?$_Tree_simple_types@U?$pair@$$CBW4SDL_Scancode@@_N@std@@@std@@@std@@SAAAPAU?$_Tree_node@U?$pair@$$CBW4SDL_Scancode@@_N@std@@PAX@2@PAU32@@Z ; std::_Tree_val<std::_Tree_simple_types<std::pair<enum SDL_Scancode const ,bool> > >::_Left
  00045	83 c4 04	 add	 esp, 4
  00048	8b 08		 mov	 ecx, DWORD PTR [eax]
  0004a	89 4d 08	 mov	 DWORD PTR __Pnode$[ebp], ecx
  0004d	eb cf		 jmp	 SHORT $LN2@Min
$LN1@Min:
; Line 618
  0004f	8b 45 08	 mov	 eax, DWORD PTR __Pnode$[ebp]
; Line 619
  00052	5f		 pop	 edi
  00053	5e		 pop	 esi
  00054	5b		 pop	 ebx
  00055	81 c4 c0 00 00
	00		 add	 esp, 192		; 000000c0H
  0005b	3b ec		 cmp	 ebp, esp
  0005d	e8 00 00 00 00	 call	 __RTC_CheckEsp
  00062	8b e5		 mov	 esp, ebp
  00064	5d		 pop	 ebp
  00065	c3		 ret	 0
?_Min@?$_Tree_val@U?$_Tree_simple_types@U?$pair@$$CBW4SDL_Scancode@@_N@std@@@std@@@std@@SAPAU?$_Tree_node@U?$pair@$$CBW4SDL_Scancode@@_N@std@@PAX@2@PAU32@@Z ENDP ; std::_Tree_val<std::_Tree_simple_types<std::pair<enum SDL_Scancode const ,bool> > >::_Min
_TEXT	ENDS
; Function compile flags: /Odtp /RTCsu /ZI
;	COMDAT ?_Max@?$_Tree_val@U?$_Tree_simple_types@U?$pair@$$CBW4SDL_Scancode@@_N@std@@@std@@@std@@SAPAU?$_Tree_node@U?$pair@$$CBW4SDL_Scancode@@_N@std@@PAX@2@PAU32@@Z
_TEXT	SEGMENT
__Pnode$ = 8						; size = 4
?_Max@?$_Tree_val@U?$_Tree_simple_types@U?$pair@$$CBW4SDL_Scancode@@_N@std@@@std@@@std@@SAPAU?$_Tree_node@U?$pair@$$CBW4SDL_Scancode@@_N@std@@PAX@2@PAU32@@Z PROC ; std::_Tree_val<std::_Tree_simple_types<std::pair<enum SDL_Scancode const ,bool> > >::_Max, COMDAT
; File c:\program files (x86)\microsoft visual studio 12.0\vc\include\xtree
; Line 608
  00000	55		 push	 ebp
  00001	8b ec		 mov	 ebp, esp
  00003	81 ec c0 00 00
	00		 sub	 esp, 192		; 000000c0H
  00009	53		 push	 ebx
  0000a	56		 push	 esi
  0000b	57		 push	 edi
  0000c	8d bd 40 ff ff
	ff		 lea	 edi, DWORD PTR [ebp-192]
  00012	b9 30 00 00 00	 mov	 ecx, 48			; 00000030H
  00017	b8 cc cc cc cc	 mov	 eax, -858993460		; ccccccccH
  0001c	f3 ab		 rep stosd
$LN2@Max:
; Line 609
  0001e	8b 45 08	 mov	 eax, DWORD PTR __Pnode$[ebp]
  00021	50		 push	 eax
  00022	e8 00 00 00 00	 call	 ?_Right@?$_Tree_val@U?$_Tree_simple_types@U?$pair@$$CBW4SDL_Scancode@@_N@std@@@std@@@std@@SAAAPAU?$_Tree_node@U?$pair@$$CBW4SDL_Scancode@@_N@std@@PAX@2@PAU32@@Z ; std::_Tree_val<std::_Tree_simple_types<std::pair<enum SDL_Scancode const ,bool> > >::_Right
  00027	83 c4 04	 add	 esp, 4
  0002a	8b 08		 mov	 ecx, DWORD PTR [eax]
  0002c	51		 push	 ecx
  0002d	e8 00 00 00 00	 call	 ?_Isnil@?$_Tree_val@U?$_Tree_simple_types@U?$pair@$$CBW4SDL_Scancode@@_N@std@@@std@@@std@@SAAADPAU?$_Tree_node@U?$pair@$$CBW4SDL_Scancode@@_N@std@@PAX@2@@Z ; std::_Tree_val<std::_Tree_simple_types<std::pair<enum SDL_Scancode const ,bool> > >::_Isnil
  00032	83 c4 04	 add	 esp, 4
  00035	0f be 10	 movsx	 edx, BYTE PTR [eax]
  00038	85 d2		 test	 edx, edx
  0003a	75 13		 jne	 SHORT $LN1@Max
; Line 610
  0003c	8b 45 08	 mov	 eax, DWORD PTR __Pnode$[ebp]
  0003f	50		 push	 eax
  00040	e8 00 00 00 00	 call	 ?_Right@?$_Tree_val@U?$_Tree_simple_types@U?$pair@$$CBW4SDL_Scancode@@_N@std@@@std@@@std@@SAAAPAU?$_Tree_node@U?$pair@$$CBW4SDL_Scancode@@_N@std@@PAX@2@PAU32@@Z ; std::_Tree_val<std::_Tree_simple_types<std::pair<enum SDL_Scancode const ,bool> > >::_Right
  00045	83 c4 04	 add	 esp, 4
  00048	8b 08		 mov	 ecx, DWORD PTR [eax]
  0004a	89 4d 08	 mov	 DWORD PTR __Pnode$[ebp], ecx
  0004d	eb cf		 jmp	 SHORT $LN2@Max
$LN1@Max:
; Line 611
  0004f	8b 45 08	 mov	 eax, DWORD PTR __Pnode$[ebp]
; Line 612
  00052	5f		 pop	 edi
  00053	5e		 pop	 esi
  00054	5b		 pop	 ebx
  00055	81 c4 c0 00 00
	00		 add	 esp, 192		; 000000c0H
  0005b	3b ec		 cmp	 ebp, esp
  0005d	e8 00 00 00 00	 call	 __RTC_CheckEsp
  00062	8b e5		 mov	 esp, ebp
  00064	5d		 pop	 ebp
  00065	c3		 ret	 0
?_Max@?$_Tree_val@U?$_Tree_simple_types@U?$pair@$$CBW4SDL_Scancode@@_N@std@@@std@@@std@@SAPAU?$_Tree_node@U?$pair@$$CBW4SDL_Scancode@@_N@std@@PAX@2@PAU32@@Z ENDP ; std::_Tree_val<std::_Tree_simple_types<std::pair<enum SDL_Scancode const ,bool> > >::_Max
_TEXT	ENDS
; Function compile flags: /Odtp /RTCsu /ZI
;	COMDAT ?_Myval@?$_Tree_val@U?$_Tree_simple_types@U?$pair@$$CBW4SDL_Scancode@@_N@std@@@std@@@std@@SAAAU?$pair@$$CBW4SDL_Scancode@@_N@2@PAU?$_Tree_node@U?$pair@$$CBW4SDL_Scancode@@_N@std@@PAX@2@@Z
_TEXT	SEGMENT
__Pnode$ = 8						; size = 4
?_Myval@?$_Tree_val@U?$_Tree_simple_types@U?$pair@$$CBW4SDL_Scancode@@_N@std@@@std@@@std@@SAAAU?$pair@$$CBW4SDL_Scancode@@_N@2@PAU?$_Tree_node@U?$pair@$$CBW4SDL_Scancode@@_N@std@@PAX@2@@Z PROC ; std::_Tree_val<std::_Tree_simple_types<std::pair<enum SDL_Scancode const ,bool> > >::_Myval, COMDAT
; File c:\program files (x86)\microsoft visual studio 12.0\vc\include\xtree
; Line 603
  00000	55		 push	 ebp
  00001	8b ec		 mov	 ebp, esp
  00003	81 ec c0 00 00
	00		 sub	 esp, 192		; 000000c0H
  00009	53		 push	 ebx
  0000a	56		 push	 esi
  0000b	57		 push	 edi
  0000c	8d bd 40 ff ff
	ff		 lea	 edi, DWORD PTR [ebp-192]
  00012	b9 30 00 00 00	 mov	 ecx, 48			; 00000030H
  00017	b8 cc cc cc cc	 mov	 eax, -858993460		; ccccccccH
  0001c	f3 ab		 rep stosd
; Line 604
  0001e	8b 45 08	 mov	 eax, DWORD PTR __Pnode$[ebp]
  00021	83 c0 10	 add	 eax, 16			; 00000010H
; Line 605
  00024	5f		 pop	 edi
  00025	5e		 pop	 esi
  00026	5b		 pop	 ebx
  00027	8b e5		 mov	 esp, ebp
  00029	5d		 pop	 ebp
  0002a	c3		 ret	 0
?_Myval@?$_Tree_val@U?$_Tree_simple_types@U?$pair@$$CBW4SDL_Scancode@@_N@std@@@std@@@std@@SAAAU?$pair@$$CBW4SDL_Scancode@@_N@2@PAU?$_Tree_node@U?$pair@$$CBW4SDL_Scancode@@_N@std@@PAX@2@@Z ENDP ; std::_Tree_val<std::_Tree_simple_types<std::pair<enum SDL_Scancode const ,bool> > >::_Myval
_TEXT	ENDS
; Function compile flags: /Odtp /RTCsu /ZI
;	COMDAT ?_Right@?$_Tree_val@U?$_Tree_simple_types@U?$pair@$$CBW4SDL_Scancode@@_N@std@@@std@@@std@@SAAAPAU?$_Tree_node@U?$pair@$$CBW4SDL_Scancode@@_N@std@@PAX@2@PAU32@@Z
_TEXT	SEGMENT
__Pnode$ = 8						; size = 4
?_Right@?$_Tree_val@U?$_Tree_simple_types@U?$pair@$$CBW4SDL_Scancode@@_N@std@@@std@@@std@@SAAAPAU?$_Tree_node@U?$pair@$$CBW4SDL_Scancode@@_N@std@@PAX@2@PAU32@@Z PROC ; std::_Tree_val<std::_Tree_simple_types<std::pair<enum SDL_Scancode const ,bool> > >::_Right, COMDAT
; File c:\program files (x86)\microsoft visual studio 12.0\vc\include\xtree
; Line 598
  00000	55		 push	 ebp
  00001	8b ec		 mov	 ebp, esp
  00003	81 ec c0 00 00
	00		 sub	 esp, 192		; 000000c0H
  00009	53		 push	 ebx
  0000a	56		 push	 esi
  0000b	57		 push	 edi
  0000c	8d bd 40 ff ff
	ff		 lea	 edi, DWORD PTR [ebp-192]
  00012	b9 30 00 00 00	 mov	 ecx, 48			; 00000030H
  00017	b8 cc cc cc cc	 mov	 eax, -858993460		; ccccccccH
  0001c	f3 ab		 rep stosd
; Line 599
  0001e	8b 45 08	 mov	 eax, DWORD PTR __Pnode$[ebp]
  00021	83 c0 08	 add	 eax, 8
; Line 600
  00024	5f		 pop	 edi
  00025	5e		 pop	 esi
  00026	5b		 pop	 ebx
  00027	8b e5		 mov	 esp, ebp
  00029	5d		 pop	 ebp
  0002a	c3		 ret	 0
?_Right@?$_Tree_val@U?$_Tree_simple_types@U?$pair@$$CBW4SDL_Scancode@@_N@std@@@std@@@std@@SAAAPAU?$_Tree_node@U?$pair@$$CBW4SDL_Scancode@@_N@std@@PAX@2@PAU32@@Z ENDP ; std::_Tree_val<std::_Tree_simple_types<std::pair<enum SDL_Scancode const ,bool> > >::_Right
_TEXT	ENDS
; Function compile flags: /Odtp /RTCsu /ZI
;	COMDAT ?_Parent@?$_Tree_val@U?$_Tree_simple_types@U?$pair@$$CBW4SDL_Scancode@@_N@std@@@std@@@std@@SAAAPAU?$_Tree_node@U?$pair@$$CBW4SDL_Scancode@@_N@std@@PAX@2@PAU32@@Z
_TEXT	SEGMENT
__Pnode$ = 8						; size = 4
?_Parent@?$_Tree_val@U?$_Tree_simple_types@U?$pair@$$CBW4SDL_Scancode@@_N@std@@@std@@@std@@SAAAPAU?$_Tree_node@U?$pair@$$CBW4SDL_Scancode@@_N@std@@PAX@2@PAU32@@Z PROC ; std::_Tree_val<std::_Tree_simple_types<std::pair<enum SDL_Scancode const ,bool> > >::_Parent, COMDAT
; File c:\program files (x86)\microsoft visual studio 12.0\vc\include\xtree
; Line 593
  00000	55		 push	 ebp
  00001	8b ec		 mov	 ebp, esp
  00003	81 ec c0 00 00
	00		 sub	 esp, 192		; 000000c0H
  00009	53		 push	 ebx
  0000a	56		 push	 esi
  0000b	57		 push	 edi
  0000c	8d bd 40 ff ff
	ff		 lea	 edi, DWORD PTR [ebp-192]
  00012	b9 30 00 00 00	 mov	 ecx, 48			; 00000030H
  00017	b8 cc cc cc cc	 mov	 eax, -858993460		; ccccccccH
  0001c	f3 ab		 rep stosd
; Line 594
  0001e	8b 45 08	 mov	 eax, DWORD PTR __Pnode$[ebp]
  00021	83 c0 04	 add	 eax, 4
; Line 595
  00024	5f		 pop	 edi
  00025	5e		 pop	 esi
  00026	5b		 pop	 ebx
  00027	8b e5		 mov	 esp, ebp
  00029	5d		 pop	 ebp
  0002a	c3		 ret	 0
?_Parent@?$_Tree_val@U?$_Tree_simple_types@U?$pair@$$CBW4SDL_Scancode@@_N@std@@@std@@@std@@SAAAPAU?$_Tree_node@U?$pair@$$CBW4SDL_Scancode@@_N@std@@PAX@2@PAU32@@Z ENDP ; std::_Tree_val<std::_Tree_simple_types<std::pair<enum SDL_Scancode const ,bool> > >::_Parent
_TEXT	ENDS
; Function compile flags: /Odtp /RTCsu /ZI
;	COMDAT ?_Left@?$_Tree_val@U?$_Tree_simple_types@U?$pair@$$CBW4SDL_Scancode@@_N@std@@@std@@@std@@SAAAPAU?$_Tree_node@U?$pair@$$CBW4SDL_Scancode@@_N@std@@PAX@2@PAU32@@Z
_TEXT	SEGMENT
__Pnode$ = 8						; size = 4
?_Left@?$_Tree_val@U?$_Tree_simple_types@U?$pair@$$CBW4SDL_Scancode@@_N@std@@@std@@@std@@SAAAPAU?$_Tree_node@U?$pair@$$CBW4SDL_Scancode@@_N@std@@PAX@2@PAU32@@Z PROC ; std::_Tree_val<std::_Tree_simple_types<std::pair<enum SDL_Scancode const ,bool> > >::_Left, COMDAT
; File c:\program files (x86)\microsoft visual studio 12.0\vc\include\xtree
; Line 588
  00000	55		 push	 ebp
  00001	8b ec		 mov	 ebp, esp
  00003	81 ec c0 00 00
	00		 sub	 esp, 192		; 000000c0H
  00009	53		 push	 ebx
  0000a	56		 push	 esi
  0000b	57		 push	 edi
  0000c	8d bd 40 ff ff
	ff		 lea	 edi, DWORD PTR [ebp-192]
  00012	b9 30 00 00 00	 mov	 ecx, 48			; 00000030H
  00017	b8 cc cc cc cc	 mov	 eax, -858993460		; ccccccccH
  0001c	f3 ab		 rep stosd
; Line 589
  0001e	8b 45 08	 mov	 eax, DWORD PTR __Pnode$[ebp]
; Line 590
  00021	5f		 pop	 edi
  00022	5e		 pop	 esi
  00023	5b		 pop	 ebx
  00024	8b e5		 mov	 esp, ebp
  00026	5d		 pop	 ebp
  00027	c3		 ret	 0
?_Left@?$_Tree_val@U?$_Tree_simple_types@U?$pair@$$CBW4SDL_Scancode@@_N@std@@@std@@@std@@SAAAPAU?$_Tree_node@U?$pair@$$CBW4SDL_Scancode@@_N@std@@PAX@2@PAU32@@Z ENDP ; std::_Tree_val<std::_Tree_simple_types<std::pair<enum SDL_Scancode const ,bool> > >::_Left
_TEXT	ENDS
; Function compile flags: /Odtp /RTCsu /ZI
;	COMDAT ?_Isnil@?$_Tree_val@U?$_Tree_simple_types@U?$pair@$$CBW4SDL_Scancode@@_N@std@@@std@@@std@@SAAADPAU?$_Tree_node@U?$pair@$$CBW4SDL_Scancode@@_N@std@@PAX@2@@Z
_TEXT	SEGMENT
__Pnode$ = 8						; size = 4
?_Isnil@?$_Tree_val@U?$_Tree_simple_types@U?$pair@$$CBW4SDL_Scancode@@_N@std@@@std@@@std@@SAAADPAU?$_Tree_node@U?$pair@$$CBW4SDL_Scancode@@_N@std@@PAX@2@@Z PROC ; std::_Tree_val<std::_Tree_simple_types<std::pair<enum SDL_Scancode const ,bool> > >::_Isnil, COMDAT
; File c:\program files (x86)\microsoft visual studio 12.0\vc\include\xtree
; Line 583
  00000	55		 push	 ebp
  00001	8b ec		 mov	 ebp, esp
  00003	81 ec c0 00 00
	00		 sub	 esp, 192		; 000000c0H
  00009	53		 push	 ebx
  0000a	56		 push	 esi
  0000b	57		 push	 edi
  0000c	8d bd 40 ff ff
	ff		 lea	 edi, DWORD PTR [ebp-192]
  00012	b9 30 00 00 00	 mov	 ecx, 48			; 00000030H
  00017	b8 cc cc cc cc	 mov	 eax, -858993460		; ccccccccH
  0001c	f3 ab		 rep stosd
; Line 584
  0001e	8b 45 08	 mov	 eax, DWORD PTR __Pnode$[ebp]
  00021	83 c0 0d	 add	 eax, 13			; 0000000dH
; Line 585
  00024	5f		 pop	 edi
  00025	5e		 pop	 esi
  00026	5b		 pop	 ebx
  00027	8b e5		 mov	 esp, ebp
  00029	5d		 pop	 ebp
  0002a	c3		 ret	 0
?_Isnil@?$_Tree_val@U?$_Tree_simple_types@U?$pair@$$CBW4SDL_Scancode@@_N@std@@@std@@@std@@SAAADPAU?$_Tree_node@U?$pair@$$CBW4SDL_Scancode@@_N@std@@PAX@2@@Z ENDP ; std::_Tree_val<std::_Tree_simple_types<std::pair<enum SDL_Scancode const ,bool> > >::_Isnil
_TEXT	ENDS
; Function compile flags: /Odtp /RTCsu /ZI
;	COMDAT ?_Color@?$_Tree_val@U?$_Tree_simple_types@U?$pair@$$CBW4SDL_Scancode@@_N@std@@@std@@@std@@SAAADPAU?$_Tree_node@U?$pair@$$CBW4SDL_Scancode@@_N@std@@PAX@2@@Z
_TEXT	SEGMENT
__Pnode$ = 8						; size = 4
?_Color@?$_Tree_val@U?$_Tree_simple_types@U?$pair@$$CBW4SDL_Scancode@@_N@std@@@std@@@std@@SAAADPAU?$_Tree_node@U?$pair@$$CBW4SDL_Scancode@@_N@std@@PAX@2@@Z PROC ; std::_Tree_val<std::_Tree_simple_types<std::pair<enum SDL_Scancode const ,bool> > >::_Color, COMDAT
; File c:\program files (x86)\microsoft visual studio 12.0\vc\include\xtree
; Line 578
  00000	55		 push	 ebp
  00001	8b ec		 mov	 ebp, esp
  00003	81 ec c0 00 00
	00		 sub	 esp, 192		; 000000c0H
  00009	53		 push	 ebx
  0000a	56		 push	 esi
  0000b	57		 push	 edi
  0000c	8d bd 40 ff ff
	ff		 lea	 edi, DWORD PTR [ebp-192]
  00012	b9 30 00 00 00	 mov	 ecx, 48			; 00000030H
  00017	b8 cc cc cc cc	 mov	 eax, -858993460		; ccccccccH
  0001c	f3 ab		 rep stosd
; Line 579
  0001e	8b 45 08	 mov	 eax, DWORD PTR __Pnode$[ebp]
  00021	83 c0 0c	 add	 eax, 12			; 0000000cH
; Line 580
  00024	5f		 pop	 edi
  00025	5e		 pop	 esi
  00026	5b		 pop	 ebx
  00027	8b e5		 mov	 esp, ebp
  00029	5d		 pop	 ebp
  0002a	c3		 ret	 0
?_Color@?$_Tree_val@U?$_Tree_simple_types@U?$pair@$$CBW4SDL_Scancode@@_N@std@@@std@@@std@@SAAADPAU?$_Tree_node@U?$pair@$$CBW4SDL_Scancode@@_N@std@@PAX@2@@Z ENDP ; std::_Tree_val<std::_Tree_simple_types<std::pair<enum SDL_Scancode const ,bool> > >::_Color
_TEXT	ENDS
; Function compile flags: /Odtp /RTCsu /ZI
;	COMDAT ?max_size@?$_Wrap_alloc@V?$allocator@U?$_Tree_node@U?$pair@$$CBW4SDL_Scancode@@_N@std@@PAX@std@@@std@@@std@@QBEIXZ
_TEXT	SEGMENT
_this$ = -8						; size = 4
?max_size@?$_Wrap_alloc@V?$allocator@U?$_Tree_node@U?$pair@$$CBW4SDL_Scancode@@_N@std@@PAX@std@@@std@@@std@@QBEIXZ PROC ; std::_Wrap_alloc<std::allocator<std::_Tree_node<std::pair<enum SDL_Scancode const ,bool>,void *> > >::max_size, COMDAT
; _this$ = ecx
; File c:\program files (x86)\microsoft visual studio 12.0\vc\include\xmemory0
; Line 883
  00000	55		 push	 ebp
  00001	8b ec		 mov	 ebp, esp
  00003	81 ec cc 00 00
	00		 sub	 esp, 204		; 000000ccH
  00009	53		 push	 ebx
  0000a	56		 push	 esi
  0000b	57		 push	 edi
  0000c	51		 push	 ecx
  0000d	8d bd 34 ff ff
	ff		 lea	 edi, DWORD PTR [ebp-204]
  00013	b9 33 00 00 00	 mov	 ecx, 51			; 00000033H
  00018	b8 cc cc cc cc	 mov	 eax, -858993460		; ccccccccH
  0001d	f3 ab		 rep stosd
  0001f	59		 pop	 ecx
  00020	89 4d f8	 mov	 DWORD PTR _this$[ebp], ecx
; Line 884
  00023	8b 45 f8	 mov	 eax, DWORD PTR _this$[ebp]
  00026	50		 push	 eax
  00027	e8 00 00 00 00	 call	 ?max_size@?$allocator_traits@V?$allocator@U?$_Tree_node@U?$pair@$$CBW4SDL_Scancode@@_N@std@@PAX@std@@@std@@@std@@SAIABV?$allocator@U?$_Tree_node@U?$pair@$$CBW4SDL_Scancode@@_N@std@@PAX@std@@@2@@Z ; std::allocator_traits<std::allocator<std::_Tree_node<std::pair<enum SDL_Scancode const ,bool>,void *> > >::max_size
  0002c	83 c4 04	 add	 esp, 4
; Line 885
  0002f	5f		 pop	 edi
  00030	5e		 pop	 esi
  00031	5b		 pop	 ebx
  00032	81 c4 cc 00 00
	00		 add	 esp, 204		; 000000ccH
  00038	3b ec		 cmp	 ebp, esp
  0003a	e8 00 00 00 00	 call	 __RTC_CheckEsp
  0003f	8b e5		 mov	 esp, ebp
  00041	5d		 pop	 ebp
  00042	c3		 ret	 0
?max_size@?$_Wrap_alloc@V?$allocator@U?$_Tree_node@U?$pair@$$CBW4SDL_Scancode@@_N@std@@PAX@std@@@std@@@std@@QBEIXZ ENDP ; std::_Wrap_alloc<std::allocator<std::_Tree_node<std::pair<enum SDL_Scancode const ,bool>,void *> > >::max_size
_TEXT	ENDS
; Function compile flags: /Odtp /RTCsu /ZI
;	COMDAT ?deallocate@?$_Wrap_alloc@V?$allocator@U?$_Tree_node@U?$pair@$$CBW4SDL_Scancode@@_N@std@@PAX@std@@@std@@@std@@QAEXPAU?$_Tree_node@U?$pair@$$CBW4SDL_Scancode@@_N@std@@PAX@2@I@Z
_TEXT	SEGMENT
_this$ = -8						; size = 4
__Ptr$ = 8						; size = 4
__Count$ = 12						; size = 4
?deallocate@?$_Wrap_alloc@V?$allocator@U?$_Tree_node@U?$pair@$$CBW4SDL_Scancode@@_N@std@@PAX@std@@@std@@@std@@QAEXPAU?$_Tree_node@U?$pair@$$CBW4SDL_Scancode@@_N@std@@PAX@2@I@Z PROC ; std::_Wrap_alloc<std::allocator<std::_Tree_node<std::pair<enum SDL_Scancode const ,bool>,void *> > >::deallocate, COMDAT
; _this$ = ecx
; File c:\program files (x86)\microsoft visual studio 12.0\vc\include\xmemory0
; Line 857
  00000	55		 push	 ebp
  00001	8b ec		 mov	 ebp, esp
  00003	81 ec cc 00 00
	00		 sub	 esp, 204		; 000000ccH
  00009	53		 push	 ebx
  0000a	56		 push	 esi
  0000b	57		 push	 edi
  0000c	51		 push	 ecx
  0000d	8d bd 34 ff ff
	ff		 lea	 edi, DWORD PTR [ebp-204]
  00013	b9 33 00 00 00	 mov	 ecx, 51			; 00000033H
  00018	b8 cc cc cc cc	 mov	 eax, -858993460		; ccccccccH
  0001d	f3 ab		 rep stosd
  0001f	59		 pop	 ecx
  00020	89 4d f8	 mov	 DWORD PTR _this$[ebp], ecx
; Line 858
  00023	8b 45 0c	 mov	 eax, DWORD PTR __Count$[ebp]
  00026	50		 push	 eax
  00027	8b 4d 08	 mov	 ecx, DWORD PTR __Ptr$[ebp]
  0002a	51		 push	 ecx
  0002b	8b 4d f8	 mov	 ecx, DWORD PTR _this$[ebp]
  0002e	e8 00 00 00 00	 call	 ?deallocate@?$allocator@U?$_Tree_node@U?$pair@$$CBW4SDL_Scancode@@_N@std@@PAX@std@@@std@@QAEXPAU?$_Tree_node@U?$pair@$$CBW4SDL_Scancode@@_N@std@@PAX@2@I@Z ; std::allocator<std::_Tree_node<std::pair<enum SDL_Scancode const ,bool>,void *> >::deallocate
; Line 859
  00033	5f		 pop	 edi
  00034	5e		 pop	 esi
  00035	5b		 pop	 ebx
  00036	81 c4 cc 00 00
	00		 add	 esp, 204		; 000000ccH
  0003c	3b ec		 cmp	 ebp, esp
  0003e	e8 00 00 00 00	 call	 __RTC_CheckEsp
  00043	8b e5		 mov	 esp, ebp
  00045	5d		 pop	 ebp
  00046	c2 08 00	 ret	 8
?deallocate@?$_Wrap_alloc@V?$allocator@U?$_Tree_node@U?$pair@$$CBW4SDL_Scancode@@_N@std@@PAX@std@@@std@@@std@@QAEXPAU?$_Tree_node@U?$pair@$$CBW4SDL_Scancode@@_N@std@@PAX@2@I@Z ENDP ; std::_Wrap_alloc<std::allocator<std::_Tree_node<std::pair<enum SDL_Scancode const ,bool>,void *> > >::deallocate
_TEXT	ENDS
; Function compile flags: /Odtp /RTCsu /ZI
;	COMDAT ?allocate@?$_Wrap_alloc@V?$allocator@U?$_Tree_node@U?$pair@$$CBW4SDL_Scancode@@_N@std@@PAX@std@@@std@@@std@@QAEPAU?$_Tree_node@U?$pair@$$CBW4SDL_Scancode@@_N@std@@PAX@2@I@Z
_TEXT	SEGMENT
_this$ = -8						; size = 4
__Count$ = 8						; size = 4
?allocate@?$_Wrap_alloc@V?$allocator@U?$_Tree_node@U?$pair@$$CBW4SDL_Scancode@@_N@std@@PAX@std@@@std@@@std@@QAEPAU?$_Tree_node@U?$pair@$$CBW4SDL_Scancode@@_N@std@@PAX@2@I@Z PROC ; std::_Wrap_alloc<std::allocator<std::_Tree_node<std::pair<enum SDL_Scancode const ,bool>,void *> > >::allocate, COMDAT
; _this$ = ecx
; File c:\program files (x86)\microsoft visual studio 12.0\vc\include\xmemory0
; Line 846
  00000	55		 push	 ebp
  00001	8b ec		 mov	 ebp, esp
  00003	81 ec cc 00 00
	00		 sub	 esp, 204		; 000000ccH
  00009	53		 push	 ebx
  0000a	56		 push	 esi
  0000b	57		 push	 edi
  0000c	51		 push	 ecx
  0000d	8d bd 34 ff ff
	ff		 lea	 edi, DWORD PTR [ebp-204]
  00013	b9 33 00 00 00	 mov	 ecx, 51			; 00000033H
  00018	b8 cc cc cc cc	 mov	 eax, -858993460		; ccccccccH
  0001d	f3 ab		 rep stosd
  0001f	59		 pop	 ecx
  00020	89 4d f8	 mov	 DWORD PTR _this$[ebp], ecx
; Line 847
  00023	8b 45 08	 mov	 eax, DWORD PTR __Count$[ebp]
  00026	50		 push	 eax
  00027	8b 4d f8	 mov	 ecx, DWORD PTR _this$[ebp]
  0002a	e8 00 00 00 00	 call	 ?allocate@?$allocator@U?$_Tree_node@U?$pair@$$CBW4SDL_Scancode@@_N@std@@PAX@std@@@std@@QAEPAU?$_Tree_node@U?$pair@$$CBW4SDL_Scancode@@_N@std@@PAX@2@I@Z ; std::allocator<std::_Tree_node<std::pair<enum SDL_Scancode const ,bool>,void *> >::allocate
; Line 848
  0002f	5f		 pop	 edi
  00030	5e		 pop	 esi
  00031	5b		 pop	 ebx
  00032	81 c4 cc 00 00
	00		 add	 esp, 204		; 000000ccH
  00038	3b ec		 cmp	 ebp, esp
  0003a	e8 00 00 00 00	 call	 __RTC_CheckEsp
  0003f	8b e5		 mov	 esp, ebp
  00041	5d		 pop	 ebp
  00042	c2 04 00	 ret	 4
?allocate@?$_Wrap_alloc@V?$allocator@U?$_Tree_node@U?$pair@$$CBW4SDL_Scancode@@_N@std@@PAX@std@@@std@@@std@@QAEPAU?$_Tree_node@U?$pair@$$CBW4SDL_Scancode@@_N@std@@PAX@2@I@Z ENDP ; std::_Wrap_alloc<std::allocator<std::_Tree_node<std::pair<enum SDL_Scancode const ,bool>,void *> > >::allocate
_TEXT	ENDS
; Function compile flags: /Odtp /RTCsu /ZI
;	COMDAT ??0?$_Wrap_alloc@V?$allocator@U?$_Tree_node@U?$pair@$$CBW4SDL_Scancode@@_N@std@@PAX@std@@@std@@@std@@QAE@XZ
_TEXT	SEGMENT
_this$ = -8						; size = 4
??0?$_Wrap_alloc@V?$allocator@U?$_Tree_node@U?$pair@$$CBW4SDL_Scancode@@_N@std@@PAX@std@@@std@@@std@@QAE@XZ PROC ; std::_Wrap_alloc<std::allocator<std::_Tree_node<std::pair<enum SDL_Scancode const ,bool>,void *> > >::_Wrap_alloc<std::allocator<std::_Tree_node<std::pair<enum SDL_Scancode const ,bool>,void *> > >, COMDAT
; _this$ = ecx
; File c:\program files (x86)\microsoft visual studio 12.0\vc\include\xmemory0
; Line 801
  00000	55		 push	 ebp
  00001	8b ec		 mov	 ebp, esp
  00003	81 ec cc 00 00
	00		 sub	 esp, 204		; 000000ccH
  00009	53		 push	 ebx
  0000a	56		 push	 esi
  0000b	57		 push	 edi
  0000c	51		 push	 ecx
  0000d	8d bd 34 ff ff
	ff		 lea	 edi, DWORD PTR [ebp-204]
  00013	b9 33 00 00 00	 mov	 ecx, 51			; 00000033H
  00018	b8 cc cc cc cc	 mov	 eax, -858993460		; ccccccccH
  0001d	f3 ab		 rep stosd
  0001f	59		 pop	 ecx
  00020	89 4d f8	 mov	 DWORD PTR _this$[ebp], ecx
  00023	8b 4d f8	 mov	 ecx, DWORD PTR _this$[ebp]
  00026	e8 00 00 00 00	 call	 ??0?$allocator@U?$_Tree_node@U?$pair@$$CBW4SDL_Scancode@@_N@std@@PAX@std@@@std@@QAE@XZ ; std::allocator<std::_Tree_node<std::pair<enum SDL_Scancode const ,bool>,void *> >::allocator<std::_Tree_node<std::pair<enum SDL_Scancode const ,bool>,void *> >
; Line 802
  0002b	8b 45 f8	 mov	 eax, DWORD PTR _this$[ebp]
  0002e	5f		 pop	 edi
  0002f	5e		 pop	 esi
  00030	5b		 pop	 ebx
  00031	81 c4 cc 00 00
	00		 add	 esp, 204		; 000000ccH
  00037	3b ec		 cmp	 ebp, esp
  00039	e8 00 00 00 00	 call	 __RTC_CheckEsp
  0003e	8b e5		 mov	 esp, ebp
  00040	5d		 pop	 ebp
  00041	c3		 ret	 0
??0?$_Wrap_alloc@V?$allocator@U?$_Tree_node@U?$pair@$$CBW4SDL_Scancode@@_N@std@@PAX@std@@@std@@@std@@QAE@XZ ENDP ; std::_Wrap_alloc<std::allocator<std::_Tree_node<std::pair<enum SDL_Scancode const ,bool>,void *> > >::_Wrap_alloc<std::allocator<std::_Tree_node<std::pair<enum SDL_Scancode const ,bool>,void *> > >
_TEXT	ENDS
; Function compile flags: /Odtp /RTCsu /ZI
;	COMDAT ?max_size@?$allocator_traits@V?$allocator@U?$_Tree_node@U?$pair@$$CBW4SDL_Scancode@@_N@std@@PAX@std@@@std@@@std@@SAIABV?$allocator@U?$_Tree_node@U?$pair@$$CBW4SDL_Scancode@@_N@std@@PAX@std@@@2@@Z
_TEXT	SEGMENT
__Al$ = 8						; size = 4
?max_size@?$allocator_traits@V?$allocator@U?$_Tree_node@U?$pair@$$CBW4SDL_Scancode@@_N@std@@PAX@std@@@std@@@std@@SAIABV?$allocator@U?$_Tree_node@U?$pair@$$CBW4SDL_Scancode@@_N@std@@PAX@std@@@2@@Z PROC ; std::allocator_traits<std::allocator<std::_Tree_node<std::pair<enum SDL_Scancode const ,bool>,void *> > >::max_size, COMDAT
; File c:\program files (x86)\microsoft visual studio 12.0\vc\include\xmemory0
; Line 734
  00000	55		 push	 ebp
  00001	8b ec		 mov	 ebp, esp
  00003	81 ec c0 00 00
	00		 sub	 esp, 192		; 000000c0H
  00009	53		 push	 ebx
  0000a	56		 push	 esi
  0000b	57		 push	 edi
  0000c	8d bd 40 ff ff
	ff		 lea	 edi, DWORD PTR [ebp-192]
  00012	b9 30 00 00 00	 mov	 ecx, 48			; 00000030H
  00017	b8 cc cc cc cc	 mov	 eax, -858993460		; ccccccccH
  0001c	f3 ab		 rep stosd
; Line 735
  0001e	8b 4d 08	 mov	 ecx, DWORD PTR __Al$[ebp]
  00021	e8 00 00 00 00	 call	 ?max_size@?$allocator@U?$_Tree_node@U?$pair@$$CBW4SDL_Scancode@@_N@std@@PAX@std@@@std@@QBEIXZ ; std::allocator<std::_Tree_node<std::pair<enum SDL_Scancode const ,bool>,void *> >::max_size
; Line 736
  00026	5f		 pop	 edi
  00027	5e		 pop	 esi
  00028	5b		 pop	 ebx
  00029	81 c4 c0 00 00
	00		 add	 esp, 192		; 000000c0H
  0002f	3b ec		 cmp	 ebp, esp
  00031	e8 00 00 00 00	 call	 __RTC_CheckEsp
  00036	8b e5		 mov	 esp, ebp
  00038	5d		 pop	 ebp
  00039	c3		 ret	 0
?max_size@?$allocator_traits@V?$allocator@U?$_Tree_node@U?$pair@$$CBW4SDL_Scancode@@_N@std@@PAX@std@@@std@@@std@@SAIABV?$allocator@U?$_Tree_node@U?$pair@$$CBW4SDL_Scancode@@_N@std@@PAX@std@@@2@@Z ENDP ; std::allocator_traits<std::allocator<std::_Tree_node<std::pair<enum SDL_Scancode const ,bool>,void *> > >::max_size
_TEXT	ENDS
; Function compile flags: /Odtp /RTCsu /ZI
;	COMDAT ?max_size@?$allocator@U?$_Tree_node@U?$pair@$$CBW4SDL_Scancode@@_N@std@@PAX@std@@@std@@QBEIXZ
_TEXT	SEGMENT
_this$ = -8						; size = 4
?max_size@?$allocator@U?$_Tree_node@U?$pair@$$CBW4SDL_Scancode@@_N@std@@PAX@std@@@std@@QBEIXZ PROC ; std::allocator<std::_Tree_node<std::pair<enum SDL_Scancode const ,bool>,void *> >::max_size, COMDAT
; _this$ = ecx
; File c:\program files (x86)\microsoft visual studio 12.0\vc\include\xmemory0
; Line 611
  00000	55		 push	 ebp
  00001	8b ec		 mov	 ebp, esp
  00003	81 ec cc 00 00
	00		 sub	 esp, 204		; 000000ccH
  00009	53		 push	 ebx
  0000a	56		 push	 esi
  0000b	57		 push	 edi
  0000c	51		 push	 ecx
  0000d	8d bd 34 ff ff
	ff		 lea	 edi, DWORD PTR [ebp-204]
  00013	b9 33 00 00 00	 mov	 ecx, 51			; 00000033H
  00018	b8 cc cc cc cc	 mov	 eax, -858993460		; ccccccccH
  0001d	f3 ab		 rep stosd
  0001f	59		 pop	 ecx
  00020	89 4d f8	 mov	 DWORD PTR _this$[ebp], ecx
; Line 612
  00023	b8 aa aa aa 0a	 mov	 eax, 178956970		; 0aaaaaaaH
; Line 613
  00028	5f		 pop	 edi
  00029	5e		 pop	 esi
  0002a	5b		 pop	 ebx
  0002b	8b e5		 mov	 esp, ebp
  0002d	5d		 pop	 ebp
  0002e	c3		 ret	 0
?max_size@?$allocator@U?$_Tree_node@U?$pair@$$CBW4SDL_Scancode@@_N@std@@PAX@std@@@std@@QBEIXZ ENDP ; std::allocator<std::_Tree_node<std::pair<enum SDL_Scancode const ,bool>,void *> >::max_size
_TEXT	ENDS
; Function compile flags: /Odtp /RTCsu /ZI
;	COMDAT ?allocate@?$allocator@U?$_Tree_node@U?$pair@$$CBW4SDL_Scancode@@_N@std@@PAX@std@@@std@@QAEPAU?$_Tree_node@U?$pair@$$CBW4SDL_Scancode@@_N@std@@PAX@2@I@Z
_TEXT	SEGMENT
_this$ = -8						; size = 4
__Count$ = 8						; size = 4
?allocate@?$allocator@U?$_Tree_node@U?$pair@$$CBW4SDL_Scancode@@_N@std@@PAX@std@@@std@@QAEPAU?$_Tree_node@U?$pair@$$CBW4SDL_Scancode@@_N@std@@PAX@2@I@Z PROC ; std::allocator<std::_Tree_node<std::pair<enum SDL_Scancode const ,bool>,void *> >::allocate, COMDAT
; _this$ = ecx
; File c:\program files (x86)\microsoft visual studio 12.0\vc\include\xmemory0
; Line 577
  00000	55		 push	 ebp
  00001	8b ec		 mov	 ebp, esp
  00003	81 ec cc 00 00
	00		 sub	 esp, 204		; 000000ccH
  00009	53		 push	 ebx
  0000a	56		 push	 esi
  0000b	57		 push	 edi
  0000c	51		 push	 ecx
  0000d	8d bd 34 ff ff
	ff		 lea	 edi, DWORD PTR [ebp-204]
  00013	b9 33 00 00 00	 mov	 ecx, 51			; 00000033H
  00018	b8 cc cc cc cc	 mov	 eax, -858993460		; ccccccccH
  0001d	f3 ab		 rep stosd
  0001f	59		 pop	 ecx
  00020	89 4d f8	 mov	 DWORD PTR _this$[ebp], ecx
; Line 578
  00023	6a 00		 push	 0
  00025	8b 45 08	 mov	 eax, DWORD PTR __Count$[ebp]
  00028	50		 push	 eax
  00029	e8 00 00 00 00	 call	 ??$_Allocate@U?$_Tree_node@U?$pair@$$CBW4SDL_Scancode@@_N@std@@PAX@std@@@std@@YAPAU?$_Tree_node@U?$pair@$$CBW4SDL_Scancode@@_N@std@@PAX@0@IPAU10@@Z ; std::_Allocate<std::_Tree_node<std::pair<enum SDL_Scancode const ,bool>,void *> >
  0002e	83 c4 08	 add	 esp, 8
; Line 579
  00031	5f		 pop	 edi
  00032	5e		 pop	 esi
  00033	5b		 pop	 ebx
  00034	81 c4 cc 00 00
	00		 add	 esp, 204		; 000000ccH
  0003a	3b ec		 cmp	 ebp, esp
  0003c	e8 00 00 00 00	 call	 __RTC_CheckEsp
  00041	8b e5		 mov	 esp, ebp
  00043	5d		 pop	 ebp
  00044	c2 04 00	 ret	 4
?allocate@?$allocator@U?$_Tree_node@U?$pair@$$CBW4SDL_Scancode@@_N@std@@PAX@std@@@std@@QAEPAU?$_Tree_node@U?$pair@$$CBW4SDL_Scancode@@_N@std@@PAX@2@I@Z ENDP ; std::allocator<std::_Tree_node<std::pair<enum SDL_Scancode const ,bool>,void *> >::allocate
_TEXT	ENDS
; Function compile flags: /Odtp /RTCsu /ZI
;	COMDAT ?deallocate@?$allocator@U?$_Tree_node@U?$pair@$$CBW4SDL_Scancode@@_N@std@@PAX@std@@@std@@QAEXPAU?$_Tree_node@U?$pair@$$CBW4SDL_Scancode@@_N@std@@PAX@2@I@Z
_TEXT	SEGMENT
_this$ = -8						; size = 4
__Ptr$ = 8						; size = 4
___formal$ = 12						; size = 4
?deallocate@?$allocator@U?$_Tree_node@U?$pair@$$CBW4SDL_Scancode@@_N@std@@PAX@std@@@std@@QAEXPAU?$_Tree_node@U?$pair@$$CBW4SDL_Scancode@@_N@std@@PAX@2@I@Z PROC ; std::allocator<std::_Tree_node<std::pair<enum SDL_Scancode const ,bool>,void *> >::deallocate, COMDAT
; _this$ = ecx
; File c:\program files (x86)\microsoft visual studio 12.0\vc\include\xmemory0
; Line 572
  00000	55		 push	 ebp
  00001	8b ec		 mov	 ebp, esp
  00003	81 ec cc 00 00
	00		 sub	 esp, 204		; 000000ccH
  00009	53		 push	 ebx
  0000a	56		 push	 esi
  0000b	57		 push	 edi
  0000c	51		 push	 ecx
  0000d	8d bd 34 ff ff
	ff		 lea	 edi, DWORD PTR [ebp-204]
  00013	b9 33 00 00 00	 mov	 ecx, 51			; 00000033H
  00018	b8 cc cc cc cc	 mov	 eax, -858993460		; ccccccccH
  0001d	f3 ab		 rep stosd
  0001f	59		 pop	 ecx
  00020	89 4d f8	 mov	 DWORD PTR _this$[ebp], ecx
; Line 573
  00023	8b 45 08	 mov	 eax, DWORD PTR __Ptr$[ebp]
  00026	50		 push	 eax
  00027	e8 00 00 00 00	 call	 ??3@YAXPAX@Z		; operator delete
  0002c	83 c4 04	 add	 esp, 4
; Line 574
  0002f	5f		 pop	 edi
  00030	5e		 pop	 esi
  00031	5b		 pop	 ebx
  00032	81 c4 cc 00 00
	00		 add	 esp, 204		; 000000ccH
  00038	3b ec		 cmp	 ebp, esp
  0003a	e8 00 00 00 00	 call	 __RTC_CheckEsp
  0003f	8b e5		 mov	 esp, ebp
  00041	5d		 pop	 ebp
  00042	c2 08 00	 ret	 8
?deallocate@?$allocator@U?$_Tree_node@U?$pair@$$CBW4SDL_Scancode@@_N@std@@PAX@std@@@std@@QAEXPAU?$_Tree_node@U?$pair@$$CBW4SDL_Scancode@@_N@std@@PAX@2@I@Z ENDP ; std::allocator<std::_Tree_node<std::pair<enum SDL_Scancode const ,bool>,void *> >::deallocate
_TEXT	ENDS
; Function compile flags: /Odtp /RTCsu /ZI
;	COMDAT ??0?$allocator@U?$_Tree_node@U?$pair@$$CBW4SDL_Scancode@@_N@std@@PAX@std@@@std@@QAE@XZ
_TEXT	SEGMENT
_this$ = -8						; size = 4
??0?$allocator@U?$_Tree_node@U?$pair@$$CBW4SDL_Scancode@@_N@std@@PAX@std@@@std@@QAE@XZ PROC ; std::allocator<std::_Tree_node<std::pair<enum SDL_Scancode const ,bool>,void *> >::allocator<std::_Tree_node<std::pair<enum SDL_Scancode const ,bool>,void *> >, COMDAT
; _this$ = ecx
; File c:\program files (x86)\microsoft visual studio 12.0\vc\include\xmemory0
; Line 552
  00000	55		 push	 ebp
  00001	8b ec		 mov	 ebp, esp
  00003	81 ec cc 00 00
	00		 sub	 esp, 204		; 000000ccH
  00009	53		 push	 ebx
  0000a	56		 push	 esi
  0000b	57		 push	 edi
  0000c	51		 push	 ecx
  0000d	8d bd 34 ff ff
	ff		 lea	 edi, DWORD PTR [ebp-204]
  00013	b9 33 00 00 00	 mov	 ecx, 51			; 00000033H
  00018	b8 cc cc cc cc	 mov	 eax, -858993460		; ccccccccH
  0001d	f3 ab		 rep stosd
  0001f	59		 pop	 ecx
  00020	89 4d f8	 mov	 DWORD PTR _this$[ebp], ecx
; Line 554
  00023	8b 45 f8	 mov	 eax, DWORD PTR _this$[ebp]
  00026	5f		 pop	 edi
  00027	5e		 pop	 esi
  00028	5b		 pop	 ebx
  00029	8b e5		 mov	 esp, ebp
  0002b	5d		 pop	 ebp
  0002c	c3		 ret	 0
??0?$allocator@U?$_Tree_node@U?$pair@$$CBW4SDL_Scancode@@_N@std@@PAX@std@@@std@@QAE@XZ ENDP ; std::allocator<std::_Tree_node<std::pair<enum SDL_Scancode const ,bool>,void *> >::allocator<std::_Tree_node<std::pair<enum SDL_Scancode const ,bool>,void *> >
_TEXT	ENDS
; Function compile flags: /Odtp /RTCsu /ZI
;	COMDAT ??R?$less@W4SDL_Scancode@@@std@@QBE_NABW4SDL_Scancode@@0@Z
_TEXT	SEGMENT
tv65 = -208						; size = 4
_this$ = -8						; size = 4
__Left$ = 8						; size = 4
__Right$ = 12						; size = 4
??R?$less@W4SDL_Scancode@@@std@@QBE_NABW4SDL_Scancode@@0@Z PROC ; std::less<enum SDL_Scancode>::operator(), COMDAT
; _this$ = ecx
; File c:\program files (x86)\microsoft visual studio 12.0\vc\include\xstddef
; Line 192
  00000	55		 push	 ebp
  00001	8b ec		 mov	 ebp, esp
  00003	81 ec d0 00 00
	00		 sub	 esp, 208		; 000000d0H
  00009	53		 push	 ebx
  0000a	56		 push	 esi
  0000b	57		 push	 edi
  0000c	51		 push	 ecx
  0000d	8d bd 30 ff ff
	ff		 lea	 edi, DWORD PTR [ebp-208]
  00013	b9 34 00 00 00	 mov	 ecx, 52			; 00000034H
  00018	b8 cc cc cc cc	 mov	 eax, -858993460		; ccccccccH
  0001d	f3 ab		 rep stosd
  0001f	59		 pop	 ecx
  00020	89 4d f8	 mov	 DWORD PTR _this$[ebp], ecx
; Line 193
  00023	8b 45 08	 mov	 eax, DWORD PTR __Left$[ebp]
  00026	8b 4d 0c	 mov	 ecx, DWORD PTR __Right$[ebp]
  00029	8b 10		 mov	 edx, DWORD PTR [eax]
  0002b	3b 11		 cmp	 edx, DWORD PTR [ecx]
  0002d	7d 0c		 jge	 SHORT $LN3@operator
  0002f	c7 85 30 ff ff
	ff 01 00 00 00	 mov	 DWORD PTR tv65[ebp], 1
  00039	eb 0a		 jmp	 SHORT $LN4@operator
$LN3@operator:
  0003b	c7 85 30 ff ff
	ff 00 00 00 00	 mov	 DWORD PTR tv65[ebp], 0
$LN4@operator:
  00045	8a 85 30 ff ff
	ff		 mov	 al, BYTE PTR tv65[ebp]
; Line 194
  0004b	5f		 pop	 edi
  0004c	5e		 pop	 esi
  0004d	5b		 pop	 ebx
  0004e	8b e5		 mov	 esp, ebp
  00050	5d		 pop	 ebp
  00051	c2 08 00	 ret	 8
??R?$less@W4SDL_Scancode@@@std@@QBE_NABW4SDL_Scancode@@0@Z ENDP ; std::less<enum SDL_Scancode>::operator()
_TEXT	ENDS
; Function compile flags: /Odtp /RTCsu /ZI
;	COMDAT ?IsKeyHeld@Input@@QAE_NW4SDL_Scancode@@@Z
_TEXT	SEGMENT
_this$ = -8						; size = 4
_Key$ = 8						; size = 4
?IsKeyHeld@Input@@QAE_NW4SDL_Scancode@@@Z PROC		; Input::IsKeyHeld, COMDAT
; _this$ = ecx
; File f:\cavestory\cavestory\cavestory\input.cpp
; Line 48
  00000	55		 push	 ebp
  00001	8b ec		 mov	 ebp, esp
  00003	81 ec cc 00 00
	00		 sub	 esp, 204		; 000000ccH
  00009	53		 push	 ebx
  0000a	56		 push	 esi
  0000b	57		 push	 edi
  0000c	51		 push	 ecx
  0000d	8d bd 34 ff ff
	ff		 lea	 edi, DWORD PTR [ebp-204]
  00013	b9 33 00 00 00	 mov	 ecx, 51			; 00000033H
  00018	b8 cc cc cc cc	 mov	 eax, -858993460		; ccccccccH
  0001d	f3 ab		 rep stosd
  0001f	59		 pop	 ecx
  00020	89 4d f8	 mov	 DWORD PTR _this$[ebp], ecx
; Line 49
  00023	8d 45 08	 lea	 eax, DWORD PTR _Key$[ebp]
  00026	50		 push	 eax
  00027	8b 4d f8	 mov	 ecx, DWORD PTR _this$[ebp]
  0002a	83 c1 0c	 add	 ecx, 12			; 0000000cH
  0002d	e8 00 00 00 00	 call	 ??A?$map@W4SDL_Scancode@@_NU?$less@W4SDL_Scancode@@@std@@V?$allocator@U?$pair@$$CBW4SDL_Scancode@@_N@std@@@3@@std@@QAEAA_NABW4SDL_Scancode@@@Z ; std::map<enum SDL_Scancode,bool,std::less<enum SDL_Scancode>,std::allocator<std::pair<enum SDL_Scancode const ,bool> > >::operator[]
  00032	8a 00		 mov	 al, BYTE PTR [eax]
; Line 50
  00034	5f		 pop	 edi
  00035	5e		 pop	 esi
  00036	5b		 pop	 ebx
  00037	81 c4 cc 00 00
	00		 add	 esp, 204		; 000000ccH
  0003d	3b ec		 cmp	 ebp, esp
  0003f	e8 00 00 00 00	 call	 __RTC_CheckEsp
  00044	8b e5		 mov	 esp, ebp
  00046	5d		 pop	 ebp
  00047	c2 04 00	 ret	 4
?IsKeyHeld@Input@@QAE_NW4SDL_Scancode@@@Z ENDP		; Input::IsKeyHeld
_TEXT	ENDS
; Function compile flags: /Odtp /RTCsu /ZI
;	COMDAT ?WasKeyReleased@Input@@QAE_NW4SDL_Scancode@@@Z
_TEXT	SEGMENT
_this$ = -8						; size = 4
_Key$ = 8						; size = 4
?WasKeyReleased@Input@@QAE_NW4SDL_Scancode@@@Z PROC	; Input::WasKeyReleased, COMDAT
; _this$ = ecx
; File f:\cavestory\cavestory\cavestory\input.cpp
; Line 42
  00000	55		 push	 ebp
  00001	8b ec		 mov	 ebp, esp
  00003	81 ec cc 00 00
	00		 sub	 esp, 204		; 000000ccH
  00009	53		 push	 ebx
  0000a	56		 push	 esi
  0000b	57		 push	 edi
  0000c	51		 push	 ecx
  0000d	8d bd 34 ff ff
	ff		 lea	 edi, DWORD PTR [ebp-204]
  00013	b9 33 00 00 00	 mov	 ecx, 51			; 00000033H
  00018	b8 cc cc cc cc	 mov	 eax, -858993460		; ccccccccH
  0001d	f3 ab		 rep stosd
  0001f	59		 pop	 ecx
  00020	89 4d f8	 mov	 DWORD PTR _this$[ebp], ecx
; Line 43
  00023	8d 45 08	 lea	 eax, DWORD PTR _Key$[ebp]
  00026	50		 push	 eax
  00027	8b 4d f8	 mov	 ecx, DWORD PTR _this$[ebp]
  0002a	83 c1 18	 add	 ecx, 24			; 00000018H
  0002d	e8 00 00 00 00	 call	 ??A?$map@W4SDL_Scancode@@_NU?$less@W4SDL_Scancode@@@std@@V?$allocator@U?$pair@$$CBW4SDL_Scancode@@_N@std@@@3@@std@@QAEAA_NABW4SDL_Scancode@@@Z ; std::map<enum SDL_Scancode,bool,std::less<enum SDL_Scancode>,std::allocator<std::pair<enum SDL_Scancode const ,bool> > >::operator[]
  00032	8a 00		 mov	 al, BYTE PTR [eax]
; Line 44
  00034	5f		 pop	 edi
  00035	5e		 pop	 esi
  00036	5b		 pop	 ebx
  00037	81 c4 cc 00 00
	00		 add	 esp, 204		; 000000ccH
  0003d	3b ec		 cmp	 ebp, esp
  0003f	e8 00 00 00 00	 call	 __RTC_CheckEsp
  00044	8b e5		 mov	 esp, ebp
  00046	5d		 pop	 ebp
  00047	c2 04 00	 ret	 4
?WasKeyReleased@Input@@QAE_NW4SDL_Scancode@@@Z ENDP	; Input::WasKeyReleased
_TEXT	ENDS
; Function compile flags: /Odtp /RTCsu /ZI
;	COMDAT ?WasKeyPressed@Input@@QAE_NW4SDL_Scancode@@@Z
_TEXT	SEGMENT
_this$ = -8						; size = 4
_Key$ = 8						; size = 4
?WasKeyPressed@Input@@QAE_NW4SDL_Scancode@@@Z PROC	; Input::WasKeyPressed, COMDAT
; _this$ = ecx
; File f:\cavestory\cavestory\cavestory\input.cpp
; Line 36
  00000	55		 push	 ebp
  00001	8b ec		 mov	 ebp, esp
  00003	81 ec cc 00 00
	00		 sub	 esp, 204		; 000000ccH
  00009	53		 push	 ebx
  0000a	56		 push	 esi
  0000b	57		 push	 edi
  0000c	51		 push	 ecx
  0000d	8d bd 34 ff ff
	ff		 lea	 edi, DWORD PTR [ebp-204]
  00013	b9 33 00 00 00	 mov	 ecx, 51			; 00000033H
  00018	b8 cc cc cc cc	 mov	 eax, -858993460		; ccccccccH
  0001d	f3 ab		 rep stosd
  0001f	59		 pop	 ecx
  00020	89 4d f8	 mov	 DWORD PTR _this$[ebp], ecx
; Line 37
  00023	8d 45 08	 lea	 eax, DWORD PTR _Key$[ebp]
  00026	50		 push	 eax
  00027	8b 4d f8	 mov	 ecx, DWORD PTR _this$[ebp]
  0002a	e8 00 00 00 00	 call	 ??A?$map@W4SDL_Scancode@@_NU?$less@W4SDL_Scancode@@@std@@V?$allocator@U?$pair@$$CBW4SDL_Scancode@@_N@std@@@3@@std@@QAEAA_NABW4SDL_Scancode@@@Z ; std::map<enum SDL_Scancode,bool,std::less<enum SDL_Scancode>,std::allocator<std::pair<enum SDL_Scancode const ,bool> > >::operator[]
  0002f	8a 00		 mov	 al, BYTE PTR [eax]
; Line 38
  00031	5f		 pop	 edi
  00032	5e		 pop	 esi
  00033	5b		 pop	 ebx
  00034	81 c4 cc 00 00
	00		 add	 esp, 204		; 000000ccH
  0003a	3b ec		 cmp	 ebp, esp
  0003c	e8 00 00 00 00	 call	 __RTC_CheckEsp
  00041	8b e5		 mov	 esp, ebp
  00043	5d		 pop	 ebp
  00044	c2 04 00	 ret	 4
?WasKeyPressed@Input@@QAE_NW4SDL_Scancode@@@Z ENDP	; Input::WasKeyPressed
_TEXT	ENDS
; Function compile flags: /Odtp /RTCsu /ZI
;	COMDAT ?KeyDownEvent@Input@@QAEXABTSDL_Event@@@Z
_TEXT	SEGMENT
_this$ = -8						; size = 4
_SDLEvent$ = 8						; size = 4
?KeyDownEvent@Input@@QAEXABTSDL_Event@@@Z PROC		; Input::KeyDownEvent, COMDAT
; _this$ = ecx
; File f:\cavestory\cavestory\cavestory\input.cpp
; Line 29
  00000	55		 push	 ebp
  00001	8b ec		 mov	 ebp, esp
  00003	81 ec cc 00 00
	00		 sub	 esp, 204		; 000000ccH
  00009	53		 push	 ebx
  0000a	56		 push	 esi
  0000b	57		 push	 edi
  0000c	51		 push	 ecx
  0000d	8d bd 34 ff ff
	ff		 lea	 edi, DWORD PTR [ebp-204]
  00013	b9 33 00 00 00	 mov	 ecx, 51			; 00000033H
  00018	b8 cc cc cc cc	 mov	 eax, -858993460		; ccccccccH
  0001d	f3 ab		 rep stosd
  0001f	59		 pop	 ecx
  00020	89 4d f8	 mov	 DWORD PTR _this$[ebp], ecx
; Line 30
  00023	8b 45 08	 mov	 eax, DWORD PTR _SDLEvent$[ebp]
  00026	83 c0 10	 add	 eax, 16			; 00000010H
  00029	50		 push	 eax
  0002a	8b 4d f8	 mov	 ecx, DWORD PTR _this$[ebp]
  0002d	e8 00 00 00 00	 call	 ??A?$map@W4SDL_Scancode@@_NU?$less@W4SDL_Scancode@@@std@@V?$allocator@U?$pair@$$CBW4SDL_Scancode@@_N@std@@@3@@std@@QAEAA_NABW4SDL_Scancode@@@Z ; std::map<enum SDL_Scancode,bool,std::less<enum SDL_Scancode>,std::allocator<std::pair<enum SDL_Scancode const ,bool> > >::operator[]
  00032	c6 00 01	 mov	 BYTE PTR [eax], 1
; Line 31
  00035	8b 45 08	 mov	 eax, DWORD PTR _SDLEvent$[ebp]
  00038	83 c0 10	 add	 eax, 16			; 00000010H
  0003b	50		 push	 eax
  0003c	8b 4d f8	 mov	 ecx, DWORD PTR _this$[ebp]
  0003f	83 c1 0c	 add	 ecx, 12			; 0000000cH
  00042	e8 00 00 00 00	 call	 ??A?$map@W4SDL_Scancode@@_NU?$less@W4SDL_Scancode@@@std@@V?$allocator@U?$pair@$$CBW4SDL_Scancode@@_N@std@@@3@@std@@QAEAA_NABW4SDL_Scancode@@@Z ; std::map<enum SDL_Scancode,bool,std::less<enum SDL_Scancode>,std::allocator<std::pair<enum SDL_Scancode const ,bool> > >::operator[]
  00047	c6 00 01	 mov	 BYTE PTR [eax], 1
; Line 32
  0004a	5f		 pop	 edi
  0004b	5e		 pop	 esi
  0004c	5b		 pop	 ebx
  0004d	81 c4 cc 00 00
	00		 add	 esp, 204		; 000000ccH
  00053	3b ec		 cmp	 ebp, esp
  00055	e8 00 00 00 00	 call	 __RTC_CheckEsp
  0005a	8b e5		 mov	 esp, ebp
  0005c	5d		 pop	 ebp
  0005d	c2 04 00	 ret	 4
?KeyDownEvent@Input@@QAEXABTSDL_Event@@@Z ENDP		; Input::KeyDownEvent
_TEXT	ENDS
; Function compile flags: /Odtp /RTCsu /ZI
;	COMDAT ?KeyUpEvent@Input@@QAEXABTSDL_Event@@@Z
_TEXT	SEGMENT
_this$ = -8						; size = 4
_SDLEvent$ = 8						; size = 4
?KeyUpEvent@Input@@QAEXABTSDL_Event@@@Z PROC		; Input::KeyUpEvent, COMDAT
; _this$ = ecx
; File f:\cavestory\cavestory\cavestory\input.cpp
; Line 22
  00000	55		 push	 ebp
  00001	8b ec		 mov	 ebp, esp
  00003	81 ec cc 00 00
	00		 sub	 esp, 204		; 000000ccH
  00009	53		 push	 ebx
  0000a	56		 push	 esi
  0000b	57		 push	 edi
  0000c	51		 push	 ecx
  0000d	8d bd 34 ff ff
	ff		 lea	 edi, DWORD PTR [ebp-204]
  00013	b9 33 00 00 00	 mov	 ecx, 51			; 00000033H
  00018	b8 cc cc cc cc	 mov	 eax, -858993460		; ccccccccH
  0001d	f3 ab		 rep stosd
  0001f	59		 pop	 ecx
  00020	89 4d f8	 mov	 DWORD PTR _this$[ebp], ecx
; Line 23
  00023	8b 45 08	 mov	 eax, DWORD PTR _SDLEvent$[ebp]
  00026	83 c0 10	 add	 eax, 16			; 00000010H
  00029	50		 push	 eax
  0002a	8b 4d f8	 mov	 ecx, DWORD PTR _this$[ebp]
  0002d	83 c1 18	 add	 ecx, 24			; 00000018H
  00030	e8 00 00 00 00	 call	 ??A?$map@W4SDL_Scancode@@_NU?$less@W4SDL_Scancode@@@std@@V?$allocator@U?$pair@$$CBW4SDL_Scancode@@_N@std@@@3@@std@@QAEAA_NABW4SDL_Scancode@@@Z ; std::map<enum SDL_Scancode,bool,std::less<enum SDL_Scancode>,std::allocator<std::pair<enum SDL_Scancode const ,bool> > >::operator[]
  00035	c6 00 01	 mov	 BYTE PTR [eax], 1
; Line 24
  00038	8b 45 08	 mov	 eax, DWORD PTR _SDLEvent$[ebp]
  0003b	83 c0 10	 add	 eax, 16			; 00000010H
  0003e	50		 push	 eax
  0003f	8b 4d f8	 mov	 ecx, DWORD PTR _this$[ebp]
  00042	83 c1 0c	 add	 ecx, 12			; 0000000cH
  00045	e8 00 00 00 00	 call	 ??A?$map@W4SDL_Scancode@@_NU?$less@W4SDL_Scancode@@@std@@V?$allocator@U?$pair@$$CBW4SDL_Scancode@@_N@std@@@3@@std@@QAEAA_NABW4SDL_Scancode@@@Z ; std::map<enum SDL_Scancode,bool,std::less<enum SDL_Scancode>,std::allocator<std::pair<enum SDL_Scancode const ,bool> > >::operator[]
  0004a	c6 00 00	 mov	 BYTE PTR [eax], 0
; Line 25
  0004d	5f		 pop	 edi
  0004e	5e		 pop	 esi
  0004f	5b		 pop	 ebx
  00050	81 c4 cc 00 00
	00		 add	 esp, 204		; 000000ccH
  00056	3b ec		 cmp	 ebp, esp
  00058	e8 00 00 00 00	 call	 __RTC_CheckEsp
  0005d	8b e5		 mov	 esp, ebp
  0005f	5d		 pop	 ebp
  00060	c2 04 00	 ret	 4
?KeyUpEvent@Input@@QAEXABTSDL_Event@@@Z ENDP		; Input::KeyUpEvent
_TEXT	ENDS
; Function compile flags: /Odtp /RTCsu /ZI
;	COMDAT ?Update@Input@@QAEXXZ
_TEXT	SEGMENT
_this$ = -8						; size = 4
?Update@Input@@QAEXXZ PROC				; Input::Update, COMDAT
; _this$ = ecx
; File f:\cavestory\cavestory\cavestory\input.cpp
; Line 15
  00000	55		 push	 ebp
  00001	8b ec		 mov	 ebp, esp
  00003	81 ec cc 00 00
	00		 sub	 esp, 204		; 000000ccH
  00009	53		 push	 ebx
  0000a	56		 push	 esi
  0000b	57		 push	 edi
  0000c	51		 push	 ecx
  0000d	8d bd 34 ff ff
	ff		 lea	 edi, DWORD PTR [ebp-204]
  00013	b9 33 00 00 00	 mov	 ecx, 51			; 00000033H
  00018	b8 cc cc cc cc	 mov	 eax, -858993460		; ccccccccH
  0001d	f3 ab		 rep stosd
  0001f	59		 pop	 ecx
  00020	89 4d f8	 mov	 DWORD PTR _this$[ebp], ecx
; Line 16
  00023	8b 4d f8	 mov	 ecx, DWORD PTR _this$[ebp]
  00026	e8 00 00 00 00	 call	 ?clear@?$_Tree@V?$_Tmap_traits@W4SDL_Scancode@@_NU?$less@W4SDL_Scancode@@@std@@V?$allocator@U?$pair@$$CBW4SDL_Scancode@@_N@std@@@3@$0A@@std@@@std@@QAEXXZ ; std::_Tree<std::_Tmap_traits<enum SDL_Scancode,bool,std::less<enum SDL_Scancode>,std::allocator<std::pair<enum SDL_Scancode const ,bool> >,0> >::clear
; Line 17
  0002b	8b 4d f8	 mov	 ecx, DWORD PTR _this$[ebp]
  0002e	83 c1 18	 add	 ecx, 24			; 00000018H
  00031	e8 00 00 00 00	 call	 ?clear@?$_Tree@V?$_Tmap_traits@W4SDL_Scancode@@_NU?$less@W4SDL_Scancode@@@std@@V?$allocator@U?$pair@$$CBW4SDL_Scancode@@_N@std@@@3@$0A@@std@@@std@@QAEXXZ ; std::_Tree<std::_Tmap_traits<enum SDL_Scancode,bool,std::less<enum SDL_Scancode>,std::allocator<std::pair<enum SDL_Scancode const ,bool> >,0> >::clear
; Line 18
  00036	5f		 pop	 edi
  00037	5e		 pop	 esi
  00038	5b		 pop	 ebx
  00039	81 c4 cc 00 00
	00		 add	 esp, 204		; 000000ccH
  0003f	3b ec		 cmp	 ebp, esp
  00041	e8 00 00 00 00	 call	 __RTC_CheckEsp
  00046	8b e5		 mov	 esp, ebp
  00048	5d		 pop	 ebp
  00049	c3		 ret	 0
?Update@Input@@QAEXXZ ENDP				; Input::Update
_TEXT	ENDS
; Function compile flags: /Odtp /RTCsu /ZI
;	COMDAT ??0?$tuple@$$$V@std@@QAE@ABV01@@Z
_TEXT	SEGMENT
_this$ = -8						; size = 4
___formal$ = 8						; size = 4
??0?$tuple@$$$V@std@@QAE@ABV01@@Z PROC			; std::tuple<>::tuple<>, COMDAT
; _this$ = ecx
; File c:\program files (x86)\microsoft visual studio 12.0\vc\include\tuple
; Line 144
  00000	55		 push	 ebp
  00001	8b ec		 mov	 ebp, esp
  00003	81 ec cc 00 00
	00		 sub	 esp, 204		; 000000ccH
  00009	53		 push	 ebx
  0000a	56		 push	 esi
  0000b	57		 push	 edi
  0000c	51		 push	 ecx
  0000d	8d bd 34 ff ff
	ff		 lea	 edi, DWORD PTR [ebp-204]
  00013	b9 33 00 00 00	 mov	 ecx, 51			; 00000033H
  00018	b8 cc cc cc cc	 mov	 eax, -858993460		; ccccccccH
  0001d	f3 ab		 rep stosd
  0001f	59		 pop	 ecx
  00020	89 4d f8	 mov	 DWORD PTR _this$[ebp], ecx
; Line 146
  00023	8b 45 f8	 mov	 eax, DWORD PTR _this$[ebp]
  00026	5f		 pop	 edi
  00027	5e		 pop	 esi
  00028	5b		 pop	 ebx
  00029	8b e5		 mov	 esp, ebp
  0002b	5d		 pop	 ebp
  0002c	c2 04 00	 ret	 4
??0?$tuple@$$$V@std@@QAE@ABV01@@Z ENDP			; std::tuple<>::tuple<>
_TEXT	ENDS
; Function compile flags: /Odtp /RTCsu /ZI
;	COMDAT ??0?$tuple@$$$V@std@@QAE@XZ
_TEXT	SEGMENT
_this$ = -8						; size = 4
??0?$tuple@$$$V@std@@QAE@XZ PROC			; std::tuple<>::tuple<>, COMDAT
; _this$ = ecx
; File c:\program files (x86)\microsoft visual studio 12.0\vc\include\tuple
; Line 135
  00000	55		 push	 ebp
  00001	8b ec		 mov	 ebp, esp
  00003	81 ec cc 00 00
	00		 sub	 esp, 204		; 000000ccH
  00009	53		 push	 ebx
  0000a	56		 push	 esi
  0000b	57		 push	 edi
  0000c	51		 push	 ecx
  0000d	8d bd 34 ff ff
	ff		 lea	 edi, DWORD PTR [ebp-204]
  00013	b9 33 00 00 00	 mov	 ecx, 51			; 00000033H
  00018	b8 cc cc cc cc	 mov	 eax, -858993460		; ccccccccH
  0001d	f3 ab		 rep stosd
  0001f	59		 pop	 ecx
  00020	89 4d f8	 mov	 DWORD PTR _this$[ebp], ecx
; Line 137
  00023	8b 45 f8	 mov	 eax, DWORD PTR _this$[ebp]
  00026	5f		 pop	 edi
  00027	5e		 pop	 esi
  00028	5b		 pop	 ebx
  00029	8b e5		 mov	 esp, ebp
  0002b	5d		 pop	 ebp
  0002c	c3		 ret	 0
??0?$tuple@$$$V@std@@QAE@XZ ENDP			; std::tuple<>::tuple<>
_TEXT	ENDS
; Function compile flags: /Odtp /RTCsu /ZI
;	COMDAT ??__E_Tuple_alloc@std@@YAXXZ
text$di	SEGMENT
$T1 = -197						; size = 1
??__E_Tuple_alloc@std@@YAXXZ PROC			; std::`dynamic initializer for '_Tuple_alloc'', COMDAT
; File c:\program files (x86)\microsoft visual studio 12.0\vc\include\tuple
; Line 66
  00000	55		 push	 ebp
  00001	8b ec		 mov	 ebp, esp
  00003	81 ec cc 00 00
	00		 sub	 esp, 204		; 000000ccH
  00009	53		 push	 ebx
  0000a	56		 push	 esi
  0000b	57		 push	 edi
  0000c	8d bd 34 ff ff
	ff		 lea	 edi, DWORD PTR [ebp-204]
  00012	b9 33 00 00 00	 mov	 ecx, 51			; 00000033H
  00017	b8 cc cc cc cc	 mov	 eax, -858993460		; ccccccccH
  0001c	f3 ab		 rep stosd
  0001e	33 c0		 xor	 eax, eax
  00020	88 85 3b ff ff
	ff		 mov	 BYTE PTR $T1[ebp], al
  00026	5f		 pop	 edi
  00027	5e		 pop	 esi
  00028	5b		 pop	 ebx
  00029	8b e5		 mov	 esp, ebp
  0002b	5d		 pop	 ebp
  0002c	c3		 ret	 0
??__E_Tuple_alloc@std@@YAXXZ ENDP			; std::`dynamic initializer for '_Tuple_alloc''
text$di	ENDS
; Function compile flags: /Odtp /RTCsu /ZI
;	COMDAT ??__Eignore@std@@YAXXZ
text$di	SEGMENT
??__Eignore@std@@YAXXZ PROC				; std::`dynamic initializer for 'ignore'', COMDAT
; File c:\program files (x86)\microsoft visual studio 12.0\vc\include\tuple
; Line 59
  00000	55		 push	 ebp
  00001	8b ec		 mov	 ebp, esp
  00003	81 ec c0 00 00
	00		 sub	 esp, 192		; 000000c0H
  00009	53		 push	 ebx
  0000a	56		 push	 esi
  0000b	57		 push	 edi
  0000c	8d bd 40 ff ff
	ff		 lea	 edi, DWORD PTR [ebp-192]
  00012	b9 30 00 00 00	 mov	 ecx, 48			; 00000030H
  00017	b8 cc cc cc cc	 mov	 eax, -858993460		; ccccccccH
  0001c	f3 ab		 rep stosd
  0001e	b9 00 00 00 00	 mov	 ecx, OFFSET _ignore
  00023	e8 00 00 00 00	 call	 ??0_Ignore@std@@QAE@XZ	; std::_Ignore::_Ignore
  00028	5f		 pop	 edi
  00029	5e		 pop	 esi
  0002a	5b		 pop	 ebx
  0002b	81 c4 c0 00 00
	00		 add	 esp, 192		; 000000c0H
  00031	3b ec		 cmp	 ebp, esp
  00033	e8 00 00 00 00	 call	 __RTC_CheckEsp
  00038	8b e5		 mov	 esp, ebp
  0003a	5d		 pop	 ebp
  0003b	c3		 ret	 0
??__Eignore@std@@YAXXZ ENDP				; std::`dynamic initializer for 'ignore''
text$di	ENDS
; Function compile flags: /Odtp /RTCsu /ZI
;	COMDAT ??0_Ignore@std@@QAE@XZ
_TEXT	SEGMENT
_this$ = -8						; size = 4
??0_Ignore@std@@QAE@XZ PROC				; std::_Ignore::_Ignore, COMDAT
; _this$ = ecx
; File c:\program files (x86)\microsoft visual studio 12.0\vc\include\tuple
; Line 49
  00000	55		 push	 ebp
  00001	8b ec		 mov	 ebp, esp
  00003	81 ec cc 00 00
	00		 sub	 esp, 204		; 000000ccH
  00009	53		 push	 ebx
  0000a	56		 push	 esi
  0000b	57		 push	 edi
  0000c	51		 push	 ecx
  0000d	8d bd 34 ff ff
	ff		 lea	 edi, DWORD PTR [ebp-204]
  00013	b9 33 00 00 00	 mov	 ecx, 51			; 00000033H
  00018	b8 cc cc cc cc	 mov	 eax, -858993460		; ccccccccH
  0001d	f3 ab		 rep stosd
  0001f	59		 pop	 ecx
  00020	89 4d f8	 mov	 DWORD PTR _this$[ebp], ecx
; Line 51
  00023	8b 45 f8	 mov	 eax, DWORD PTR _this$[ebp]
  00026	5f		 pop	 edi
  00027	5e		 pop	 esi
  00028	5b		 pop	 ebx
  00029	8b e5		 mov	 esp, ebp
  0002b	5d		 pop	 ebp
  0002c	c3		 ret	 0
??0_Ignore@std@@QAE@XZ ENDP				; std::_Ignore::_Ignore
_TEXT	ENDS
; Function compile flags: /Odtp /RTCsu /ZI
;	COMDAT ??__Eallocator_arg@std@@YAXXZ
text$di	SEGMENT
$T1 = -197						; size = 1
??__Eallocator_arg@std@@YAXXZ PROC			; std::`dynamic initializer for 'allocator_arg'', COMDAT
; File c:\program files (x86)\microsoft visual studio 12.0\vc\include\xutility
; Line 3451
  00000	55		 push	 ebp
  00001	8b ec		 mov	 ebp, esp
  00003	81 ec cc 00 00
	00		 sub	 esp, 204		; 000000ccH
  00009	53		 push	 ebx
  0000a	56		 push	 esi
  0000b	57		 push	 edi
  0000c	8d bd 34 ff ff
	ff		 lea	 edi, DWORD PTR [ebp-204]
  00012	b9 33 00 00 00	 mov	 ecx, 51			; 00000033H
  00017	b8 cc cc cc cc	 mov	 eax, -858993460		; ccccccccH
  0001c	f3 ab		 rep stosd
  0001e	33 c0		 xor	 eax, eax
  00020	88 85 3b ff ff
	ff		 mov	 BYTE PTR $T1[ebp], al
  00026	5f		 pop	 edi
  00027	5e		 pop	 esi
  00028	5b		 pop	 ebx
  00029	8b e5		 mov	 esp, ebp
  0002b	5d		 pop	 ebp
  0002c	c3		 ret	 0
??__Eallocator_arg@std@@YAXXZ ENDP			; std::`dynamic initializer for 'allocator_arg''
text$di	ENDS
; Function compile flags: /Odtp /RTCsu /ZI
;	COMDAT ?_Orphan_me@_Iterator_base12@std@@QAEXXZ
_TEXT	SEGMENT
__Pnext$1 = -20						; size = 4
_this$ = -8						; size = 4
?_Orphan_me@_Iterator_base12@std@@QAEXXZ PROC		; std::_Iterator_base12::_Orphan_me, COMDAT
; _this$ = ecx
; File c:\program files (x86)\microsoft visual studio 12.0\vc\include\xutility
; Line 192
  00000	55		 push	 ebp
  00001	8b ec		 mov	 ebp, esp
  00003	81 ec d8 00 00
	00		 sub	 esp, 216		; 000000d8H
  00009	53		 push	 ebx
  0000a	56		 push	 esi
  0000b	57		 push	 edi
  0000c	51		 push	 ecx
  0000d	8d bd 28 ff ff
	ff		 lea	 edi, DWORD PTR [ebp-216]
  00013	b9 36 00 00 00	 mov	 ecx, 54			; 00000036H
  00018	b8 cc cc cc cc	 mov	 eax, -858993460		; ccccccccH
  0001d	f3 ab		 rep stosd
  0001f	59		 pop	 ecx
  00020	89 4d f8	 mov	 DWORD PTR _this$[ebp], ecx
; Line 194
  00023	8b 45 f8	 mov	 eax, DWORD PTR _this$[ebp]
  00026	83 38 00	 cmp	 DWORD PTR [eax], 0
  00029	74 67		 je	 SHORT $LN5@Orphan_me
; Line 196
  0002b	8b 45 f8	 mov	 eax, DWORD PTR _this$[ebp]
  0002e	8b 08		 mov	 ecx, DWORD PTR [eax]
  00030	83 c1 04	 add	 ecx, 4
  00033	89 4d ec	 mov	 DWORD PTR __Pnext$1[ebp], ecx
$LN3@Orphan_me:
; Line 197
  00036	8b 45 ec	 mov	 eax, DWORD PTR __Pnext$1[ebp]
  00039	83 38 00	 cmp	 DWORD PTR [eax], 0
  0003c	74 17		 je	 SHORT $LN2@Orphan_me
  0003e	8b 45 ec	 mov	 eax, DWORD PTR __Pnext$1[ebp]
  00041	8b 08		 mov	 ecx, DWORD PTR [eax]
  00043	3b 4d f8	 cmp	 ecx, DWORD PTR _this$[ebp]
  00046	74 0d		 je	 SHORT $LN2@Orphan_me
; Line 198
  00048	8b 45 ec	 mov	 eax, DWORD PTR __Pnext$1[ebp]
  0004b	8b 08		 mov	 ecx, DWORD PTR [eax]
  0004d	83 c1 04	 add	 ecx, 4
  00050	89 4d ec	 mov	 DWORD PTR __Pnext$1[ebp], ecx
  00053	eb e1		 jmp	 SHORT $LN3@Orphan_me
$LN2@Orphan_me:
; Line 200
  00055	8b 45 ec	 mov	 eax, DWORD PTR __Pnext$1[ebp]
  00058	83 38 00	 cmp	 DWORD PTR [eax], 0
  0005b	75 21		 jne	 SHORT $LN1@Orphan_me
; Line 201
  0005d	8b f4		 mov	 esi, esp
  0005f	68 c9 00 00 00	 push	 201			; 000000c9H
  00064	68 00 00 00 00	 push	 OFFSET ??_C@_1JA@EKKHPHED@?$AAc?$AA?3?$AA?2?$AAp?$AAr?$AAo?$AAg?$AAr?$AAa?$AAm?$AA?5?$AAf?$AAi?$AAl?$AAe?$AAs?$AA?5?$AA?$CI?$AAx?$AA8?$AA6?$AA?$CJ?$AA?2?$AAm?$AAi?$AAc?$AAr?$AAo?$AAs?$AAo?$AAf?$AAt@
  00069	68 00 00 00 00	 push	 OFFSET ??_C@_1DC@POOIKBAO@?$AAI?$AAT?$AAE?$AAR?$AAA?$AAT?$AAO?$AAR?$AA?5?$AAL?$AAI?$AAS?$AAT?$AA?5?$AAC?$AAO?$AAR?$AAR?$AAU?$AAP?$AAT?$AAE?$AAD?$AA?$CB?$AA?$AA@
  0006e	ff 15 00 00 00
	00		 call	 DWORD PTR __imp_?_Debug_message@std@@YAXPB_W0I@Z
  00074	83 c4 0c	 add	 esp, 12			; 0000000cH
  00077	3b f4		 cmp	 esi, esp
  00079	e8 00 00 00 00	 call	 __RTC_CheckEsp
$LN1@Orphan_me:
; Line 202
  0007e	8b 45 ec	 mov	 eax, DWORD PTR __Pnext$1[ebp]
  00081	8b 4d f8	 mov	 ecx, DWORD PTR _this$[ebp]
  00084	8b 51 04	 mov	 edx, DWORD PTR [ecx+4]
  00087	89 10		 mov	 DWORD PTR [eax], edx
; Line 203
  00089	8b 45 f8	 mov	 eax, DWORD PTR _this$[ebp]
  0008c	c7 00 00 00 00
	00		 mov	 DWORD PTR [eax], 0
$LN5@Orphan_me:
; Line 206
  00092	5f		 pop	 edi
  00093	5e		 pop	 esi
  00094	5b		 pop	 ebx
  00095	81 c4 d8 00 00
	00		 add	 esp, 216		; 000000d8H
  0009b	3b ec		 cmp	 ebp, esp
  0009d	e8 00 00 00 00	 call	 __RTC_CheckEsp
  000a2	8b e5		 mov	 esp, ebp
  000a4	5d		 pop	 ebp
  000a5	c3		 ret	 0
?_Orphan_me@_Iterator_base12@std@@QAEXXZ ENDP		; std::_Iterator_base12::_Orphan_me
_TEXT	ENDS
; Function compile flags: /Odtp /RTCsu /ZI
;	COMDAT ?_Getpnext@_Iterator_base12@std@@QAEPAPAU12@XZ
_TEXT	SEGMENT
_this$ = -8						; size = 4
?_Getpnext@_Iterator_base12@std@@QAEPAPAU12@XZ PROC	; std::_Iterator_base12::_Getpnext, COMDAT
; _this$ = ecx
; File c:\program files (x86)\microsoft visual studio 12.0\vc\include\xutility
; Line 187
  00000	55		 push	 ebp
  00001	8b ec		 mov	 ebp, esp
  00003	81 ec cc 00 00
	00		 sub	 esp, 204		; 000000ccH
  00009	53		 push	 ebx
  0000a	56		 push	 esi
  0000b	57		 push	 edi
  0000c	51		 push	 ecx
  0000d	8d bd 34 ff ff
	ff		 lea	 edi, DWORD PTR [ebp-204]
  00013	b9 33 00 00 00	 mov	 ecx, 51			; 00000033H
  00018	b8 cc cc cc cc	 mov	 eax, -858993460		; ccccccccH
  0001d	f3 ab		 rep stosd
  0001f	59		 pop	 ecx
  00020	89 4d f8	 mov	 DWORD PTR _this$[ebp], ecx
; Line 188
  00023	8b 45 f8	 mov	 eax, DWORD PTR _this$[ebp]
  00026	83 c0 04	 add	 eax, 4
; Line 189
  00029	5f		 pop	 edi
  0002a	5e		 pop	 esi
  0002b	5b		 pop	 ebx
  0002c	8b e5		 mov	 esp, ebp
  0002e	5d		 pop	 ebp
  0002f	c3		 ret	 0
?_Getpnext@_Iterator_base12@std@@QAEPAPAU12@XZ ENDP	; std::_Iterator_base12::_Getpnext
_TEXT	ENDS
; Function compile flags: /Odtp /RTCsu /ZI
;	COMDAT ?_Getcont@_Iterator_base12@std@@QBEPBU_Container_base12@2@XZ
_TEXT	SEGMENT
tv68 = -208						; size = 4
_this$ = -8						; size = 4
?_Getcont@_Iterator_base12@std@@QBEPBU_Container_base12@2@XZ PROC ; std::_Iterator_base12::_Getcont, COMDAT
; _this$ = ecx
; File c:\program files (x86)\microsoft visual studio 12.0\vc\include\xutility
; Line 182
  00000	55		 push	 ebp
  00001	8b ec		 mov	 ebp, esp
  00003	81 ec d0 00 00
	00		 sub	 esp, 208		; 000000d0H
  00009	53		 push	 ebx
  0000a	56		 push	 esi
  0000b	57		 push	 edi
  0000c	51		 push	 ecx
  0000d	8d bd 30 ff ff
	ff		 lea	 edi, DWORD PTR [ebp-208]
  00013	b9 34 00 00 00	 mov	 ecx, 52			; 00000034H
  00018	b8 cc cc cc cc	 mov	 eax, -858993460		; ccccccccH
  0001d	f3 ab		 rep stosd
  0001f	59		 pop	 ecx
  00020	89 4d f8	 mov	 DWORD PTR _this$[ebp], ecx
; Line 183
  00023	8b 45 f8	 mov	 eax, DWORD PTR _this$[ebp]
  00026	83 38 00	 cmp	 DWORD PTR [eax], 0
  00029	75 0c		 jne	 SHORT $LN3@Getcont
  0002b	c7 85 30 ff ff
	ff 00 00 00 00	 mov	 DWORD PTR tv68[ebp], 0
  00035	eb 0d		 jmp	 SHORT $LN4@Getcont
$LN3@Getcont:
  00037	8b 4d f8	 mov	 ecx, DWORD PTR _this$[ebp]
  0003a	8b 11		 mov	 edx, DWORD PTR [ecx]
  0003c	8b 02		 mov	 eax, DWORD PTR [edx]
  0003e	89 85 30 ff ff
	ff		 mov	 DWORD PTR tv68[ebp], eax
$LN4@Getcont:
  00044	8b 85 30 ff ff
	ff		 mov	 eax, DWORD PTR tv68[ebp]
; Line 184
  0004a	5f		 pop	 edi
  0004b	5e		 pop	 esi
  0004c	5b		 pop	 ebx
  0004d	8b e5		 mov	 esp, ebp
  0004f	5d		 pop	 ebp
  00050	c3		 ret	 0
?_Getcont@_Iterator_base12@std@@QBEPBU_Container_base12@2@XZ ENDP ; std::_Iterator_base12::_Getcont
_TEXT	ENDS
; Function compile flags: /Odtp /RTCsu /ZI
;	COMDAT ?_Clrcont@_Iterator_base12@std@@QAEXXZ
_TEXT	SEGMENT
_this$ = -8						; size = 4
?_Clrcont@_Iterator_base12@std@@QAEXXZ PROC		; std::_Iterator_base12::_Clrcont, COMDAT
; _this$ = ecx
; File c:\program files (x86)\microsoft visual studio 12.0\vc\include\xutility
; Line 177
  00000	55		 push	 ebp
  00001	8b ec		 mov	 ebp, esp
  00003	81 ec cc 00 00
	00		 sub	 esp, 204		; 000000ccH
  00009	53		 push	 ebx
  0000a	56		 push	 esi
  0000b	57		 push	 edi
  0000c	51		 push	 ecx
  0000d	8d bd 34 ff ff
	ff		 lea	 edi, DWORD PTR [ebp-204]
  00013	b9 33 00 00 00	 mov	 ecx, 51			; 00000033H
  00018	b8 cc cc cc cc	 mov	 eax, -858993460		; ccccccccH
  0001d	f3 ab		 rep stosd
  0001f	59		 pop	 ecx
  00020	89 4d f8	 mov	 DWORD PTR _this$[ebp], ecx
; Line 178
  00023	8b 45 f8	 mov	 eax, DWORD PTR _this$[ebp]
  00026	c7 00 00 00 00
	00		 mov	 DWORD PTR [eax], 0
; Line 179
  0002c	5f		 pop	 edi
  0002d	5e		 pop	 esi
  0002e	5b		 pop	 ebx
  0002f	8b e5		 mov	 esp, ebp
  00031	5d		 pop	 ebp
  00032	c3		 ret	 0
?_Clrcont@_Iterator_base12@std@@QAEXXZ ENDP		; std::_Iterator_base12::_Clrcont
_TEXT	ENDS
; Function compile flags: /Odtp /RTCsu /ZI
;	COMDAT ?_Adopt@_Iterator_base12@std@@QAEXPBU_Container_base12@2@@Z
_TEXT	SEGMENT
__Lock$2 = -60						; size = 4
__Parent_proxy$3 = -48					; size = 4
__Lock$4 = -36						; size = 4
_this$ = -24						; size = 4
__$ArrayPad$ = -16					; size = 4
__$EHRec$ = -12						; size = 12
__Parent$ = 8						; size = 4
?_Adopt@_Iterator_base12@std@@QAEXPBU_Container_base12@2@@Z PROC ; std::_Iterator_base12::_Adopt, COMDAT
; _this$ = ecx
; File c:\program files (x86)\microsoft visual studio 12.0\vc\include\xutility
; Line 148
  00000	55		 push	 ebp
  00001	8b ec		 mov	 ebp, esp
  00003	6a ff		 push	 -1
  00005	68 00 00 00 00	 push	 __ehhandler$?_Adopt@_Iterator_base12@std@@QAEXPBU_Container_base12@2@@Z
  0000a	64 a1 00 00 00
	00		 mov	 eax, DWORD PTR fs:0
  00010	50		 push	 eax
  00011	81 ec f4 00 00
	00		 sub	 esp, 244		; 000000f4H
  00017	53		 push	 ebx
  00018	56		 push	 esi
  00019	57		 push	 edi
  0001a	51		 push	 ecx
  0001b	8d bd 00 ff ff
	ff		 lea	 edi, DWORD PTR [ebp-256]
  00021	b9 3d 00 00 00	 mov	 ecx, 61			; 0000003dH
  00026	b8 cc cc cc cc	 mov	 eax, -858993460		; ccccccccH
  0002b	f3 ab		 rep stosd
  0002d	59		 pop	 ecx
  0002e	a1 00 00 00 00	 mov	 eax, DWORD PTR ___security_cookie
  00033	33 c5		 xor	 eax, ebp
  00035	89 45 f0	 mov	 DWORD PTR __$ArrayPad$[ebp], eax
  00038	50		 push	 eax
  00039	8d 45 f4	 lea	 eax, DWORD PTR __$EHRec$[ebp]
  0003c	64 a3 00 00 00
	00		 mov	 DWORD PTR fs:0, eax
  00042	89 4d e8	 mov	 DWORD PTR _this$[ebp], ecx
; Line 149
  00045	83 7d 08 00	 cmp	 DWORD PTR __Parent$[ebp], 0
  00049	75 3e		 jne	 SHORT $LN3@Adopt
; Line 152
  0004b	8b f4		 mov	 esi, esp
  0004d	6a 03		 push	 3
  0004f	8d 4d dc	 lea	 ecx, DWORD PTR __Lock$4[ebp]
  00052	ff 15 00 00 00
	00		 call	 DWORD PTR __imp_??0_Lockit@std@@QAE@H@Z
  00058	3b f4		 cmp	 esi, esp
  0005a	e8 00 00 00 00	 call	 __RTC_CheckEsp
  0005f	c7 45 fc 00 00
	00 00		 mov	 DWORD PTR __$EHRec$[ebp+8], 0
; Line 153
  00066	8b 4d e8	 mov	 ecx, DWORD PTR _this$[ebp]
  00069	e8 00 00 00 00	 call	 ?_Orphan_me@_Iterator_base12@std@@QAEXXZ ; std::_Iterator_base12::_Orphan_me
; Line 155
  0006e	c7 45 fc ff ff
	ff ff		 mov	 DWORD PTR __$EHRec$[ebp+8], -1
  00075	8b f4		 mov	 esi, esp
  00077	8d 4d dc	 lea	 ecx, DWORD PTR __Lock$4[ebp]
  0007a	ff 15 00 00 00
	00		 call	 DWORD PTR __imp_??1_Lockit@std@@QAE@XZ
  00080	3b f4		 cmp	 esi, esp
  00082	e8 00 00 00 00	 call	 __RTC_CheckEsp
; Line 156
  00087	eb 6b		 jmp	 SHORT $LN4@Adopt
$LN3@Adopt:
; Line 158
  00089	8b 45 08	 mov	 eax, DWORD PTR __Parent$[ebp]
  0008c	8b 08		 mov	 ecx, DWORD PTR [eax]
  0008e	89 4d d0	 mov	 DWORD PTR __Parent_proxy$3[ebp], ecx
; Line 161
  00091	8b 45 e8	 mov	 eax, DWORD PTR _this$[ebp]
  00094	8b 08		 mov	 ecx, DWORD PTR [eax]
  00096	3b 4d d0	 cmp	 ecx, DWORD PTR __Parent_proxy$3[ebp]
  00099	74 59		 je	 SHORT $LN4@Adopt
; Line 163
  0009b	8b f4		 mov	 esi, esp
  0009d	6a 03		 push	 3
  0009f	8d 4d c4	 lea	 ecx, DWORD PTR __Lock$2[ebp]
  000a2	ff 15 00 00 00
	00		 call	 DWORD PTR __imp_??0_Lockit@std@@QAE@H@Z
  000a8	3b f4		 cmp	 esi, esp
  000aa	e8 00 00 00 00	 call	 __RTC_CheckEsp
  000af	c7 45 fc 01 00
	00 00		 mov	 DWORD PTR __$EHRec$[ebp+8], 1
; Line 164
  000b6	8b 4d e8	 mov	 ecx, DWORD PTR _this$[ebp]
  000b9	e8 00 00 00 00	 call	 ?_Orphan_me@_Iterator_base12@std@@QAEXXZ ; std::_Iterator_base12::_Orphan_me
; Line 165
  000be	8b 45 e8	 mov	 eax, DWORD PTR _this$[ebp]
  000c1	8b 4d d0	 mov	 ecx, DWORD PTR __Parent_proxy$3[ebp]
  000c4	8b 51 04	 mov	 edx, DWORD PTR [ecx+4]
  000c7	89 50 04	 mov	 DWORD PTR [eax+4], edx
; Line 166
  000ca	8b 45 d0	 mov	 eax, DWORD PTR __Parent_proxy$3[ebp]
  000cd	8b 4d e8	 mov	 ecx, DWORD PTR _this$[ebp]
  000d0	89 48 04	 mov	 DWORD PTR [eax+4], ecx
; Line 167
  000d3	8b 45 e8	 mov	 eax, DWORD PTR _this$[ebp]
  000d6	8b 4d d0	 mov	 ecx, DWORD PTR __Parent_proxy$3[ebp]
  000d9	89 08		 mov	 DWORD PTR [eax], ecx
; Line 168
  000db	c7 45 fc ff ff
	ff ff		 mov	 DWORD PTR __$EHRec$[ebp+8], -1
  000e2	8b f4		 mov	 esi, esp
  000e4	8d 4d c4	 lea	 ecx, DWORD PTR __Lock$2[ebp]
  000e7	ff 15 00 00 00
	00		 call	 DWORD PTR __imp_??1_Lockit@std@@QAE@XZ
  000ed	3b f4		 cmp	 esi, esp
  000ef	e8 00 00 00 00	 call	 __RTC_CheckEsp
$LN4@Adopt:
; Line 174
  000f4	52		 push	 edx
  000f5	8b cd		 mov	 ecx, ebp
  000f7	50		 push	 eax
  000f8	8d 15 00 00 00
	00		 lea	 edx, DWORD PTR $LN12@Adopt
  000fe	e8 00 00 00 00	 call	 @_RTC_CheckStackVars@8
  00103	58		 pop	 eax
  00104	5a		 pop	 edx
  00105	8b 4d f4	 mov	 ecx, DWORD PTR __$EHRec$[ebp]
  00108	64 89 0d 00 00
	00 00		 mov	 DWORD PTR fs:0, ecx
  0010f	59		 pop	 ecx
  00110	5f		 pop	 edi
  00111	5e		 pop	 esi
  00112	5b		 pop	 ebx
  00113	8b 4d f0	 mov	 ecx, DWORD PTR __$ArrayPad$[ebp]
  00116	33 cd		 xor	 ecx, ebp
  00118	e8 00 00 00 00	 call	 @__security_check_cookie@4
  0011d	81 c4 00 01 00
	00		 add	 esp, 256		; 00000100H
  00123	3b ec		 cmp	 ebp, esp
  00125	e8 00 00 00 00	 call	 __RTC_CheckEsp
  0012a	8b e5		 mov	 esp, ebp
  0012c	5d		 pop	 ebp
  0012d	c2 04 00	 ret	 4
$LN12@Adopt:
  00130	02 00 00 00	 DD	 2
  00134	00 00 00 00	 DD	 $LN11@Adopt
$LN11@Adopt:
  00138	dc ff ff ff	 DD	 -36			; ffffffdcH
  0013c	04 00 00 00	 DD	 4
  00140	00 00 00 00	 DD	 $LN8@Adopt
  00144	c4 ff ff ff	 DD	 -60			; ffffffc4H
  00148	04 00 00 00	 DD	 4
  0014c	00 00 00 00	 DD	 $LN9@Adopt
$LN9@Adopt:
  00150	5f		 DB	 95			; 0000005fH
  00151	4c		 DB	 76			; 0000004cH
  00152	6f		 DB	 111			; 0000006fH
  00153	63		 DB	 99			; 00000063H
  00154	6b		 DB	 107			; 0000006bH
  00155	00		 DB	 0
$LN8@Adopt:
  00156	5f		 DB	 95			; 0000005fH
  00157	4c		 DB	 76			; 0000004cH
  00158	6f		 DB	 111			; 0000006fH
  00159	63		 DB	 99			; 00000063H
  0015a	6b		 DB	 107			; 0000006bH
  0015b	00		 DB	 0
_TEXT	ENDS
;	COMDAT text$x
text$x	SEGMENT
__unwindfunclet$?_Adopt@_Iterator_base12@std@@QAEXPBU_Container_base12@2@@Z$0:
  00000	8b f4		 mov	 esi, esp
  00002	8d 4d dc	 lea	 ecx, DWORD PTR __Lock$4[ebp]
  00005	ff 15 00 00 00
	00		 call	 DWORD PTR __imp_??1_Lockit@std@@QAE@XZ
  0000b	3b f4		 cmp	 esi, esp
  0000d	e9 00 00 00 00	 jmp	 __RTC_CheckEsp
__unwindfunclet$?_Adopt@_Iterator_base12@std@@QAEXPBU_Container_base12@2@@Z$1:
  00012	8b f4		 mov	 esi, esp
  00014	8d 4d c4	 lea	 ecx, DWORD PTR __Lock$2[ebp]
  00017	ff 15 00 00 00
	00		 call	 DWORD PTR __imp_??1_Lockit@std@@QAE@XZ
  0001d	3b f4		 cmp	 esi, esp
  0001f	e9 00 00 00 00	 jmp	 __RTC_CheckEsp
__ehhandler$?_Adopt@_Iterator_base12@std@@QAEXPBU_Container_base12@2@@Z:
  00024	8b 54 24 08	 mov	 edx, DWORD PTR [esp+8]
  00028	8d 42 0c	 lea	 eax, DWORD PTR [edx+12]
  0002b	8b 8a fc fe ff
	ff		 mov	 ecx, DWORD PTR [edx-260]
  00031	33 c8		 xor	 ecx, eax
  00033	e8 00 00 00 00	 call	 @__security_check_cookie@4
  00038	8b 4a fc	 mov	 ecx, DWORD PTR [edx-4]
  0003b	33 c8		 xor	 ecx, eax
  0003d	e8 00 00 00 00	 call	 @__security_check_cookie@4
  00042	b8 00 00 00 00	 mov	 eax, OFFSET __ehfuncinfo$?_Adopt@_Iterator_base12@std@@QAEXPBU_Container_base12@2@@Z
  00047	e9 00 00 00 00	 jmp	 ___CxxFrameHandler3
text$x	ENDS
?_Adopt@_Iterator_base12@std@@QAEXPBU_Container_base12@2@@Z ENDP ; std::_Iterator_base12::_Adopt
; Function compile flags: /Odtp /RTCsu /ZI
;	COMDAT ??1_Iterator_base12@std@@QAE@XZ
_TEXT	SEGMENT
__Lock$ = -24						; size = 4
_this$ = -12						; size = 4
__$ArrayPad$ = -4					; size = 4
??1_Iterator_base12@std@@QAE@XZ PROC			; std::_Iterator_base12::~_Iterator_base12, COMDAT
; _this$ = ecx
; File c:\program files (x86)\microsoft visual studio 12.0\vc\include\xutility
; Line 140
  00000	55		 push	 ebp
  00001	8b ec		 mov	 ebp, esp
  00003	81 ec dc 00 00
	00		 sub	 esp, 220		; 000000dcH
  00009	53		 push	 ebx
  0000a	56		 push	 esi
  0000b	57		 push	 edi
  0000c	51		 push	 ecx
  0000d	8d bd 24 ff ff
	ff		 lea	 edi, DWORD PTR [ebp-220]
  00013	b9 37 00 00 00	 mov	 ecx, 55			; 00000037H
  00018	b8 cc cc cc cc	 mov	 eax, -858993460		; ccccccccH
  0001d	f3 ab		 rep stosd
  0001f	59		 pop	 ecx
  00020	a1 00 00 00 00	 mov	 eax, DWORD PTR ___security_cookie
  00025	33 c5		 xor	 eax, ebp
  00027	89 45 fc	 mov	 DWORD PTR __$ArrayPad$[ebp], eax
  0002a	89 4d f4	 mov	 DWORD PTR _this$[ebp], ecx
; Line 142
  0002d	8b f4		 mov	 esi, esp
  0002f	6a 03		 push	 3
  00031	8d 4d e8	 lea	 ecx, DWORD PTR __Lock$[ebp]
  00034	ff 15 00 00 00
	00		 call	 DWORD PTR __imp_??0_Lockit@std@@QAE@H@Z
  0003a	3b f4		 cmp	 esi, esp
  0003c	e8 00 00 00 00	 call	 __RTC_CheckEsp
; Line 143
  00041	8b 4d f4	 mov	 ecx, DWORD PTR _this$[ebp]
  00044	e8 00 00 00 00	 call	 ?_Orphan_me@_Iterator_base12@std@@QAEXXZ ; std::_Iterator_base12::_Orphan_me
; Line 145
  00049	8b f4		 mov	 esi, esp
  0004b	8d 4d e8	 lea	 ecx, DWORD PTR __Lock$[ebp]
  0004e	ff 15 00 00 00
	00		 call	 DWORD PTR __imp_??1_Lockit@std@@QAE@XZ
  00054	3b f4		 cmp	 esi, esp
  00056	e8 00 00 00 00	 call	 __RTC_CheckEsp
  0005b	52		 push	 edx
  0005c	8b cd		 mov	 ecx, ebp
  0005e	50		 push	 eax
  0005f	8d 15 00 00 00
	00		 lea	 edx, DWORD PTR $LN5@Iterator_b
  00065	e8 00 00 00 00	 call	 @_RTC_CheckStackVars@8
  0006a	58		 pop	 eax
  0006b	5a		 pop	 edx
  0006c	5f		 pop	 edi
  0006d	5e		 pop	 esi
  0006e	5b		 pop	 ebx
  0006f	8b 4d fc	 mov	 ecx, DWORD PTR __$ArrayPad$[ebp]
  00072	33 cd		 xor	 ecx, ebp
  00074	e8 00 00 00 00	 call	 @__security_check_cookie@4
  00079	81 c4 dc 00 00
	00		 add	 esp, 220		; 000000dcH
  0007f	3b ec		 cmp	 ebp, esp
  00081	e8 00 00 00 00	 call	 __RTC_CheckEsp
  00086	8b e5		 mov	 esp, ebp
  00088	5d		 pop	 ebp
  00089	c3		 ret	 0
  0008a	8b ff		 npad	 2
$LN5@Iterator_b:
  0008c	01 00 00 00	 DD	 1
  00090	00 00 00 00	 DD	 $LN4@Iterator_b
$LN4@Iterator_b:
  00094	e8 ff ff ff	 DD	 -24			; ffffffe8H
  00098	04 00 00 00	 DD	 4
  0009c	00 00 00 00	 DD	 $LN3@Iterator_b
$LN3@Iterator_b:
  000a0	5f		 DB	 95			; 0000005fH
  000a1	4c		 DB	 76			; 0000004cH
  000a2	6f		 DB	 111			; 0000006fH
  000a3	63		 DB	 99			; 00000063H
  000a4	6b		 DB	 107			; 0000006bH
  000a5	00		 DB	 0
??1_Iterator_base12@std@@QAE@XZ ENDP			; std::_Iterator_base12::~_Iterator_base12
_TEXT	ENDS
; Function compile flags: /Odtp /RTCsu /ZI
;	COMDAT ??4_Iterator_base12@std@@QAEAAU01@ABU01@@Z
_TEXT	SEGMENT
__Lock$2 = -36						; size = 4
_this$ = -24						; size = 4
__$ArrayPad$ = -16					; size = 4
__$EHRec$ = -12						; size = 12
__Right$ = 8						; size = 4
??4_Iterator_base12@std@@QAEAAU01@ABU01@@Z PROC		; std::_Iterator_base12::operator=, COMDAT
; _this$ = ecx
; File c:\program files (x86)\microsoft visual studio 12.0\vc\include\xutility
; Line 124
  00000	55		 push	 ebp
  00001	8b ec		 mov	 ebp, esp
  00003	6a ff		 push	 -1
  00005	68 00 00 00 00	 push	 __ehhandler$??4_Iterator_base12@std@@QAEAAU01@ABU01@@Z
  0000a	64 a1 00 00 00
	00		 mov	 eax, DWORD PTR fs:0
  00010	50		 push	 eax
  00011	81 ec dc 00 00
	00		 sub	 esp, 220		; 000000dcH
  00017	53		 push	 ebx
  00018	56		 push	 esi
  00019	57		 push	 edi
  0001a	51		 push	 ecx
  0001b	8d bd 18 ff ff
	ff		 lea	 edi, DWORD PTR [ebp-232]
  00021	b9 37 00 00 00	 mov	 ecx, 55			; 00000037H
  00026	b8 cc cc cc cc	 mov	 eax, -858993460		; ccccccccH
  0002b	f3 ab		 rep stosd
  0002d	59		 pop	 ecx
  0002e	a1 00 00 00 00	 mov	 eax, DWORD PTR ___security_cookie
  00033	33 c5		 xor	 eax, ebp
  00035	89 45 f0	 mov	 DWORD PTR __$ArrayPad$[ebp], eax
  00038	50		 push	 eax
  00039	8d 45 f4	 lea	 eax, DWORD PTR __$EHRec$[ebp]
  0003c	64 a3 00 00 00
	00		 mov	 DWORD PTR fs:0, eax
  00042	89 4d e8	 mov	 DWORD PTR _this$[ebp], ecx
; Line 125
  00045	8b 45 e8	 mov	 eax, DWORD PTR _this$[ebp]
  00048	8b 4d 08	 mov	 ecx, DWORD PTR __Right$[ebp]
  0004b	8b 10		 mov	 edx, DWORD PTR [eax]
  0004d	3b 11		 cmp	 edx, DWORD PTR [ecx]
  0004f	75 02		 jne	 SHORT $LN4@operator
  00051	eb 56		 jmp	 SHORT $LN3@operator
$LN4@operator:
; Line 127
  00053	8b 45 08	 mov	 eax, DWORD PTR __Right$[ebp]
  00056	83 38 00	 cmp	 DWORD PTR [eax], 0
  00059	74 12		 je	 SHORT $LN2@operator
; Line 128
  0005b	8b 45 08	 mov	 eax, DWORD PTR __Right$[ebp]
  0005e	8b 08		 mov	 ecx, DWORD PTR [eax]
  00060	8b 11		 mov	 edx, DWORD PTR [ecx]
  00062	52		 push	 edx
  00063	8b 4d e8	 mov	 ecx, DWORD PTR _this$[ebp]
  00066	e8 00 00 00 00	 call	 ?_Adopt@_Iterator_base12@std@@QAEXPBU_Container_base12@2@@Z ; std::_Iterator_base12::_Adopt
; Line 129
  0006b	eb 3c		 jmp	 SHORT $LN3@operator
$LN2@operator:
; Line 132
  0006d	8b f4		 mov	 esi, esp
  0006f	6a 03		 push	 3
  00071	8d 4d dc	 lea	 ecx, DWORD PTR __Lock$2[ebp]
  00074	ff 15 00 00 00
	00		 call	 DWORD PTR __imp_??0_Lockit@std@@QAE@H@Z
  0007a	3b f4		 cmp	 esi, esp
  0007c	e8 00 00 00 00	 call	 __RTC_CheckEsp
  00081	c7 45 fc 00 00
	00 00		 mov	 DWORD PTR __$EHRec$[ebp+8], 0
; Line 133
  00088	8b 4d e8	 mov	 ecx, DWORD PTR _this$[ebp]
  0008b	e8 00 00 00 00	 call	 ?_Orphan_me@_Iterator_base12@std@@QAEXXZ ; std::_Iterator_base12::_Orphan_me
; Line 135
  00090	c7 45 fc ff ff
	ff ff		 mov	 DWORD PTR __$EHRec$[ebp+8], -1
  00097	8b f4		 mov	 esi, esp
  00099	8d 4d dc	 lea	 ecx, DWORD PTR __Lock$2[ebp]
  0009c	ff 15 00 00 00
	00		 call	 DWORD PTR __imp_??1_Lockit@std@@QAE@XZ
  000a2	3b f4		 cmp	 esi, esp
  000a4	e8 00 00 00 00	 call	 __RTC_CheckEsp
$LN3@operator:
; Line 136
  000a9	8b 45 e8	 mov	 eax, DWORD PTR _this$[ebp]
; Line 137
  000ac	52		 push	 edx
  000ad	8b cd		 mov	 ecx, ebp
  000af	50		 push	 eax
  000b0	8d 15 00 00 00
	00		 lea	 edx, DWORD PTR $LN11@operator
  000b6	e8 00 00 00 00	 call	 @_RTC_CheckStackVars@8
  000bb	58		 pop	 eax
  000bc	5a		 pop	 edx
  000bd	8b 4d f4	 mov	 ecx, DWORD PTR __$EHRec$[ebp]
  000c0	64 89 0d 00 00
	00 00		 mov	 DWORD PTR fs:0, ecx
  000c7	59		 pop	 ecx
  000c8	5f		 pop	 edi
  000c9	5e		 pop	 esi
  000ca	5b		 pop	 ebx
  000cb	8b 4d f0	 mov	 ecx, DWORD PTR __$ArrayPad$[ebp]
  000ce	33 cd		 xor	 ecx, ebp
  000d0	e8 00 00 00 00	 call	 @__security_check_cookie@4
  000d5	81 c4 e8 00 00
	00		 add	 esp, 232		; 000000e8H
  000db	3b ec		 cmp	 ebp, esp
  000dd	e8 00 00 00 00	 call	 __RTC_CheckEsp
  000e2	8b e5		 mov	 esp, ebp
  000e4	5d		 pop	 ebp
  000e5	c2 04 00	 ret	 4
$LN11@operator:
  000e8	01 00 00 00	 DD	 1
  000ec	00 00 00 00	 DD	 $LN10@operator
$LN10@operator:
  000f0	dc ff ff ff	 DD	 -36			; ffffffdcH
  000f4	04 00 00 00	 DD	 4
  000f8	00 00 00 00	 DD	 $LN8@operator
$LN8@operator:
  000fc	5f		 DB	 95			; 0000005fH
  000fd	4c		 DB	 76			; 0000004cH
  000fe	6f		 DB	 111			; 0000006fH
  000ff	63		 DB	 99			; 00000063H
  00100	6b		 DB	 107			; 0000006bH
  00101	00		 DB	 0
_TEXT	ENDS
;	COMDAT text$x
text$x	SEGMENT
__unwindfunclet$??4_Iterator_base12@std@@QAEAAU01@ABU01@@Z$0:
  00000	8b f4		 mov	 esi, esp
  00002	8d 4d dc	 lea	 ecx, DWORD PTR __Lock$2[ebp]
  00005	ff 15 00 00 00
	00		 call	 DWORD PTR __imp_??1_Lockit@std@@QAE@XZ
  0000b	3b f4		 cmp	 esi, esp
  0000d	e9 00 00 00 00	 jmp	 __RTC_CheckEsp
__ehhandler$??4_Iterator_base12@std@@QAEAAU01@ABU01@@Z:
  00012	8b 54 24 08	 mov	 edx, DWORD PTR [esp+8]
  00016	8d 42 0c	 lea	 eax, DWORD PTR [edx+12]
  00019	8b 8a 14 ff ff
	ff		 mov	 ecx, DWORD PTR [edx-236]
  0001f	33 c8		 xor	 ecx, eax
  00021	e8 00 00 00 00	 call	 @__security_check_cookie@4
  00026	8b 4a fc	 mov	 ecx, DWORD PTR [edx-4]
  00029	33 c8		 xor	 ecx, eax
  0002b	e8 00 00 00 00	 call	 @__security_check_cookie@4
  00030	b8 00 00 00 00	 mov	 eax, OFFSET __ehfuncinfo$??4_Iterator_base12@std@@QAEAAU01@ABU01@@Z
  00035	e9 00 00 00 00	 jmp	 ___CxxFrameHandler3
text$x	ENDS
??4_Iterator_base12@std@@QAEAAU01@ABU01@@Z ENDP		; std::_Iterator_base12::operator=
; Function compile flags: /Odtp /RTCsu /ZI
;	COMDAT ??0_Iterator_base12@std@@QAE@ABU01@@Z
_TEXT	SEGMENT
_this$ = -8						; size = 4
__Right$ = 8						; size = 4
??0_Iterator_base12@std@@QAE@ABU01@@Z PROC		; std::_Iterator_base12::_Iterator_base12, COMDAT
; _this$ = ecx
; File c:\program files (x86)\microsoft visual studio 12.0\vc\include\xutility
; Line 119
  00000	55		 push	 ebp
  00001	8b ec		 mov	 ebp, esp
  00003	81 ec cc 00 00
	00		 sub	 esp, 204		; 000000ccH
  00009	53		 push	 ebx
  0000a	56		 push	 esi
  0000b	57		 push	 edi
  0000c	51		 push	 ecx
  0000d	8d bd 34 ff ff
	ff		 lea	 edi, DWORD PTR [ebp-204]
  00013	b9 33 00 00 00	 mov	 ecx, 51			; 00000033H
  00018	b8 cc cc cc cc	 mov	 eax, -858993460		; ccccccccH
  0001d	f3 ab		 rep stosd
  0001f	59		 pop	 ecx
  00020	89 4d f8	 mov	 DWORD PTR _this$[ebp], ecx
  00023	8b 45 f8	 mov	 eax, DWORD PTR _this$[ebp]
  00026	c7 00 00 00 00
	00		 mov	 DWORD PTR [eax], 0
  0002c	8b 45 f8	 mov	 eax, DWORD PTR _this$[ebp]
  0002f	c7 40 04 00 00
	00 00		 mov	 DWORD PTR [eax+4], 0
; Line 120
  00036	8b 45 08	 mov	 eax, DWORD PTR __Right$[ebp]
  00039	50		 push	 eax
  0003a	8b 4d f8	 mov	 ecx, DWORD PTR _this$[ebp]
  0003d	e8 00 00 00 00	 call	 ??4_Iterator_base12@std@@QAEAAU01@ABU01@@Z ; std::_Iterator_base12::operator=
; Line 121
  00042	8b 45 f8	 mov	 eax, DWORD PTR _this$[ebp]
  00045	5f		 pop	 edi
  00046	5e		 pop	 esi
  00047	5b		 pop	 ebx
  00048	81 c4 cc 00 00
	00		 add	 esp, 204		; 000000ccH
  0004e	3b ec		 cmp	 ebp, esp
  00050	e8 00 00 00 00	 call	 __RTC_CheckEsp
  00055	8b e5		 mov	 esp, ebp
  00057	5d		 pop	 ebp
  00058	c2 04 00	 ret	 4
??0_Iterator_base12@std@@QAE@ABU01@@Z ENDP		; std::_Iterator_base12::_Iterator_base12
_TEXT	ENDS
; Function compile flags: /Odtp /RTCsu /ZI
;	COMDAT ??0_Iterator_base12@std@@QAE@XZ
_TEXT	SEGMENT
_this$ = -8						; size = 4
??0_Iterator_base12@std@@QAE@XZ PROC			; std::_Iterator_base12::_Iterator_base12, COMDAT
; _this$ = ecx
; File c:\program files (x86)\microsoft visual studio 12.0\vc\include\xutility
; Line 114
  00000	55		 push	 ebp
  00001	8b ec		 mov	 ebp, esp
  00003	81 ec cc 00 00
	00		 sub	 esp, 204		; 000000ccH
  00009	53		 push	 ebx
  0000a	56		 push	 esi
  0000b	57		 push	 edi
  0000c	51		 push	 ecx
  0000d	8d bd 34 ff ff
	ff		 lea	 edi, DWORD PTR [ebp-204]
  00013	b9 33 00 00 00	 mov	 ecx, 51			; 00000033H
  00018	b8 cc cc cc cc	 mov	 eax, -858993460		; ccccccccH
  0001d	f3 ab		 rep stosd
  0001f	59		 pop	 ecx
  00020	89 4d f8	 mov	 DWORD PTR _this$[ebp], ecx
  00023	8b 45 f8	 mov	 eax, DWORD PTR _this$[ebp]
  00026	c7 00 00 00 00
	00		 mov	 DWORD PTR [eax], 0
  0002c	8b 45 f8	 mov	 eax, DWORD PTR _this$[ebp]
  0002f	c7 40 04 00 00
	00 00		 mov	 DWORD PTR [eax+4], 0
; Line 115
  00036	8b 45 f8	 mov	 eax, DWORD PTR _this$[ebp]
  00039	5f		 pop	 edi
  0003a	5e		 pop	 esi
  0003b	5b		 pop	 ebx
  0003c	8b e5		 mov	 esp, ebp
  0003e	5d		 pop	 ebp
  0003f	c3		 ret	 0
??0_Iterator_base12@std@@QAE@XZ ENDP			; std::_Iterator_base12::_Iterator_base12
_TEXT	ENDS
; Function compile flags: /Odtp /RTCsu /ZI
;	COMDAT ??__Epiecewise_construct@std@@YAXXZ
text$di	SEGMENT
$T1 = -197						; size = 1
??__Epiecewise_construct@std@@YAXXZ PROC		; std::`dynamic initializer for 'piecewise_construct'', COMDAT
; File c:\program files (x86)\microsoft visual studio 12.0\vc\include\utility
; Line 70
  00000	55		 push	 ebp
  00001	8b ec		 mov	 ebp, esp
  00003	81 ec cc 00 00
	00		 sub	 esp, 204		; 000000ccH
  00009	53		 push	 ebx
  0000a	56		 push	 esi
  0000b	57		 push	 edi
  0000c	8d bd 34 ff ff
	ff		 lea	 edi, DWORD PTR [ebp-204]
  00012	b9 33 00 00 00	 mov	 ecx, 51			; 00000033H
  00017	b8 cc cc cc cc	 mov	 eax, -858993460		; ccccccccH
  0001c	f3 ab		 rep stosd
  0001e	33 c0		 xor	 eax, eax
  00020	88 85 3b ff ff
	ff		 mov	 BYTE PTR $T1[ebp], al
  00026	5f		 pop	 edi
  00027	5e		 pop	 esi
  00028	5b		 pop	 ebx
  00029	8b e5		 mov	 esp, ebp
  0002b	5d		 pop	 ebp
  0002c	c3		 ret	 0
??__Epiecewise_construct@std@@YAXXZ ENDP		; std::`dynamic initializer for 'piecewise_construct''
text$di	ENDS
; Function compile flags: /Odtp /RTCsu /ZI
;	COMDAT ??3@YAXPAX0@Z
_TEXT	SEGMENT
___formal$ = 8						; size = 4
___formal$ = 12						; size = 4
??3@YAXPAX0@Z PROC					; operator delete, COMDAT
; File c:\program files (x86)\microsoft visual studio 12.0\vc\include\new
; Line 64
  00000	55		 push	 ebp
  00001	8b ec		 mov	 ebp, esp
  00003	81 ec c0 00 00
	00		 sub	 esp, 192		; 000000c0H
  00009	53		 push	 ebx
  0000a	56		 push	 esi
  0000b	57		 push	 edi
  0000c	8d bd 40 ff ff
	ff		 lea	 edi, DWORD PTR [ebp-192]
  00012	b9 30 00 00 00	 mov	 ecx, 48			; 00000030H
  00017	b8 cc cc cc cc	 mov	 eax, -858993460		; ccccccccH
  0001c	f3 ab		 rep stosd
; Line 65
  0001e	5f		 pop	 edi
  0001f	5e		 pop	 esi
  00020	5b		 pop	 ebx
  00021	8b e5		 mov	 esp, ebp
  00023	5d		 pop	 ebp
  00024	c3		 ret	 0
??3@YAXPAX0@Z ENDP					; operator delete
_TEXT	ENDS
; Function compile flags: /Odtp /RTCsu /ZI
;	COMDAT ??2@YAPAXIPAX@Z
_TEXT	SEGMENT
___formal$ = 8						; size = 4
__Where$ = 12						; size = 4
??2@YAPAXIPAX@Z PROC					; operator new, COMDAT
; File c:\program files (x86)\microsoft visual studio 12.0\vc\include\new
; Line 59
  00000	55		 push	 ebp
  00001	8b ec		 mov	 ebp, esp
  00003	81 ec c0 00 00
	00		 sub	 esp, 192		; 000000c0H
  00009	53		 push	 ebx
  0000a	56		 push	 esi
  0000b	57		 push	 edi
  0000c	8d bd 40 ff ff
	ff		 lea	 edi, DWORD PTR [ebp-192]
  00012	b9 30 00 00 00	 mov	 ecx, 48			; 00000030H
  00017	b8 cc cc cc cc	 mov	 eax, -858993460		; ccccccccH
  0001c	f3 ab		 rep stosd
; Line 60
  0001e	8b 45 0c	 mov	 eax, DWORD PTR __Where$[ebp]
; Line 61
  00021	5f		 pop	 edi
  00022	5e		 pop	 esi
  00023	5b		 pop	 ebx
  00024	8b e5		 mov	 esp, ebp
  00026	5d		 pop	 ebp
  00027	c3		 ret	 0
??2@YAPAXIPAX@Z ENDP					; operator new
_TEXT	ENDS
; Function compile flags: /Odtp /RTCsu /ZI
;	COMDAT _hypot
_TEXT	SEGMENT
__X$ = 8						; size = 8
__Y$ = 16						; size = 8
_hypot	PROC						; COMDAT
; File c:\program files (x86)\microsoft visual studio 12.0\vc\include\math.h
; Line 556
  00000	55		 push	 ebp
  00001	8b ec		 mov	 ebp, esp
  00003	81 ec c0 00 00
	00		 sub	 esp, 192		; 000000c0H
  00009	53		 push	 ebx
  0000a	56		 push	 esi
  0000b	57		 push	 edi
  0000c	8d bd 40 ff ff
	ff		 lea	 edi, DWORD PTR [ebp-192]
  00012	b9 30 00 00 00	 mov	 ecx, 48			; 00000030H
  00017	b8 cc cc cc cc	 mov	 eax, -858993460		; ccccccccH
  0001c	f3 ab		 rep stosd
; Line 557
  0001e	8b f4		 mov	 esi, esp
  00020	83 ec 08	 sub	 esp, 8
  00023	f2 0f 10 45 10	 movsd	 xmm0, QWORD PTR __Y$[ebp]
  00028	f2 0f 11 04 24	 movsd	 QWORD PTR [esp], xmm0
  0002d	83 ec 08	 sub	 esp, 8
  00030	f2 0f 10 45 08	 movsd	 xmm0, QWORD PTR __X$[ebp]
  00035	f2 0f 11 04 24	 movsd	 QWORD PTR [esp], xmm0
  0003a	ff 15 00 00 00
	00		 call	 DWORD PTR __imp___hypot
  00040	83 c4 10	 add	 esp, 16			; 00000010H
  00043	3b f4		 cmp	 esi, esp
  00045	e8 00 00 00 00	 call	 __RTC_CheckEsp
; Line 558
  0004a	5f		 pop	 edi
  0004b	5e		 pop	 esi
  0004c	5b		 pop	 ebx
  0004d	81 c4 c0 00 00
	00		 add	 esp, 192		; 000000c0H
  00053	3b ec		 cmp	 ebp, esp
  00055	e8 00 00 00 00	 call	 __RTC_CheckEsp
  0005a	8b e5		 mov	 esp, ebp
  0005c	5d		 pop	 ebp
  0005d	c3		 ret	 0
_hypot	ENDP
_TEXT	ENDS
END
