; Listing generated by Microsoft (R) Optimizing Compiler Version 18.00.21005.1 

	TITLE	F:\Cavestory\Cavestory\Cavestory\Input.cpp
	.686P
	.XMM
	include listing.inc
	.model	flat

INCLUDELIB MSVCRTD
INCLUDELIB OLDNAMES

PUBLIC	?is_signed@?$numeric_limits@J@std@@2_NB		; std::numeric_limits<long>::is_signed
PUBLIC	?digits@?$numeric_limits@J@std@@2HB		; std::numeric_limits<long>::digits
PUBLIC	?digits10@?$numeric_limits@J@std@@2HB		; std::numeric_limits<long>::digits10
PUBLIC	?is_signed@?$numeric_limits@K@std@@2_NB		; std::numeric_limits<unsigned long>::is_signed
PUBLIC	?digits@?$numeric_limits@K@std@@2HB		; std::numeric_limits<unsigned long>::digits
PUBLIC	?digits10@?$numeric_limits@K@std@@2HB		; std::numeric_limits<unsigned long>::digits10
PUBLIC	?is_signed@?$numeric_limits@_J@std@@2_NB	; std::numeric_limits<__int64>::is_signed
PUBLIC	?digits@?$numeric_limits@_J@std@@2HB		; std::numeric_limits<__int64>::digits
PUBLIC	?digits10@?$numeric_limits@_J@std@@2HB		; std::numeric_limits<__int64>::digits10
PUBLIC	?is_signed@?$numeric_limits@_K@std@@2_NB	; std::numeric_limits<unsigned __int64>::is_signed
PUBLIC	?digits@?$numeric_limits@_K@std@@2HB		; std::numeric_limits<unsigned __int64>::digits
PUBLIC	?digits10@?$numeric_limits@_K@std@@2HB		; std::numeric_limits<unsigned __int64>::digits10
PUBLIC	?digits@?$numeric_limits@M@std@@2HB		; std::numeric_limits<float>::digits
PUBLIC	?digits10@?$numeric_limits@M@std@@2HB		; std::numeric_limits<float>::digits10
PUBLIC	?max_digits10@?$numeric_limits@M@std@@2HB	; std::numeric_limits<float>::max_digits10
PUBLIC	?max_exponent@?$numeric_limits@M@std@@2HB	; std::numeric_limits<float>::max_exponent
PUBLIC	?max_exponent10@?$numeric_limits@M@std@@2HB	; std::numeric_limits<float>::max_exponent10
PUBLIC	?min_exponent@?$numeric_limits@M@std@@2HB	; std::numeric_limits<float>::min_exponent
PUBLIC	?min_exponent10@?$numeric_limits@M@std@@2HB	; std::numeric_limits<float>::min_exponent10
PUBLIC	?digits@?$numeric_limits@N@std@@2HB		; std::numeric_limits<double>::digits
PUBLIC	?digits10@?$numeric_limits@N@std@@2HB		; std::numeric_limits<double>::digits10
PUBLIC	?max_digits10@?$numeric_limits@N@std@@2HB	; std::numeric_limits<double>::max_digits10
PUBLIC	?max_exponent@?$numeric_limits@N@std@@2HB	; std::numeric_limits<double>::max_exponent
PUBLIC	?value@?$integral_constant@I$07@std@@2IB	; std::integral_constant<unsigned int,8>::value
PUBLIC	?max_exponent10@?$numeric_limits@N@std@@2HB	; std::numeric_limits<double>::max_exponent10
PUBLIC	?min_exponent@?$numeric_limits@N@std@@2HB	; std::numeric_limits<double>::min_exponent
PUBLIC	?min_exponent10@?$numeric_limits@N@std@@2HB	; std::numeric_limits<double>::min_exponent10
PUBLIC	?digits@?$numeric_limits@O@std@@2HB		; std::numeric_limits<long double>::digits
PUBLIC	?digits10@?$numeric_limits@O@std@@2HB		; std::numeric_limits<long double>::digits10
PUBLIC	?max_digits10@?$numeric_limits@O@std@@2HB	; std::numeric_limits<long double>::max_digits10
PUBLIC	?max_exponent@?$numeric_limits@O@std@@2HB	; std::numeric_limits<long double>::max_exponent
PUBLIC	?max_exponent10@?$numeric_limits@O@std@@2HB	; std::numeric_limits<long double>::max_exponent10
PUBLIC	?min_exponent@?$numeric_limits@O@std@@2HB	; std::numeric_limits<long double>::min_exponent
PUBLIC	?value@?$integral_constant@I$03@std@@2IB	; std::integral_constant<unsigned int,4>::value
PUBLIC	?min_exponent10@?$numeric_limits@O@std@@2HB	; std::numeric_limits<long double>::min_exponent10
PUBLIC	?_Mysize@?$tuple@ABW4SDL_Scancode@@@std@@2IB	; std::tuple<enum SDL_Scancode const &>::_Mysize
PUBLIC	?value@?$integral_constant@I$01@std@@2IB	; std::integral_constant<unsigned int,2>::value
PUBLIC	?value@?$integral_constant@I$00@std@@2IB	; std::integral_constant<unsigned int,1>::value
PUBLIC	?value@?$_Maximum@$S@std@@2IB			; std::_Maximum<>::value
PUBLIC	?value@?$integral_constant@I$0A@@std@@2IB	; std::integral_constant<unsigned int,0>::value
PUBLIC	?has_denorm@_Num_base@std@@2W4float_denorm_style@2@B ; std::_Num_base::has_denorm
PUBLIC	?has_denorm_loss@_Num_base@std@@2_NB		; std::_Num_base::has_denorm_loss
PUBLIC	?has_infinity@_Num_base@std@@2_NB		; std::_Num_base::has_infinity
PUBLIC	?has_quiet_NaN@_Num_base@std@@2_NB		; std::_Num_base::has_quiet_NaN
PUBLIC	?has_signaling_NaN@_Num_base@std@@2_NB		; std::_Num_base::has_signaling_NaN
PUBLIC	?is_bounded@_Num_base@std@@2_NB			; std::_Num_base::is_bounded
PUBLIC	?is_exact@_Num_base@std@@2_NB			; std::_Num_base::is_exact
PUBLIC	?is_iec559@_Num_base@std@@2_NB			; std::_Num_base::is_iec559
PUBLIC	?is_integer@_Num_base@std@@2_NB			; std::_Num_base::is_integer
PUBLIC	?is_modulo@_Num_base@std@@2_NB			; std::_Num_base::is_modulo
PUBLIC	?value@?$integral_constant@_N$0A@@std@@2_NB	; std::integral_constant<bool,0>::value
PUBLIC	?is_signed@_Num_base@std@@2_NB			; std::_Num_base::is_signed
PUBLIC	?is_specialized@_Num_base@std@@2_NB		; std::_Num_base::is_specialized
PUBLIC	?tinyness_before@_Num_base@std@@2_NB		; std::_Num_base::tinyness_before
PUBLIC	?traps@_Num_base@std@@2_NB			; std::_Num_base::traps
PUBLIC	?round_style@_Num_base@std@@2W4float_round_style@2@B ; std::_Num_base::round_style
PUBLIC	?value@?$integral_constant@_N$00@std@@2_NB	; std::integral_constant<bool,1>::value
PUBLIC	?digits@_Num_base@std@@2HB			; std::_Num_base::digits
PUBLIC	?digits10@_Num_base@std@@2HB			; std::_Num_base::digits10
PUBLIC	?max_digits10@_Num_base@std@@2HB		; std::_Num_base::max_digits10
PUBLIC	?max_exponent@_Num_base@std@@2HB		; std::_Num_base::max_exponent
PUBLIC	?max_exponent10@_Num_base@std@@2HB		; std::_Num_base::max_exponent10
PUBLIC	?min_exponent@_Num_base@std@@2HB		; std::_Num_base::min_exponent
PUBLIC	?min_exponent10@_Num_base@std@@2HB		; std::_Num_base::min_exponent10
PUBLIC	?radix@_Num_base@std@@2HB			; std::_Num_base::radix
PUBLIC	?is_bounded@_Num_int_base@std@@2_NB		; std::_Num_int_base::is_bounded
PUBLIC	?is_exact@_Num_int_base@std@@2_NB		; std::_Num_int_base::is_exact
PUBLIC	?is_integer@_Num_int_base@std@@2_NB		; std::_Num_int_base::is_integer
PUBLIC	?is_modulo@_Num_int_base@std@@2_NB		; std::_Num_int_base::is_modulo
PUBLIC	?is_specialized@_Num_int_base@std@@2_NB		; std::_Num_int_base::is_specialized
PUBLIC	?radix@_Num_int_base@std@@2HB			; std::_Num_int_base::radix
PUBLIC	?has_denorm@_Num_float_base@std@@2W4float_denorm_style@2@B ; std::_Num_float_base::has_denorm
PUBLIC	?has_denorm_loss@_Num_float_base@std@@2_NB	; std::_Num_float_base::has_denorm_loss
PUBLIC	?has_infinity@_Num_float_base@std@@2_NB		; std::_Num_float_base::has_infinity
PUBLIC	?has_quiet_NaN@_Num_float_base@std@@2_NB	; std::_Num_float_base::has_quiet_NaN
PUBLIC	?has_signaling_NaN@_Num_float_base@std@@2_NB	; std::_Num_float_base::has_signaling_NaN
PUBLIC	?is_bounded@_Num_float_base@std@@2_NB		; std::_Num_float_base::is_bounded
PUBLIC	?is_exact@_Num_float_base@std@@2_NB		; std::_Num_float_base::is_exact
PUBLIC	?is_iec559@_Num_float_base@std@@2_NB		; std::_Num_float_base::is_iec559
PUBLIC	?is_integer@_Num_float_base@std@@2_NB		; std::_Num_float_base::is_integer
PUBLIC	?is_modulo@_Num_float_base@std@@2_NB		; std::_Num_float_base::is_modulo
PUBLIC	?is_signed@_Num_float_base@std@@2_NB		; std::_Num_float_base::is_signed
PUBLIC	?is_specialized@_Num_float_base@std@@2_NB	; std::_Num_float_base::is_specialized
PUBLIC	?tinyness_before@_Num_float_base@std@@2_NB	; std::_Num_float_base::tinyness_before
PUBLIC	?traps@_Num_float_base@std@@2_NB		; std::_Num_float_base::traps
PUBLIC	?round_style@_Num_float_base@std@@2W4float_round_style@2@B ; std::_Num_float_base::round_style
PUBLIC	?radix@_Num_float_base@std@@2HB			; std::_Num_float_base::radix
PUBLIC	?is_signed@?$numeric_limits@D@std@@2_NB		; std::numeric_limits<char>::is_signed
PUBLIC	?digits@?$numeric_limits@D@std@@2HB		; std::numeric_limits<char>::digits
PUBLIC	?digits10@?$numeric_limits@D@std@@2HB		; std::numeric_limits<char>::digits10
PUBLIC	?is_signed@?$numeric_limits@_W@std@@2_NB	; std::numeric_limits<wchar_t>::is_signed
PUBLIC	?digits@?$numeric_limits@_W@std@@2HB		; std::numeric_limits<wchar_t>::digits
PUBLIC	?digits10@?$numeric_limits@_W@std@@2HB		; std::numeric_limits<wchar_t>::digits10
PUBLIC	?is_modulo@?$numeric_limits@_N@std@@2_NB	; std::numeric_limits<bool>::is_modulo
PUBLIC	?is_signed@?$numeric_limits@_N@std@@2_NB	; std::numeric_limits<bool>::is_signed
PUBLIC	?digits@?$numeric_limits@_N@std@@2HB		; std::numeric_limits<bool>::digits
PUBLIC	?digits10@?$numeric_limits@_N@std@@2HB		; std::numeric_limits<bool>::digits10
PUBLIC	?is_signed@?$numeric_limits@C@std@@2_NB		; std::numeric_limits<signed char>::is_signed
PUBLIC	?digits@?$numeric_limits@C@std@@2HB		; std::numeric_limits<signed char>::digits
PUBLIC	?digits10@?$numeric_limits@C@std@@2HB		; std::numeric_limits<signed char>::digits10
PUBLIC	?is_signed@?$numeric_limits@E@std@@2_NB		; std::numeric_limits<unsigned char>::is_signed
PUBLIC	?digits@?$numeric_limits@E@std@@2HB		; std::numeric_limits<unsigned char>::digits
PUBLIC	?digits10@?$numeric_limits@E@std@@2HB		; std::numeric_limits<unsigned char>::digits10
PUBLIC	?is_signed@?$numeric_limits@F@std@@2_NB		; std::numeric_limits<short>::is_signed
PUBLIC	?digits@?$numeric_limits@F@std@@2HB		; std::numeric_limits<short>::digits
PUBLIC	?digits10@?$numeric_limits@F@std@@2HB		; std::numeric_limits<short>::digits10
PUBLIC	?is_signed@?$numeric_limits@G@std@@2_NB		; std::numeric_limits<unsigned short>::is_signed
PUBLIC	?digits@?$numeric_limits@G@std@@2HB		; std::numeric_limits<unsigned short>::digits
PUBLIC	?digits10@?$numeric_limits@G@std@@2HB		; std::numeric_limits<unsigned short>::digits10
PUBLIC	?is_signed@?$numeric_limits@H@std@@2_NB		; std::numeric_limits<int>::is_signed
PUBLIC	?digits@?$numeric_limits@H@std@@2HB		; std::numeric_limits<int>::digits
PUBLIC	?digits10@?$numeric_limits@H@std@@2HB		; std::numeric_limits<int>::digits10
PUBLIC	?is_signed@?$numeric_limits@I@std@@2_NB		; std::numeric_limits<unsigned int>::is_signed
PUBLIC	?digits@?$numeric_limits@I@std@@2HB		; std::numeric_limits<unsigned int>::digits
PUBLIC	?digits10@?$numeric_limits@I@std@@2HB		; std::numeric_limits<unsigned int>::digits10
;	COMDAT ?digits10@?$numeric_limits@I@std@@2HB
CONST	SEGMENT
?digits10@?$numeric_limits@I@std@@2HB DD 09H		; std::numeric_limits<unsigned int>::digits10
CONST	ENDS
;	COMDAT ?digits@?$numeric_limits@I@std@@2HB
CONST	SEGMENT
?digits@?$numeric_limits@I@std@@2HB DD 020H		; std::numeric_limits<unsigned int>::digits
CONST	ENDS
;	COMDAT ?is_signed@?$numeric_limits@I@std@@2_NB
CONST	SEGMENT
?is_signed@?$numeric_limits@I@std@@2_NB DB 00H		; std::numeric_limits<unsigned int>::is_signed
CONST	ENDS
;	COMDAT ?digits10@?$numeric_limits@H@std@@2HB
CONST	SEGMENT
?digits10@?$numeric_limits@H@std@@2HB DD 09H		; std::numeric_limits<int>::digits10
CONST	ENDS
;	COMDAT ?digits@?$numeric_limits@H@std@@2HB
CONST	SEGMENT
?digits@?$numeric_limits@H@std@@2HB DD 01fH		; std::numeric_limits<int>::digits
CONST	ENDS
;	COMDAT ?is_signed@?$numeric_limits@H@std@@2_NB
CONST	SEGMENT
?is_signed@?$numeric_limits@H@std@@2_NB DB 01H		; std::numeric_limits<int>::is_signed
CONST	ENDS
;	COMDAT ?digits10@?$numeric_limits@G@std@@2HB
CONST	SEGMENT
?digits10@?$numeric_limits@G@std@@2HB DD 04H		; std::numeric_limits<unsigned short>::digits10
CONST	ENDS
;	COMDAT ?digits@?$numeric_limits@G@std@@2HB
CONST	SEGMENT
?digits@?$numeric_limits@G@std@@2HB DD 010H		; std::numeric_limits<unsigned short>::digits
CONST	ENDS
;	COMDAT ?is_signed@?$numeric_limits@G@std@@2_NB
CONST	SEGMENT
?is_signed@?$numeric_limits@G@std@@2_NB DB 00H		; std::numeric_limits<unsigned short>::is_signed
CONST	ENDS
;	COMDAT ?digits10@?$numeric_limits@F@std@@2HB
CONST	SEGMENT
?digits10@?$numeric_limits@F@std@@2HB DD 04H		; std::numeric_limits<short>::digits10
CONST	ENDS
;	COMDAT ?digits@?$numeric_limits@F@std@@2HB
CONST	SEGMENT
?digits@?$numeric_limits@F@std@@2HB DD 0fH		; std::numeric_limits<short>::digits
CONST	ENDS
;	COMDAT ?is_signed@?$numeric_limits@F@std@@2_NB
CONST	SEGMENT
?is_signed@?$numeric_limits@F@std@@2_NB DB 01H		; std::numeric_limits<short>::is_signed
CONST	ENDS
;	COMDAT ?digits10@?$numeric_limits@E@std@@2HB
CONST	SEGMENT
?digits10@?$numeric_limits@E@std@@2HB DD 02H		; std::numeric_limits<unsigned char>::digits10
CONST	ENDS
;	COMDAT ?digits@?$numeric_limits@E@std@@2HB
CONST	SEGMENT
?digits@?$numeric_limits@E@std@@2HB DD 08H		; std::numeric_limits<unsigned char>::digits
CONST	ENDS
;	COMDAT ?is_signed@?$numeric_limits@E@std@@2_NB
CONST	SEGMENT
?is_signed@?$numeric_limits@E@std@@2_NB DB 00H		; std::numeric_limits<unsigned char>::is_signed
CONST	ENDS
;	COMDAT ?digits10@?$numeric_limits@C@std@@2HB
CONST	SEGMENT
?digits10@?$numeric_limits@C@std@@2HB DD 02H		; std::numeric_limits<signed char>::digits10
CONST	ENDS
;	COMDAT ?digits@?$numeric_limits@C@std@@2HB
CONST	SEGMENT
?digits@?$numeric_limits@C@std@@2HB DD 07H		; std::numeric_limits<signed char>::digits
CONST	ENDS
;	COMDAT ?is_signed@?$numeric_limits@C@std@@2_NB
CONST	SEGMENT
?is_signed@?$numeric_limits@C@std@@2_NB DB 01H		; std::numeric_limits<signed char>::is_signed
CONST	ENDS
;	COMDAT ?digits10@?$numeric_limits@_N@std@@2HB
CONST	SEGMENT
?digits10@?$numeric_limits@_N@std@@2HB DD 00H		; std::numeric_limits<bool>::digits10
CONST	ENDS
;	COMDAT ?digits@?$numeric_limits@_N@std@@2HB
CONST	SEGMENT
?digits@?$numeric_limits@_N@std@@2HB DD 01H		; std::numeric_limits<bool>::digits
CONST	ENDS
;	COMDAT ?is_signed@?$numeric_limits@_N@std@@2_NB
CONST	SEGMENT
?is_signed@?$numeric_limits@_N@std@@2_NB DB 00H		; std::numeric_limits<bool>::is_signed
CONST	ENDS
;	COMDAT ?is_modulo@?$numeric_limits@_N@std@@2_NB
CONST	SEGMENT
?is_modulo@?$numeric_limits@_N@std@@2_NB DB 00H		; std::numeric_limits<bool>::is_modulo
CONST	ENDS
;	COMDAT ?digits10@?$numeric_limits@_W@std@@2HB
CONST	SEGMENT
?digits10@?$numeric_limits@_W@std@@2HB DD 04H		; std::numeric_limits<wchar_t>::digits10
CONST	ENDS
;	COMDAT ?digits@?$numeric_limits@_W@std@@2HB
CONST	SEGMENT
?digits@?$numeric_limits@_W@std@@2HB DD 010H		; std::numeric_limits<wchar_t>::digits
CONST	ENDS
;	COMDAT ?is_signed@?$numeric_limits@_W@std@@2_NB
CONST	SEGMENT
?is_signed@?$numeric_limits@_W@std@@2_NB DB 00H		; std::numeric_limits<wchar_t>::is_signed
CONST	ENDS
;	COMDAT ?digits10@?$numeric_limits@D@std@@2HB
CONST	SEGMENT
?digits10@?$numeric_limits@D@std@@2HB DD 02H		; std::numeric_limits<char>::digits10
CONST	ENDS
;	COMDAT ?digits@?$numeric_limits@D@std@@2HB
CONST	SEGMENT
?digits@?$numeric_limits@D@std@@2HB DD 07H		; std::numeric_limits<char>::digits
CONST	ENDS
;	COMDAT ?is_signed@?$numeric_limits@D@std@@2_NB
CONST	SEGMENT
?is_signed@?$numeric_limits@D@std@@2_NB DB 01H		; std::numeric_limits<char>::is_signed
CONST	ENDS
;	COMDAT ?radix@_Num_float_base@std@@2HB
CONST	SEGMENT
?radix@_Num_float_base@std@@2HB DD 02H			; std::_Num_float_base::radix
CONST	ENDS
;	COMDAT ?round_style@_Num_float_base@std@@2W4float_round_style@2@B
CONST	SEGMENT
?round_style@_Num_float_base@std@@2W4float_round_style@2@B DD 01H ; std::_Num_float_base::round_style
CONST	ENDS
;	COMDAT ?traps@_Num_float_base@std@@2_NB
CONST	SEGMENT
?traps@_Num_float_base@std@@2_NB DB 00H			; std::_Num_float_base::traps
CONST	ENDS
;	COMDAT ?tinyness_before@_Num_float_base@std@@2_NB
CONST	SEGMENT
?tinyness_before@_Num_float_base@std@@2_NB DB 01H	; std::_Num_float_base::tinyness_before
CONST	ENDS
;	COMDAT ?is_specialized@_Num_float_base@std@@2_NB
CONST	SEGMENT
?is_specialized@_Num_float_base@std@@2_NB DB 01H	; std::_Num_float_base::is_specialized
CONST	ENDS
;	COMDAT ?is_signed@_Num_float_base@std@@2_NB
CONST	SEGMENT
?is_signed@_Num_float_base@std@@2_NB DB 01H		; std::_Num_float_base::is_signed
CONST	ENDS
;	COMDAT ?is_modulo@_Num_float_base@std@@2_NB
CONST	SEGMENT
?is_modulo@_Num_float_base@std@@2_NB DB 00H		; std::_Num_float_base::is_modulo
CONST	ENDS
;	COMDAT ?is_integer@_Num_float_base@std@@2_NB
CONST	SEGMENT
?is_integer@_Num_float_base@std@@2_NB DB 00H		; std::_Num_float_base::is_integer
CONST	ENDS
;	COMDAT ?is_iec559@_Num_float_base@std@@2_NB
CONST	SEGMENT
?is_iec559@_Num_float_base@std@@2_NB DB 01H		; std::_Num_float_base::is_iec559
CONST	ENDS
;	COMDAT ?is_exact@_Num_float_base@std@@2_NB
CONST	SEGMENT
?is_exact@_Num_float_base@std@@2_NB DB 00H		; std::_Num_float_base::is_exact
CONST	ENDS
;	COMDAT ?is_bounded@_Num_float_base@std@@2_NB
CONST	SEGMENT
?is_bounded@_Num_float_base@std@@2_NB DB 01H		; std::_Num_float_base::is_bounded
CONST	ENDS
;	COMDAT ?has_signaling_NaN@_Num_float_base@std@@2_NB
CONST	SEGMENT
?has_signaling_NaN@_Num_float_base@std@@2_NB DB 01H	; std::_Num_float_base::has_signaling_NaN
CONST	ENDS
;	COMDAT ?has_quiet_NaN@_Num_float_base@std@@2_NB
CONST	SEGMENT
?has_quiet_NaN@_Num_float_base@std@@2_NB DB 01H		; std::_Num_float_base::has_quiet_NaN
CONST	ENDS
;	COMDAT ?has_infinity@_Num_float_base@std@@2_NB
CONST	SEGMENT
?has_infinity@_Num_float_base@std@@2_NB DB 01H		; std::_Num_float_base::has_infinity
CONST	ENDS
;	COMDAT ?has_denorm_loss@_Num_float_base@std@@2_NB
CONST	SEGMENT
?has_denorm_loss@_Num_float_base@std@@2_NB DB 01H	; std::_Num_float_base::has_denorm_loss
CONST	ENDS
;	COMDAT ?has_denorm@_Num_float_base@std@@2W4float_denorm_style@2@B
CONST	SEGMENT
?has_denorm@_Num_float_base@std@@2W4float_denorm_style@2@B DD 01H ; std::_Num_float_base::has_denorm
CONST	ENDS
;	COMDAT ?radix@_Num_int_base@std@@2HB
CONST	SEGMENT
?radix@_Num_int_base@std@@2HB DD 02H			; std::_Num_int_base::radix
CONST	ENDS
;	COMDAT ?is_specialized@_Num_int_base@std@@2_NB
CONST	SEGMENT
?is_specialized@_Num_int_base@std@@2_NB DB 01H		; std::_Num_int_base::is_specialized
CONST	ENDS
;	COMDAT ?is_modulo@_Num_int_base@std@@2_NB
CONST	SEGMENT
?is_modulo@_Num_int_base@std@@2_NB DB 01H		; std::_Num_int_base::is_modulo
CONST	ENDS
;	COMDAT ?is_integer@_Num_int_base@std@@2_NB
CONST	SEGMENT
?is_integer@_Num_int_base@std@@2_NB DB 01H		; std::_Num_int_base::is_integer
CONST	ENDS
;	COMDAT ?is_exact@_Num_int_base@std@@2_NB
CONST	SEGMENT
?is_exact@_Num_int_base@std@@2_NB DB 01H		; std::_Num_int_base::is_exact
CONST	ENDS
;	COMDAT ?is_bounded@_Num_int_base@std@@2_NB
CONST	SEGMENT
?is_bounded@_Num_int_base@std@@2_NB DB 01H		; std::_Num_int_base::is_bounded
CONST	ENDS
;	COMDAT ?radix@_Num_base@std@@2HB
CONST	SEGMENT
?radix@_Num_base@std@@2HB DD 00H			; std::_Num_base::radix
CONST	ENDS
;	COMDAT ?min_exponent10@_Num_base@std@@2HB
CONST	SEGMENT
?min_exponent10@_Num_base@std@@2HB DD 00H		; std::_Num_base::min_exponent10
CONST	ENDS
;	COMDAT ?min_exponent@_Num_base@std@@2HB
CONST	SEGMENT
?min_exponent@_Num_base@std@@2HB DD 00H			; std::_Num_base::min_exponent
CONST	ENDS
;	COMDAT ?max_exponent10@_Num_base@std@@2HB
CONST	SEGMENT
?max_exponent10@_Num_base@std@@2HB DD 00H		; std::_Num_base::max_exponent10
CONST	ENDS
;	COMDAT ?max_exponent@_Num_base@std@@2HB
CONST	SEGMENT
?max_exponent@_Num_base@std@@2HB DD 00H			; std::_Num_base::max_exponent
CONST	ENDS
;	COMDAT ?max_digits10@_Num_base@std@@2HB
CONST	SEGMENT
?max_digits10@_Num_base@std@@2HB DD 00H			; std::_Num_base::max_digits10
CONST	ENDS
;	COMDAT ?digits10@_Num_base@std@@2HB
CONST	SEGMENT
?digits10@_Num_base@std@@2HB DD 00H			; std::_Num_base::digits10
CONST	ENDS
;	COMDAT ?digits@_Num_base@std@@2HB
CONST	SEGMENT
?digits@_Num_base@std@@2HB DD 00H			; std::_Num_base::digits
CONST	ENDS
;	COMDAT ?value@?$integral_constant@_N$00@std@@2_NB
CONST	SEGMENT
?value@?$integral_constant@_N$00@std@@2_NB DB 01H	; std::integral_constant<bool,1>::value
CONST	ENDS
;	COMDAT ?round_style@_Num_base@std@@2W4float_round_style@2@B
CONST	SEGMENT
?round_style@_Num_base@std@@2W4float_round_style@2@B DD 00H ; std::_Num_base::round_style
CONST	ENDS
;	COMDAT ?traps@_Num_base@std@@2_NB
CONST	SEGMENT
?traps@_Num_base@std@@2_NB DB 00H			; std::_Num_base::traps
CONST	ENDS
;	COMDAT ?tinyness_before@_Num_base@std@@2_NB
CONST	SEGMENT
?tinyness_before@_Num_base@std@@2_NB DB 00H		; std::_Num_base::tinyness_before
CONST	ENDS
;	COMDAT ?is_specialized@_Num_base@std@@2_NB
CONST	SEGMENT
?is_specialized@_Num_base@std@@2_NB DB 00H		; std::_Num_base::is_specialized
CONST	ENDS
;	COMDAT ?is_signed@_Num_base@std@@2_NB
CONST	SEGMENT
?is_signed@_Num_base@std@@2_NB DB 00H			; std::_Num_base::is_signed
CONST	ENDS
;	COMDAT ?value@?$integral_constant@_N$0A@@std@@2_NB
CONST	SEGMENT
?value@?$integral_constant@_N$0A@@std@@2_NB DB 00H	; std::integral_constant<bool,0>::value
CONST	ENDS
;	COMDAT ?is_modulo@_Num_base@std@@2_NB
CONST	SEGMENT
?is_modulo@_Num_base@std@@2_NB DB 00H			; std::_Num_base::is_modulo
CONST	ENDS
;	COMDAT ?is_integer@_Num_base@std@@2_NB
CONST	SEGMENT
?is_integer@_Num_base@std@@2_NB DB 00H			; std::_Num_base::is_integer
CONST	ENDS
;	COMDAT ?is_iec559@_Num_base@std@@2_NB
CONST	SEGMENT
?is_iec559@_Num_base@std@@2_NB DB 00H			; std::_Num_base::is_iec559
CONST	ENDS
;	COMDAT ?is_exact@_Num_base@std@@2_NB
CONST	SEGMENT
?is_exact@_Num_base@std@@2_NB DB 00H			; std::_Num_base::is_exact
CONST	ENDS
;	COMDAT ?is_bounded@_Num_base@std@@2_NB
CONST	SEGMENT
?is_bounded@_Num_base@std@@2_NB DB 00H			; std::_Num_base::is_bounded
CONST	ENDS
;	COMDAT ?has_signaling_NaN@_Num_base@std@@2_NB
CONST	SEGMENT
?has_signaling_NaN@_Num_base@std@@2_NB DB 00H		; std::_Num_base::has_signaling_NaN
CONST	ENDS
;	COMDAT ?has_quiet_NaN@_Num_base@std@@2_NB
CONST	SEGMENT
?has_quiet_NaN@_Num_base@std@@2_NB DB 00H		; std::_Num_base::has_quiet_NaN
CONST	ENDS
;	COMDAT ?has_infinity@_Num_base@std@@2_NB
CONST	SEGMENT
?has_infinity@_Num_base@std@@2_NB DB 00H		; std::_Num_base::has_infinity
CONST	ENDS
;	COMDAT ?has_denorm_loss@_Num_base@std@@2_NB
CONST	SEGMENT
?has_denorm_loss@_Num_base@std@@2_NB DB 00H		; std::_Num_base::has_denorm_loss
CONST	ENDS
;	COMDAT ?has_denorm@_Num_base@std@@2W4float_denorm_style@2@B
CONST	SEGMENT
?has_denorm@_Num_base@std@@2W4float_denorm_style@2@B DD 00H ; std::_Num_base::has_denorm
CONST	ENDS
;	COMDAT ?value@?$integral_constant@I$0A@@std@@2IB
CONST	SEGMENT
?value@?$integral_constant@I$0A@@std@@2IB DD 00H	; std::integral_constant<unsigned int,0>::value
CONST	ENDS
;	COMDAT ?value@?$_Maximum@$S@std@@2IB
CONST	SEGMENT
?value@?$_Maximum@$S@std@@2IB DD 00H			; std::_Maximum<>::value
CONST	ENDS
;	COMDAT ?value@?$integral_constant@I$00@std@@2IB
CONST	SEGMENT
?value@?$integral_constant@I$00@std@@2IB DD 01H		; std::integral_constant<unsigned int,1>::value
CONST	ENDS
;	COMDAT ?value@?$integral_constant@I$01@std@@2IB
CONST	SEGMENT
?value@?$integral_constant@I$01@std@@2IB DD 02H		; std::integral_constant<unsigned int,2>::value
CONST	ENDS
;	COMDAT ?_Mysize@?$tuple@ABW4SDL_Scancode@@@std@@2IB
CONST	SEGMENT
?_Mysize@?$tuple@ABW4SDL_Scancode@@@std@@2IB DD 01H	; std::tuple<enum SDL_Scancode const &>::_Mysize
CONST	ENDS
;	COMDAT ?min_exponent10@?$numeric_limits@O@std@@2HB
CONST	SEGMENT
?min_exponent10@?$numeric_limits@O@std@@2HB DD 0fffffecdH ; std::numeric_limits<long double>::min_exponent10
CONST	ENDS
;	COMDAT ?value@?$integral_constant@I$03@std@@2IB
CONST	SEGMENT
?value@?$integral_constant@I$03@std@@2IB DD 04H		; std::integral_constant<unsigned int,4>::value
CONST	ENDS
;	COMDAT ?min_exponent@?$numeric_limits@O@std@@2HB
CONST	SEGMENT
?min_exponent@?$numeric_limits@O@std@@2HB DD 0fffffc03H	; std::numeric_limits<long double>::min_exponent
CONST	ENDS
;	COMDAT ?max_exponent10@?$numeric_limits@O@std@@2HB
CONST	SEGMENT
?max_exponent10@?$numeric_limits@O@std@@2HB DD 0134H	; std::numeric_limits<long double>::max_exponent10
CONST	ENDS
;	COMDAT ?max_exponent@?$numeric_limits@O@std@@2HB
CONST	SEGMENT
?max_exponent@?$numeric_limits@O@std@@2HB DD 0400H	; std::numeric_limits<long double>::max_exponent
CONST	ENDS
;	COMDAT ?max_digits10@?$numeric_limits@O@std@@2HB
CONST	SEGMENT
?max_digits10@?$numeric_limits@O@std@@2HB DD 011H	; std::numeric_limits<long double>::max_digits10
CONST	ENDS
;	COMDAT ?digits10@?$numeric_limits@O@std@@2HB
CONST	SEGMENT
?digits10@?$numeric_limits@O@std@@2HB DD 0fH		; std::numeric_limits<long double>::digits10
CONST	ENDS
;	COMDAT ?digits@?$numeric_limits@O@std@@2HB
CONST	SEGMENT
?digits@?$numeric_limits@O@std@@2HB DD 035H		; std::numeric_limits<long double>::digits
CONST	ENDS
;	COMDAT ?min_exponent10@?$numeric_limits@N@std@@2HB
CONST	SEGMENT
?min_exponent10@?$numeric_limits@N@std@@2HB DD 0fffffecdH ; std::numeric_limits<double>::min_exponent10
CONST	ENDS
;	COMDAT ?min_exponent@?$numeric_limits@N@std@@2HB
CONST	SEGMENT
?min_exponent@?$numeric_limits@N@std@@2HB DD 0fffffc03H	; std::numeric_limits<double>::min_exponent
CONST	ENDS
;	COMDAT ?max_exponent10@?$numeric_limits@N@std@@2HB
CONST	SEGMENT
?max_exponent10@?$numeric_limits@N@std@@2HB DD 0134H	; std::numeric_limits<double>::max_exponent10
CONST	ENDS
;	COMDAT ?value@?$integral_constant@I$07@std@@2IB
CONST	SEGMENT
?value@?$integral_constant@I$07@std@@2IB DD 08H		; std::integral_constant<unsigned int,8>::value
CONST	ENDS
;	COMDAT ?max_exponent@?$numeric_limits@N@std@@2HB
CONST	SEGMENT
?max_exponent@?$numeric_limits@N@std@@2HB DD 0400H	; std::numeric_limits<double>::max_exponent
CONST	ENDS
;	COMDAT ?max_digits10@?$numeric_limits@N@std@@2HB
CONST	SEGMENT
?max_digits10@?$numeric_limits@N@std@@2HB DD 011H	; std::numeric_limits<double>::max_digits10
CONST	ENDS
;	COMDAT ?digits10@?$numeric_limits@N@std@@2HB
CONST	SEGMENT
?digits10@?$numeric_limits@N@std@@2HB DD 0fH		; std::numeric_limits<double>::digits10
CONST	ENDS
;	COMDAT ?digits@?$numeric_limits@N@std@@2HB
CONST	SEGMENT
?digits@?$numeric_limits@N@std@@2HB DD 035H		; std::numeric_limits<double>::digits
CONST	ENDS
;	COMDAT ?min_exponent10@?$numeric_limits@M@std@@2HB
CONST	SEGMENT
?min_exponent10@?$numeric_limits@M@std@@2HB DD 0ffffffdbH ; std::numeric_limits<float>::min_exponent10
CONST	ENDS
;	COMDAT ?min_exponent@?$numeric_limits@M@std@@2HB
CONST	SEGMENT
?min_exponent@?$numeric_limits@M@std@@2HB DD 0ffffff83H	; std::numeric_limits<float>::min_exponent
CONST	ENDS
;	COMDAT ?max_exponent10@?$numeric_limits@M@std@@2HB
CONST	SEGMENT
?max_exponent10@?$numeric_limits@M@std@@2HB DD 026H	; std::numeric_limits<float>::max_exponent10
CONST	ENDS
;	COMDAT ?max_exponent@?$numeric_limits@M@std@@2HB
CONST	SEGMENT
?max_exponent@?$numeric_limits@M@std@@2HB DD 080H	; std::numeric_limits<float>::max_exponent
CONST	ENDS
;	COMDAT ?max_digits10@?$numeric_limits@M@std@@2HB
CONST	SEGMENT
?max_digits10@?$numeric_limits@M@std@@2HB DD 09H	; std::numeric_limits<float>::max_digits10
CONST	ENDS
;	COMDAT ?digits10@?$numeric_limits@M@std@@2HB
CONST	SEGMENT
?digits10@?$numeric_limits@M@std@@2HB DD 06H		; std::numeric_limits<float>::digits10
CONST	ENDS
;	COMDAT ?digits@?$numeric_limits@M@std@@2HB
CONST	SEGMENT
?digits@?$numeric_limits@M@std@@2HB DD 018H		; std::numeric_limits<float>::digits
CONST	ENDS
;	COMDAT ?digits10@?$numeric_limits@_K@std@@2HB
CONST	SEGMENT
?digits10@?$numeric_limits@_K@std@@2HB DD 013H		; std::numeric_limits<unsigned __int64>::digits10
CONST	ENDS
;	COMDAT ?digits@?$numeric_limits@_K@std@@2HB
CONST	SEGMENT
?digits@?$numeric_limits@_K@std@@2HB DD 040H		; std::numeric_limits<unsigned __int64>::digits
CONST	ENDS
;	COMDAT ?is_signed@?$numeric_limits@_K@std@@2_NB
CONST	SEGMENT
?is_signed@?$numeric_limits@_K@std@@2_NB DB 00H		; std::numeric_limits<unsigned __int64>::is_signed
CONST	ENDS
;	COMDAT ?digits10@?$numeric_limits@_J@std@@2HB
CONST	SEGMENT
?digits10@?$numeric_limits@_J@std@@2HB DD 012H		; std::numeric_limits<__int64>::digits10
CONST	ENDS
;	COMDAT ?digits@?$numeric_limits@_J@std@@2HB
CONST	SEGMENT
?digits@?$numeric_limits@_J@std@@2HB DD 03fH		; std::numeric_limits<__int64>::digits
CONST	ENDS
;	COMDAT ?is_signed@?$numeric_limits@_J@std@@2_NB
CONST	SEGMENT
?is_signed@?$numeric_limits@_J@std@@2_NB DB 01H		; std::numeric_limits<__int64>::is_signed
CONST	ENDS
;	COMDAT ?digits10@?$numeric_limits@K@std@@2HB
CONST	SEGMENT
?digits10@?$numeric_limits@K@std@@2HB DD 09H		; std::numeric_limits<unsigned long>::digits10
CONST	ENDS
;	COMDAT ?digits@?$numeric_limits@K@std@@2HB
CONST	SEGMENT
?digits@?$numeric_limits@K@std@@2HB DD 020H		; std::numeric_limits<unsigned long>::digits
CONST	ENDS
;	COMDAT ?is_signed@?$numeric_limits@K@std@@2_NB
CONST	SEGMENT
?is_signed@?$numeric_limits@K@std@@2_NB DB 00H		; std::numeric_limits<unsigned long>::is_signed
CONST	ENDS
;	COMDAT ?digits10@?$numeric_limits@J@std@@2HB
CONST	SEGMENT
?digits10@?$numeric_limits@J@std@@2HB DD 09H		; std::numeric_limits<long>::digits10
CONST	ENDS
;	COMDAT ?digits@?$numeric_limits@J@std@@2HB
CONST	SEGMENT
?digits@?$numeric_limits@J@std@@2HB DD 01fH		; std::numeric_limits<long>::digits
CONST	ENDS
;	COMDAT ?is_signed@?$numeric_limits@J@std@@2_NB
CONST	SEGMENT
?is_signed@?$numeric_limits@J@std@@2_NB DB 01H		; std::numeric_limits<long>::is_signed
CONST	ENDS
PUBLIC	_hypot
PUBLIC	??2@YAPAXIPAX@Z					; operator new
PUBLIC	??3@YAXPAX0@Z					; operator delete
PUBLIC	??0_Iterator_base12@std@@QAE@XZ			; std::_Iterator_base12::_Iterator_base12
PUBLIC	??0_Iterator_base12@std@@QAE@ABU01@@Z		; std::_Iterator_base12::_Iterator_base12
PUBLIC	??4_Iterator_base12@std@@QAEAAU01@ABU01@@Z	; std::_Iterator_base12::operator=
PUBLIC	??1_Iterator_base12@std@@QAE@XZ			; std::_Iterator_base12::~_Iterator_base12
PUBLIC	?_Adopt@_Iterator_base12@std@@QAEXPBU_Container_base12@2@@Z ; std::_Iterator_base12::_Adopt
PUBLIC	?_Clrcont@_Iterator_base12@std@@QAEXXZ		; std::_Iterator_base12::_Clrcont
PUBLIC	?_Getcont@_Iterator_base12@std@@QBEPBU_Container_base12@2@XZ ; std::_Iterator_base12::_Getcont
PUBLIC	?_Getpnext@_Iterator_base12@std@@QAEPAPAU12@XZ	; std::_Iterator_base12::_Getpnext
PUBLIC	?_Orphan_me@_Iterator_base12@std@@QAEXXZ	; std::_Iterator_base12::_Orphan_me
PUBLIC	??0_Ignore@std@@QAE@XZ				; std::_Ignore::_Ignore
PUBLIC	??0?$tuple@$$$V@std@@QAE@XZ			; std::tuple<>::tuple<>
PUBLIC	??0?$tuple@$$$V@std@@QAE@ABV01@@Z		; std::tuple<>::tuple<>
PUBLIC	?Update@Input@@QAEXXZ				; Input::Update
PUBLIC	?KeyUpEvent@Input@@QAEXABTSDL_Event@@@Z		; Input::KeyUpEvent
PUBLIC	?KeyDownEvent@Input@@QAEXABTSDL_Event@@@Z	; Input::KeyDownEvent
PUBLIC	?WasKeyPressed@Input@@QAE_NW4SDL_Scancode@@@Z	; Input::WasKeyPressed
PUBLIC	?WasKeyReleased@Input@@QAE_NW4SDL_Scancode@@@Z	; Input::WasKeyReleased
PUBLIC	?IsKeyHeld@Input@@QAE_NW4SDL_Scancode@@@Z	; Input::IsKeyHeld
PUBLIC	??R?$less@W4SDL_Scancode@@@std@@QBE_NABW4SDL_Scancode@@0@Z ; std::less<enum SDL_Scancode>::operator()
PUBLIC	??0?$allocator@U?$_Tree_node@U?$pair@$$CBW4SDL_Scancode@@_N@std@@PAX@std@@@std@@QAE@XZ ; std::allocator<std::_Tree_node<std::pair<enum SDL_Scancode const ,bool>,void *> >::allocator<std::_Tree_node<std::pair<enum SDL_Scancode const ,bool>,void *> >
PUBLIC	?deallocate@?$allocator@U?$_Tree_node@U?$pair@$$CBW4SDL_Scancode@@_N@std@@PAX@std@@@std@@QAEXPAU?$_Tree_node@U?$pair@$$CBW4SDL_Scancode@@_N@std@@PAX@2@I@Z ; std::allocator<std::_Tree_node<std::pair<enum SDL_Scancode const ,bool>,void *> >::deallocate
PUBLIC	?allocate@?$allocator@U?$_Tree_node@U?$pair@$$CBW4SDL_Scancode@@_N@std@@PAX@std@@@std@@QAEPAU?$_Tree_node@U?$pair@$$CBW4SDL_Scancode@@_N@std@@PAX@2@I@Z ; std::allocator<std::_Tree_node<std::pair<enum SDL_Scancode const ,bool>,void *> >::allocate
PUBLIC	?max_size@?$allocator@U?$_Tree_node@U?$pair@$$CBW4SDL_Scancode@@_N@std@@PAX@std@@@std@@QBEIXZ ; std::allocator<std::_Tree_node<std::pair<enum SDL_Scancode const ,bool>,void *> >::max_size
PUBLIC	?max_size@?$allocator_traits@V?$allocator@U?$_Tree_node@U?$pair@$$CBW4SDL_Scancode@@_N@std@@PAX@std@@@std@@@std@@SAIABV?$allocator@U?$_Tree_node@U?$pair@$$CBW4SDL_Scancode@@_N@std@@PAX@std@@@2@@Z ; std::allocator_traits<std::allocator<std::_Tree_node<std::pair<enum SDL_Scancode const ,bool>,void *> > >::max_size
PUBLIC	??0?$_Wrap_alloc@V?$allocator@U?$_Tree_node@U?$pair@$$CBW4SDL_Scancode@@_N@std@@PAX@std@@@std@@@std@@QAE@XZ ; std::_Wrap_alloc<std::allocator<std::_Tree_node<std::pair<enum SDL_Scancode const ,bool>,void *> > >::_Wrap_alloc<std::allocator<std::_Tree_node<std::pair<enum SDL_Scancode const ,bool>,void *> > >
PUBLIC	?allocate@?$_Wrap_alloc@V?$allocator@U?$_Tree_node@U?$pair@$$CBW4SDL_Scancode@@_N@std@@PAX@std@@@std@@@std@@QAEPAU?$_Tree_node@U?$pair@$$CBW4SDL_Scancode@@_N@std@@PAX@2@I@Z ; std::_Wrap_alloc<std::allocator<std::_Tree_node<std::pair<enum SDL_Scancode const ,bool>,void *> > >::allocate
PUBLIC	?deallocate@?$_Wrap_alloc@V?$allocator@U?$_Tree_node@U?$pair@$$CBW4SDL_Scancode@@_N@std@@PAX@std@@@std@@@std@@QAEXPAU?$_Tree_node@U?$pair@$$CBW4SDL_Scancode@@_N@std@@PAX@2@I@Z ; std::_Wrap_alloc<std::allocator<std::_Tree_node<std::pair<enum SDL_Scancode const ,bool>,void *> > >::deallocate
PUBLIC	?max_size@?$_Wrap_alloc@V?$allocator@U?$_Tree_node@U?$pair@$$CBW4SDL_Scancode@@_N@std@@PAX@std@@@std@@@std@@QBEIXZ ; std::_Wrap_alloc<std::allocator<std::_Tree_node<std::pair<enum SDL_Scancode const ,bool>,void *> > >::max_size
PUBLIC	?_Color@?$_Tree_val@U?$_Tree_simple_types@U?$pair@$$CBW4SDL_Scancode@@_N@std@@@std@@@std@@SAAADPAU?$_Tree_node@U?$pair@$$CBW4SDL_Scancode@@_N@std@@PAX@2@@Z ; std::_Tree_val<std::_Tree_simple_types<std::pair<enum SDL_Scancode const ,bool> > >::_Color
PUBLIC	?_Isnil@?$_Tree_val@U?$_Tree_simple_types@U?$pair@$$CBW4SDL_Scancode@@_N@std@@@std@@@std@@SAAADPAU?$_Tree_node@U?$pair@$$CBW4SDL_Scancode@@_N@std@@PAX@2@@Z ; std::_Tree_val<std::_Tree_simple_types<std::pair<enum SDL_Scancode const ,bool> > >::_Isnil
PUBLIC	?_Left@?$_Tree_val@U?$_Tree_simple_types@U?$pair@$$CBW4SDL_Scancode@@_N@std@@@std@@@std@@SAAAPAU?$_Tree_node@U?$pair@$$CBW4SDL_Scancode@@_N@std@@PAX@2@PAU32@@Z ; std::_Tree_val<std::_Tree_simple_types<std::pair<enum SDL_Scancode const ,bool> > >::_Left
PUBLIC	?_Parent@?$_Tree_val@U?$_Tree_simple_types@U?$pair@$$CBW4SDL_Scancode@@_N@std@@@std@@@std@@SAAAPAU?$_Tree_node@U?$pair@$$CBW4SDL_Scancode@@_N@std@@PAX@2@PAU32@@Z ; std::_Tree_val<std::_Tree_simple_types<std::pair<enum SDL_Scancode const ,bool> > >::_Parent
PUBLIC	?_Right@?$_Tree_val@U?$_Tree_simple_types@U?$pair@$$CBW4SDL_Scancode@@_N@std@@@std@@@std@@SAAAPAU?$_Tree_node@U?$pair@$$CBW4SDL_Scancode@@_N@std@@PAX@2@PAU32@@Z ; std::_Tree_val<std::_Tree_simple_types<std::pair<enum SDL_Scancode const ,bool> > >::_Right
PUBLIC	?_Myval@?$_Tree_val@U?$_Tree_simple_types@U?$pair@$$CBW4SDL_Scancode@@_N@std@@@std@@@std@@SAAAU?$pair@$$CBW4SDL_Scancode@@_N@2@PAU?$_Tree_node@U?$pair@$$CBW4SDL_Scancode@@_N@std@@PAX@2@@Z ; std::_Tree_val<std::_Tree_simple_types<std::pair<enum SDL_Scancode const ,bool> > >::_Myval
PUBLIC	?_Max@?$_Tree_val@U?$_Tree_simple_types@U?$pair@$$CBW4SDL_Scancode@@_N@std@@@std@@@std@@SAPAU?$_Tree_node@U?$pair@$$CBW4SDL_Scancode@@_N@std@@PAX@2@PAU32@@Z ; std::_Tree_val<std::_Tree_simple_types<std::pair<enum SDL_Scancode const ,bool> > >::_Max
PUBLIC	?_Min@?$_Tree_val@U?$_Tree_simple_types@U?$pair@$$CBW4SDL_Scancode@@_N@std@@@std@@@std@@SAPAU?$_Tree_node@U?$pair@$$CBW4SDL_Scancode@@_N@std@@PAX@2@PAU32@@Z ; std::_Tree_val<std::_Tree_simple_types<std::pair<enum SDL_Scancode const ,bool> > >::_Min
PUBLIC	?_Getal@?$_Tree_alloc@$0A@U?$_Tree_base_types@U?$pair@$$CBW4SDL_Scancode@@_N@std@@V?$allocator@U?$pair@$$CBW4SDL_Scancode@@_N@std@@@2@@std@@@std@@QBE?AU?$_Wrap_alloc@V?$allocator@U?$_Tree_node@U?$pair@$$CBW4SDL_Scancode@@_N@std@@PAX@std@@@std@@@2@XZ ; std::_Tree_alloc<0,std::_Tree_base_types<std::pair<enum SDL_Scancode const ,bool>,std::allocator<std::pair<enum SDL_Scancode const ,bool> > > >::_Getal
PUBLIC	?_Buynode0@?$_Tree_buy@U?$pair@$$CBW4SDL_Scancode@@_N@std@@V?$allocator@U?$pair@$$CBW4SDL_Scancode@@_N@std@@@2@@std@@QAEPAU?$_Tree_node@U?$pair@$$CBW4SDL_Scancode@@_N@std@@PAX@2@XZ ; std::_Tree_buy<std::pair<enum SDL_Scancode const ,bool>,std::allocator<std::pair<enum SDL_Scancode const ,bool> > >::_Buynode0
PUBLIC	?_Freenode0@?$_Tree_buy@U?$pair@$$CBW4SDL_Scancode@@_N@std@@V?$allocator@U?$pair@$$CBW4SDL_Scancode@@_N@std@@@2@@std@@QAEXPAU?$_Tree_node@U?$pair@$$CBW4SDL_Scancode@@_N@std@@PAX@2@@Z ; std::_Tree_buy<std::pair<enum SDL_Scancode const ,bool>,std::allocator<std::pair<enum SDL_Scancode const ,bool> > >::_Freenode0
PUBLIC	?_Getcomp@?$_Tree_comp@$0A@V?$_Tmap_traits@W4SDL_Scancode@@_NU?$less@W4SDL_Scancode@@@std@@V?$allocator@U?$pair@$$CBW4SDL_Scancode@@_N@std@@@3@$0A@@std@@@std@@QBE?AU?$less@W4SDL_Scancode@@@2@XZ ; std::_Tree_comp<0,std::_Tmap_traits<enum SDL_Scancode,bool,std::less<enum SDL_Scancode>,std::allocator<std::pair<enum SDL_Scancode const ,bool> >,0> >::_Getcomp
PUBLIC	?begin@?$_Tree@V?$_Tmap_traits@W4SDL_Scancode@@_NU?$less@W4SDL_Scancode@@@std@@V?$allocator@U?$pair@$$CBW4SDL_Scancode@@_N@std@@@3@$0A@@std@@@std@@QAE?AV?$_Tree_iterator@V?$_Tree_val@U?$_Tree_simple_types@U?$pair@$$CBW4SDL_Scancode@@_N@std@@@std@@@std@@@2@XZ ; std::_Tree<std::_Tmap_traits<enum SDL_Scancode,bool,std::less<enum SDL_Scancode>,std::allocator<std::pair<enum SDL_Scancode const ,bool> >,0> >::begin
PUBLIC	?end@?$_Tree@V?$_Tmap_traits@W4SDL_Scancode@@_NU?$less@W4SDL_Scancode@@@std@@V?$allocator@U?$pair@$$CBW4SDL_Scancode@@_N@std@@@3@$0A@@std@@@std@@QAE?AV?$_Tree_iterator@V?$_Tree_val@U?$_Tree_simple_types@U?$pair@$$CBW4SDL_Scancode@@_N@std@@@std@@@std@@@2@XZ ; std::_Tree<std::_Tmap_traits<enum SDL_Scancode,bool,std::less<enum SDL_Scancode>,std::allocator<std::pair<enum SDL_Scancode const ,bool> >,0> >::end
PUBLIC	?size@?$_Tree@V?$_Tmap_traits@W4SDL_Scancode@@_NU?$less@W4SDL_Scancode@@@std@@V?$allocator@U?$pair@$$CBW4SDL_Scancode@@_N@std@@@3@$0A@@std@@@std@@QBEIXZ ; std::_Tree<std::_Tmap_traits<enum SDL_Scancode,bool,std::less<enum SDL_Scancode>,std::allocator<std::pair<enum SDL_Scancode const ,bool> >,0> >::size
PUBLIC	?max_size@?$_Tree@V?$_Tmap_traits@W4SDL_Scancode@@_NU?$less@W4SDL_Scancode@@@std@@V?$allocator@U?$pair@$$CBW4SDL_Scancode@@_N@std@@@3@$0A@@std@@@std@@QBEIXZ ; std::_Tree<std::_Tmap_traits<enum SDL_Scancode,bool,std::less<enum SDL_Scancode>,std::allocator<std::pair<enum SDL_Scancode const ,bool> >,0> >::max_size
PUBLIC	?clear@?$_Tree@V?$_Tmap_traits@W4SDL_Scancode@@_NU?$less@W4SDL_Scancode@@@std@@V?$allocator@U?$pair@$$CBW4SDL_Scancode@@_N@std@@@3@$0A@@std@@@std@@QAEXXZ ; std::_Tree<std::_Tmap_traits<enum SDL_Scancode,bool,std::less<enum SDL_Scancode>,std::allocator<std::pair<enum SDL_Scancode const ,bool> >,0> >::clear
PUBLIC	?lower_bound@?$_Tree@V?$_Tmap_traits@W4SDL_Scancode@@_NU?$less@W4SDL_Scancode@@@std@@V?$allocator@U?$pair@$$CBW4SDL_Scancode@@_N@std@@@3@$0A@@std@@@std@@QAE?AV?$_Tree_iterator@V?$_Tree_val@U?$_Tree_simple_types@U?$pair@$$CBW4SDL_Scancode@@_N@std@@@std@@@std@@@2@ABW4SDL_Scancode@@@Z ; std::_Tree<std::_Tmap_traits<enum SDL_Scancode,bool,std::less<enum SDL_Scancode>,std::allocator<std::pair<enum SDL_Scancode const ,bool> >,0> >::lower_bound
PUBLIC	?_Destroy_if_not_nil@?$_Tree@V?$_Tmap_traits@W4SDL_Scancode@@_NU?$less@W4SDL_Scancode@@@std@@V?$allocator@U?$pair@$$CBW4SDL_Scancode@@_N@std@@@3@$0A@@std@@@std@@IAEXPAU?$_Tree_node@U?$pair@$$CBW4SDL_Scancode@@_N@std@@PAX@2@@Z ; std::_Tree<std::_Tmap_traits<enum SDL_Scancode,bool,std::less<enum SDL_Scancode>,std::allocator<std::pair<enum SDL_Scancode const ,bool> >,0> >::_Destroy_if_not_nil
PUBLIC	?_Erase@?$_Tree@V?$_Tmap_traits@W4SDL_Scancode@@_NU?$less@W4SDL_Scancode@@@std@@V?$allocator@U?$pair@$$CBW4SDL_Scancode@@_N@std@@@3@$0A@@std@@@std@@IAEXPAU?$_Tree_node@U?$pair@$$CBW4SDL_Scancode@@_N@std@@PAX@2@@Z ; std::_Tree<std::_Tmap_traits<enum SDL_Scancode,bool,std::less<enum SDL_Scancode>,std::allocator<std::pair<enum SDL_Scancode const ,bool> >,0> >::_Erase
PUBLIC	?_Lbound@?$_Tree@V?$_Tmap_traits@W4SDL_Scancode@@_NU?$less@W4SDL_Scancode@@@std@@V?$allocator@U?$pair@$$CBW4SDL_Scancode@@_N@std@@@3@$0A@@std@@@std@@IAEPAU?$_Tree_node@U?$pair@$$CBW4SDL_Scancode@@_N@std@@PAX@2@ABW4SDL_Scancode@@@Z ; std::_Tree<std::_Tmap_traits<enum SDL_Scancode,bool,std::less<enum SDL_Scancode>,std::allocator<std::pair<enum SDL_Scancode const ,bool> >,0> >::_Lbound
PUBLIC	?_Lmost@?$_Tree@V?$_Tmap_traits@W4SDL_Scancode@@_NU?$less@W4SDL_Scancode@@@std@@V?$allocator@U?$pair@$$CBW4SDL_Scancode@@_N@std@@@3@$0A@@std@@@std@@IBEAAPAU?$_Tree_node@U?$pair@$$CBW4SDL_Scancode@@_N@std@@PAX@2@XZ ; std::_Tree<std::_Tmap_traits<enum SDL_Scancode,bool,std::less<enum SDL_Scancode>,std::allocator<std::pair<enum SDL_Scancode const ,bool> >,0> >::_Lmost
PUBLIC	?_Lrotate@?$_Tree@V?$_Tmap_traits@W4SDL_Scancode@@_NU?$less@W4SDL_Scancode@@@std@@V?$allocator@U?$pair@$$CBW4SDL_Scancode@@_N@std@@@3@$0A@@std@@@std@@IAEXPAU?$_Tree_node@U?$pair@$$CBW4SDL_Scancode@@_N@std@@PAX@2@@Z ; std::_Tree<std::_Tmap_traits<enum SDL_Scancode,bool,std::less<enum SDL_Scancode>,std::allocator<std::pair<enum SDL_Scancode const ,bool> >,0> >::_Lrotate
PUBLIC	?_Rmost@?$_Tree@V?$_Tmap_traits@W4SDL_Scancode@@_NU?$less@W4SDL_Scancode@@@std@@V?$allocator@U?$pair@$$CBW4SDL_Scancode@@_N@std@@@3@$0A@@std@@@std@@IBEAAPAU?$_Tree_node@U?$pair@$$CBW4SDL_Scancode@@_N@std@@PAX@2@XZ ; std::_Tree<std::_Tmap_traits<enum SDL_Scancode,bool,std::less<enum SDL_Scancode>,std::allocator<std::pair<enum SDL_Scancode const ,bool> >,0> >::_Rmost
PUBLIC	?_Root@?$_Tree@V?$_Tmap_traits@W4SDL_Scancode@@_NU?$less@W4SDL_Scancode@@@std@@V?$allocator@U?$pair@$$CBW4SDL_Scancode@@_N@std@@@3@$0A@@std@@@std@@IBEAAPAU?$_Tree_node@U?$pair@$$CBW4SDL_Scancode@@_N@std@@PAX@2@XZ ; std::_Tree<std::_Tmap_traits<enum SDL_Scancode,bool,std::less<enum SDL_Scancode>,std::allocator<std::pair<enum SDL_Scancode const ,bool> >,0> >::_Root
PUBLIC	?_Rrotate@?$_Tree@V?$_Tmap_traits@W4SDL_Scancode@@_NU?$less@W4SDL_Scancode@@@std@@V?$allocator@U?$pair@$$CBW4SDL_Scancode@@_N@std@@@3@$0A@@std@@@std@@IAEXPAU?$_Tree_node@U?$pair@$$CBW4SDL_Scancode@@_N@std@@PAX@2@@Z ; std::_Tree<std::_Tmap_traits<enum SDL_Scancode,bool,std::less<enum SDL_Scancode>,std::allocator<std::pair<enum SDL_Scancode const ,bool> >,0> >::_Rrotate
PUBLIC	?_Orphan_ptr@?$_Tree@V?$_Tmap_traits@W4SDL_Scancode@@_NU?$less@W4SDL_Scancode@@@std@@V?$allocator@U?$pair@$$CBW4SDL_Scancode@@_N@std@@@3@$0A@@std@@@std@@IBEXAAV12@PAU?$_Tree_node@U?$pair@$$CBW4SDL_Scancode@@_N@std@@PAX@2@@Z ; std::_Tree<std::_Tmap_traits<enum SDL_Scancode,bool,std::less<enum SDL_Scancode>,std::allocator<std::pair<enum SDL_Scancode const ,bool> >,0> >::_Orphan_ptr
PUBLIC	?_Kfn@?$_Tree@V?$_Tmap_traits@W4SDL_Scancode@@_NU?$less@W4SDL_Scancode@@@std@@V?$allocator@U?$pair@$$CBW4SDL_Scancode@@_N@std@@@3@$0A@@std@@@std@@IBEABW4SDL_Scancode@@ABU?$pair@$$CBW4SDL_Scancode@@_N@2@@Z ; std::_Tree<std::_Tmap_traits<enum SDL_Scancode,bool,std::less<enum SDL_Scancode>,std::allocator<std::pair<enum SDL_Scancode const ,bool> >,0> >::_Kfn
PUBLIC	?_Key@?$_Tree@V?$_Tmap_traits@W4SDL_Scancode@@_NU?$less@W4SDL_Scancode@@@std@@V?$allocator@U?$pair@$$CBW4SDL_Scancode@@_N@std@@@3@$0A@@std@@@std@@IBEABW4SDL_Scancode@@PAU?$_Tree_node@U?$pair@$$CBW4SDL_Scancode@@_N@std@@PAX@2@@Z ; std::_Tree<std::_Tmap_traits<enum SDL_Scancode,bool,std::less<enum SDL_Scancode>,std::allocator<std::pair<enum SDL_Scancode const ,bool> >,0> >::_Key
PUBLIC	??A?$map@W4SDL_Scancode@@_NU?$less@W4SDL_Scancode@@@std@@V?$allocator@U?$pair@$$CBW4SDL_Scancode@@_N@std@@@3@@std@@QAEAA_NABW4SDL_Scancode@@@Z ; std::map<enum SDL_Scancode,bool,std::less<enum SDL_Scancode>,std::allocator<std::pair<enum SDL_Scancode const ,bool> > >::operator[]
PUBLIC	??0?$_Iterator012@Ubidirectional_iterator_tag@std@@U?$pair@$$CBW4SDL_Scancode@@_N@2@HPBU32@ABU32@U_Iterator_base12@2@@std@@QAE@XZ ; std::_Iterator012<std::bidirectional_iterator_tag,std::pair<enum SDL_Scancode const ,bool>,int,std::pair<enum SDL_Scancode const ,bool> const *,std::pair<enum SDL_Scancode const ,bool> const &,std::_Iterator_base12>::_Iterator012<std::bidirectional_iterator_tag,std::pair<enum SDL_Scancode const ,bool>,int,std::pair<enum SDL_Scancode const ,bool> const *,std::pair<enum SDL_Scancode const ,bool> const &,std::_Iterator_base12>
PUBLIC	??1?$_Iterator012@Ubidirectional_iterator_tag@std@@U?$pair@$$CBW4SDL_Scancode@@_N@2@HPBU32@ABU32@U_Iterator_base12@2@@std@@QAE@XZ ; std::_Iterator012<std::bidirectional_iterator_tag,std::pair<enum SDL_Scancode const ,bool>,int,std::pair<enum SDL_Scancode const ,bool> const *,std::pair<enum SDL_Scancode const ,bool> const &,std::_Iterator_base12>::~_Iterator012<std::bidirectional_iterator_tag,std::pair<enum SDL_Scancode const ,bool>,int,std::pair<enum SDL_Scancode const ,bool> const *,std::pair<enum SDL_Scancode const ,bool> const &,std::_Iterator_base12>
PUBLIC	??0?$_Iterator012@Ubidirectional_iterator_tag@std@@U?$pair@$$CBW4SDL_Scancode@@_N@2@HPBU32@ABU32@U_Iterator_base12@2@@std@@QAE@ABU01@@Z ; std::_Iterator012<std::bidirectional_iterator_tag,std::pair<enum SDL_Scancode const ,bool>,int,std::pair<enum SDL_Scancode const ,bool> const *,std::pair<enum SDL_Scancode const ,bool> const &,std::_Iterator_base12>::_Iterator012<std::bidirectional_iterator_tag,std::pair<enum SDL_Scancode const ,bool>,int,std::pair<enum SDL_Scancode const ,bool> const *,std::pair<enum SDL_Scancode const ,bool> const &,std::_Iterator_base12>
PUBLIC	??4?$_Iterator012@Ubidirectional_iterator_tag@std@@U?$pair@$$CBW4SDL_Scancode@@_N@2@HPBU32@ABU32@U_Iterator_base12@2@@std@@QAEAAU01@ABU01@@Z ; std::_Iterator012<std::bidirectional_iterator_tag,std::pair<enum SDL_Scancode const ,bool>,int,std::pair<enum SDL_Scancode const ,bool> const *,std::pair<enum SDL_Scancode const ,bool> const &,std::_Iterator_base12>::operator=
PUBLIC	??0?$_Tree_unchecked_const_iterator@V?$_Tree_val@U?$_Tree_simple_types@U?$pair@$$CBW4SDL_Scancode@@_N@std@@@std@@@std@@U_Iterator_base12@2@@std@@QAE@XZ ; std::_Tree_unchecked_const_iterator<std::_Tree_val<std::_Tree_simple_types<std::pair<enum SDL_Scancode const ,bool> > >,std::_Iterator_base12>::_Tree_unchecked_const_iterator<std::_Tree_val<std::_Tree_simple_types<std::pair<enum SDL_Scancode const ,bool> > >,std::_Iterator_base12>
PUBLIC	??0?$_Tree_unchecked_const_iterator@V?$_Tree_val@U?$_Tree_simple_types@U?$pair@$$CBW4SDL_Scancode@@_N@std@@@std@@@std@@U_Iterator_base12@2@@std@@QAE@PAU?$_Tree_node@U?$pair@$$CBW4SDL_Scancode@@_N@std@@PAX@1@PBV?$_Tree_val@U?$_Tree_simple_types@U?$pair@$$CBW4SDL_Scancode@@_N@std@@@std@@@1@@Z ; std::_Tree_unchecked_const_iterator<std::_Tree_val<std::_Tree_simple_types<std::pair<enum SDL_Scancode const ,bool> > >,std::_Iterator_base12>::_Tree_unchecked_const_iterator<std::_Tree_val<std::_Tree_simple_types<std::pair<enum SDL_Scancode const ,bool> > >,std::_Iterator_base12>
PUBLIC	??E?$_Tree_unchecked_const_iterator@V?$_Tree_val@U?$_Tree_simple_types@U?$pair@$$CBW4SDL_Scancode@@_N@std@@@std@@@std@@U_Iterator_base12@2@@std@@QAEAAV01@XZ ; std::_Tree_unchecked_const_iterator<std::_Tree_val<std::_Tree_simple_types<std::pair<enum SDL_Scancode const ,bool> > >,std::_Iterator_base12>::operator++
PUBLIC	??F?$_Tree_unchecked_const_iterator@V?$_Tree_val@U?$_Tree_simple_types@U?$pair@$$CBW4SDL_Scancode@@_N@std@@@std@@@std@@U_Iterator_base12@2@@std@@QAEAAV01@XZ ; std::_Tree_unchecked_const_iterator<std::_Tree_val<std::_Tree_simple_types<std::pair<enum SDL_Scancode const ,bool> > >,std::_Iterator_base12>::operator--
PUBLIC	?_Mynode@?$_Tree_unchecked_const_iterator@V?$_Tree_val@U?$_Tree_simple_types@U?$pair@$$CBW4SDL_Scancode@@_N@std@@@std@@@std@@U_Iterator_base12@2@@std@@QBEPAU?$_Tree_node@U?$pair@$$CBW4SDL_Scancode@@_N@std@@PAX@2@XZ ; std::_Tree_unchecked_const_iterator<std::_Tree_val<std::_Tree_simple_types<std::pair<enum SDL_Scancode const ,bool> > >,std::_Iterator_base12>::_Mynode
PUBLIC	??1?$_Tree_unchecked_const_iterator@V?$_Tree_val@U?$_Tree_simple_types@U?$pair@$$CBW4SDL_Scancode@@_N@std@@@std@@@std@@U_Iterator_base12@2@@std@@QAE@XZ ; std::_Tree_unchecked_const_iterator<std::_Tree_val<std::_Tree_simple_types<std::pair<enum SDL_Scancode const ,bool> > >,std::_Iterator_base12>::~_Tree_unchecked_const_iterator<std::_Tree_val<std::_Tree_simple_types<std::pair<enum SDL_Scancode const ,bool> > >,std::_Iterator_base12>
PUBLIC	??0?$_Tree_unchecked_const_iterator@V?$_Tree_val@U?$_Tree_simple_types@U?$pair@$$CBW4SDL_Scancode@@_N@std@@@std@@@std@@U_Iterator_base12@2@@std@@QAE@ABV01@@Z ; std::_Tree_unchecked_const_iterator<std::_Tree_val<std::_Tree_simple_types<std::pair<enum SDL_Scancode const ,bool> > >,std::_Iterator_base12>::_Tree_unchecked_const_iterator<std::_Tree_val<std::_Tree_simple_types<std::pair<enum SDL_Scancode const ,bool> > >,std::_Iterator_base12>
PUBLIC	??4?$_Tree_unchecked_const_iterator@V?$_Tree_val@U?$_Tree_simple_types@U?$pair@$$CBW4SDL_Scancode@@_N@std@@@std@@@std@@U_Iterator_base12@2@@std@@QAEAAV01@ABV01@@Z ; std::_Tree_unchecked_const_iterator<std::_Tree_val<std::_Tree_simple_types<std::pair<enum SDL_Scancode const ,bool> > >,std::_Iterator_base12>::operator=
PUBLIC	??0?$_Tree_const_iterator@V?$_Tree_val@U?$_Tree_simple_types@U?$pair@$$CBW4SDL_Scancode@@_N@std@@@std@@@std@@@std@@QAE@XZ ; std::_Tree_const_iterator<std::_Tree_val<std::_Tree_simple_types<std::pair<enum SDL_Scancode const ,bool> > > >::_Tree_const_iterator<std::_Tree_val<std::_Tree_simple_types<std::pair<enum SDL_Scancode const ,bool> > > >
PUBLIC	??0?$_Tree_const_iterator@V?$_Tree_val@U?$_Tree_simple_types@U?$pair@$$CBW4SDL_Scancode@@_N@std@@@std@@@std@@@std@@QAE@PAU?$_Tree_node@U?$pair@$$CBW4SDL_Scancode@@_N@std@@PAX@1@PBV?$_Tree_val@U?$_Tree_simple_types@U?$pair@$$CBW4SDL_Scancode@@_N@std@@@std@@@1@@Z ; std::_Tree_const_iterator<std::_Tree_val<std::_Tree_simple_types<std::pair<enum SDL_Scancode const ,bool> > > >::_Tree_const_iterator<std::_Tree_val<std::_Tree_simple_types<std::pair<enum SDL_Scancode const ,bool> > > >
PUBLIC	??D?$_Tree_const_iterator@V?$_Tree_val@U?$_Tree_simple_types@U?$pair@$$CBW4SDL_Scancode@@_N@std@@@std@@@std@@@std@@QBEABU?$pair@$$CBW4SDL_Scancode@@_N@1@XZ ; std::_Tree_const_iterator<std::_Tree_val<std::_Tree_simple_types<std::pair<enum SDL_Scancode const ,bool> > > >::operator*
PUBLIC	??E?$_Tree_const_iterator@V?$_Tree_val@U?$_Tree_simple_types@U?$pair@$$CBW4SDL_Scancode@@_N@std@@@std@@@std@@@std@@QAEAAV01@XZ ; std::_Tree_const_iterator<std::_Tree_val<std::_Tree_simple_types<std::pair<enum SDL_Scancode const ,bool> > > >::operator++
PUBLIC	??F?$_Tree_const_iterator@V?$_Tree_val@U?$_Tree_simple_types@U?$pair@$$CBW4SDL_Scancode@@_N@std@@@std@@@std@@@std@@QAEAAV01@XZ ; std::_Tree_const_iterator<std::_Tree_val<std::_Tree_simple_types<std::pair<enum SDL_Scancode const ,bool> > > >::operator--
PUBLIC	??8?$_Tree_const_iterator@V?$_Tree_val@U?$_Tree_simple_types@U?$pair@$$CBW4SDL_Scancode@@_N@std@@@std@@@std@@@std@@QBE_NABV01@@Z ; std::_Tree_const_iterator<std::_Tree_val<std::_Tree_simple_types<std::pair<enum SDL_Scancode const ,bool> > > >::operator==
PUBLIC	??1?$_Tree_const_iterator@V?$_Tree_val@U?$_Tree_simple_types@U?$pair@$$CBW4SDL_Scancode@@_N@std@@@std@@@std@@@std@@QAE@XZ ; std::_Tree_const_iterator<std::_Tree_val<std::_Tree_simple_types<std::pair<enum SDL_Scancode const ,bool> > > >::~_Tree_const_iterator<std::_Tree_val<std::_Tree_simple_types<std::pair<enum SDL_Scancode const ,bool> > > >
PUBLIC	??0?$_Tree_const_iterator@V?$_Tree_val@U?$_Tree_simple_types@U?$pair@$$CBW4SDL_Scancode@@_N@std@@@std@@@std@@@std@@QAE@ABV01@@Z ; std::_Tree_const_iterator<std::_Tree_val<std::_Tree_simple_types<std::pair<enum SDL_Scancode const ,bool> > > >::_Tree_const_iterator<std::_Tree_val<std::_Tree_simple_types<std::pair<enum SDL_Scancode const ,bool> > > >
PUBLIC	??4?$_Tree_const_iterator@V?$_Tree_val@U?$_Tree_simple_types@U?$pair@$$CBW4SDL_Scancode@@_N@std@@@std@@@std@@@std@@QAEAAV01@ABV01@@Z ; std::_Tree_const_iterator<std::_Tree_val<std::_Tree_simple_types<std::pair<enum SDL_Scancode const ,bool> > > >::operator=
PUBLIC	?__autoclassinit2@?$_Tree_const_iterator@V?$_Tree_val@U?$_Tree_simple_types@U?$pair@$$CBW4SDL_Scancode@@_N@std@@@std@@@std@@@std@@QAEXI@Z ; std::_Tree_const_iterator<std::_Tree_val<std::_Tree_simple_types<std::pair<enum SDL_Scancode const ,bool> > > >::__autoclassinit2
PUBLIC	??0?$_Tree_iterator@V?$_Tree_val@U?$_Tree_simple_types@U?$pair@$$CBW4SDL_Scancode@@_N@std@@@std@@@std@@@std@@QAE@PAU?$_Tree_node@U?$pair@$$CBW4SDL_Scancode@@_N@std@@PAX@1@PBV?$_Tree_val@U?$_Tree_simple_types@U?$pair@$$CBW4SDL_Scancode@@_N@std@@@std@@@1@@Z ; std::_Tree_iterator<std::_Tree_val<std::_Tree_simple_types<std::pair<enum SDL_Scancode const ,bool> > > >::_Tree_iterator<std::_Tree_val<std::_Tree_simple_types<std::pair<enum SDL_Scancode const ,bool> > > >
PUBLIC	??D?$_Tree_iterator@V?$_Tree_val@U?$_Tree_simple_types@U?$pair@$$CBW4SDL_Scancode@@_N@std@@@std@@@std@@@std@@QBEAAU?$pair@$$CBW4SDL_Scancode@@_N@1@XZ ; std::_Tree_iterator<std::_Tree_val<std::_Tree_simple_types<std::pair<enum SDL_Scancode const ,bool> > > >::operator*
PUBLIC	??C?$_Tree_iterator@V?$_Tree_val@U?$_Tree_simple_types@U?$pair@$$CBW4SDL_Scancode@@_N@std@@@std@@@std@@@std@@QBEPAU?$pair@$$CBW4SDL_Scancode@@_N@1@XZ ; std::_Tree_iterator<std::_Tree_val<std::_Tree_simple_types<std::pair<enum SDL_Scancode const ,bool> > > >::operator->
PUBLIC	??F?$_Tree_iterator@V?$_Tree_val@U?$_Tree_simple_types@U?$pair@$$CBW4SDL_Scancode@@_N@std@@@std@@@std@@@std@@QAEAAV01@XZ ; std::_Tree_iterator<std::_Tree_val<std::_Tree_simple_types<std::pair<enum SDL_Scancode const ,bool> > > >::operator--
PUBLIC	??1?$_Tree_iterator@V?$_Tree_val@U?$_Tree_simple_types@U?$pair@$$CBW4SDL_Scancode@@_N@std@@@std@@@std@@@std@@QAE@XZ ; std::_Tree_iterator<std::_Tree_val<std::_Tree_simple_types<std::pair<enum SDL_Scancode const ,bool> > > >::~_Tree_iterator<std::_Tree_val<std::_Tree_simple_types<std::pair<enum SDL_Scancode const ,bool> > > >
PUBLIC	??0?$_Tree_iterator@V?$_Tree_val@U?$_Tree_simple_types@U?$pair@$$CBW4SDL_Scancode@@_N@std@@@std@@@std@@@std@@QAE@ABV01@@Z ; std::_Tree_iterator<std::_Tree_val<std::_Tree_simple_types<std::pair<enum SDL_Scancode const ,bool> > > >::_Tree_iterator<std::_Tree_val<std::_Tree_simple_types<std::pair<enum SDL_Scancode const ,bool> > > >
PUBLIC	??4?$_Tree_iterator@V?$_Tree_val@U?$_Tree_simple_types@U?$pair@$$CBW4SDL_Scancode@@_N@std@@@std@@@std@@@std@@QAEAAV01@ABV01@@Z ; std::_Tree_iterator<std::_Tree_val<std::_Tree_simple_types<std::pair<enum SDL_Scancode const ,bool> > > >::operator=
PUBLIC	?__autoclassinit2@?$_Tree_iterator@V?$_Tree_val@U?$_Tree_simple_types@U?$pair@$$CBW4SDL_Scancode@@_N@std@@@std@@@std@@@std@@QAEXI@Z ; std::_Tree_iterator<std::_Tree_val<std::_Tree_simple_types<std::pair<enum SDL_Scancode const ,bool> > > >::__autoclassinit2
PUBLIC	??$forward_as_tuple@ABW4SDL_Scancode@@@std@@YA?AV?$tuple@ABW4SDL_Scancode@@@0@ABW4SDL_Scancode@@@Z ; std::forward_as_tuple<enum SDL_Scancode const &>
PUBLIC	??0?$tuple@ABW4SDL_Scancode@@@std@@QAE@ABW4SDL_Scancode@@@Z ; std::tuple<enum SDL_Scancode const &>::tuple<enum SDL_Scancode const &>
PUBLIC	?_Get_rest@?$tuple@ABW4SDL_Scancode@@@std@@QAEAAV?$tuple@$$$V@2@XZ ; std::tuple<enum SDL_Scancode const &>::_Get_rest
PUBLIC	??$emplace_hint@ABUpiecewise_construct_t@std@@V?$tuple@ABW4SDL_Scancode@@@2@V?$tuple@$$$V@2@@?$_Tree@V?$_Tmap_traits@W4SDL_Scancode@@_NU?$less@W4SDL_Scancode@@@std@@V?$allocator@U?$pair@$$CBW4SDL_Scancode@@_N@std@@@3@$0A@@std@@@std@@QAE?AV?$_Tree_iterator@V?$_Tree_val@U?$_Tree_simple_types@U?$pair@$$CBW4SDL_Scancode@@_N@std@@@std@@@std@@@1@V?$_Tree_const_iterator@V?$_Tree_val@U?$_Tree_simple_types@U?$pair@$$CBW4SDL_Scancode@@_N@std@@@std@@@std@@@1@ABUpiecewise_construct_t@1@$$QAV?$tuple@ABW4SDL_Scancode@@@1@$$QAV?$tuple@$$$V@1@@Z ; std::_Tree<std::_Tmap_traits<enum SDL_Scancode,bool,std::less<enum SDL_Scancode>,std::allocator<std::pair<enum SDL_Scancode const ,bool> >,0> >::emplace_hint<std::piecewise_construct_t const &,std::tuple<enum SDL_Scancode const &>,std::tuple<> >
PUBLIC	??$addressof@U?$pair@$$CBW4SDL_Scancode@@_N@std@@@std@@YAPAU?$pair@$$CBW4SDL_Scancode@@_N@0@AAU10@@Z ; std::addressof<std::pair<enum SDL_Scancode const ,bool> >
PUBLIC	??$destroy@U?$pair@$$CBW4SDL_Scancode@@_N@std@@@?$_Wrap_alloc@V?$allocator@U?$_Tree_node@U?$pair@$$CBW4SDL_Scancode@@_N@std@@PAX@std@@@std@@@std@@QAEXPAU?$pair@$$CBW4SDL_Scancode@@_N@1@@Z ; std::_Wrap_alloc<std::allocator<std::_Tree_node<std::pair<enum SDL_Scancode const ,bool>,void *> > >::destroy<std::pair<enum SDL_Scancode const ,bool> >
PUBLIC	?pointer_to@?$pointer_traits@PAU?$pair@$$CBW4SDL_Scancode@@_N@std@@@std@@SAPAU?$pair@$$CBW4SDL_Scancode@@_N@2@AAU32@@Z ; std::pointer_traits<std::pair<enum SDL_Scancode const ,bool> *>::pointer_to
PUBLIC	??$_Debug_lt_pred@U?$less@W4SDL_Scancode@@@std@@ABW4SDL_Scancode@@ABW43@@std@@YA_NU?$less@W4SDL_Scancode@@@0@ABW4SDL_Scancode@@1PB_WI@Z ; std::_Debug_lt_pred<std::less<enum SDL_Scancode>,enum SDL_Scancode const &,enum SDL_Scancode const &>
PUBLIC	??$_Kfn@$$CBW4SDL_Scancode@@_N@?$_Tmap_traits@W4SDL_Scancode@@_NU?$less@W4SDL_Scancode@@@std@@V?$allocator@U?$pair@$$CBW4SDL_Scancode@@_N@std@@@3@$0A@@std@@SAABW4SDL_Scancode@@ABU?$pair@$$CBW4SDL_Scancode@@_N@1@@Z ; std::_Tmap_traits<enum SDL_Scancode,bool,std::less<enum SDL_Scancode>,std::allocator<std::pair<enum SDL_Scancode const ,bool> >,0>::_Kfn<enum SDL_Scancode const ,bool>
PUBLIC	??$forward@ABW4SDL_Scancode@@@std@@YAABW4SDL_Scancode@@ABW41@@Z ; std::forward<enum SDL_Scancode const &>
PUBLIC	??$?0ABW4SDL_Scancode@@PAPAX@?$tuple@ABW4SDL_Scancode@@@std@@QAE@$$QAV01@@Z ; std::tuple<enum SDL_Scancode const &>::tuple<enum SDL_Scancode const &><enum SDL_Scancode const &,void * *>
PUBLIC	??$forward@ABUpiecewise_construct_t@std@@@std@@YAABUpiecewise_construct_t@0@ABU10@@Z ; std::forward<std::piecewise_construct_t const &>
PUBLIC	??$forward@V?$tuple@ABW4SDL_Scancode@@@std@@@std@@YA$$QAV?$tuple@ABW4SDL_Scancode@@@0@AAV10@@Z ; std::forward<std::tuple<enum SDL_Scancode const &> >
PUBLIC	??$forward@V?$tuple@$$$V@std@@@std@@YA$$QAV?$tuple@$$$V@0@AAV10@@Z ; std::forward<std::tuple<> >
PUBLIC	??$_Buynode@ABUpiecewise_construct_t@std@@V?$tuple@ABW4SDL_Scancode@@@2@V?$tuple@$$$V@2@@?$_Tree_buy@U?$pair@$$CBW4SDL_Scancode@@_N@std@@V?$allocator@U?$pair@$$CBW4SDL_Scancode@@_N@std@@@2@@std@@QAEPAU?$_Tree_node@U?$pair@$$CBW4SDL_Scancode@@_N@std@@PAX@1@ABUpiecewise_construct_t@1@$$QAV?$tuple@ABW4SDL_Scancode@@@1@$$QAV?$tuple@$$$V@1@@Z ; std::_Tree_buy<std::pair<enum SDL_Scancode const ,bool>,std::allocator<std::pair<enum SDL_Scancode const ,bool> > >::_Buynode<std::piecewise_construct_t const &,std::tuple<enum SDL_Scancode const &>,std::tuple<> >
PUBLIC	??$_Insert_hint@AAU?$pair@$$CBW4SDL_Scancode@@_N@std@@PAU?$_Tree_node@U?$pair@$$CBW4SDL_Scancode@@_N@std@@PAX@2@@?$_Tree@V?$_Tmap_traits@W4SDL_Scancode@@_NU?$less@W4SDL_Scancode@@@std@@V?$allocator@U?$pair@$$CBW4SDL_Scancode@@_N@std@@@3@$0A@@std@@@std@@IAE?AV?$_Tree_iterator@V?$_Tree_val@U?$_Tree_simple_types@U?$pair@$$CBW4SDL_Scancode@@_N@std@@@std@@@std@@@1@V?$_Tree_const_iterator@V?$_Tree_val@U?$_Tree_simple_types@U?$pair@$$CBW4SDL_Scancode@@_N@std@@@std@@@std@@@1@AAU?$pair@$$CBW4SDL_Scancode@@_N@1@PAU?$_Tree_node@U?$pair@$$CBW4SDL_Scancode@@_N@std@@PAX@1@@Z ; std::_Tree<std::_Tmap_traits<enum SDL_Scancode,bool,std::less<enum SDL_Scancode>,std::allocator<std::pair<enum SDL_Scancode const ,bool> >,0> >::_Insert_hint<std::pair<enum SDL_Scancode const ,bool> &,std::_Tree_node<std::pair<enum SDL_Scancode const ,bool>,void *> *>
PUBLIC	??$destroy@U?$pair@$$CBW4SDL_Scancode@@_N@std@@@?$allocator_traits@V?$allocator@U?$_Tree_node@U?$pair@$$CBW4SDL_Scancode@@_N@std@@PAX@std@@@std@@@std@@SAXAAV?$allocator@U?$_Tree_node@U?$pair@$$CBW4SDL_Scancode@@_N@std@@PAX@std@@@1@PAU?$pair@$$CBW4SDL_Scancode@@_N@1@@Z ; std::allocator_traits<std::allocator<std::_Tree_node<std::pair<enum SDL_Scancode const ,bool>,void *> > >::destroy<std::pair<enum SDL_Scancode const ,bool> >
PUBLIC	??$?0ABW4SDL_Scancode@@@?$_Tuple_val@ABW4SDL_Scancode@@@std@@QAE@ABW4SDL_Scancode@@@Z ; std::_Tuple_val<enum SDL_Scancode const &>::_Tuple_val<enum SDL_Scancode const &><enum SDL_Scancode const &>
PUBLIC	??$construct@U?$pair@$$CBW4SDL_Scancode@@_N@std@@ABUpiecewise_construct_t@2@V?$tuple@ABW4SDL_Scancode@@@2@V?$tuple@$$$V@2@@?$_Wrap_alloc@V?$allocator@U?$_Tree_node@U?$pair@$$CBW4SDL_Scancode@@_N@std@@PAX@std@@@std@@@std@@QAEXPAU?$pair@$$CBW4SDL_Scancode@@_N@1@ABUpiecewise_construct_t@1@$$QAV?$tuple@ABW4SDL_Scancode@@@1@$$QAV?$tuple@$$$V@1@@Z ; std::_Wrap_alloc<std::allocator<std::_Tree_node<std::pair<enum SDL_Scancode const ,bool>,void *> > >::construct<std::pair<enum SDL_Scancode const ,bool>,std::piecewise_construct_t const &,std::tuple<enum SDL_Scancode const &>,std::tuple<> >
PUBLIC	??$forward@AAU?$pair@$$CBW4SDL_Scancode@@_N@std@@@std@@YAAAU?$pair@$$CBW4SDL_Scancode@@_N@0@AAU10@@Z ; std::forward<std::pair<enum SDL_Scancode const ,bool> &>
PUBLIC	??$_Insert_at@AAU?$pair@$$CBW4SDL_Scancode@@_N@std@@PAU?$_Tree_node@U?$pair@$$CBW4SDL_Scancode@@_N@std@@PAX@2@@?$_Tree@V?$_Tmap_traits@W4SDL_Scancode@@_NU?$less@W4SDL_Scancode@@@std@@V?$allocator@U?$pair@$$CBW4SDL_Scancode@@_N@std@@@3@$0A@@std@@@std@@IAE?AV?$_Tree_iterator@V?$_Tree_val@U?$_Tree_simple_types@U?$pair@$$CBW4SDL_Scancode@@_N@std@@@std@@@std@@@1@_NPAU?$_Tree_node@U?$pair@$$CBW4SDL_Scancode@@_N@std@@PAX@1@AAU?$pair@$$CBW4SDL_Scancode@@_N@1@1@Z ; std::_Tree<std::_Tmap_traits<enum SDL_Scancode,bool,std::less<enum SDL_Scancode>,std::allocator<std::pair<enum SDL_Scancode const ,bool> >,0> >::_Insert_at<std::pair<enum SDL_Scancode const ,bool> &,std::_Tree_node<std::pair<enum SDL_Scancode const ,bool>,void *> *>
PUBLIC	??$_Insert_nohint@AAU?$pair@$$CBW4SDL_Scancode@@_N@std@@PAU?$_Tree_node@U?$pair@$$CBW4SDL_Scancode@@_N@std@@PAX@2@@?$_Tree@V?$_Tmap_traits@W4SDL_Scancode@@_NU?$less@W4SDL_Scancode@@@std@@V?$allocator@U?$pair@$$CBW4SDL_Scancode@@_N@std@@@3@$0A@@std@@@std@@IAE?AU?$pair@V?$_Tree_iterator@V?$_Tree_val@U?$_Tree_simple_types@U?$pair@$$CBW4SDL_Scancode@@_N@std@@@std@@@std@@@std@@_N@1@_NAAU?$pair@$$CBW4SDL_Scancode@@_N@1@PAU?$_Tree_node@U?$pair@$$CBW4SDL_Scancode@@_N@std@@PAX@1@@Z ; std::_Tree<std::_Tmap_traits<enum SDL_Scancode,bool,std::less<enum SDL_Scancode>,std::allocator<std::pair<enum SDL_Scancode const ,bool> >,0> >::_Insert_nohint<std::pair<enum SDL_Scancode const ,bool> &,std::_Tree_node<std::pair<enum SDL_Scancode const ,bool>,void *> *>
PUBLIC	??1?$pair@V?$_Tree_iterator@V?$_Tree_val@U?$_Tree_simple_types@U?$pair@$$CBW4SDL_Scancode@@_N@std@@@std@@@std@@@std@@_N@std@@QAE@XZ ; std::pair<std::_Tree_iterator<std::_Tree_val<std::_Tree_simple_types<std::pair<enum SDL_Scancode const ,bool> > > >,bool>::~pair<std::_Tree_iterator<std::_Tree_val<std::_Tree_simple_types<std::pair<enum SDL_Scancode const ,bool> > > >,bool>
PUBLIC	??$destroy@U?$pair@$$CBW4SDL_Scancode@@_N@std@@@?$allocator@U?$_Tree_node@U?$pair@$$CBW4SDL_Scancode@@_N@std@@PAX@std@@@std@@QAEXPAU?$pair@$$CBW4SDL_Scancode@@_N@1@@Z ; std::allocator<std::_Tree_node<std::pair<enum SDL_Scancode const ,bool>,void *> >::destroy<std::pair<enum SDL_Scancode const ,bool> >
PUBLIC	??$addressof@PAU?$_Tree_node@U?$pair@$$CBW4SDL_Scancode@@_N@std@@PAX@std@@@std@@YAPAPAU?$_Tree_node@U?$pair@$$CBW4SDL_Scancode@@_N@std@@PAX@0@AAPAU10@@Z ; std::addressof<std::_Tree_node<std::pair<enum SDL_Scancode const ,bool>,void *> *>
PUBLIC	??$construct@PAU?$_Tree_node@U?$pair@$$CBW4SDL_Scancode@@_N@std@@PAX@std@@AAPAU12@@?$_Wrap_alloc@V?$allocator@U?$_Tree_node@U?$pair@$$CBW4SDL_Scancode@@_N@std@@PAX@std@@@std@@@std@@QAEXPAPAU?$_Tree_node@U?$pair@$$CBW4SDL_Scancode@@_N@std@@PAX@1@AAPAU21@@Z ; std::_Wrap_alloc<std::allocator<std::_Tree_node<std::pair<enum SDL_Scancode const ,bool>,void *> > >::construct<std::_Tree_node<std::pair<enum SDL_Scancode const ,bool>,void *> *,std::_Tree_node<std::pair<enum SDL_Scancode const ,bool>,void *> * &>
PUBLIC	??$destroy@PAU?$_Tree_node@U?$pair@$$CBW4SDL_Scancode@@_N@std@@PAX@std@@@?$_Wrap_alloc@V?$allocator@U?$_Tree_node@U?$pair@$$CBW4SDL_Scancode@@_N@std@@PAX@std@@@std@@@std@@QAEXPAPAU?$_Tree_node@U?$pair@$$CBW4SDL_Scancode@@_N@std@@PAX@1@@Z ; std::_Wrap_alloc<std::allocator<std::_Tree_node<std::pair<enum SDL_Scancode const ,bool>,void *> > >::destroy<std::_Tree_node<std::pair<enum SDL_Scancode const ,bool>,void *> *>
PUBLIC	??$_Allocate@U?$_Tree_node@U?$pair@$$CBW4SDL_Scancode@@_N@std@@PAX@std@@@std@@YAPAU?$_Tree_node@U?$pair@$$CBW4SDL_Scancode@@_N@std@@PAX@0@IPAU10@@Z ; std::_Allocate<std::_Tree_node<std::pair<enum SDL_Scancode const ,bool>,void *> >
PUBLIC	??$construct@U?$pair@$$CBW4SDL_Scancode@@_N@std@@ABUpiecewise_construct_t@2@V?$tuple@ABW4SDL_Scancode@@@2@V?$tuple@$$$V@2@@?$allocator_traits@V?$allocator@U?$_Tree_node@U?$pair@$$CBW4SDL_Scancode@@_N@std@@PAX@std@@@std@@@std@@SAXAAV?$allocator@U?$_Tree_node@U?$pair@$$CBW4SDL_Scancode@@_N@std@@PAX@std@@@1@PAU?$pair@$$CBW4SDL_Scancode@@_N@1@ABUpiecewise_construct_t@1@$$QAV?$tuple@ABW4SDL_Scancode@@@1@$$QAV?$tuple@$$$V@1@@Z ; std::allocator_traits<std::allocator<std::_Tree_node<std::pair<enum SDL_Scancode const ,bool>,void *> > >::construct<std::pair<enum SDL_Scancode const ,bool>,std::piecewise_construct_t const &,std::tuple<enum SDL_Scancode const &>,std::tuple<> >
PUBLIC	??$_Buynode_if_nil@AAU?$pair@$$CBW4SDL_Scancode@@_N@std@@@?$_Tree@V?$_Tmap_traits@W4SDL_Scancode@@_NU?$less@W4SDL_Scancode@@@std@@V?$allocator@U?$pair@$$CBW4SDL_Scancode@@_N@std@@@3@$0A@@std@@@std@@IAEPAU?$_Tree_node@U?$pair@$$CBW4SDL_Scancode@@_N@std@@PAX@1@PAU21@AAU?$pair@$$CBW4SDL_Scancode@@_N@1@@Z ; std::_Tree<std::_Tmap_traits<enum SDL_Scancode,bool,std::less<enum SDL_Scancode>,std::allocator<std::pair<enum SDL_Scancode const ,bool> >,0> >::_Buynode_if_nil<std::pair<enum SDL_Scancode const ,bool> &>
PUBLIC	??$?0V?$_Tree_iterator@V?$_Tree_val@U?$_Tree_simple_types@U?$pair@$$CBW4SDL_Scancode@@_N@std@@@std@@@std@@@std@@_NX@?$pair@V?$_Tree_iterator@V?$_Tree_val@U?$_Tree_simple_types@U?$pair@$$CBW4SDL_Scancode@@_N@std@@@std@@@std@@@std@@_N@std@@QAE@$$QAV?$_Tree_iterator@V?$_Tree_val@U?$_Tree_simple_types@U?$pair@$$CBW4SDL_Scancode@@_N@std@@@std@@@std@@@1@$$QA_N@Z ; std::pair<std::_Tree_iterator<std::_Tree_val<std::_Tree_simple_types<std::pair<enum SDL_Scancode const ,bool> > > >,bool>::pair<std::_Tree_iterator<std::_Tree_val<std::_Tree_simple_types<std::pair<enum SDL_Scancode const ,bool> > > >,bool><std::_Tree_iterator<std::_Tree_val<std::_Tree_simple_types<std::pair<enum SDL_Scancode const ,bool> > > >,bool,void>
PUBLIC	??$?0AAV?$_Tree_iterator@V?$_Tree_val@U?$_Tree_simple_types@U?$pair@$$CBW4SDL_Scancode@@_N@std@@@std@@@std@@@std@@_NX@?$pair@V?$_Tree_iterator@V?$_Tree_val@U?$_Tree_simple_types@U?$pair@$$CBW4SDL_Scancode@@_N@std@@@std@@@std@@@std@@_N@std@@QAE@AAV?$_Tree_iterator@V?$_Tree_val@U?$_Tree_simple_types@U?$pair@$$CBW4SDL_Scancode@@_N@std@@@std@@@std@@@1@$$QA_N@Z ; std::pair<std::_Tree_iterator<std::_Tree_val<std::_Tree_simple_types<std::pair<enum SDL_Scancode const ,bool> > > >,bool>::pair<std::_Tree_iterator<std::_Tree_val<std::_Tree_simple_types<std::pair<enum SDL_Scancode const ,bool> > > >,bool><std::_Tree_iterator<std::_Tree_val<std::_Tree_simple_types<std::pair<enum SDL_Scancode const ,bool> > > > &,bool,void>
PUBLIC	??$forward@AAPAU?$_Tree_node@U?$pair@$$CBW4SDL_Scancode@@_N@std@@PAX@std@@@std@@YAAAPAU?$_Tree_node@U?$pair@$$CBW4SDL_Scancode@@_N@std@@PAX@0@AAPAU10@@Z ; std::forward<std::_Tree_node<std::pair<enum SDL_Scancode const ,bool>,void *> * &>
PUBLIC	??$construct@PAU?$_Tree_node@U?$pair@$$CBW4SDL_Scancode@@_N@std@@PAX@std@@AAPAU12@@?$allocator_traits@V?$allocator@U?$_Tree_node@U?$pair@$$CBW4SDL_Scancode@@_N@std@@PAX@std@@@std@@@std@@SAXAAV?$allocator@U?$_Tree_node@U?$pair@$$CBW4SDL_Scancode@@_N@std@@PAX@std@@@1@PAPAU?$_Tree_node@U?$pair@$$CBW4SDL_Scancode@@_N@std@@PAX@1@AAPAU31@@Z ; std::allocator_traits<std::allocator<std::_Tree_node<std::pair<enum SDL_Scancode const ,bool>,void *> > >::construct<std::_Tree_node<std::pair<enum SDL_Scancode const ,bool>,void *> *,std::_Tree_node<std::pair<enum SDL_Scancode const ,bool>,void *> * &>
PUBLIC	??$destroy@PAU?$_Tree_node@U?$pair@$$CBW4SDL_Scancode@@_N@std@@PAX@std@@@?$allocator_traits@V?$allocator@U?$_Tree_node@U?$pair@$$CBW4SDL_Scancode@@_N@std@@PAX@std@@@std@@@std@@SAXAAV?$allocator@U?$_Tree_node@U?$pair@$$CBW4SDL_Scancode@@_N@std@@PAX@std@@@1@PAPAU?$_Tree_node@U?$pair@$$CBW4SDL_Scancode@@_N@std@@PAX@1@@Z ; std::allocator_traits<std::allocator<std::_Tree_node<std::pair<enum SDL_Scancode const ,bool>,void *> > >::destroy<std::_Tree_node<std::pair<enum SDL_Scancode const ,bool>,void *> *>
PUBLIC	??$construct@U?$pair@$$CBW4SDL_Scancode@@_N@std@@ABUpiecewise_construct_t@2@V?$tuple@ABW4SDL_Scancode@@@2@V?$tuple@$$$V@2@@?$allocator@U?$_Tree_node@U?$pair@$$CBW4SDL_Scancode@@_N@std@@PAX@std@@@std@@QAEXPAU?$pair@$$CBW4SDL_Scancode@@_N@1@ABUpiecewise_construct_t@1@$$QAV?$tuple@ABW4SDL_Scancode@@@1@$$QAV?$tuple@$$$V@1@@Z ; std::allocator<std::_Tree_node<std::pair<enum SDL_Scancode const ,bool>,void *> >::construct<std::pair<enum SDL_Scancode const ,bool>,std::piecewise_construct_t const &,std::tuple<enum SDL_Scancode const &>,std::tuple<> >
PUBLIC	??$forward@V?$_Tree_iterator@V?$_Tree_val@U?$_Tree_simple_types@U?$pair@$$CBW4SDL_Scancode@@_N@std@@@std@@@std@@@std@@@std@@YA$$QAV?$_Tree_iterator@V?$_Tree_val@U?$_Tree_simple_types@U?$pair@$$CBW4SDL_Scancode@@_N@std@@@std@@@std@@@0@AAV10@@Z ; std::forward<std::_Tree_iterator<std::_Tree_val<std::_Tree_simple_types<std::pair<enum SDL_Scancode const ,bool> > > > >
PUBLIC	??$forward@_N@std@@YA$$QA_NAA_N@Z		; std::forward<bool>
PUBLIC	??$forward@AAV?$_Tree_iterator@V?$_Tree_val@U?$_Tree_simple_types@U?$pair@$$CBW4SDL_Scancode@@_N@std@@@std@@@std@@@std@@@std@@YAAAV?$_Tree_iterator@V?$_Tree_val@U?$_Tree_simple_types@U?$pair@$$CBW4SDL_Scancode@@_N@std@@@std@@@std@@@0@AAV10@@Z ; std::forward<std::_Tree_iterator<std::_Tree_val<std::_Tree_simple_types<std::pair<enum SDL_Scancode const ,bool> > > > &>
PUBLIC	??$construct@PAU?$_Tree_node@U?$pair@$$CBW4SDL_Scancode@@_N@std@@PAX@std@@AAPAU12@@?$allocator@U?$_Tree_node@U?$pair@$$CBW4SDL_Scancode@@_N@std@@PAX@std@@@std@@QAEXPAPAU?$_Tree_node@U?$pair@$$CBW4SDL_Scancode@@_N@std@@PAX@1@AAPAU21@@Z ; std::allocator<std::_Tree_node<std::pair<enum SDL_Scancode const ,bool>,void *> >::construct<std::_Tree_node<std::pair<enum SDL_Scancode const ,bool>,void *> *,std::_Tree_node<std::pair<enum SDL_Scancode const ,bool>,void *> * &>
PUBLIC	??$destroy@PAU?$_Tree_node@U?$pair@$$CBW4SDL_Scancode@@_N@std@@PAX@std@@@?$allocator@U?$_Tree_node@U?$pair@$$CBW4SDL_Scancode@@_N@std@@PAX@std@@@std@@QAEXPAPAU?$_Tree_node@U?$pair@$$CBW4SDL_Scancode@@_N@std@@PAX@1@@Z ; std::allocator<std::_Tree_node<std::pair<enum SDL_Scancode const ,bool>,void *> >::destroy<std::_Tree_node<std::pair<enum SDL_Scancode const ,bool>,void *> *>
PUBLIC	??$?0ABW4SDL_Scancode@@$$$V@?$pair@$$CBW4SDL_Scancode@@_N@std@@QAE@Upiecewise_construct_t@1@V?$tuple@ABW4SDL_Scancode@@@1@V?$tuple@$$$V@1@@Z ; std::pair<enum SDL_Scancode const ,bool>::pair<enum SDL_Scancode const ,bool><enum SDL_Scancode const &>
PUBLIC	??$?0V?$tuple@ABW4SDL_Scancode@@@std@@V?$tuple@$$$V@1@$0A@$S@?$pair@$$CBW4SDL_Scancode@@_N@std@@QAE@AAV?$tuple@ABW4SDL_Scancode@@@1@AAV?$tuple@$$$V@1@U?$_Arg_idx@$0A@@1@U?$_Arg_idx@$S@1@@Z ; std::pair<enum SDL_Scancode const ,bool>::pair<enum SDL_Scancode const ,bool><std::tuple<enum SDL_Scancode const &>,std::tuple<>,0>
PUBLIC	??$move@AAV?$tuple@ABW4SDL_Scancode@@@std@@@std@@YA$$QAV?$tuple@ABW4SDL_Scancode@@@0@AAV10@@Z ; std::move<std::tuple<enum SDL_Scancode const &> &>
PUBLIC	??$get@$0A@ABW4SDL_Scancode@@@std@@YAABW4SDL_Scancode@@$$QAV?$tuple@ABW4SDL_Scancode@@@0@@Z ; std::get<0,enum SDL_Scancode const &>
PUBLIC	??_C@_1JA@EKKHPHED@?$AAc?$AA?3?$AA?2?$AAp?$AAr?$AAo?$AAg?$AAr?$AAa?$AAm?$AA?5?$AAf?$AAi?$AAl?$AAe?$AAs?$AA?5?$AA?$CI?$AAx?$AA8?$AA6?$AA?$CJ?$AA?2?$AAm?$AAi?$AAc?$AAr?$AAo?$AAs?$AAo?$AAf?$AAt@ ; `string'
PUBLIC	??_C@_1DC@POOIKBAO@?$AAI?$AAT?$AAE?$AAR?$AAA?$AAT?$AAO?$AAR?$AA?5?$AAL?$AAI?$AAS?$AAT?$AA?5?$AAC?$AAO?$AAR?$AAR?$AAU?$AAP?$AAT?$AAE?$AAD?$AA?$CB?$AA?$AA@ ; `string'
PUBLIC	??_C@_1IK@HBAODOLH@?$AAc?$AA?3?$AA?2?$AAp?$AAr?$AAo?$AAg?$AAr?$AAa?$AAm?$AA?5?$AAf?$AAi?$AAl?$AAe?$AAs?$AA?5?$AA?$CI?$AAx?$AA8?$AA6?$AA?$CJ?$AA?2?$AAm?$AAi?$AAc?$AAr?$AAo?$AAs?$AAo?$AAf?$AAt@ ; `string'
PUBLIC	??_C@_1DO@CFEEPGGJ@?$AAm?$AAa?$AAp?$AA?1?$AAs?$AAe?$AAt?$AA?5?$AAi?$AAt?$AAe?$AAr?$AAa?$AAt?$AAo?$AAr?$AAs?$AA?5?$AAi?$AAn?$AAc?$AAo?$AAm?$AAp?$AAa?$AAt?$AAi?$AAb?$AAl?$AAe?$AA?$AA@ ; `string'
PUBLIC	??_C@_0CI@FNPHFCCM@Standard?5C?$CL?$CL?5Libraries?5Invalid?5A@ ; `string'
PUBLIC	??_C@_1FO@GJIHNDLM@?$AA?$CC?$AAS?$AAt?$AAa?$AAn?$AAd?$AAa?$AAr?$AAd?$AA?5?$AAC?$AA?$CL?$AA?$CL?$AA?5?$AAL?$AAi?$AAb?$AAr?$AAa?$AAr?$AAi?$AAe?$AAs?$AA?5?$AAI?$AAn?$AAv?$AAa?$AAl?$AAi?$AAd?$AA?5@ ; `string'
PUBLIC	??_C@_15GANGMFKL@?$AA?$CF?$AAs?$AA?$AA@		; `string'
PUBLIC	??_C@_1BCC@CENCGII@?$AAs?$AAt?$AAd?$AA?3?$AA?3?$AA_?$AAT?$AAr?$AAe?$AAe?$AA_?$AAc?$AAo?$AAn?$AAs?$AAt?$AA_?$AAi?$AAt?$AAe?$AAr?$AAa?$AAt?$AAo?$AAr?$AA?$DM?$AAc?$AAl?$AAa?$AAs?$AAs?$AA?5@ ; `string'
PUBLIC	??_C@_1CG@JNLFBNGN@?$AA?$CC?$AAi?$AAn?$AAv?$AAa?$AAl?$AAi?$AAd?$AA?5?$AAa?$AAr?$AAg?$AAu?$AAm?$AAe?$AAn?$AAt?$AA?$CC?$AA?$AA@ ; `string'
PUBLIC	??_C@_1EI@FHEHNNNM@?$AAm?$AAa?$AAp?$AA?1?$AAs?$AAe?$AAt?$AA?5?$AAi?$AAt?$AAe?$AAr?$AAa?$AAt?$AAo?$AAr?$AA?5?$AAn?$AAo?$AAt?$AA?5?$AAd?$AAe?$AAr?$AAe?$AAf?$AAe?$AAr?$AAe?$AAn?$AAc?$AAa@ ; `string'
PUBLIC	??_C@_0CE@OFMIGAMM@Standard?5C?$CL?$CL?5Libraries?5Out?5of?5Ra@ ; `string'
PUBLIC	??_C@_1FG@IBPIFFN@?$AA?$CC?$AAS?$AAt?$AAa?$AAn?$AAd?$AAa?$AAr?$AAd?$AA?5?$AAC?$AA?$CL?$AA?$CL?$AA?5?$AAL?$AAi?$AAb?$AAr?$AAa?$AAr?$AAi?$AAe?$AAs?$AA?5?$AAO?$AAu?$AAt?$AA?5?$AAo?$AAf?$AA?5?$AAR@ ; `string'
PUBLIC	??_C@_1BCA@HNCBFHON@?$AAs?$AAt?$AAd?$AA?3?$AA?3?$AA_?$AAT?$AAr?$AAe?$AAe?$AA_?$AAc?$AAo?$AAn?$AAs?$AAt?$AA_?$AAi?$AAt?$AAe?$AAr?$AAa?$AAt?$AAo?$AAr?$AA?$DM?$AAc?$AAl?$AAa?$AAs?$AAs?$AA?5@ ; `string'
PUBLIC	??_C@_1BO@MEPPHOO@?$AA?$CC?$AAo?$AAu?$AAt?$AA?5?$AAo?$AAf?$AA?5?$AAr?$AAa?$AAn?$AAg?$AAe?$AA?$CC?$AA?$AA@ ; `string'
PUBLIC	??_C@_1CE@IGJMOCCK@?$AAi?$AAn?$AAv?$AAa?$AAl?$AAi?$AAd?$AA?5?$AAo?$AAp?$AAe?$AAr?$AAa?$AAt?$AAo?$AAr?$AA?$DM?$AA?$AA@ ; `string'
PUBLIC	??_C@_1EM@MHOKKPFH@?$AAm?$AAa?$AAp?$AA?1?$AAs?$AAe?$AAt?$AA?5?$AAi?$AAn?$AAs?$AAe?$AAr?$AAt?$AA?5?$AAi?$AAt?$AAe?$AAr?$AAa?$AAt?$AAo?$AAr?$AA?5?$AAo?$AAu?$AAt?$AAs?$AAi?$AAd?$AAe?$AA?5@ ; `string'
PUBLIC	??_C@_1EG@EHJFMBHJ@?$AAm?$AAa?$AAp?$AA?1?$AAs?$AAe?$AAt?$AA?5?$AAi?$AAt?$AAe?$AAr?$AAa?$AAt?$AAo?$AAr?$AA?5?$AAn?$AAo?$AAt?$AA?5?$AAi?$AAn?$AAc?$AAr?$AAe?$AAm?$AAe?$AAn?$AAt?$AAa?$AAb@ ; `string'
PUBLIC	??_C@_1BCC@KCLAMPEN@?$AAs?$AAt?$AAd?$AA?3?$AA?3?$AA_?$AAT?$AAr?$AAe?$AAe?$AA_?$AAc?$AAo?$AAn?$AAs?$AAt?$AA_?$AAi?$AAt?$AAe?$AAr?$AAa?$AAt?$AAo?$AAr?$AA?$DM?$AAc?$AAl?$AAa?$AAs?$AAs?$AA?5@ ; `string'
PUBLIC	??_C@_1EG@OKCGOALM@?$AAm?$AAa?$AAp?$AA?1?$AAs?$AAe?$AAt?$AA?5?$AAi?$AAt?$AAe?$AAr?$AAa?$AAt?$AAo?$AAr?$AA?5?$AAn?$AAo?$AAt?$AA?5?$AAd?$AAe?$AAc?$AAr?$AAe?$AAm?$AAe?$AAn?$AAt?$AAa?$AAb@ ; `string'
PUBLIC	??_C@_1BCC@FBICHDIM@?$AAs?$AAt?$AAd?$AA?3?$AA?3?$AA_?$AAT?$AAr?$AAe?$AAe?$AA_?$AAc?$AAo?$AAn?$AAs?$AAt?$AA_?$AAi?$AAt?$AAe?$AAr?$AAa?$AAt?$AAo?$AAr?$AA?$DM?$AAc?$AAl?$AAa?$AAs?$AAs?$AA?5@ ; `string'
PUBLIC	??_C@_0BE@JONHPENG@map?1set?$DMT?$DO?5too?5long?$AA@ ; `string'
EXTRN	??2@YAPAXI@Z:PROC				; operator new
EXTRN	??3@YAXPAX@Z:PROC				; operator delete
EXTRN	__imp___invalid_parameter:PROC
EXTRN	__imp_??0_Lockit@std@@QAE@H@Z:PROC
EXTRN	__imp_??1_Lockit@std@@QAE@XZ:PROC
EXTRN	__imp___hypot:PROC
EXTRN	__imp___CrtDbgReportW:PROC
EXTRN	__imp_?_Debug_message@std@@YAXPB_W0I@Z:PROC
EXTRN	__imp_?_Getpfirst@_Container_base12@std@@QBEPAPAU_Iterator_base12@2@XZ:PROC
EXTRN	__imp_?_Xbad_alloc@std@@YAXXZ:PROC
EXTRN	__imp_?_Xlength_error@std@@YAXPBD@Z:PROC
EXTRN	@_RTC_CheckStackVars@8:PROC
EXTRN	@__security_check_cookie@4:PROC
EXTRN	__CxxThrowException@8:PROC
EXTRN	__RTC_CheckEsp:PROC
EXTRN	__RTC_InitBase:PROC
EXTRN	__RTC_Shutdown:PROC
EXTRN	___CxxFrameHandler3:PROC
EXTRN	_memset:PROC
EXTRN	___security_cookie:DWORD
EXTRN	__fltused:DWORD
_BSS	SEGMENT
_piecewise_construct DB 01H DUP (?)
_allocator_arg DB 01H DUP (?)
_ignore	DB	01H DUP (?)
__Tuple_alloc DB 01H DUP (?)
_BSS	ENDS
CRT$XCU	SEGMENT
_piecewise_construct$initializer$ DD FLAT:??__Epiecewise_construct@std@@YAXXZ
CRT$XCU	ENDS
;	COMDAT rtc$TMZ
rtc$TMZ	SEGMENT
__RTC_Shutdown.rtc$TMZ DD FLAT:__RTC_Shutdown
rtc$TMZ	ENDS
;	COMDAT rtc$IMZ
rtc$IMZ	SEGMENT
__RTC_InitBase.rtc$IMZ DD FLAT:__RTC_InitBase
rtc$IMZ	ENDS
;	COMDAT ??_C@_0BE@JONHPENG@map?1set?$DMT?$DO?5too?5long?$AA@
CONST	SEGMENT
??_C@_0BE@JONHPENG@map?1set?$DMT?$DO?5too?5long?$AA@ DB 'map/set<T> too l'
	DB	'ong', 00H					; `string'
CONST	ENDS
;	COMDAT ??_C@_1BCC@FBICHDIM@?$AAs?$AAt?$AAd?$AA?3?$AA?3?$AA_?$AAT?$AAr?$AAe?$AAe?$AA_?$AAc?$AAo?$AAn?$AAs?$AAt?$AA_?$AAi?$AAt?$AAe?$AAr?$AAa?$AAt?$AAo?$AAr?$AA?$DM?$AAc?$AAl?$AAa?$AAs?$AAs?$AA?5@
CONST	SEGMENT
??_C@_1BCC@FBICHDIM@?$AAs?$AAt?$AAd?$AA?3?$AA?3?$AA_?$AAT?$AAr?$AAe?$AAe?$AA_?$AAc?$AAo?$AAn?$AAs?$AAt?$AA_?$AAi?$AAt?$AAe?$AAr?$AAa?$AAt?$AAo?$AAr?$AA?$DM?$AAc?$AAl?$AAa?$AAs?$AAs?$AA?5@ DB 's'
	DB	00H, 't', 00H, 'd', 00H, ':', 00H, ':', 00H, '_', 00H, 'T', 00H
	DB	'r', 00H, 'e', 00H, 'e', 00H, '_', 00H, 'c', 00H, 'o', 00H, 'n'
	DB	00H, 's', 00H, 't', 00H, '_', 00H, 'i', 00H, 't', 00H, 'e', 00H
	DB	'r', 00H, 'a', 00H, 't', 00H, 'o', 00H, 'r', 00H, '<', 00H, 'c'
	DB	00H, 'l', 00H, 'a', 00H, 's', 00H, 's', 00H, ' ', 00H, 's', 00H
	DB	't', 00H, 'd', 00H, ':', 00H, ':', 00H, '_', 00H, 'T', 00H, 'r'
	DB	00H, 'e', 00H, 'e', 00H, '_', 00H, 'v', 00H, 'a', 00H, 'l', 00H
	DB	'<', 00H, 's', 00H, 't', 00H, 'r', 00H, 'u', 00H, 'c', 00H, 't'
	DB	00H, ' ', 00H, 's', 00H, 't', 00H, 'd', 00H, ':', 00H, ':', 00H
	DB	'_', 00H, 'T', 00H, 'r', 00H, 'e', 00H, 'e', 00H, '_', 00H, 's'
	DB	00H, 'i', 00H, 'm', 00H, 'p', 00H, 'l', 00H, 'e', 00H, '_', 00H
	DB	't', 00H, 'y', 00H, 'p', 00H, 'e', 00H, 's', 00H, '<', 00H, 's'
	DB	00H, 't', 00H, 'r', 00H, 'u', 00H, 'c', 00H, 't', 00H, ' ', 00H
	DB	's', 00H, 't', 00H, 'd', 00H, ':', 00H, ':', 00H, 'p', 00H, 'a'
	DB	00H, 'i', 00H, 'r', 00H, '<', 00H, 'e', 00H, 'n', 00H, 'u', 00H
	DB	'm', 00H, ' ', 00H, 'S', 00H, 'D', 00H, 'L', 00H, '_', 00H, 'S'
	DB	00H, 'c', 00H, 'a', 00H, 'n', 00H, 'c', 00H, 'o', 00H, 'd', 00H
	DB	'e', 00H, ' ', 00H, 'c', 00H, 'o', 00H, 'n', 00H, 's', 00H, 't'
	DB	00H, ' ', 00H, ',', 00H, 'b', 00H, 'o', 00H, 'o', 00H, 'l', 00H
	DB	'>', 00H, ' ', 00H, '>', 00H, ' ', 00H, '>', 00H, ' ', 00H, '>'
	DB	00H, ':', 00H, ':', 00H, 'o', 00H, 'p', 00H, 'e', 00H, 'r', 00H
	DB	'a', 00H, 't', 00H, 'o', 00H, 'r', 00H, ' ', 00H, '-', 00H, '-'
	DB	00H, 00H, 00H				; `string'
CONST	ENDS
;	COMDAT ??_C@_1EG@OKCGOALM@?$AAm?$AAa?$AAp?$AA?1?$AAs?$AAe?$AAt?$AA?5?$AAi?$AAt?$AAe?$AAr?$AAa?$AAt?$AAo?$AAr?$AA?5?$AAn?$AAo?$AAt?$AA?5?$AAd?$AAe?$AAc?$AAr?$AAe?$AAm?$AAe?$AAn?$AAt?$AAa?$AAb@
CONST	SEGMENT
??_C@_1EG@OKCGOALM@?$AAm?$AAa?$AAp?$AA?1?$AAs?$AAe?$AAt?$AA?5?$AAi?$AAt?$AAe?$AAr?$AAa?$AAt?$AAo?$AAr?$AA?5?$AAn?$AAo?$AAt?$AA?5?$AAd?$AAe?$AAc?$AAr?$AAe?$AAm?$AAe?$AAn?$AAt?$AAa?$AAb@ DB 'm'
	DB	00H, 'a', 00H, 'p', 00H, '/', 00H, 's', 00H, 'e', 00H, 't', 00H
	DB	' ', 00H, 'i', 00H, 't', 00H, 'e', 00H, 'r', 00H, 'a', 00H, 't'
	DB	00H, 'o', 00H, 'r', 00H, ' ', 00H, 'n', 00H, 'o', 00H, 't', 00H
	DB	' ', 00H, 'd', 00H, 'e', 00H, 'c', 00H, 'r', 00H, 'e', 00H, 'm'
	DB	00H, 'e', 00H, 'n', 00H, 't', 00H, 'a', 00H, 'b', 00H, 'l', 00H
	DB	'e', 00H, 00H, 00H				; `string'
CONST	ENDS
;	COMDAT ??_C@_1BCC@KCLAMPEN@?$AAs?$AAt?$AAd?$AA?3?$AA?3?$AA_?$AAT?$AAr?$AAe?$AAe?$AA_?$AAc?$AAo?$AAn?$AAs?$AAt?$AA_?$AAi?$AAt?$AAe?$AAr?$AAa?$AAt?$AAo?$AAr?$AA?$DM?$AAc?$AAl?$AAa?$AAs?$AAs?$AA?5@
CONST	SEGMENT
??_C@_1BCC@KCLAMPEN@?$AAs?$AAt?$AAd?$AA?3?$AA?3?$AA_?$AAT?$AAr?$AAe?$AAe?$AA_?$AAc?$AAo?$AAn?$AAs?$AAt?$AA_?$AAi?$AAt?$AAe?$AAr?$AAa?$AAt?$AAo?$AAr?$AA?$DM?$AAc?$AAl?$AAa?$AAs?$AAs?$AA?5@ DB 's'
	DB	00H, 't', 00H, 'd', 00H, ':', 00H, ':', 00H, '_', 00H, 'T', 00H
	DB	'r', 00H, 'e', 00H, 'e', 00H, '_', 00H, 'c', 00H, 'o', 00H, 'n'
	DB	00H, 's', 00H, 't', 00H, '_', 00H, 'i', 00H, 't', 00H, 'e', 00H
	DB	'r', 00H, 'a', 00H, 't', 00H, 'o', 00H, 'r', 00H, '<', 00H, 'c'
	DB	00H, 'l', 00H, 'a', 00H, 's', 00H, 's', 00H, ' ', 00H, 's', 00H
	DB	't', 00H, 'd', 00H, ':', 00H, ':', 00H, '_', 00H, 'T', 00H, 'r'
	DB	00H, 'e', 00H, 'e', 00H, '_', 00H, 'v', 00H, 'a', 00H, 'l', 00H
	DB	'<', 00H, 's', 00H, 't', 00H, 'r', 00H, 'u', 00H, 'c', 00H, 't'
	DB	00H, ' ', 00H, 's', 00H, 't', 00H, 'd', 00H, ':', 00H, ':', 00H
	DB	'_', 00H, 'T', 00H, 'r', 00H, 'e', 00H, 'e', 00H, '_', 00H, 's'
	DB	00H, 'i', 00H, 'm', 00H, 'p', 00H, 'l', 00H, 'e', 00H, '_', 00H
	DB	't', 00H, 'y', 00H, 'p', 00H, 'e', 00H, 's', 00H, '<', 00H, 's'
	DB	00H, 't', 00H, 'r', 00H, 'u', 00H, 'c', 00H, 't', 00H, ' ', 00H
	DB	's', 00H, 't', 00H, 'd', 00H, ':', 00H, ':', 00H, 'p', 00H, 'a'
	DB	00H, 'i', 00H, 'r', 00H, '<', 00H, 'e', 00H, 'n', 00H, 'u', 00H
	DB	'm', 00H, ' ', 00H, 'S', 00H, 'D', 00H, 'L', 00H, '_', 00H, 'S'
	DB	00H, 'c', 00H, 'a', 00H, 'n', 00H, 'c', 00H, 'o', 00H, 'd', 00H
	DB	'e', 00H, ' ', 00H, 'c', 00H, 'o', 00H, 'n', 00H, 's', 00H, 't'
	DB	00H, ' ', 00H, ',', 00H, 'b', 00H, 'o', 00H, 'o', 00H, 'l', 00H
	DB	'>', 00H, ' ', 00H, '>', 00H, ' ', 00H, '>', 00H, ' ', 00H, '>'
	DB	00H, ':', 00H, ':', 00H, 'o', 00H, 'p', 00H, 'e', 00H, 'r', 00H
	DB	'a', 00H, 't', 00H, 'o', 00H, 'r', 00H, ' ', 00H, '+', 00H, '+'
	DB	00H, 00H, 00H				; `string'
CONST	ENDS
;	COMDAT ??_C@_1EG@EHJFMBHJ@?$AAm?$AAa?$AAp?$AA?1?$AAs?$AAe?$AAt?$AA?5?$AAi?$AAt?$AAe?$AAr?$AAa?$AAt?$AAo?$AAr?$AA?5?$AAn?$AAo?$AAt?$AA?5?$AAi?$AAn?$AAc?$AAr?$AAe?$AAm?$AAe?$AAn?$AAt?$AAa?$AAb@
CONST	SEGMENT
??_C@_1EG@EHJFMBHJ@?$AAm?$AAa?$AAp?$AA?1?$AAs?$AAe?$AAt?$AA?5?$AAi?$AAt?$AAe?$AAr?$AAa?$AAt?$AAo?$AAr?$AA?5?$AAn?$AAo?$AAt?$AA?5?$AAi?$AAn?$AAc?$AAr?$AAe?$AAm?$AAe?$AAn?$AAt?$AAa?$AAb@ DB 'm'
	DB	00H, 'a', 00H, 'p', 00H, '/', 00H, 's', 00H, 'e', 00H, 't', 00H
	DB	' ', 00H, 'i', 00H, 't', 00H, 'e', 00H, 'r', 00H, 'a', 00H, 't'
	DB	00H, 'o', 00H, 'r', 00H, ' ', 00H, 'n', 00H, 'o', 00H, 't', 00H
	DB	' ', 00H, 'i', 00H, 'n', 00H, 'c', 00H, 'r', 00H, 'e', 00H, 'm'
	DB	00H, 'e', 00H, 'n', 00H, 't', 00H, 'a', 00H, 'b', 00H, 'l', 00H
	DB	'e', 00H, 00H, 00H				; `string'
CONST	ENDS
;	COMDAT ??_C@_1EM@MHOKKPFH@?$AAm?$AAa?$AAp?$AA?1?$AAs?$AAe?$AAt?$AA?5?$AAi?$AAn?$AAs?$AAe?$AAr?$AAt?$AA?5?$AAi?$AAt?$AAe?$AAr?$AAa?$AAt?$AAo?$AAr?$AA?5?$AAo?$AAu?$AAt?$AAs?$AAi?$AAd?$AAe?$AA?5@
CONST	SEGMENT
??_C@_1EM@MHOKKPFH@?$AAm?$AAa?$AAp?$AA?1?$AAs?$AAe?$AAt?$AA?5?$AAi?$AAn?$AAs?$AAe?$AAr?$AAt?$AA?5?$AAi?$AAt?$AAe?$AAr?$AAa?$AAt?$AAo?$AAr?$AA?5?$AAo?$AAu?$AAt?$AAs?$AAi?$AAd?$AAe?$AA?5@ DB 'm'
	DB	00H, 'a', 00H, 'p', 00H, '/', 00H, 's', 00H, 'e', 00H, 't', 00H
	DB	' ', 00H, 'i', 00H, 'n', 00H, 's', 00H, 'e', 00H, 'r', 00H, 't'
	DB	00H, ' ', 00H, 'i', 00H, 't', 00H, 'e', 00H, 'r', 00H, 'a', 00H
	DB	't', 00H, 'o', 00H, 'r', 00H, ' ', 00H, 'o', 00H, 'u', 00H, 't'
	DB	00H, 's', 00H, 'i', 00H, 'd', 00H, 'e', 00H, ' ', 00H, 'r', 00H
	DB	'a', 00H, 'n', 00H, 'g', 00H, 'e', 00H, 00H, 00H ; `string'
CONST	ENDS
;	COMDAT ??_C@_1CE@IGJMOCCK@?$AAi?$AAn?$AAv?$AAa?$AAl?$AAi?$AAd?$AA?5?$AAo?$AAp?$AAe?$AAr?$AAa?$AAt?$AAo?$AAr?$AA?$DM?$AA?$AA@
CONST	SEGMENT
??_C@_1CE@IGJMOCCK@?$AAi?$AAn?$AAv?$AAa?$AAl?$AAi?$AAd?$AA?5?$AAo?$AAp?$AAe?$AAr?$AAa?$AAt?$AAo?$AAr?$AA?$DM?$AA?$AA@ DB 'i'
	DB	00H, 'n', 00H, 'v', 00H, 'a', 00H, 'l', 00H, 'i', 00H, 'd', 00H
	DB	' ', 00H, 'o', 00H, 'p', 00H, 'e', 00H, 'r', 00H, 'a', 00H, 't'
	DB	00H, 'o', 00H, 'r', 00H, '<', 00H, 00H, 00H	; `string'
CONST	ENDS
;	COMDAT ??_C@_1BO@MEPPHOO@?$AA?$CC?$AAo?$AAu?$AAt?$AA?5?$AAo?$AAf?$AA?5?$AAr?$AAa?$AAn?$AAg?$AAe?$AA?$CC?$AA?$AA@
CONST	SEGMENT
??_C@_1BO@MEPPHOO@?$AA?$CC?$AAo?$AAu?$AAt?$AA?5?$AAo?$AAf?$AA?5?$AAr?$AAa?$AAn?$AAg?$AAe?$AA?$CC?$AA?$AA@ DB '"'
	DB	00H, 'o', 00H, 'u', 00H, 't', 00H, ' ', 00H, 'o', 00H, 'f', 00H
	DB	' ', 00H, 'r', 00H, 'a', 00H, 'n', 00H, 'g', 00H, 'e', 00H, '"'
	DB	00H, 00H, 00H				; `string'
CONST	ENDS
;	COMDAT ??_C@_1BCA@HNCBFHON@?$AAs?$AAt?$AAd?$AA?3?$AA?3?$AA_?$AAT?$AAr?$AAe?$AAe?$AA_?$AAc?$AAo?$AAn?$AAs?$AAt?$AA_?$AAi?$AAt?$AAe?$AAr?$AAa?$AAt?$AAo?$AAr?$AA?$DM?$AAc?$AAl?$AAa?$AAs?$AAs?$AA?5@
CONST	SEGMENT
??_C@_1BCA@HNCBFHON@?$AAs?$AAt?$AAd?$AA?3?$AA?3?$AA_?$AAT?$AAr?$AAe?$AAe?$AA_?$AAc?$AAo?$AAn?$AAs?$AAt?$AA_?$AAi?$AAt?$AAe?$AAr?$AAa?$AAt?$AAo?$AAr?$AA?$DM?$AAc?$AAl?$AAa?$AAs?$AAs?$AA?5@ DB 's'
	DB	00H, 't', 00H, 'd', 00H, ':', 00H, ':', 00H, '_', 00H, 'T', 00H
	DB	'r', 00H, 'e', 00H, 'e', 00H, '_', 00H, 'c', 00H, 'o', 00H, 'n'
	DB	00H, 's', 00H, 't', 00H, '_', 00H, 'i', 00H, 't', 00H, 'e', 00H
	DB	'r', 00H, 'a', 00H, 't', 00H, 'o', 00H, 'r', 00H, '<', 00H, 'c'
	DB	00H, 'l', 00H, 'a', 00H, 's', 00H, 's', 00H, ' ', 00H, 's', 00H
	DB	't', 00H, 'd', 00H, ':', 00H, ':', 00H, '_', 00H, 'T', 00H, 'r'
	DB	00H, 'e', 00H, 'e', 00H, '_', 00H, 'v', 00H, 'a', 00H, 'l', 00H
	DB	'<', 00H, 's', 00H, 't', 00H, 'r', 00H, 'u', 00H, 'c', 00H, 't'
	DB	00H, ' ', 00H, 's', 00H, 't', 00H, 'd', 00H, ':', 00H, ':', 00H
	DB	'_', 00H, 'T', 00H, 'r', 00H, 'e', 00H, 'e', 00H, '_', 00H, 's'
	DB	00H, 'i', 00H, 'm', 00H, 'p', 00H, 'l', 00H, 'e', 00H, '_', 00H
	DB	't', 00H, 'y', 00H, 'p', 00H, 'e', 00H, 's', 00H, '<', 00H, 's'
	DB	00H, 't', 00H, 'r', 00H, 'u', 00H, 'c', 00H, 't', 00H, ' ', 00H
	DB	's', 00H, 't', 00H, 'd', 00H, ':', 00H, ':', 00H, 'p', 00H, 'a'
	DB	00H, 'i', 00H, 'r', 00H, '<', 00H, 'e', 00H, 'n', 00H, 'u', 00H
	DB	'm', 00H, ' ', 00H, 'S', 00H, 'D', 00H, 'L', 00H, '_', 00H, 'S'
	DB	00H, 'c', 00H, 'a', 00H, 'n', 00H, 'c', 00H, 'o', 00H, 'd', 00H
	DB	'e', 00H, ' ', 00H, 'c', 00H, 'o', 00H, 'n', 00H, 's', 00H, 't'
	DB	00H, ' ', 00H, ',', 00H, 'b', 00H, 'o', 00H, 'o', 00H, 'l', 00H
	DB	'>', 00H, ' ', 00H, '>', 00H, ' ', 00H, '>', 00H, ' ', 00H, '>'
	DB	00H, ':', 00H, ':', 00H, 'o', 00H, 'p', 00H, 'e', 00H, 'r', 00H
	DB	'a', 00H, 't', 00H, 'o', 00H, 'r', 00H, ' ', 00H, '*', 00H, 00H
	DB	00H						; `string'
CONST	ENDS
;	COMDAT ??_C@_1FG@IBPIFFN@?$AA?$CC?$AAS?$AAt?$AAa?$AAn?$AAd?$AAa?$AAr?$AAd?$AA?5?$AAC?$AA?$CL?$AA?$CL?$AA?5?$AAL?$AAi?$AAb?$AAr?$AAa?$AAr?$AAi?$AAe?$AAs?$AA?5?$AAO?$AAu?$AAt?$AA?5?$AAo?$AAf?$AA?5?$AAR@
CONST	SEGMENT
??_C@_1FG@IBPIFFN@?$AA?$CC?$AAS?$AAt?$AAa?$AAn?$AAd?$AAa?$AAr?$AAd?$AA?5?$AAC?$AA?$CL?$AA?$CL?$AA?5?$AAL?$AAi?$AAb?$AAr?$AAa?$AAr?$AAi?$AAe?$AAs?$AA?5?$AAO?$AAu?$AAt?$AA?5?$AAo?$AAf?$AA?5?$AAR@ DB '"'
	DB	00H, 'S', 00H, 't', 00H, 'a', 00H, 'n', 00H, 'd', 00H, 'a', 00H
	DB	'r', 00H, 'd', 00H, ' ', 00H, 'C', 00H, '+', 00H, '+', 00H, ' '
	DB	00H, 'L', 00H, 'i', 00H, 'b', 00H, 'r', 00H, 'a', 00H, 'r', 00H
	DB	'i', 00H, 'e', 00H, 's', 00H, ' ', 00H, 'O', 00H, 'u', 00H, 't'
	DB	00H, ' ', 00H, 'o', 00H, 'f', 00H, ' ', 00H, 'R', 00H, 'a', 00H
	DB	'n', 00H, 'g', 00H, 'e', 00H, '"', 00H, ' ', 00H, '&', 00H, '&'
	DB	00H, ' ', 00H, '0', 00H, 00H, 00H		; `string'
CONST	ENDS
;	COMDAT ??_C@_0CE@OFMIGAMM@Standard?5C?$CL?$CL?5Libraries?5Out?5of?5Ra@
CONST	SEGMENT
??_C@_0CE@OFMIGAMM@Standard?5C?$CL?$CL?5Libraries?5Out?5of?5Ra@ DB 'Stand'
	DB	'ard C++ Libraries Out of Range', 00H	; `string'
CONST	ENDS
;	COMDAT ??_C@_1EI@FHEHNNNM@?$AAm?$AAa?$AAp?$AA?1?$AAs?$AAe?$AAt?$AA?5?$AAi?$AAt?$AAe?$AAr?$AAa?$AAt?$AAo?$AAr?$AA?5?$AAn?$AAo?$AAt?$AA?5?$AAd?$AAe?$AAr?$AAe?$AAf?$AAe?$AAr?$AAe?$AAn?$AAc?$AAa@
CONST	SEGMENT
??_C@_1EI@FHEHNNNM@?$AAm?$AAa?$AAp?$AA?1?$AAs?$AAe?$AAt?$AA?5?$AAi?$AAt?$AAe?$AAr?$AAa?$AAt?$AAo?$AAr?$AA?5?$AAn?$AAo?$AAt?$AA?5?$AAd?$AAe?$AAr?$AAe?$AAf?$AAe?$AAr?$AAe?$AAn?$AAc?$AAa@ DB 'm'
	DB	00H, 'a', 00H, 'p', 00H, '/', 00H, 's', 00H, 'e', 00H, 't', 00H
	DB	' ', 00H, 'i', 00H, 't', 00H, 'e', 00H, 'r', 00H, 'a', 00H, 't'
	DB	00H, 'o', 00H, 'r', 00H, ' ', 00H, 'n', 00H, 'o', 00H, 't', 00H
	DB	' ', 00H, 'd', 00H, 'e', 00H, 'r', 00H, 'e', 00H, 'f', 00H, 'e'
	DB	00H, 'r', 00H, 'e', 00H, 'n', 00H, 'c', 00H, 'a', 00H, 'b', 00H
	DB	'l', 00H, 'e', 00H, 00H, 00H			; `string'
CONST	ENDS
;	COMDAT ??_C@_1CG@JNLFBNGN@?$AA?$CC?$AAi?$AAn?$AAv?$AAa?$AAl?$AAi?$AAd?$AA?5?$AAa?$AAr?$AAg?$AAu?$AAm?$AAe?$AAn?$AAt?$AA?$CC?$AA?$AA@
CONST	SEGMENT
??_C@_1CG@JNLFBNGN@?$AA?$CC?$AAi?$AAn?$AAv?$AAa?$AAl?$AAi?$AAd?$AA?5?$AAa?$AAr?$AAg?$AAu?$AAm?$AAe?$AAn?$AAt?$AA?$CC?$AA?$AA@ DB '"'
	DB	00H, 'i', 00H, 'n', 00H, 'v', 00H, 'a', 00H, 'l', 00H, 'i', 00H
	DB	'd', 00H, ' ', 00H, 'a', 00H, 'r', 00H, 'g', 00H, 'u', 00H, 'm'
	DB	00H, 'e', 00H, 'n', 00H, 't', 00H, '"', 00H, 00H, 00H ; `string'
CONST	ENDS
;	COMDAT ??_C@_1BCC@CENCGII@?$AAs?$AAt?$AAd?$AA?3?$AA?3?$AA_?$AAT?$AAr?$AAe?$AAe?$AA_?$AAc?$AAo?$AAn?$AAs?$AAt?$AA_?$AAi?$AAt?$AAe?$AAr?$AAa?$AAt?$AAo?$AAr?$AA?$DM?$AAc?$AAl?$AAa?$AAs?$AAs?$AA?5@
CONST	SEGMENT
??_C@_1BCC@CENCGII@?$AAs?$AAt?$AAd?$AA?3?$AA?3?$AA_?$AAT?$AAr?$AAe?$AAe?$AA_?$AAc?$AAo?$AAn?$AAs?$AAt?$AA_?$AAi?$AAt?$AAe?$AAr?$AAa?$AAt?$AAo?$AAr?$AA?$DM?$AAc?$AAl?$AAa?$AAs?$AAs?$AA?5@ DB 's'
	DB	00H, 't', 00H, 'd', 00H, ':', 00H, ':', 00H, '_', 00H, 'T', 00H
	DB	'r', 00H, 'e', 00H, 'e', 00H, '_', 00H, 'c', 00H, 'o', 00H, 'n'
	DB	00H, 's', 00H, 't', 00H, '_', 00H, 'i', 00H, 't', 00H, 'e', 00H
	DB	'r', 00H, 'a', 00H, 't', 00H, 'o', 00H, 'r', 00H, '<', 00H, 'c'
	DB	00H, 'l', 00H, 'a', 00H, 's', 00H, 's', 00H, ' ', 00H, 's', 00H
	DB	't', 00H, 'd', 00H, ':', 00H, ':', 00H, '_', 00H, 'T', 00H, 'r'
	DB	00H, 'e', 00H, 'e', 00H, '_', 00H, 'v', 00H, 'a', 00H, 'l', 00H
	DB	'<', 00H, 's', 00H, 't', 00H, 'r', 00H, 'u', 00H, 'c', 00H, 't'
	DB	00H, ' ', 00H, 's', 00H, 't', 00H, 'd', 00H, ':', 00H, ':', 00H
	DB	'_', 00H, 'T', 00H, 'r', 00H, 'e', 00H, 'e', 00H, '_', 00H, 's'
	DB	00H, 'i', 00H, 'm', 00H, 'p', 00H, 'l', 00H, 'e', 00H, '_', 00H
	DB	't', 00H, 'y', 00H, 'p', 00H, 'e', 00H, 's', 00H, '<', 00H, 's'
	DB	00H, 't', 00H, 'r', 00H, 'u', 00H, 'c', 00H, 't', 00H, ' ', 00H
	DB	's', 00H, 't', 00H, 'd', 00H, ':', 00H, ':', 00H, 'p', 00H, 'a'
	DB	00H, 'i', 00H, 'r', 00H, '<', 00H, 'e', 00H, 'n', 00H, 'u', 00H
	DB	'm', 00H, ' ', 00H, 'S', 00H, 'D', 00H, 'L', 00H, '_', 00H, 'S'
	DB	00H, 'c', 00H, 'a', 00H, 'n', 00H, 'c', 00H, 'o', 00H, 'd', 00H
	DB	'e', 00H, ' ', 00H, 'c', 00H, 'o', 00H, 'n', 00H, 's', 00H, 't'
	DB	00H, ' ', 00H, ',', 00H, 'b', 00H, 'o', 00H, 'o', 00H, 'l', 00H
	DB	'>', 00H, ' ', 00H, '>', 00H, ' ', 00H, '>', 00H, ' ', 00H, '>'
	DB	00H, ':', 00H, ':', 00H, 'o', 00H, 'p', 00H, 'e', 00H, 'r', 00H
	DB	'a', 00H, 't', 00H, 'o', 00H, 'r', 00H, ' ', 00H, '=', 00H, '='
	DB	00H, 00H, 00H				; `string'
CONST	ENDS
;	COMDAT ??_C@_15GANGMFKL@?$AA?$CF?$AAs?$AA?$AA@
CONST	SEGMENT
??_C@_15GANGMFKL@?$AA?$CF?$AAs?$AA?$AA@ DB '%', 00H, 's', 00H, 00H, 00H ; `string'
CONST	ENDS
;	COMDAT ??_C@_1FO@GJIHNDLM@?$AA?$CC?$AAS?$AAt?$AAa?$AAn?$AAd?$AAa?$AAr?$AAd?$AA?5?$AAC?$AA?$CL?$AA?$CL?$AA?5?$AAL?$AAi?$AAb?$AAr?$AAa?$AAr?$AAi?$AAe?$AAs?$AA?5?$AAI?$AAn?$AAv?$AAa?$AAl?$AAi?$AAd?$AA?5@
CONST	SEGMENT
??_C@_1FO@GJIHNDLM@?$AA?$CC?$AAS?$AAt?$AAa?$AAn?$AAd?$AAa?$AAr?$AAd?$AA?5?$AAC?$AA?$CL?$AA?$CL?$AA?5?$AAL?$AAi?$AAb?$AAr?$AAa?$AAr?$AAi?$AAe?$AAs?$AA?5?$AAI?$AAn?$AAv?$AAa?$AAl?$AAi?$AAd?$AA?5@ DB '"'
	DB	00H, 'S', 00H, 't', 00H, 'a', 00H, 'n', 00H, 'd', 00H, 'a', 00H
	DB	'r', 00H, 'd', 00H, ' ', 00H, 'C', 00H, '+', 00H, '+', 00H, ' '
	DB	00H, 'L', 00H, 'i', 00H, 'b', 00H, 'r', 00H, 'a', 00H, 'r', 00H
	DB	'i', 00H, 'e', 00H, 's', 00H, ' ', 00H, 'I', 00H, 'n', 00H, 'v'
	DB	00H, 'a', 00H, 'l', 00H, 'i', 00H, 'd', 00H, ' ', 00H, 'A', 00H
	DB	'r', 00H, 'g', 00H, 'u', 00H, 'm', 00H, 'e', 00H, 'n', 00H, 't'
	DB	00H, '"', 00H, ' ', 00H, '&', 00H, '&', 00H, ' ', 00H, '0', 00H
	DB	00H, 00H					; `string'
CONST	ENDS
;	COMDAT ??_C@_0CI@FNPHFCCM@Standard?5C?$CL?$CL?5Libraries?5Invalid?5A@
CONST	SEGMENT
??_C@_0CI@FNPHFCCM@Standard?5C?$CL?$CL?5Libraries?5Invalid?5A@ DB 'Standa'
	DB	'rd C++ Libraries Invalid Argument', 00H	; `string'
CONST	ENDS
;	COMDAT ??_C@_1DO@CFEEPGGJ@?$AAm?$AAa?$AAp?$AA?1?$AAs?$AAe?$AAt?$AA?5?$AAi?$AAt?$AAe?$AAr?$AAa?$AAt?$AAo?$AAr?$AAs?$AA?5?$AAi?$AAn?$AAc?$AAo?$AAm?$AAp?$AAa?$AAt?$AAi?$AAb?$AAl?$AAe?$AA?$AA@
CONST	SEGMENT
??_C@_1DO@CFEEPGGJ@?$AAm?$AAa?$AAp?$AA?1?$AAs?$AAe?$AAt?$AA?5?$AAi?$AAt?$AAe?$AAr?$AAa?$AAt?$AAo?$AAr?$AAs?$AA?5?$AAi?$AAn?$AAc?$AAo?$AAm?$AAp?$AAa?$AAt?$AAi?$AAb?$AAl?$AAe?$AA?$AA@ DB 'm'
	DB	00H, 'a', 00H, 'p', 00H, '/', 00H, 's', 00H, 'e', 00H, 't', 00H
	DB	' ', 00H, 'i', 00H, 't', 00H, 'e', 00H, 'r', 00H, 'a', 00H, 't'
	DB	00H, 'o', 00H, 'r', 00H, 's', 00H, ' ', 00H, 'i', 00H, 'n', 00H
	DB	'c', 00H, 'o', 00H, 'm', 00H, 'p', 00H, 'a', 00H, 't', 00H, 'i'
	DB	00H, 'b', 00H, 'l', 00H, 'e', 00H, 00H, 00H	; `string'
CONST	ENDS
;	COMDAT ??_C@_1IK@HBAODOLH@?$AAc?$AA?3?$AA?2?$AAp?$AAr?$AAo?$AAg?$AAr?$AAa?$AAm?$AA?5?$AAf?$AAi?$AAl?$AAe?$AAs?$AA?5?$AA?$CI?$AAx?$AA8?$AA6?$AA?$CJ?$AA?2?$AAm?$AAi?$AAc?$AAr?$AAo?$AAs?$AAo?$AAf?$AAt@
CONST	SEGMENT
??_C@_1IK@HBAODOLH@?$AAc?$AA?3?$AA?2?$AAp?$AAr?$AAo?$AAg?$AAr?$AAa?$AAm?$AA?5?$AAf?$AAi?$AAl?$AAe?$AAs?$AA?5?$AA?$CI?$AAx?$AA8?$AA6?$AA?$CJ?$AA?2?$AAm?$AAi?$AAc?$AAr?$AAo?$AAs?$AAo?$AAf?$AAt@ DB 'c'
	DB	00H, ':', 00H, '\', 00H, 'p', 00H, 'r', 00H, 'o', 00H, 'g', 00H
	DB	'r', 00H, 'a', 00H, 'm', 00H, ' ', 00H, 'f', 00H, 'i', 00H, 'l'
	DB	00H, 'e', 00H, 's', 00H, ' ', 00H, '(', 00H, 'x', 00H, '8', 00H
	DB	'6', 00H, ')', 00H, '\', 00H, 'm', 00H, 'i', 00H, 'c', 00H, 'r'
	DB	00H, 'o', 00H, 's', 00H, 'o', 00H, 'f', 00H, 't', 00H, ' ', 00H
	DB	'v', 00H, 'i', 00H, 's', 00H, 'u', 00H, 'a', 00H, 'l', 00H, ' '
	DB	00H, 's', 00H, 't', 00H, 'u', 00H, 'd', 00H, 'i', 00H, 'o', 00H
	DB	' ', 00H, '1', 00H, '2', 00H, '.', 00H, '0', 00H, '\', 00H, 'v'
	DB	00H, 'c', 00H, '\', 00H, 'i', 00H, 'n', 00H, 'c', 00H, 'l', 00H
	DB	'u', 00H, 'd', 00H, 'e', 00H, '\', 00H, 'x', 00H, 't', 00H, 'r'
	DB	00H, 'e', 00H, 'e', 00H, 00H, 00H		; `string'
CONST	ENDS
;	COMDAT ??_C@_1DC@POOIKBAO@?$AAI?$AAT?$AAE?$AAR?$AAA?$AAT?$AAO?$AAR?$AA?5?$AAL?$AAI?$AAS?$AAT?$AA?5?$AAC?$AAO?$AAR?$AAR?$AAU?$AAP?$AAT?$AAE?$AAD?$AA?$CB?$AA?$AA@
CONST	SEGMENT
??_C@_1DC@POOIKBAO@?$AAI?$AAT?$AAE?$AAR?$AAA?$AAT?$AAO?$AAR?$AA?5?$AAL?$AAI?$AAS?$AAT?$AA?5?$AAC?$AAO?$AAR?$AAR?$AAU?$AAP?$AAT?$AAE?$AAD?$AA?$CB?$AA?$AA@ DB 'I'
	DB	00H, 'T', 00H, 'E', 00H, 'R', 00H, 'A', 00H, 'T', 00H, 'O', 00H
	DB	'R', 00H, ' ', 00H, 'L', 00H, 'I', 00H, 'S', 00H, 'T', 00H, ' '
	DB	00H, 'C', 00H, 'O', 00H, 'R', 00H, 'R', 00H, 'U', 00H, 'P', 00H
	DB	'T', 00H, 'E', 00H, 'D', 00H, '!', 00H, 00H, 00H ; `string'
CONST	ENDS
;	COMDAT ??_C@_1JA@EKKHPHED@?$AAc?$AA?3?$AA?2?$AAp?$AAr?$AAo?$AAg?$AAr?$AAa?$AAm?$AA?5?$AAf?$AAi?$AAl?$AAe?$AAs?$AA?5?$AA?$CI?$AAx?$AA8?$AA6?$AA?$CJ?$AA?2?$AAm?$AAi?$AAc?$AAr?$AAo?$AAs?$AAo?$AAf?$AAt@
CONST	SEGMENT
??_C@_1JA@EKKHPHED@?$AAc?$AA?3?$AA?2?$AAp?$AAr?$AAo?$AAg?$AAr?$AAa?$AAm?$AA?5?$AAf?$AAi?$AAl?$AAe?$AAs?$AA?5?$AA?$CI?$AAx?$AA8?$AA6?$AA?$CJ?$AA?2?$AAm?$AAi?$AAc?$AAr?$AAo?$AAs?$AAo?$AAf?$AAt@ DB 'c'
	DB	00H, ':', 00H, '\', 00H, 'p', 00H, 'r', 00H, 'o', 00H, 'g', 00H
	DB	'r', 00H, 'a', 00H, 'm', 00H, ' ', 00H, 'f', 00H, 'i', 00H, 'l'
	DB	00H, 'e', 00H, 's', 00H, ' ', 00H, '(', 00H, 'x', 00H, '8', 00H
	DB	'6', 00H, ')', 00H, '\', 00H, 'm', 00H, 'i', 00H, 'c', 00H, 'r'
	DB	00H, 'o', 00H, 's', 00H, 'o', 00H, 'f', 00H, 't', 00H, ' ', 00H
	DB	'v', 00H, 'i', 00H, 's', 00H, 'u', 00H, 'a', 00H, 'l', 00H, ' '
	DB	00H, 's', 00H, 't', 00H, 'u', 00H, 'd', 00H, 'i', 00H, 'o', 00H
	DB	' ', 00H, '1', 00H, '2', 00H, '.', 00H, '0', 00H, '\', 00H, 'v'
	DB	00H, 'c', 00H, '\', 00H, 'i', 00H, 'n', 00H, 'c', 00H, 'l', 00H
	DB	'u', 00H, 'd', 00H, 'e', 00H, '\', 00H, 'x', 00H, 'u', 00H, 't'
	DB	00H, 'i', 00H, 'l', 00H, 'i', 00H, 't', 00H, 'y', 00H, 00H, 00H ; `string'
CONST	ENDS
;	COMDAT xdata$x
xdata$x	SEGMENT
__unwindtable$??$construct@PAU?$_Tree_node@U?$pair@$$CBW4SDL_Scancode@@_N@std@@PAX@std@@AAPAU12@@?$allocator@U?$_Tree_node@U?$pair@$$CBW4SDL_Scancode@@_N@std@@PAX@std@@@std@@QAEXPAPAU?$_Tree_node@U?$pair@$$CBW4SDL_Scancode@@_N@std@@PAX@1@AAPAU21@@Z DD 0ffffffffH
	DD	FLAT:__unwindfunclet$??$construct@PAU?$_Tree_node@U?$pair@$$CBW4SDL_Scancode@@_N@std@@PAX@std@@AAPAU12@@?$allocator@U?$_Tree_node@U?$pair@$$CBW4SDL_Scancode@@_N@std@@PAX@std@@@std@@QAEXPAPAU?$_Tree_node@U?$pair@$$CBW4SDL_Scancode@@_N@std@@PAX@1@AAPAU21@@Z$0
__ehfuncinfo$??$construct@PAU?$_Tree_node@U?$pair@$$CBW4SDL_Scancode@@_N@std@@PAX@std@@AAPAU12@@?$allocator@U?$_Tree_node@U?$pair@$$CBW4SDL_Scancode@@_N@std@@PAX@std@@@std@@QAEXPAPAU?$_Tree_node@U?$pair@$$CBW4SDL_Scancode@@_N@std@@PAX@1@AAPAU21@@Z DD 019930522H
	DD	01H
	DD	FLAT:__unwindtable$??$construct@PAU?$_Tree_node@U?$pair@$$CBW4SDL_Scancode@@_N@std@@PAX@std@@AAPAU12@@?$allocator@U?$_Tree_node@U?$pair@$$CBW4SDL_Scancode@@_N@std@@PAX@std@@@std@@QAEXPAPAU?$_Tree_node@U?$pair@$$CBW4SDL_Scancode@@_N@std@@PAX@1@AAPAU21@@Z
	DD	2 DUP(00H)
	DD	2 DUP(00H)
	DD	00H
	DD	01H
xdata$x	ENDS
;	COMDAT xdata$x
xdata$x	SEGMENT
__unwindtable$??$construct@U?$pair@$$CBW4SDL_Scancode@@_N@std@@ABUpiecewise_construct_t@2@V?$tuple@ABW4SDL_Scancode@@@2@V?$tuple@$$$V@2@@?$allocator@U?$_Tree_node@U?$pair@$$CBW4SDL_Scancode@@_N@std@@PAX@std@@@std@@QAEXPAU?$pair@$$CBW4SDL_Scancode@@_N@1@ABUpiecewise_construct_t@1@$$QAV?$tuple@ABW4SDL_Scancode@@@1@$$QAV?$tuple@$$$V@1@@Z DD 0ffffffffH
	DD	FLAT:__unwindfunclet$??$construct@U?$pair@$$CBW4SDL_Scancode@@_N@std@@ABUpiecewise_construct_t@2@V?$tuple@ABW4SDL_Scancode@@@2@V?$tuple@$$$V@2@@?$allocator@U?$_Tree_node@U?$pair@$$CBW4SDL_Scancode@@_N@std@@PAX@std@@@std@@QAEXPAU?$pair@$$CBW4SDL_Scancode@@_N@1@ABUpiecewise_construct_t@1@$$QAV?$tuple@ABW4SDL_Scancode@@@1@$$QAV?$tuple@$$$V@1@@Z$0
__ehfuncinfo$??$construct@U?$pair@$$CBW4SDL_Scancode@@_N@std@@ABUpiecewise_construct_t@2@V?$tuple@ABW4SDL_Scancode@@@2@V?$tuple@$$$V@2@@?$allocator@U?$_Tree_node@U?$pair@$$CBW4SDL_Scancode@@_N@std@@PAX@std@@@std@@QAEXPAU?$pair@$$CBW4SDL_Scancode@@_N@1@ABUpiecewise_construct_t@1@$$QAV?$tuple@ABW4SDL_Scancode@@@1@$$QAV?$tuple@$$$V@1@@Z DD 019930522H
	DD	01H
	DD	FLAT:__unwindtable$??$construct@U?$pair@$$CBW4SDL_Scancode@@_N@std@@ABUpiecewise_construct_t@2@V?$tuple@ABW4SDL_Scancode@@@2@V?$tuple@$$$V@2@@?$allocator@U?$_Tree_node@U?$pair@$$CBW4SDL_Scancode@@_N@std@@PAX@std@@@std@@QAEXPAU?$pair@$$CBW4SDL_Scancode@@_N@1@ABUpiecewise_construct_t@1@$$QAV?$tuple@ABW4SDL_Scancode@@@1@$$QAV?$tuple@$$$V@1@@Z
	DD	2 DUP(00H)
	DD	2 DUP(00H)
	DD	00H
	DD	01H
xdata$x	ENDS
;	COMDAT xdata$x
xdata$x	SEGMENT
__unwindtable$??$?0AAV?$_Tree_iterator@V?$_Tree_val@U?$_Tree_simple_types@U?$pair@$$CBW4SDL_Scancode@@_N@std@@@std@@@std@@@std@@_NX@?$pair@V?$_Tree_iterator@V?$_Tree_val@U?$_Tree_simple_types@U?$pair@$$CBW4SDL_Scancode@@_N@std@@@std@@@std@@@std@@_N@std@@QAE@AAV?$_Tree_iterator@V?$_Tree_val@U?$_Tree_simple_types@U?$pair@$$CBW4SDL_Scancode@@_N@std@@@std@@@std@@@1@$$QA_N@Z DD 0ffffffffH
	DD	FLAT:__unwindfunclet$??$?0AAV?$_Tree_iterator@V?$_Tree_val@U?$_Tree_simple_types@U?$pair@$$CBW4SDL_Scancode@@_N@std@@@std@@@std@@@std@@_NX@?$pair@V?$_Tree_iterator@V?$_Tree_val@U?$_Tree_simple_types@U?$pair@$$CBW4SDL_Scancode@@_N@std@@@std@@@std@@@std@@_N@std@@QAE@AAV?$_Tree_iterator@V?$_Tree_val@U?$_Tree_simple_types@U?$pair@$$CBW4SDL_Scancode@@_N@std@@@std@@@std@@@1@$$QA_N@Z$0
__ehfuncinfo$??$?0AAV?$_Tree_iterator@V?$_Tree_val@U?$_Tree_simple_types@U?$pair@$$CBW4SDL_Scancode@@_N@std@@@std@@@std@@@std@@_NX@?$pair@V?$_Tree_iterator@V?$_Tree_val@U?$_Tree_simple_types@U?$pair@$$CBW4SDL_Scancode@@_N@std@@@std@@@std@@@std@@_N@std@@QAE@AAV?$_Tree_iterator@V?$_Tree_val@U?$_Tree_simple_types@U?$pair@$$CBW4SDL_Scancode@@_N@std@@@std@@@std@@@1@$$QA_N@Z DD 019930522H
	DD	01H
	DD	FLAT:__unwindtable$??$?0AAV?$_Tree_iterator@V?$_Tree_val@U?$_Tree_simple_types@U?$pair@$$CBW4SDL_Scancode@@_N@std@@@std@@@std@@@std@@_NX@?$pair@V?$_Tree_iterator@V?$_Tree_val@U?$_Tree_simple_types@U?$pair@$$CBW4SDL_Scancode@@_N@std@@@std@@@std@@@std@@_N@std@@QAE@AAV?$_Tree_iterator@V?$_Tree_val@U?$_Tree_simple_types@U?$pair@$$CBW4SDL_Scancode@@_N@std@@@std@@@std@@@1@$$QA_N@Z
	DD	2 DUP(00H)
	DD	2 DUP(00H)
	DD	00H
	DD	01H
xdata$x	ENDS
;	COMDAT xdata$x
xdata$x	SEGMENT
__unwindtable$??$?0V?$_Tree_iterator@V?$_Tree_val@U?$_Tree_simple_types@U?$pair@$$CBW4SDL_Scancode@@_N@std@@@std@@@std@@@std@@_NX@?$pair@V?$_Tree_iterator@V?$_Tree_val@U?$_Tree_simple_types@U?$pair@$$CBW4SDL_Scancode@@_N@std@@@std@@@std@@@std@@_N@std@@QAE@$$QAV?$_Tree_iterator@V?$_Tree_val@U?$_Tree_simple_types@U?$pair@$$CBW4SDL_Scancode@@_N@std@@@std@@@std@@@1@$$QA_N@Z DD 0ffffffffH
	DD	FLAT:__unwindfunclet$??$?0V?$_Tree_iterator@V?$_Tree_val@U?$_Tree_simple_types@U?$pair@$$CBW4SDL_Scancode@@_N@std@@@std@@@std@@@std@@_NX@?$pair@V?$_Tree_iterator@V?$_Tree_val@U?$_Tree_simple_types@U?$pair@$$CBW4SDL_Scancode@@_N@std@@@std@@@std@@@std@@_N@std@@QAE@$$QAV?$_Tree_iterator@V?$_Tree_val@U?$_Tree_simple_types@U?$pair@$$CBW4SDL_Scancode@@_N@std@@@std@@@std@@@1@$$QA_N@Z$0
__ehfuncinfo$??$?0V?$_Tree_iterator@V?$_Tree_val@U?$_Tree_simple_types@U?$pair@$$CBW4SDL_Scancode@@_N@std@@@std@@@std@@@std@@_NX@?$pair@V?$_Tree_iterator@V?$_Tree_val@U?$_Tree_simple_types@U?$pair@$$CBW4SDL_Scancode@@_N@std@@@std@@@std@@@std@@_N@std@@QAE@$$QAV?$_Tree_iterator@V?$_Tree_val@U?$_Tree_simple_types@U?$pair@$$CBW4SDL_Scancode@@_N@std@@@std@@@std@@@1@$$QA_N@Z DD 019930522H
	DD	01H
	DD	FLAT:__unwindtable$??$?0V?$_Tree_iterator@V?$_Tree_val@U?$_Tree_simple_types@U?$pair@$$CBW4SDL_Scancode@@_N@std@@@std@@@std@@@std@@_NX@?$pair@V?$_Tree_iterator@V?$_Tree_val@U?$_Tree_simple_types@U?$pair@$$CBW4SDL_Scancode@@_N@std@@@std@@@std@@@std@@_N@std@@QAE@$$QAV?$_Tree_iterator@V?$_Tree_val@U?$_Tree_simple_types@U?$pair@$$CBW4SDL_Scancode@@_N@std@@@std@@@std@@@1@$$QA_N@Z
	DD	2 DUP(00H)
	DD	2 DUP(00H)
	DD	00H
	DD	01H
xdata$x	ENDS
;	COMDAT xdata$x
xdata$x	SEGMENT
__catchsym$??$_Insert_nohint@AAU?$pair@$$CBW4SDL_Scancode@@_N@std@@PAU?$_Tree_node@U?$pair@$$CBW4SDL_Scancode@@_N@std@@PAX@2@@?$_Tree@V?$_Tmap_traits@W4SDL_Scancode@@_NU?$less@W4SDL_Scancode@@@std@@V?$allocator@U?$pair@$$CBW4SDL_Scancode@@_N@std@@@3@$0A@@std@@@std@@IAE?AU?$pair@V?$_Tree_iterator@V?$_Tree_val@U?$_Tree_simple_types@U?$pair@$$CBW4SDL_Scancode@@_N@std@@@std@@@std@@@std@@_N@1@_NAAU?$pair@$$CBW4SDL_Scancode@@_N@1@PAU?$_Tree_node@U?$pair@$$CBW4SDL_Scancode@@_N@std@@PAX@1@@Z$8 DD 040H
	DD	00H
	DD	00H
	DD	FLAT:__catch$??$_Insert_nohint@AAU?$pair@$$CBW4SDL_Scancode@@_N@std@@PAU?$_Tree_node@U?$pair@$$CBW4SDL_Scancode@@_N@std@@PAX@2@@?$_Tree@V?$_Tmap_traits@W4SDL_Scancode@@_NU?$less@W4SDL_Scancode@@@std@@V?$allocator@U?$pair@$$CBW4SDL_Scancode@@_N@std@@@3@$0A@@std@@@std@@IAE?AU?$pair@V?$_Tree_iterator@V?$_Tree_val@U?$_Tree_simple_types@U?$pair@$$CBW4SDL_Scancode@@_N@std@@@std@@@std@@@std@@_N@1@_NAAU?$pair@$$CBW4SDL_Scancode@@_N@1@PAU?$_Tree_node@U?$pair@$$CBW4SDL_Scancode@@_N@std@@PAX@1@@Z$0
__tryblocktable$??$_Insert_nohint@AAU?$pair@$$CBW4SDL_Scancode@@_N@std@@PAU?$_Tree_node@U?$pair@$$CBW4SDL_Scancode@@_N@std@@PAX@2@@?$_Tree@V?$_Tmap_traits@W4SDL_Scancode@@_NU?$less@W4SDL_Scancode@@@std@@V?$allocator@U?$pair@$$CBW4SDL_Scancode@@_N@std@@@3@$0A@@std@@@std@@IAE?AU?$pair@V?$_Tree_iterator@V?$_Tree_val@U?$_Tree_simple_types@U?$pair@$$CBW4SDL_Scancode@@_N@std@@@std@@@std@@@std@@_N@1@_NAAU?$pair@$$CBW4SDL_Scancode@@_N@1@PAU?$_Tree_node@U?$pair@$$CBW4SDL_Scancode@@_N@std@@PAX@1@@Z DD 00H
	DD	05H
	DD	06H
	DD	01H
	DD	FLAT:__catchsym$??$_Insert_nohint@AAU?$pair@$$CBW4SDL_Scancode@@_N@std@@PAU?$_Tree_node@U?$pair@$$CBW4SDL_Scancode@@_N@std@@PAX@2@@?$_Tree@V?$_Tmap_traits@W4SDL_Scancode@@_NU?$less@W4SDL_Scancode@@@std@@V?$allocator@U?$pair@$$CBW4SDL_Scancode@@_N@std@@@3@$0A@@std@@@std@@IAE?AU?$pair@V?$_Tree_iterator@V?$_Tree_val@U?$_Tree_simple_types@U?$pair@$$CBW4SDL_Scancode@@_N@std@@@std@@@std@@@std@@_N@1@_NAAU?$pair@$$CBW4SDL_Scancode@@_N@1@PAU?$_Tree_node@U?$pair@$$CBW4SDL_Scancode@@_N@std@@PAX@1@@Z$8
__ehfuncinfo$??$_Insert_nohint@AAU?$pair@$$CBW4SDL_Scancode@@_N@std@@PAU?$_Tree_node@U?$pair@$$CBW4SDL_Scancode@@_N@std@@PAX@2@@?$_Tree@V?$_Tmap_traits@W4SDL_Scancode@@_NU?$less@W4SDL_Scancode@@@std@@V?$allocator@U?$pair@$$CBW4SDL_Scancode@@_N@std@@@3@$0A@@std@@@std@@IAE?AU?$pair@V?$_Tree_iterator@V?$_Tree_val@U?$_Tree_simple_types@U?$pair@$$CBW4SDL_Scancode@@_N@std@@@std@@@std@@@std@@_N@1@_NAAU?$pair@$$CBW4SDL_Scancode@@_N@1@PAU?$_Tree_node@U?$pair@$$CBW4SDL_Scancode@@_N@std@@PAX@1@@Z DD 019930522H
	DD	07H
	DD	FLAT:__unwindtable$??$_Insert_nohint@AAU?$pair@$$CBW4SDL_Scancode@@_N@std@@PAU?$_Tree_node@U?$pair@$$CBW4SDL_Scancode@@_N@std@@PAX@2@@?$_Tree@V?$_Tmap_traits@W4SDL_Scancode@@_NU?$less@W4SDL_Scancode@@@std@@V?$allocator@U?$pair@$$CBW4SDL_Scancode@@_N@std@@@3@$0A@@std@@@std@@IAE?AU?$pair@V?$_Tree_iterator@V?$_Tree_val@U?$_Tree_simple_types@U?$pair@$$CBW4SDL_Scancode@@_N@std@@@std@@@std@@@std@@_N@1@_NAAU?$pair@$$CBW4SDL_Scancode@@_N@1@PAU?$_Tree_node@U?$pair@$$CBW4SDL_Scancode@@_N@std@@PAX@1@@Z
	DD	01H
	DD	FLAT:__tryblocktable$??$_Insert_nohint@AAU?$pair@$$CBW4SDL_Scancode@@_N@std@@PAU?$_Tree_node@U?$pair@$$CBW4SDL_Scancode@@_N@std@@PAX@2@@?$_Tree@V?$_Tmap_traits@W4SDL_Scancode@@_NU?$less@W4SDL_Scancode@@@std@@V?$allocator@U?$pair@$$CBW4SDL_Scancode@@_N@std@@@3@$0A@@std@@@std@@IAE?AU?$pair@V?$_Tree_iterator@V?$_Tree_val@U?$_Tree_simple_types@U?$pair@$$CBW4SDL_Scancode@@_N@std@@@std@@@std@@@std@@_N@1@_NAAU?$pair@$$CBW4SDL_Scancode@@_N@1@PAU?$_Tree_node@U?$pair@$$CBW4SDL_Scancode@@_N@std@@PAX@1@@Z
	DD	2 DUP(00H)
	DD	00H
	DD	01H
__unwindtable$??$_Insert_nohint@AAU?$pair@$$CBW4SDL_Scancode@@_N@std@@PAU?$_Tree_node@U?$pair@$$CBW4SDL_Scancode@@_N@std@@PAX@2@@?$_Tree@V?$_Tmap_traits@W4SDL_Scancode@@_NU?$less@W4SDL_Scancode@@@std@@V?$allocator@U?$pair@$$CBW4SDL_Scancode@@_N@std@@@3@$0A@@std@@@std@@IAE?AU?$pair@V?$_Tree_iterator@V?$_Tree_val@U?$_Tree_simple_types@U?$pair@$$CBW4SDL_Scancode@@_N@std@@@std@@@std@@@std@@_N@1@_NAAU?$pair@$$CBW4SDL_Scancode@@_N@1@PAU?$_Tree_node@U?$pair@$$CBW4SDL_Scancode@@_N@std@@PAX@1@@Z DD 0ffffffffH
	DD	00H
	DD	00H
	DD	FLAT:__unwindfunclet$??$_Insert_nohint@AAU?$pair@$$CBW4SDL_Scancode@@_N@std@@PAU?$_Tree_node@U?$pair@$$CBW4SDL_Scancode@@_N@std@@PAX@2@@?$_Tree@V?$_Tmap_traits@W4SDL_Scancode@@_NU?$less@W4SDL_Scancode@@@std@@V?$allocator@U?$pair@$$CBW4SDL_Scancode@@_N@std@@@3@$0A@@std@@@std@@IAE?AU?$pair@V?$_Tree_iterator@V?$_Tree_val@U?$_Tree_simple_types@U?$pair@$$CBW4SDL_Scancode@@_N@std@@@std@@@std@@@std@@_N@1@_NAAU?$pair@$$CBW4SDL_Scancode@@_N@1@PAU?$_Tree_node@U?$pair@$$CBW4SDL_Scancode@@_N@std@@PAX@1@@Z$2
	DD	00H
	DD	FLAT:__unwindfunclet$??$_Insert_nohint@AAU?$pair@$$CBW4SDL_Scancode@@_N@std@@PAU?$_Tree_node@U?$pair@$$CBW4SDL_Scancode@@_N@std@@PAX@2@@?$_Tree@V?$_Tmap_traits@W4SDL_Scancode@@_NU?$less@W4SDL_Scancode@@@std@@V?$allocator@U?$pair@$$CBW4SDL_Scancode@@_N@std@@@3@$0A@@std@@@std@@IAE?AU?$pair@V?$_Tree_iterator@V?$_Tree_val@U?$_Tree_simple_types@U?$pair@$$CBW4SDL_Scancode@@_N@std@@@std@@@std@@@std@@_N@1@_NAAU?$pair@$$CBW4SDL_Scancode@@_N@1@PAU?$_Tree_node@U?$pair@$$CBW4SDL_Scancode@@_N@std@@PAX@1@@Z$4
	DD	02H
	DD	FLAT:__unwindfunclet$??$_Insert_nohint@AAU?$pair@$$CBW4SDL_Scancode@@_N@std@@PAU?$_Tree_node@U?$pair@$$CBW4SDL_Scancode@@_N@std@@PAX@2@@?$_Tree@V?$_Tmap_traits@W4SDL_Scancode@@_NU?$less@W4SDL_Scancode@@@std@@V?$allocator@U?$pair@$$CBW4SDL_Scancode@@_N@std@@@3@$0A@@std@@@std@@IAE?AU?$pair@V?$_Tree_iterator@V?$_Tree_val@U?$_Tree_simple_types@U?$pair@$$CBW4SDL_Scancode@@_N@std@@@std@@@std@@@std@@_N@1@_NAAU?$pair@$$CBW4SDL_Scancode@@_N@1@PAU?$_Tree_node@U?$pair@$$CBW4SDL_Scancode@@_N@std@@PAX@1@@Z$5
	DD	02H
	DD	FLAT:__unwindfunclet$??$_Insert_nohint@AAU?$pair@$$CBW4SDL_Scancode@@_N@std@@PAU?$_Tree_node@U?$pair@$$CBW4SDL_Scancode@@_N@std@@PAX@2@@?$_Tree@V?$_Tmap_traits@W4SDL_Scancode@@_NU?$less@W4SDL_Scancode@@@std@@V?$allocator@U?$pair@$$CBW4SDL_Scancode@@_N@std@@@3@$0A@@std@@@std@@IAE?AU?$pair@V?$_Tree_iterator@V?$_Tree_val@U?$_Tree_simple_types@U?$pair@$$CBW4SDL_Scancode@@_N@std@@@std@@@std@@@std@@_N@1@_NAAU?$pair@$$CBW4SDL_Scancode@@_N@1@PAU?$_Tree_node@U?$pair@$$CBW4SDL_Scancode@@_N@std@@PAX@1@@Z$6
	DD	02H
	DD	FLAT:__unwindfunclet$??$_Insert_nohint@AAU?$pair@$$CBW4SDL_Scancode@@_N@std@@PAU?$_Tree_node@U?$pair@$$CBW4SDL_Scancode@@_N@std@@PAX@2@@?$_Tree@V?$_Tmap_traits@W4SDL_Scancode@@_NU?$less@W4SDL_Scancode@@@std@@V?$allocator@U?$pair@$$CBW4SDL_Scancode@@_N@std@@@3@$0A@@std@@@std@@IAE?AU?$pair@V?$_Tree_iterator@V?$_Tree_val@U?$_Tree_simple_types@U?$pair@$$CBW4SDL_Scancode@@_N@std@@@std@@@std@@@std@@_N@1@_NAAU?$pair@$$CBW4SDL_Scancode@@_N@1@PAU?$_Tree_node@U?$pair@$$CBW4SDL_Scancode@@_N@std@@PAX@1@@Z$7
	DD	0ffffffffH
	DD	00H
xdata$x	ENDS
;	COMDAT xdata$x
xdata$x	SEGMENT
__catchsym$??$_Insert_hint@AAU?$pair@$$CBW4SDL_Scancode@@_N@std@@PAU?$_Tree_node@U?$pair@$$CBW4SDL_Scancode@@_N@std@@PAX@2@@?$_Tree@V?$_Tmap_traits@W4SDL_Scancode@@_NU?$less@W4SDL_Scancode@@@std@@V?$allocator@U?$pair@$$CBW4SDL_Scancode@@_N@std@@@3@$0A@@std@@@std@@IAE?AV?$_Tree_iterator@V?$_Tree_val@U?$_Tree_simple_types@U?$pair@$$CBW4SDL_Scancode@@_N@std@@@std@@@std@@@1@V?$_Tree_const_iterator@V?$_Tree_val@U?$_Tree_simple_types@U?$pair@$$CBW4SDL_Scancode@@_N@std@@@std@@@std@@@1@AAU?$pair@$$CBW4SDL_Scancode@@_N@1@PAU?$_Tree_node@U?$pair@$$CBW4SDL_Scancode@@_N@std@@PAX@1@@Z$12 DD 040H
	DD	00H
	DD	00H
	DD	FLAT:__catch$??$_Insert_hint@AAU?$pair@$$CBW4SDL_Scancode@@_N@std@@PAU?$_Tree_node@U?$pair@$$CBW4SDL_Scancode@@_N@std@@PAX@2@@?$_Tree@V?$_Tmap_traits@W4SDL_Scancode@@_NU?$less@W4SDL_Scancode@@@std@@V?$allocator@U?$pair@$$CBW4SDL_Scancode@@_N@std@@@3@$0A@@std@@@std@@IAE?AV?$_Tree_iterator@V?$_Tree_val@U?$_Tree_simple_types@U?$pair@$$CBW4SDL_Scancode@@_N@std@@@std@@@std@@@1@V?$_Tree_const_iterator@V?$_Tree_val@U?$_Tree_simple_types@U?$pair@$$CBW4SDL_Scancode@@_N@std@@@std@@@std@@@1@AAU?$pair@$$CBW4SDL_Scancode@@_N@1@PAU?$_Tree_node@U?$pair@$$CBW4SDL_Scancode@@_N@std@@PAX@1@@Z$0
__tryblocktable$??$_Insert_hint@AAU?$pair@$$CBW4SDL_Scancode@@_N@std@@PAU?$_Tree_node@U?$pair@$$CBW4SDL_Scancode@@_N@std@@PAX@2@@?$_Tree@V?$_Tmap_traits@W4SDL_Scancode@@_NU?$less@W4SDL_Scancode@@@std@@V?$allocator@U?$pair@$$CBW4SDL_Scancode@@_N@std@@@3@$0A@@std@@@std@@IAE?AV?$_Tree_iterator@V?$_Tree_val@U?$_Tree_simple_types@U?$pair@$$CBW4SDL_Scancode@@_N@std@@@std@@@std@@@1@V?$_Tree_const_iterator@V?$_Tree_val@U?$_Tree_simple_types@U?$pair@$$CBW4SDL_Scancode@@_N@std@@@std@@@std@@@1@AAU?$pair@$$CBW4SDL_Scancode@@_N@1@PAU?$_Tree_node@U?$pair@$$CBW4SDL_Scancode@@_N@std@@PAX@1@@Z DD 02H
	DD	08H
	DD	09H
	DD	01H
	DD	FLAT:__catchsym$??$_Insert_hint@AAU?$pair@$$CBW4SDL_Scancode@@_N@std@@PAU?$_Tree_node@U?$pair@$$CBW4SDL_Scancode@@_N@std@@PAX@2@@?$_Tree@V?$_Tmap_traits@W4SDL_Scancode@@_NU?$less@W4SDL_Scancode@@@std@@V?$allocator@U?$pair@$$CBW4SDL_Scancode@@_N@std@@@3@$0A@@std@@@std@@IAE?AV?$_Tree_iterator@V?$_Tree_val@U?$_Tree_simple_types@U?$pair@$$CBW4SDL_Scancode@@_N@std@@@std@@@std@@@1@V?$_Tree_const_iterator@V?$_Tree_val@U?$_Tree_simple_types@U?$pair@$$CBW4SDL_Scancode@@_N@std@@@std@@@std@@@1@AAU?$pair@$$CBW4SDL_Scancode@@_N@1@PAU?$_Tree_node@U?$pair@$$CBW4SDL_Scancode@@_N@std@@PAX@1@@Z$12
__ehfuncinfo$??$_Insert_hint@AAU?$pair@$$CBW4SDL_Scancode@@_N@std@@PAU?$_Tree_node@U?$pair@$$CBW4SDL_Scancode@@_N@std@@PAX@2@@?$_Tree@V?$_Tmap_traits@W4SDL_Scancode@@_NU?$less@W4SDL_Scancode@@@std@@V?$allocator@U?$pair@$$CBW4SDL_Scancode@@_N@std@@@3@$0A@@std@@@std@@IAE?AV?$_Tree_iterator@V?$_Tree_val@U?$_Tree_simple_types@U?$pair@$$CBW4SDL_Scancode@@_N@std@@@std@@@std@@@1@V?$_Tree_const_iterator@V?$_Tree_val@U?$_Tree_simple_types@U?$pair@$$CBW4SDL_Scancode@@_N@std@@@std@@@std@@@1@AAU?$pair@$$CBW4SDL_Scancode@@_N@1@PAU?$_Tree_node@U?$pair@$$CBW4SDL_Scancode@@_N@std@@PAX@1@@Z DD 019930522H
	DD	0bH
	DD	FLAT:__unwindtable$??$_Insert_hint@AAU?$pair@$$CBW4SDL_Scancode@@_N@std@@PAU?$_Tree_node@U?$pair@$$CBW4SDL_Scancode@@_N@std@@PAX@2@@?$_Tree@V?$_Tmap_traits@W4SDL_Scancode@@_NU?$less@W4SDL_Scancode@@@std@@V?$allocator@U?$pair@$$CBW4SDL_Scancode@@_N@std@@@3@$0A@@std@@@std@@IAE?AV?$_Tree_iterator@V?$_Tree_val@U?$_Tree_simple_types@U?$pair@$$CBW4SDL_Scancode@@_N@std@@@std@@@std@@@1@V?$_Tree_const_iterator@V?$_Tree_val@U?$_Tree_simple_types@U?$pair@$$CBW4SDL_Scancode@@_N@std@@@std@@@std@@@1@AAU?$pair@$$CBW4SDL_Scancode@@_N@1@PAU?$_Tree_node@U?$pair@$$CBW4SDL_Scancode@@_N@std@@PAX@1@@Z
	DD	01H
	DD	FLAT:__tryblocktable$??$_Insert_hint@AAU?$pair@$$CBW4SDL_Scancode@@_N@std@@PAU?$_Tree_node@U?$pair@$$CBW4SDL_Scancode@@_N@std@@PAX@2@@?$_Tree@V?$_Tmap_traits@W4SDL_Scancode@@_NU?$less@W4SDL_Scancode@@@std@@V?$allocator@U?$pair@$$CBW4SDL_Scancode@@_N@std@@@3@$0A@@std@@@std@@IAE?AV?$_Tree_iterator@V?$_Tree_val@U?$_Tree_simple_types@U?$pair@$$CBW4SDL_Scancode@@_N@std@@@std@@@std@@@1@V?$_Tree_const_iterator@V?$_Tree_val@U?$_Tree_simple_types@U?$pair@$$CBW4SDL_Scancode@@_N@std@@@std@@@std@@@1@AAU?$pair@$$CBW4SDL_Scancode@@_N@1@PAU?$_Tree_node@U?$pair@$$CBW4SDL_Scancode@@_N@std@@PAX@1@@Z
	DD	2 DUP(00H)
	DD	00H
	DD	01H
__unwindtable$??$_Insert_hint@AAU?$pair@$$CBW4SDL_Scancode@@_N@std@@PAU?$_Tree_node@U?$pair@$$CBW4SDL_Scancode@@_N@std@@PAX@2@@?$_Tree@V?$_Tmap_traits@W4SDL_Scancode@@_NU?$less@W4SDL_Scancode@@@std@@V?$allocator@U?$pair@$$CBW4SDL_Scancode@@_N@std@@@3@$0A@@std@@@std@@IAE?AV?$_Tree_iterator@V?$_Tree_val@U?$_Tree_simple_types@U?$pair@$$CBW4SDL_Scancode@@_N@std@@@std@@@std@@@1@V?$_Tree_const_iterator@V?$_Tree_val@U?$_Tree_simple_types@U?$pair@$$CBW4SDL_Scancode@@_N@std@@@std@@@std@@@1@AAU?$pair@$$CBW4SDL_Scancode@@_N@1@PAU?$_Tree_node@U?$pair@$$CBW4SDL_Scancode@@_N@std@@PAX@1@@Z DD 0ffffffffH
	DD	FLAT:__unwindfunclet$??$_Insert_hint@AAU?$pair@$$CBW4SDL_Scancode@@_N@std@@PAU?$_Tree_node@U?$pair@$$CBW4SDL_Scancode@@_N@std@@PAX@2@@?$_Tree@V?$_Tmap_traits@W4SDL_Scancode@@_NU?$less@W4SDL_Scancode@@@std@@V?$allocator@U?$pair@$$CBW4SDL_Scancode@@_N@std@@@3@$0A@@std@@@std@@IAE?AV?$_Tree_iterator@V?$_Tree_val@U?$_Tree_simple_types@U?$pair@$$CBW4SDL_Scancode@@_N@std@@@std@@@std@@@1@V?$_Tree_const_iterator@V?$_Tree_val@U?$_Tree_simple_types@U?$pair@$$CBW4SDL_Scancode@@_N@std@@@std@@@std@@@1@AAU?$pair@$$CBW4SDL_Scancode@@_N@1@PAU?$_Tree_node@U?$pair@$$CBW4SDL_Scancode@@_N@std@@PAX@1@@Z$2
	DD	00H
	DD	FLAT:__unwindfunclet$??$_Insert_hint@AAU?$pair@$$CBW4SDL_Scancode@@_N@std@@PAU?$_Tree_node@U?$pair@$$CBW4SDL_Scancode@@_N@std@@PAX@2@@?$_Tree@V?$_Tmap_traits@W4SDL_Scancode@@_NU?$less@W4SDL_Scancode@@@std@@V?$allocator@U?$pair@$$CBW4SDL_Scancode@@_N@std@@@3@$0A@@std@@@std@@IAE?AV?$_Tree_iterator@V?$_Tree_val@U?$_Tree_simple_types@U?$pair@$$CBW4SDL_Scancode@@_N@std@@@std@@@std@@@1@V?$_Tree_const_iterator@V?$_Tree_val@U?$_Tree_simple_types@U?$pair@$$CBW4SDL_Scancode@@_N@std@@@std@@@std@@@1@AAU?$pair@$$CBW4SDL_Scancode@@_N@1@PAU?$_Tree_node@U?$pair@$$CBW4SDL_Scancode@@_N@std@@PAX@1@@Z$3
	DD	01H
	DD	00H
	DD	02H
	DD	FLAT:__unwindfunclet$??$_Insert_hint@AAU?$pair@$$CBW4SDL_Scancode@@_N@std@@PAU?$_Tree_node@U?$pair@$$CBW4SDL_Scancode@@_N@std@@PAX@2@@?$_Tree@V?$_Tmap_traits@W4SDL_Scancode@@_NU?$less@W4SDL_Scancode@@@std@@V?$allocator@U?$pair@$$CBW4SDL_Scancode@@_N@std@@@3@$0A@@std@@@std@@IAE?AV?$_Tree_iterator@V?$_Tree_val@U?$_Tree_simple_types@U?$pair@$$CBW4SDL_Scancode@@_N@std@@@std@@@std@@@1@V?$_Tree_const_iterator@V?$_Tree_val@U?$_Tree_simple_types@U?$pair@$$CBW4SDL_Scancode@@_N@std@@@std@@@std@@@1@AAU?$pair@$$CBW4SDL_Scancode@@_N@1@PAU?$_Tree_node@U?$pair@$$CBW4SDL_Scancode@@_N@std@@PAX@1@@Z$5
	DD	02H
	DD	FLAT:__unwindfunclet$??$_Insert_hint@AAU?$pair@$$CBW4SDL_Scancode@@_N@std@@PAU?$_Tree_node@U?$pair@$$CBW4SDL_Scancode@@_N@std@@PAX@2@@?$_Tree@V?$_Tmap_traits@W4SDL_Scancode@@_NU?$less@W4SDL_Scancode@@@std@@V?$allocator@U?$pair@$$CBW4SDL_Scancode@@_N@std@@@3@$0A@@std@@@std@@IAE?AV?$_Tree_iterator@V?$_Tree_val@U?$_Tree_simple_types@U?$pair@$$CBW4SDL_Scancode@@_N@std@@@std@@@std@@@1@V?$_Tree_const_iterator@V?$_Tree_val@U?$_Tree_simple_types@U?$pair@$$CBW4SDL_Scancode@@_N@std@@@std@@@std@@@1@AAU?$pair@$$CBW4SDL_Scancode@@_N@1@PAU?$_Tree_node@U?$pair@$$CBW4SDL_Scancode@@_N@std@@PAX@1@@Z$6
	DD	02H
	DD	FLAT:__unwindfunclet$??$_Insert_hint@AAU?$pair@$$CBW4SDL_Scancode@@_N@std@@PAU?$_Tree_node@U?$pair@$$CBW4SDL_Scancode@@_N@std@@PAX@2@@?$_Tree@V?$_Tmap_traits@W4SDL_Scancode@@_NU?$less@W4SDL_Scancode@@@std@@V?$allocator@U?$pair@$$CBW4SDL_Scancode@@_N@std@@@3@$0A@@std@@@std@@IAE?AV?$_Tree_iterator@V?$_Tree_val@U?$_Tree_simple_types@U?$pair@$$CBW4SDL_Scancode@@_N@std@@@std@@@std@@@1@V?$_Tree_const_iterator@V?$_Tree_val@U?$_Tree_simple_types@U?$pair@$$CBW4SDL_Scancode@@_N@std@@@std@@@std@@@1@AAU?$pair@$$CBW4SDL_Scancode@@_N@1@PAU?$_Tree_node@U?$pair@$$CBW4SDL_Scancode@@_N@std@@PAX@1@@Z$7
	DD	02H
	DD	FLAT:__unwindfunclet$??$_Insert_hint@AAU?$pair@$$CBW4SDL_Scancode@@_N@std@@PAU?$_Tree_node@U?$pair@$$CBW4SDL_Scancode@@_N@std@@PAX@2@@?$_Tree@V?$_Tmap_traits@W4SDL_Scancode@@_NU?$less@W4SDL_Scancode@@@std@@V?$allocator@U?$pair@$$CBW4SDL_Scancode@@_N@std@@@3@$0A@@std@@@std@@IAE?AV?$_Tree_iterator@V?$_Tree_val@U?$_Tree_simple_types@U?$pair@$$CBW4SDL_Scancode@@_N@std@@@std@@@std@@@1@V?$_Tree_const_iterator@V?$_Tree_val@U?$_Tree_simple_types@U?$pair@$$CBW4SDL_Scancode@@_N@std@@@std@@@std@@@1@AAU?$pair@$$CBW4SDL_Scancode@@_N@1@PAU?$_Tree_node@U?$pair@$$CBW4SDL_Scancode@@_N@std@@PAX@1@@Z$8
	DD	02H
	DD	FLAT:__unwindfunclet$??$_Insert_hint@AAU?$pair@$$CBW4SDL_Scancode@@_N@std@@PAU?$_Tree_node@U?$pair@$$CBW4SDL_Scancode@@_N@std@@PAX@2@@?$_Tree@V?$_Tmap_traits@W4SDL_Scancode@@_NU?$less@W4SDL_Scancode@@@std@@V?$allocator@U?$pair@$$CBW4SDL_Scancode@@_N@std@@@3@$0A@@std@@@std@@IAE?AV?$_Tree_iterator@V?$_Tree_val@U?$_Tree_simple_types@U?$pair@$$CBW4SDL_Scancode@@_N@std@@@std@@@std@@@1@V?$_Tree_const_iterator@V?$_Tree_val@U?$_Tree_simple_types@U?$pair@$$CBW4SDL_Scancode@@_N@std@@@std@@@std@@@1@AAU?$pair@$$CBW4SDL_Scancode@@_N@1@PAU?$_Tree_node@U?$pair@$$CBW4SDL_Scancode@@_N@std@@PAX@1@@Z$9
	DD	02H
	DD	FLAT:__unwindfunclet$??$_Insert_hint@AAU?$pair@$$CBW4SDL_Scancode@@_N@std@@PAU?$_Tree_node@U?$pair@$$CBW4SDL_Scancode@@_N@std@@PAX@2@@?$_Tree@V?$_Tmap_traits@W4SDL_Scancode@@_NU?$less@W4SDL_Scancode@@@std@@V?$allocator@U?$pair@$$CBW4SDL_Scancode@@_N@std@@@3@$0A@@std@@@std@@IAE?AV?$_Tree_iterator@V?$_Tree_val@U?$_Tree_simple_types@U?$pair@$$CBW4SDL_Scancode@@_N@std@@@std@@@std@@@1@V?$_Tree_const_iterator@V?$_Tree_val@U?$_Tree_simple_types@U?$pair@$$CBW4SDL_Scancode@@_N@std@@@std@@@std@@@1@AAU?$pair@$$CBW4SDL_Scancode@@_N@1@PAU?$_Tree_node@U?$pair@$$CBW4SDL_Scancode@@_N@std@@PAX@1@@Z$10
	DD	01H
	DD	00H
	DD	01H
	DD	FLAT:__unwindfunclet$??$_Insert_hint@AAU?$pair@$$CBW4SDL_Scancode@@_N@std@@PAU?$_Tree_node@U?$pair@$$CBW4SDL_Scancode@@_N@std@@PAX@2@@?$_Tree@V?$_Tmap_traits@W4SDL_Scancode@@_NU?$less@W4SDL_Scancode@@@std@@V?$allocator@U?$pair@$$CBW4SDL_Scancode@@_N@std@@@3@$0A@@std@@@std@@IAE?AV?$_Tree_iterator@V?$_Tree_val@U?$_Tree_simple_types@U?$pair@$$CBW4SDL_Scancode@@_N@std@@@std@@@std@@@1@V?$_Tree_const_iterator@V?$_Tree_val@U?$_Tree_simple_types@U?$pair@$$CBW4SDL_Scancode@@_N@std@@@std@@@std@@@1@AAU?$pair@$$CBW4SDL_Scancode@@_N@1@PAU?$_Tree_node@U?$pair@$$CBW4SDL_Scancode@@_N@std@@PAX@1@@Z$11
xdata$x	ENDS
;	COMDAT xdata$x
xdata$x	SEGMENT
__catchsym$??$_Buynode@ABUpiecewise_construct_t@std@@V?$tuple@ABW4SDL_Scancode@@@2@V?$tuple@$$$V@2@@?$_Tree_buy@U?$pair@$$CBW4SDL_Scancode@@_N@std@@V?$allocator@U?$pair@$$CBW4SDL_Scancode@@_N@std@@@2@@std@@QAEPAU?$_Tree_node@U?$pair@$$CBW4SDL_Scancode@@_N@std@@PAX@1@ABUpiecewise_construct_t@1@$$QAV?$tuple@ABW4SDL_Scancode@@@1@$$QAV?$tuple@$$$V@1@@Z$2 DD 040H
	DD	00H
	DD	00H
	DD	FLAT:__catch$??$_Buynode@ABUpiecewise_construct_t@std@@V?$tuple@ABW4SDL_Scancode@@@2@V?$tuple@$$$V@2@@?$_Tree_buy@U?$pair@$$CBW4SDL_Scancode@@_N@std@@V?$allocator@U?$pair@$$CBW4SDL_Scancode@@_N@std@@@2@@std@@QAEPAU?$_Tree_node@U?$pair@$$CBW4SDL_Scancode@@_N@std@@PAX@1@ABUpiecewise_construct_t@1@$$QAV?$tuple@ABW4SDL_Scancode@@@1@$$QAV?$tuple@$$$V@1@@Z$0
__unwindtable$??$_Buynode@ABUpiecewise_construct_t@std@@V?$tuple@ABW4SDL_Scancode@@@2@V?$tuple@$$$V@2@@?$_Tree_buy@U?$pair@$$CBW4SDL_Scancode@@_N@std@@V?$allocator@U?$pair@$$CBW4SDL_Scancode@@_N@std@@@2@@std@@QAEPAU?$_Tree_node@U?$pair@$$CBW4SDL_Scancode@@_N@std@@PAX@1@ABUpiecewise_construct_t@1@$$QAV?$tuple@ABW4SDL_Scancode@@@1@$$QAV?$tuple@$$$V@1@@Z DD 0ffffffffH
	DD	00H
	DD	0ffffffffH
	DD	00H
__tryblocktable$??$_Buynode@ABUpiecewise_construct_t@std@@V?$tuple@ABW4SDL_Scancode@@@2@V?$tuple@$$$V@2@@?$_Tree_buy@U?$pair@$$CBW4SDL_Scancode@@_N@std@@V?$allocator@U?$pair@$$CBW4SDL_Scancode@@_N@std@@@2@@std@@QAEPAU?$_Tree_node@U?$pair@$$CBW4SDL_Scancode@@_N@std@@PAX@1@ABUpiecewise_construct_t@1@$$QAV?$tuple@ABW4SDL_Scancode@@@1@$$QAV?$tuple@$$$V@1@@Z DD 00H
	DD	00H
	DD	01H
	DD	01H
	DD	FLAT:__catchsym$??$_Buynode@ABUpiecewise_construct_t@std@@V?$tuple@ABW4SDL_Scancode@@@2@V?$tuple@$$$V@2@@?$_Tree_buy@U?$pair@$$CBW4SDL_Scancode@@_N@std@@V?$allocator@U?$pair@$$CBW4SDL_Scancode@@_N@std@@@2@@std@@QAEPAU?$_Tree_node@U?$pair@$$CBW4SDL_Scancode@@_N@std@@PAX@1@ABUpiecewise_construct_t@1@$$QAV?$tuple@ABW4SDL_Scancode@@@1@$$QAV?$tuple@$$$V@1@@Z$2
__ehfuncinfo$??$_Buynode@ABUpiecewise_construct_t@std@@V?$tuple@ABW4SDL_Scancode@@@2@V?$tuple@$$$V@2@@?$_Tree_buy@U?$pair@$$CBW4SDL_Scancode@@_N@std@@V?$allocator@U?$pair@$$CBW4SDL_Scancode@@_N@std@@@2@@std@@QAEPAU?$_Tree_node@U?$pair@$$CBW4SDL_Scancode@@_N@std@@PAX@1@ABUpiecewise_construct_t@1@$$QAV?$tuple@ABW4SDL_Scancode@@@1@$$QAV?$tuple@$$$V@1@@Z DD 019930522H
	DD	02H
	DD	FLAT:__unwindtable$??$_Buynode@ABUpiecewise_construct_t@std@@V?$tuple@ABW4SDL_Scancode@@@2@V?$tuple@$$$V@2@@?$_Tree_buy@U?$pair@$$CBW4SDL_Scancode@@_N@std@@V?$allocator@U?$pair@$$CBW4SDL_Scancode@@_N@std@@@2@@std@@QAEPAU?$_Tree_node@U?$pair@$$CBW4SDL_Scancode@@_N@std@@PAX@1@ABUpiecewise_construct_t@1@$$QAV?$tuple@ABW4SDL_Scancode@@@1@$$QAV?$tuple@$$$V@1@@Z
	DD	01H
	DD	FLAT:__tryblocktable$??$_Buynode@ABUpiecewise_construct_t@std@@V?$tuple@ABW4SDL_Scancode@@@2@V?$tuple@$$$V@2@@?$_Tree_buy@U?$pair@$$CBW4SDL_Scancode@@_N@std@@V?$allocator@U?$pair@$$CBW4SDL_Scancode@@_N@std@@@2@@std@@QAEPAU?$_Tree_node@U?$pair@$$CBW4SDL_Scancode@@_N@std@@PAX@1@ABUpiecewise_construct_t@1@$$QAV?$tuple@ABW4SDL_Scancode@@@1@$$QAV?$tuple@$$$V@1@@Z
	DD	2 DUP(00H)
	DD	00H
	DD	01H
xdata$x	ENDS
;	COMDAT xdata$x
xdata$x	SEGMENT
__unwindtable$??$emplace_hint@ABUpiecewise_construct_t@std@@V?$tuple@ABW4SDL_Scancode@@@2@V?$tuple@$$$V@2@@?$_Tree@V?$_Tmap_traits@W4SDL_Scancode@@_NU?$less@W4SDL_Scancode@@@std@@V?$allocator@U?$pair@$$CBW4SDL_Scancode@@_N@std@@@3@$0A@@std@@@std@@QAE?AV?$_Tree_iterator@V?$_Tree_val@U?$_Tree_simple_types@U?$pair@$$CBW4SDL_Scancode@@_N@std@@@std@@@std@@@1@V?$_Tree_const_iterator@V?$_Tree_val@U?$_Tree_simple_types@U?$pair@$$CBW4SDL_Scancode@@_N@std@@@std@@@std@@@1@ABUpiecewise_construct_t@1@$$QAV?$tuple@ABW4SDL_Scancode@@@1@$$QAV?$tuple@$$$V@1@@Z DD 0ffffffffH
	DD	FLAT:__unwindfunclet$??$emplace_hint@ABUpiecewise_construct_t@std@@V?$tuple@ABW4SDL_Scancode@@@2@V?$tuple@$$$V@2@@?$_Tree@V?$_Tmap_traits@W4SDL_Scancode@@_NU?$less@W4SDL_Scancode@@@std@@V?$allocator@U?$pair@$$CBW4SDL_Scancode@@_N@std@@@3@$0A@@std@@@std@@QAE?AV?$_Tree_iterator@V?$_Tree_val@U?$_Tree_simple_types@U?$pair@$$CBW4SDL_Scancode@@_N@std@@@std@@@std@@@1@V?$_Tree_const_iterator@V?$_Tree_val@U?$_Tree_simple_types@U?$pair@$$CBW4SDL_Scancode@@_N@std@@@std@@@std@@@1@ABUpiecewise_construct_t@1@$$QAV?$tuple@ABW4SDL_Scancode@@@1@$$QAV?$tuple@$$$V@1@@Z$0
__ehfuncinfo$??$emplace_hint@ABUpiecewise_construct_t@std@@V?$tuple@ABW4SDL_Scancode@@@2@V?$tuple@$$$V@2@@?$_Tree@V?$_Tmap_traits@W4SDL_Scancode@@_NU?$less@W4SDL_Scancode@@@std@@V?$allocator@U?$pair@$$CBW4SDL_Scancode@@_N@std@@@3@$0A@@std@@@std@@QAE?AV?$_Tree_iterator@V?$_Tree_val@U?$_Tree_simple_types@U?$pair@$$CBW4SDL_Scancode@@_N@std@@@std@@@std@@@1@V?$_Tree_const_iterator@V?$_Tree_val@U?$_Tree_simple_types@U?$pair@$$CBW4SDL_Scancode@@_N@std@@@std@@@std@@@1@ABUpiecewise_construct_t@1@$$QAV?$tuple@ABW4SDL_Scancode@@@1@$$QAV?$tuple@$$$V@1@@Z DD 019930522H
	DD	01H
	DD	FLAT:__unwindtable$??$emplace_hint@ABUpiecewise_construct_t@std@@V?$tuple@ABW4SDL_Scancode@@@2@V?$tuple@$$$V@2@@?$_Tree@V?$_Tmap_traits@W4SDL_Scancode@@_NU?$less@W4SDL_Scancode@@@std@@V?$allocator@U?$pair@$$CBW4SDL_Scancode@@_N@std@@@3@$0A@@std@@@std@@QAE?AV?$_Tree_iterator@V?$_Tree_val@U?$_Tree_simple_types@U?$pair@$$CBW4SDL_Scancode@@_N@std@@@std@@@std@@@1@V?$_Tree_const_iterator@V?$_Tree_val@U?$_Tree_simple_types@U?$pair@$$CBW4SDL_Scancode@@_N@std@@@std@@@std@@@1@ABUpiecewise_construct_t@1@$$QAV?$tuple@ABW4SDL_Scancode@@@1@$$QAV?$tuple@$$$V@1@@Z
	DD	2 DUP(00H)
	DD	2 DUP(00H)
	DD	00H
	DD	01H
xdata$x	ENDS
;	COMDAT xdata$x
xdata$x	SEGMENT
__unwindtable$??0?$_Tree_unchecked_const_iterator@V?$_Tree_val@U?$_Tree_simple_types@U?$pair@$$CBW4SDL_Scancode@@_N@std@@@std@@@std@@U_Iterator_base12@2@@std@@QAE@PAU?$_Tree_node@U?$pair@$$CBW4SDL_Scancode@@_N@std@@PAX@1@PBV?$_Tree_val@U?$_Tree_simple_types@U?$pair@$$CBW4SDL_Scancode@@_N@std@@@std@@@1@@Z DD 0ffffffffH
	DD	FLAT:__unwindfunclet$??0?$_Tree_unchecked_const_iterator@V?$_Tree_val@U?$_Tree_simple_types@U?$pair@$$CBW4SDL_Scancode@@_N@std@@@std@@@std@@U_Iterator_base12@2@@std@@QAE@PAU?$_Tree_node@U?$pair@$$CBW4SDL_Scancode@@_N@std@@PAX@1@PBV?$_Tree_val@U?$_Tree_simple_types@U?$pair@$$CBW4SDL_Scancode@@_N@std@@@std@@@1@@Z$0
__ehfuncinfo$??0?$_Tree_unchecked_const_iterator@V?$_Tree_val@U?$_Tree_simple_types@U?$pair@$$CBW4SDL_Scancode@@_N@std@@@std@@@std@@U_Iterator_base12@2@@std@@QAE@PAU?$_Tree_node@U?$pair@$$CBW4SDL_Scancode@@_N@std@@PAX@1@PBV?$_Tree_val@U?$_Tree_simple_types@U?$pair@$$CBW4SDL_Scancode@@_N@std@@@std@@@1@@Z DD 019930522H
	DD	01H
	DD	FLAT:__unwindtable$??0?$_Tree_unchecked_const_iterator@V?$_Tree_val@U?$_Tree_simple_types@U?$pair@$$CBW4SDL_Scancode@@_N@std@@@std@@@std@@U_Iterator_base12@2@@std@@QAE@PAU?$_Tree_node@U?$pair@$$CBW4SDL_Scancode@@_N@std@@PAX@1@PBV?$_Tree_val@U?$_Tree_simple_types@U?$pair@$$CBW4SDL_Scancode@@_N@std@@@std@@@1@@Z
	DD	2 DUP(00H)
	DD	2 DUP(00H)
	DD	00H
	DD	01H
xdata$x	ENDS
;	COMDAT xdata$x
xdata$x	SEGMENT
__unwindtable$??A?$map@W4SDL_Scancode@@_NU?$less@W4SDL_Scancode@@@std@@V?$allocator@U?$pair@$$CBW4SDL_Scancode@@_N@std@@@3@@std@@QAEAA_NABW4SDL_Scancode@@@Z DD 0ffffffffH
	DD	FLAT:__unwindfunclet$??A?$map@W4SDL_Scancode@@_NU?$less@W4SDL_Scancode@@@std@@V?$allocator@U?$pair@$$CBW4SDL_Scancode@@_N@std@@@3@@std@@QAEAA_NABW4SDL_Scancode@@@Z$0
	DD	00H
	DD	FLAT:__unwindfunclet$??A?$map@W4SDL_Scancode@@_NU?$less@W4SDL_Scancode@@@std@@V?$allocator@U?$pair@$$CBW4SDL_Scancode@@_N@std@@@3@@std@@QAEAA_NABW4SDL_Scancode@@@Z$1
	DD	00H
	DD	FLAT:__unwindfunclet$??A?$map@W4SDL_Scancode@@_NU?$less@W4SDL_Scancode@@@std@@V?$allocator@U?$pair@$$CBW4SDL_Scancode@@_N@std@@@3@@std@@QAEAA_NABW4SDL_Scancode@@@Z$3
__ehfuncinfo$??A?$map@W4SDL_Scancode@@_NU?$less@W4SDL_Scancode@@@std@@V?$allocator@U?$pair@$$CBW4SDL_Scancode@@_N@std@@@3@@std@@QAEAA_NABW4SDL_Scancode@@@Z DD 019930522H
	DD	03H
	DD	FLAT:__unwindtable$??A?$map@W4SDL_Scancode@@_NU?$less@W4SDL_Scancode@@@std@@V?$allocator@U?$pair@$$CBW4SDL_Scancode@@_N@std@@@3@@std@@QAEAA_NABW4SDL_Scancode@@@Z
	DD	2 DUP(00H)
	DD	2 DUP(00H)
	DD	00H
	DD	01H
xdata$x	ENDS
;	COMDAT xdata$x
xdata$x	SEGMENT
__unwindtable$?_Orphan_ptr@?$_Tree@V?$_Tmap_traits@W4SDL_Scancode@@_NU?$less@W4SDL_Scancode@@@std@@V?$allocator@U?$pair@$$CBW4SDL_Scancode@@_N@std@@@3@$0A@@std@@@std@@IBEXAAV12@PAU?$_Tree_node@U?$pair@$$CBW4SDL_Scancode@@_N@std@@PAX@2@@Z DD 0ffffffffH
	DD	FLAT:__unwindfunclet$?_Orphan_ptr@?$_Tree@V?$_Tmap_traits@W4SDL_Scancode@@_NU?$less@W4SDL_Scancode@@@std@@V?$allocator@U?$pair@$$CBW4SDL_Scancode@@_N@std@@@3@$0A@@std@@@std@@IBEXAAV12@PAU?$_Tree_node@U?$pair@$$CBW4SDL_Scancode@@_N@std@@PAX@2@@Z$0
__ehfuncinfo$?_Orphan_ptr@?$_Tree@V?$_Tmap_traits@W4SDL_Scancode@@_NU?$less@W4SDL_Scancode@@@std@@V?$allocator@U?$pair@$$CBW4SDL_Scancode@@_N@std@@@3@$0A@@std@@@std@@IBEXAAV12@PAU?$_Tree_node@U?$pair@$$CBW4SDL_Scancode@@_N@std@@PAX@2@@Z DD 019930522H
	DD	01H
	DD	FLAT:__unwindtable$?_Orphan_ptr@?$_Tree@V?$_Tmap_traits@W4SDL_Scancode@@_NU?$less@W4SDL_Scancode@@@std@@V?$allocator@U?$pair@$$CBW4SDL_Scancode@@_N@std@@@3@$0A@@std@@@std@@IBEXAAV12@PAU?$_Tree_node@U?$pair@$$CBW4SDL_Scancode@@_N@std@@PAX@2@@Z
	DD	2 DUP(00H)
	DD	2 DUP(00H)
	DD	00H
	DD	01H
xdata$x	ENDS
;	COMDAT xdata$x
xdata$x	SEGMENT
__catchsym$?_Buynode0@?$_Tree_buy@U?$pair@$$CBW4SDL_Scancode@@_N@std@@V?$allocator@U?$pair@$$CBW4SDL_Scancode@@_N@std@@@2@@std@@QAEPAU?$_Tree_node@U?$pair@$$CBW4SDL_Scancode@@_N@std@@PAX@2@XZ$2 DD 040H
	DD	00H
	DD	00H
	DD	FLAT:__catch$?_Buynode0@?$_Tree_buy@U?$pair@$$CBW4SDL_Scancode@@_N@std@@V?$allocator@U?$pair@$$CBW4SDL_Scancode@@_N@std@@@2@@std@@QAEPAU?$_Tree_node@U?$pair@$$CBW4SDL_Scancode@@_N@std@@PAX@2@XZ$0
__unwindtable$?_Buynode0@?$_Tree_buy@U?$pair@$$CBW4SDL_Scancode@@_N@std@@V?$allocator@U?$pair@$$CBW4SDL_Scancode@@_N@std@@@2@@std@@QAEPAU?$_Tree_node@U?$pair@$$CBW4SDL_Scancode@@_N@std@@PAX@2@XZ DD 0ffffffffH
	DD	00H
	DD	0ffffffffH
	DD	00H
__tryblocktable$?_Buynode0@?$_Tree_buy@U?$pair@$$CBW4SDL_Scancode@@_N@std@@V?$allocator@U?$pair@$$CBW4SDL_Scancode@@_N@std@@@2@@std@@QAEPAU?$_Tree_node@U?$pair@$$CBW4SDL_Scancode@@_N@std@@PAX@2@XZ DD 00H
	DD	00H
	DD	01H
	DD	01H
	DD	FLAT:__catchsym$?_Buynode0@?$_Tree_buy@U?$pair@$$CBW4SDL_Scancode@@_N@std@@V?$allocator@U?$pair@$$CBW4SDL_Scancode@@_N@std@@@2@@std@@QAEPAU?$_Tree_node@U?$pair@$$CBW4SDL_Scancode@@_N@std@@PAX@2@XZ$2
__ehfuncinfo$?_Buynode0@?$_Tree_buy@U?$pair@$$CBW4SDL_Scancode@@_N@std@@V?$allocator@U?$pair@$$CBW4SDL_Scancode@@_N@std@@@2@@std@@QAEPAU?$_Tree_node@U?$pair@$$CBW4SDL_Scancode@@_N@std@@PAX@2@XZ DD 019930522H
	DD	02H
	DD	FLAT:__unwindtable$?_Buynode0@?$_Tree_buy@U?$pair@$$CBW4SDL_Scancode@@_N@std@@V?$allocator@U?$pair@$$CBW4SDL_Scancode@@_N@std@@@2@@std@@QAEPAU?$_Tree_node@U?$pair@$$CBW4SDL_Scancode@@_N@std@@PAX@2@XZ
	DD	01H
	DD	FLAT:__tryblocktable$?_Buynode0@?$_Tree_buy@U?$pair@$$CBW4SDL_Scancode@@_N@std@@V?$allocator@U?$pair@$$CBW4SDL_Scancode@@_N@std@@@2@@std@@QAEPAU?$_Tree_node@U?$pair@$$CBW4SDL_Scancode@@_N@std@@PAX@2@XZ
	DD	2 DUP(00H)
	DD	00H
	DD	01H
xdata$x	ENDS
;	COMDAT xdata$x
xdata$x	SEGMENT
__unwindtable$?_Adopt@_Iterator_base12@std@@QAEXPBU_Container_base12@2@@Z DD 0ffffffffH
	DD	FLAT:__unwindfunclet$?_Adopt@_Iterator_base12@std@@QAEXPBU_Container_base12@2@@Z$0
	DD	0ffffffffH
	DD	FLAT:__unwindfunclet$?_Adopt@_Iterator_base12@std@@QAEXPBU_Container_base12@2@@Z$1
__ehfuncinfo$?_Adopt@_Iterator_base12@std@@QAEXPBU_Container_base12@2@@Z DD 019930522H
	DD	02H
	DD	FLAT:__unwindtable$?_Adopt@_Iterator_base12@std@@QAEXPBU_Container_base12@2@@Z
	DD	2 DUP(00H)
	DD	2 DUP(00H)
	DD	00H
	DD	01H
xdata$x	ENDS
;	COMDAT xdata$x
xdata$x	SEGMENT
__unwindtable$??4_Iterator_base12@std@@QAEAAU01@ABU01@@Z DD 0ffffffffH
	DD	FLAT:__unwindfunclet$??4_Iterator_base12@std@@QAEAAU01@ABU01@@Z$0
__ehfuncinfo$??4_Iterator_base12@std@@QAEAAU01@ABU01@@Z DD 019930522H
	DD	01H
	DD	FLAT:__unwindtable$??4_Iterator_base12@std@@QAEAAU01@ABU01@@Z
	DD	2 DUP(00H)
	DD	2 DUP(00H)
	DD	00H
	DD	01H
xdata$x	ENDS
CRT$XCU	SEGMENT
_allocator_arg$initializer$ DD FLAT:??__Eallocator_arg@std@@YAXXZ
CRT$XCU	ENDS
CRT$XCU	SEGMENT
_ignore$initializer$ DD FLAT:??__Eignore@std@@YAXXZ
CRT$XCU	ENDS
CRT$XCU	SEGMENT
__Tuple_alloc$initializer$ DD FLAT:??__E_Tuple_alloc@std@@YAXXZ
CRT$XCU	ENDS
; Function compile flags: /Odtp /RTCsu /ZI
;	COMDAT ??$get@$0A@ABW4SDL_Scancode@@@std@@YAABW4SDL_Scancode@@$$QAV?$tuple@ABW4SDL_Scancode@@@0@@Z
_TEXT	SEGMENT
__Tuple$ = 8						; size = 4
??$get@$0A@ABW4SDL_Scancode@@@std@@YAABW4SDL_Scancode@@$$QAV?$tuple@ABW4SDL_Scancode@@@0@@Z PROC ; std::get<0,enum SDL_Scancode const &>, COMDAT
; File c:\program files (x86)\microsoft visual studio 12.0\vc\include\tuple
; Line 596
  00000	55		 push	 ebp
  00001	8b ec		 mov	 ebp, esp
  00003	81 ec c0 00 00
	00		 sub	 esp, 192		; 000000c0H
  00009	53		 push	 ebx
  0000a	56		 push	 esi
  0000b	57		 push	 edi
  0000c	8d bd 40 ff ff
	ff		 lea	 edi, DWORD PTR [ebp-192]
  00012	b9 30 00 00 00	 mov	 ecx, 48			; 00000030H
  00017	b8 cc cc cc cc	 mov	 eax, -858993460		; ccccccccH
  0001c	f3 ab		 rep stosd
; Line 601
  0001e	8b 45 08	 mov	 eax, DWORD PTR __Tuple$[ebp]
  00021	8b 08		 mov	 ecx, DWORD PTR [eax]
  00023	51		 push	 ecx
  00024	e8 00 00 00 00	 call	 ??$forward@ABW4SDL_Scancode@@@std@@YAABW4SDL_Scancode@@ABW41@@Z ; std::forward<enum SDL_Scancode const &>
  00029	83 c4 04	 add	 esp, 4
; Line 602
  0002c	5f		 pop	 edi
  0002d	5e		 pop	 esi
  0002e	5b		 pop	 ebx
  0002f	81 c4 c0 00 00
	00		 add	 esp, 192		; 000000c0H
  00035	3b ec		 cmp	 ebp, esp
  00037	e8 00 00 00 00	 call	 __RTC_CheckEsp
  0003c	8b e5		 mov	 esp, ebp
  0003e	5d		 pop	 ebp
  0003f	c3		 ret	 0
??$get@$0A@ABW4SDL_Scancode@@@std@@YAABW4SDL_Scancode@@$$QAV?$tuple@ABW4SDL_Scancode@@@0@@Z ENDP ; std::get<0,enum SDL_Scancode const &>
_TEXT	ENDS
; Function compile flags: /Odtp /RTCsu /ZI
;	COMDAT ??$move@AAV?$tuple@ABW4SDL_Scancode@@@std@@@std@@YA$$QAV?$tuple@ABW4SDL_Scancode@@@0@AAV10@@Z
_TEXT	SEGMENT
__Arg$ = 8						; size = 4
??$move@AAV?$tuple@ABW4SDL_Scancode@@@std@@@std@@YA$$QAV?$tuple@ABW4SDL_Scancode@@@0@AAV10@@Z PROC ; std::move<std::tuple<enum SDL_Scancode const &> &>, COMDAT
; File c:\program files (x86)\microsoft visual studio 12.0\vc\include\type_traits
; Line 1519
  00000	55		 push	 ebp
  00001	8b ec		 mov	 ebp, esp
  00003	81 ec c0 00 00
	00		 sub	 esp, 192		; 000000c0H
  00009	53		 push	 ebx
  0000a	56		 push	 esi
  0000b	57		 push	 edi
  0000c	8d bd 40 ff ff
	ff		 lea	 edi, DWORD PTR [ebp-192]
  00012	b9 30 00 00 00	 mov	 ecx, 48			; 00000030H
  00017	b8 cc cc cc cc	 mov	 eax, -858993460		; ccccccccH
  0001c	f3 ab		 rep stosd
; Line 1520
  0001e	8b 45 08	 mov	 eax, DWORD PTR __Arg$[ebp]
; Line 1521
  00021	5f		 pop	 edi
  00022	5e		 pop	 esi
  00023	5b		 pop	 ebx
  00024	8b e5		 mov	 esp, ebp
  00026	5d		 pop	 ebp
  00027	c3		 ret	 0
??$move@AAV?$tuple@ABW4SDL_Scancode@@@std@@@std@@YA$$QAV?$tuple@ABW4SDL_Scancode@@@0@AAV10@@Z ENDP ; std::move<std::tuple<enum SDL_Scancode const &> &>
_TEXT	ENDS
; Function compile flags: /Odtp /RTCsu /ZI
;	COMDAT ??$?0V?$tuple@ABW4SDL_Scancode@@@std@@V?$tuple@$$$V@1@$0A@$S@?$pair@$$CBW4SDL_Scancode@@_N@std@@QAE@AAV?$tuple@ABW4SDL_Scancode@@@1@AAV?$tuple@$$$V@1@U?$_Arg_idx@$0A@@1@U?$_Arg_idx@$S@1@@Z
_TEXT	SEGMENT
_this$ = -8						; size = 4
__Val1$ = 8						; size = 4
__Val2$ = 12						; size = 4
___formal$ = 16						; size = 1
___formal$ = 20						; size = 1
??$?0V?$tuple@ABW4SDL_Scancode@@@std@@V?$tuple@$$$V@1@$0A@$S@?$pair@$$CBW4SDL_Scancode@@_N@std@@QAE@AAV?$tuple@ABW4SDL_Scancode@@@1@AAV?$tuple@$$$V@1@U?$_Arg_idx@$0A@@1@U?$_Arg_idx@$S@1@@Z PROC ; std::pair<enum SDL_Scancode const ,bool>::pair<enum SDL_Scancode const ,bool><std::tuple<enum SDL_Scancode const &>,std::tuple<>,0>, COMDAT
; _this$ = ecx
; File c:\program files (x86)\microsoft visual studio 12.0\vc\include\tuple
; Line 746
  00000	55		 push	 ebp
  00001	8b ec		 mov	 ebp, esp
  00003	81 ec cc 00 00
	00		 sub	 esp, 204		; 000000ccH
  00009	53		 push	 ebx
  0000a	56		 push	 esi
  0000b	57		 push	 edi
  0000c	51		 push	 ecx
  0000d	8d bd 34 ff ff
	ff		 lea	 edi, DWORD PTR [ebp-204]
  00013	b9 33 00 00 00	 mov	 ecx, 51			; 00000033H
  00018	b8 cc cc cc cc	 mov	 eax, -858993460		; ccccccccH
  0001d	f3 ab		 rep stosd
  0001f	59		 pop	 ecx
  00020	89 4d f8	 mov	 DWORD PTR _this$[ebp], ecx
  00023	8b 45 08	 mov	 eax, DWORD PTR __Val1$[ebp]
  00026	50		 push	 eax
  00027	e8 00 00 00 00	 call	 ??$move@AAV?$tuple@ABW4SDL_Scancode@@@std@@@std@@YA$$QAV?$tuple@ABW4SDL_Scancode@@@0@AAV10@@Z ; std::move<std::tuple<enum SDL_Scancode const &> &>
  0002c	83 c4 04	 add	 esp, 4
  0002f	50		 push	 eax
  00030	e8 00 00 00 00	 call	 ??$get@$0A@ABW4SDL_Scancode@@@std@@YAABW4SDL_Scancode@@$$QAV?$tuple@ABW4SDL_Scancode@@@0@@Z ; std::get<0,enum SDL_Scancode const &>
  00035	83 c4 04	 add	 esp, 4
  00038	8b 4d f8	 mov	 ecx, DWORD PTR _this$[ebp]
  0003b	8b 10		 mov	 edx, DWORD PTR [eax]
  0003d	89 11		 mov	 DWORD PTR [ecx], edx
  0003f	8b 45 f8	 mov	 eax, DWORD PTR _this$[ebp]
  00042	c6 40 04 00	 mov	 BYTE PTR [eax+4], 0
; Line 747
  00046	8b 45 f8	 mov	 eax, DWORD PTR _this$[ebp]
  00049	5f		 pop	 edi
  0004a	5e		 pop	 esi
  0004b	5b		 pop	 ebx
  0004c	81 c4 cc 00 00
	00		 add	 esp, 204		; 000000ccH
  00052	3b ec		 cmp	 ebp, esp
  00054	e8 00 00 00 00	 call	 __RTC_CheckEsp
  00059	8b e5		 mov	 esp, ebp
  0005b	5d		 pop	 ebp
  0005c	c2 10 00	 ret	 16			; 00000010H
??$?0V?$tuple@ABW4SDL_Scancode@@@std@@V?$tuple@$$$V@1@$0A@$S@?$pair@$$CBW4SDL_Scancode@@_N@std@@QAE@AAV?$tuple@ABW4SDL_Scancode@@@1@AAV?$tuple@$$$V@1@U?$_Arg_idx@$0A@@1@U?$_Arg_idx@$S@1@@Z ENDP ; std::pair<enum SDL_Scancode const ,bool>::pair<enum SDL_Scancode const ,bool><std::tuple<enum SDL_Scancode const &>,std::tuple<>,0>
_TEXT	ENDS
; Function compile flags: /Odtp /RTCsu /ZI
;	COMDAT ??$?0ABW4SDL_Scancode@@$$$V@?$pair@$$CBW4SDL_Scancode@@_N@std@@QAE@Upiecewise_construct_t@1@V?$tuple@ABW4SDL_Scancode@@@1@V?$tuple@$$$V@1@@Z
_TEXT	SEGMENT
$T1 = -221						; size = 1
$T2 = -209						; size = 1
_this$ = -8						; size = 4
___formal$ = 8						; size = 1
__Val1$ = 12						; size = 4
__Val2$ = 16						; size = 1
??$?0ABW4SDL_Scancode@@$$$V@?$pair@$$CBW4SDL_Scancode@@_N@std@@QAE@Upiecewise_construct_t@1@V?$tuple@ABW4SDL_Scancode@@@1@V?$tuple@$$$V@1@@Z PROC ; std::pair<enum SDL_Scancode const ,bool>::pair<enum SDL_Scancode const ,bool><enum SDL_Scancode const &>, COMDAT
; _this$ = ecx
; File c:\program files (x86)\microsoft visual studio 12.0\vc\include\tuple
; Line 762
  00000	55		 push	 ebp
  00001	8b ec		 mov	 ebp, esp
  00003	81 ec e4 00 00
	00		 sub	 esp, 228		; 000000e4H
  00009	53		 push	 ebx
  0000a	56		 push	 esi
  0000b	57		 push	 edi
  0000c	51		 push	 ecx
  0000d	8d bd 1c ff ff
	ff		 lea	 edi, DWORD PTR [ebp-228]
  00013	b9 39 00 00 00	 mov	 ecx, 57			; 00000039H
  00018	b8 cc cc cc cc	 mov	 eax, -858993460		; ccccccccH
  0001d	f3 ab		 rep stosd
  0001f	59		 pop	 ecx
  00020	89 4d f8	 mov	 DWORD PTR _this$[ebp], ecx
  00023	33 c0		 xor	 eax, eax
  00025	88 85 23 ff ff
	ff		 mov	 BYTE PTR $T1[ebp], al
  0002b	33 c9		 xor	 ecx, ecx
  0002d	88 8d 2f ff ff
	ff		 mov	 BYTE PTR $T2[ebp], cl
  00033	0f b6 95 23 ff
	ff ff		 movzx	 edx, BYTE PTR $T1[ebp]
  0003a	52		 push	 edx
  0003b	0f b6 85 2f ff
	ff ff		 movzx	 eax, BYTE PTR $T2[ebp]
  00042	50		 push	 eax
  00043	8d 4d 10	 lea	 ecx, DWORD PTR __Val2$[ebp]
  00046	51		 push	 ecx
  00047	8d 55 0c	 lea	 edx, DWORD PTR __Val1$[ebp]
  0004a	52		 push	 edx
  0004b	8b 4d f8	 mov	 ecx, DWORD PTR _this$[ebp]
  0004e	e8 00 00 00 00	 call	 ??$?0V?$tuple@ABW4SDL_Scancode@@@std@@V?$tuple@$$$V@1@$0A@$S@?$pair@$$CBW4SDL_Scancode@@_N@std@@QAE@AAV?$tuple@ABW4SDL_Scancode@@@1@AAV?$tuple@$$$V@1@U?$_Arg_idx@$0A@@1@U?$_Arg_idx@$S@1@@Z ; std::pair<enum SDL_Scancode const ,bool>::pair<enum SDL_Scancode const ,bool><std::tuple<enum SDL_Scancode const &>,std::tuple<>,0>
; Line 763
  00053	8b 45 f8	 mov	 eax, DWORD PTR _this$[ebp]
  00056	5f		 pop	 edi
  00057	5e		 pop	 esi
  00058	5b		 pop	 ebx
  00059	81 c4 e4 00 00
	00		 add	 esp, 228		; 000000e4H
  0005f	3b ec		 cmp	 ebp, esp
  00061	e8 00 00 00 00	 call	 __RTC_CheckEsp
  00066	8b e5		 mov	 esp, ebp
  00068	5d		 pop	 ebp
  00069	c2 0c 00	 ret	 12			; 0000000cH
??$?0ABW4SDL_Scancode@@$$$V@?$pair@$$CBW4SDL_Scancode@@_N@std@@QAE@Upiecewise_construct_t@1@V?$tuple@ABW4SDL_Scancode@@@1@V?$tuple@$$$V@1@@Z ENDP ; std::pair<enum SDL_Scancode const ,bool>::pair<enum SDL_Scancode const ,bool><enum SDL_Scancode const &>
_TEXT	ENDS
; Function compile flags: /Odtp /RTCsu /ZI
;	COMDAT ??$destroy@PAU?$_Tree_node@U?$pair@$$CBW4SDL_Scancode@@_N@std@@PAX@std@@@?$allocator@U?$_Tree_node@U?$pair@$$CBW4SDL_Scancode@@_N@std@@PAX@std@@@std@@QAEXPAPAU?$_Tree_node@U?$pair@$$CBW4SDL_Scancode@@_N@std@@PAX@1@@Z
_TEXT	SEGMENT
_this$ = -8						; size = 4
__Ptr$ = 8						; size = 4
??$destroy@PAU?$_Tree_node@U?$pair@$$CBW4SDL_Scancode@@_N@std@@PAX@std@@@?$allocator@U?$_Tree_node@U?$pair@$$CBW4SDL_Scancode@@_N@std@@PAX@std@@@std@@QAEXPAPAU?$_Tree_node@U?$pair@$$CBW4SDL_Scancode@@_N@std@@PAX@1@@Z PROC ; std::allocator<std::_Tree_node<std::pair<enum SDL_Scancode const ,bool>,void *> >::destroy<std::_Tree_node<std::pair<enum SDL_Scancode const ,bool>,void *> *>, COMDAT
; _this$ = ecx
; File c:\program files (x86)\microsoft visual studio 12.0\vc\include\xmemory0
; Line 605
  00000	55		 push	 ebp
  00001	8b ec		 mov	 ebp, esp
  00003	81 ec cc 00 00
	00		 sub	 esp, 204		; 000000ccH
  00009	53		 push	 ebx
  0000a	56		 push	 esi
  0000b	57		 push	 edi
  0000c	51		 push	 ecx
  0000d	8d bd 34 ff ff
	ff		 lea	 edi, DWORD PTR [ebp-204]
  00013	b9 33 00 00 00	 mov	 ecx, 51			; 00000033H
  00018	b8 cc cc cc cc	 mov	 eax, -858993460		; ccccccccH
  0001d	f3 ab		 rep stosd
  0001f	59		 pop	 ecx
  00020	89 4d f8	 mov	 DWORD PTR _this$[ebp], ecx
; Line 608
  00023	5f		 pop	 edi
  00024	5e		 pop	 esi
  00025	5b		 pop	 ebx
  00026	8b e5		 mov	 esp, ebp
  00028	5d		 pop	 ebp
  00029	c2 04 00	 ret	 4
??$destroy@PAU?$_Tree_node@U?$pair@$$CBW4SDL_Scancode@@_N@std@@PAX@std@@@?$allocator@U?$_Tree_node@U?$pair@$$CBW4SDL_Scancode@@_N@std@@PAX@std@@@std@@QAEXPAPAU?$_Tree_node@U?$pair@$$CBW4SDL_Scancode@@_N@std@@PAX@1@@Z ENDP ; std::allocator<std::_Tree_node<std::pair<enum SDL_Scancode const ,bool>,void *> >::destroy<std::_Tree_node<std::pair<enum SDL_Scancode const ,bool>,void *> *>
_TEXT	ENDS
; Function compile flags: /Odtp /RTCsu /ZI
;	COMDAT ??$construct@PAU?$_Tree_node@U?$pair@$$CBW4SDL_Scancode@@_N@std@@PAX@std@@AAPAU12@@?$allocator@U?$_Tree_node@U?$pair@$$CBW4SDL_Scancode@@_N@std@@PAX@std@@@std@@QAEXPAPAU?$_Tree_node@U?$pair@$$CBW4SDL_Scancode@@_N@std@@PAX@1@AAPAU21@@Z
_TEXT	SEGMENT
tv73 = -244						; size = 4
$T2 = -236						; size = 4
$T3 = -224						; size = 4
_this$ = -20						; size = 4
__$EHRec$ = -12						; size = 12
__Ptr$ = 8						; size = 4
_<_Args_0>$ = 12					; size = 4
??$construct@PAU?$_Tree_node@U?$pair@$$CBW4SDL_Scancode@@_N@std@@PAX@std@@AAPAU12@@?$allocator@U?$_Tree_node@U?$pair@$$CBW4SDL_Scancode@@_N@std@@PAX@std@@@std@@QAEXPAPAU?$_Tree_node@U?$pair@$$CBW4SDL_Scancode@@_N@std@@PAX@1@AAPAU21@@Z PROC ; std::allocator<std::_Tree_node<std::pair<enum SDL_Scancode const ,bool>,void *> >::construct<std::_Tree_node<std::pair<enum SDL_Scancode const ,bool>,void *> *,std::_Tree_node<std::pair<enum SDL_Scancode const ,bool>,void *> * &>, COMDAT
; _this$ = ecx
; File c:\program files (x86)\microsoft visual studio 12.0\vc\include\xmemory0
; Line 598
  00000	55		 push	 ebp
  00001	8b ec		 mov	 ebp, esp
  00003	6a ff		 push	 -1
  00005	68 00 00 00 00	 push	 __ehhandler$??$construct@PAU?$_Tree_node@U?$pair@$$CBW4SDL_Scancode@@_N@std@@PAX@std@@AAPAU12@@?$allocator@U?$_Tree_node@U?$pair@$$CBW4SDL_Scancode@@_N@std@@PAX@std@@@std@@QAEXPAPAU?$_Tree_node@U?$pair@$$CBW4SDL_Scancode@@_N@std@@PAX@1@AAPAU21@@Z
  0000a	64 a1 00 00 00
	00		 mov	 eax, DWORD PTR fs:0
  00010	50		 push	 eax
  00011	81 ec e8 00 00
	00		 sub	 esp, 232		; 000000e8H
  00017	53		 push	 ebx
  00018	56		 push	 esi
  00019	57		 push	 edi
  0001a	51		 push	 ecx
  0001b	8d bd 0c ff ff
	ff		 lea	 edi, DWORD PTR [ebp-244]
  00021	b9 3a 00 00 00	 mov	 ecx, 58			; 0000003aH
  00026	b8 cc cc cc cc	 mov	 eax, -858993460		; ccccccccH
  0002b	f3 ab		 rep stosd
  0002d	59		 pop	 ecx
  0002e	a1 00 00 00 00	 mov	 eax, DWORD PTR ___security_cookie
  00033	33 c5		 xor	 eax, ebp
  00035	50		 push	 eax
  00036	8d 45 f4	 lea	 eax, DWORD PTR __$EHRec$[ebp]
  00039	64 a3 00 00 00
	00		 mov	 DWORD PTR fs:0, eax
  0003f	89 4d ec	 mov	 DWORD PTR _this$[ebp], ecx
; Line 600
  00042	8b 45 08	 mov	 eax, DWORD PTR __Ptr$[ebp]
  00045	50		 push	 eax
  00046	6a 04		 push	 4
  00048	e8 00 00 00 00	 call	 ??2@YAPAXIPAX@Z		; operator new
  0004d	83 c4 08	 add	 esp, 8
  00050	89 85 20 ff ff
	ff		 mov	 DWORD PTR $T3[ebp], eax
  00056	c7 45 fc 00 00
	00 00		 mov	 DWORD PTR __$EHRec$[ebp+8], 0
  0005d	83 bd 20 ff ff
	ff 00		 cmp	 DWORD PTR $T3[ebp], 0
  00064	74 24		 je	 SHORT $LN3@construct
  00066	8b 4d 0c	 mov	 ecx, DWORD PTR _<_Args_0>$[ebp]
  00069	51		 push	 ecx
  0006a	e8 00 00 00 00	 call	 ??$forward@AAPAU?$_Tree_node@U?$pair@$$CBW4SDL_Scancode@@_N@std@@PAX@std@@@std@@YAAAPAU?$_Tree_node@U?$pair@$$CBW4SDL_Scancode@@_N@std@@PAX@0@AAPAU10@@Z ; std::forward<std::_Tree_node<std::pair<enum SDL_Scancode const ,bool>,void *> * &>
  0006f	83 c4 04	 add	 esp, 4
  00072	8b 95 20 ff ff
	ff		 mov	 edx, DWORD PTR $T3[ebp]
  00078	8b 00		 mov	 eax, DWORD PTR [eax]
  0007a	89 02		 mov	 DWORD PTR [edx], eax
  0007c	8b 8d 20 ff ff
	ff		 mov	 ecx, DWORD PTR $T3[ebp]
  00082	89 8d 0c ff ff
	ff		 mov	 DWORD PTR tv73[ebp], ecx
  00088	eb 0a		 jmp	 SHORT $LN4@construct
$LN3@construct:
  0008a	c7 85 0c ff ff
	ff 00 00 00 00	 mov	 DWORD PTR tv73[ebp], 0
$LN4@construct:
  00094	8b 95 0c ff ff
	ff		 mov	 edx, DWORD PTR tv73[ebp]
  0009a	89 95 14 ff ff
	ff		 mov	 DWORD PTR $T2[ebp], edx
  000a0	c7 45 fc ff ff
	ff ff		 mov	 DWORD PTR __$EHRec$[ebp+8], -1
; Line 601
  000a7	8b 4d f4	 mov	 ecx, DWORD PTR __$EHRec$[ebp]
  000aa	64 89 0d 00 00
	00 00		 mov	 DWORD PTR fs:0, ecx
  000b1	59		 pop	 ecx
  000b2	5f		 pop	 edi
  000b3	5e		 pop	 esi
  000b4	5b		 pop	 ebx
  000b5	81 c4 f4 00 00
	00		 add	 esp, 244		; 000000f4H
  000bb	3b ec		 cmp	 ebp, esp
  000bd	e8 00 00 00 00	 call	 __RTC_CheckEsp
  000c2	8b e5		 mov	 esp, ebp
  000c4	5d		 pop	 ebp
  000c5	c2 08 00	 ret	 8
_TEXT	ENDS
;	COMDAT text$x
text$x	SEGMENT
__unwindfunclet$??$construct@PAU?$_Tree_node@U?$pair@$$CBW4SDL_Scancode@@_N@std@@PAX@std@@AAPAU12@@?$allocator@U?$_Tree_node@U?$pair@$$CBW4SDL_Scancode@@_N@std@@PAX@std@@@std@@QAEXPAPAU?$_Tree_node@U?$pair@$$CBW4SDL_Scancode@@_N@std@@PAX@1@AAPAU21@@Z$0:
  00000	8b 45 08	 mov	 eax, DWORD PTR __Ptr$[ebp]
  00003	50		 push	 eax
  00004	8b 85 20 ff ff
	ff		 mov	 eax, DWORD PTR $T3[ebp]
  0000a	50		 push	 eax
  0000b	e8 00 00 00 00	 call	 ??3@YAXPAX0@Z		; operator delete
  00010	83 c4 08	 add	 esp, 8
  00013	c3		 ret	 0
__ehhandler$??$construct@PAU?$_Tree_node@U?$pair@$$CBW4SDL_Scancode@@_N@std@@PAX@std@@AAPAU12@@?$allocator@U?$_Tree_node@U?$pair@$$CBW4SDL_Scancode@@_N@std@@PAX@std@@@std@@QAEXPAPAU?$_Tree_node@U?$pair@$$CBW4SDL_Scancode@@_N@std@@PAX@1@AAPAU21@@Z:
  00014	8b 54 24 08	 mov	 edx, DWORD PTR [esp+8]
  00018	8d 42 0c	 lea	 eax, DWORD PTR [edx+12]
  0001b	8b 8a 08 ff ff
	ff		 mov	 ecx, DWORD PTR [edx-248]
  00021	33 c8		 xor	 ecx, eax
  00023	e8 00 00 00 00	 call	 @__security_check_cookie@4
  00028	b8 00 00 00 00	 mov	 eax, OFFSET __ehfuncinfo$??$construct@PAU?$_Tree_node@U?$pair@$$CBW4SDL_Scancode@@_N@std@@PAX@std@@AAPAU12@@?$allocator@U?$_Tree_node@U?$pair@$$CBW4SDL_Scancode@@_N@std@@PAX@std@@@std@@QAEXPAPAU?$_Tree_node@U?$pair@$$CBW4SDL_Scancode@@_N@std@@PAX@1@AAPAU21@@Z
  0002d	e9 00 00 00 00	 jmp	 ___CxxFrameHandler3
text$x	ENDS
??$construct@PAU?$_Tree_node@U?$pair@$$CBW4SDL_Scancode@@_N@std@@PAX@std@@AAPAU12@@?$allocator@U?$_Tree_node@U?$pair@$$CBW4SDL_Scancode@@_N@std@@PAX@std@@@std@@QAEXPAPAU?$_Tree_node@U?$pair@$$CBW4SDL_Scancode@@_N@std@@PAX@1@AAPAU21@@Z ENDP ; std::allocator<std::_Tree_node<std::pair<enum SDL_Scancode const ,bool>,void *> >::construct<std::_Tree_node<std::pair<enum SDL_Scancode const ,bool>,void *> *,std::_Tree_node<std::pair<enum SDL_Scancode const ,bool>,void *> * &>
; Function compile flags: /Odtp /RTCsu /ZI
;	COMDAT ??$forward@AAV?$_Tree_iterator@V?$_Tree_val@U?$_Tree_simple_types@U?$pair@$$CBW4SDL_Scancode@@_N@std@@@std@@@std@@@std@@@std@@YAAAV?$_Tree_iterator@V?$_Tree_val@U?$_Tree_simple_types@U?$pair@$$CBW4SDL_Scancode@@_N@std@@@std@@@std@@@0@AAV10@@Z
_TEXT	SEGMENT
__Arg$ = 8						; size = 4
??$forward@AAV?$_Tree_iterator@V?$_Tree_val@U?$_Tree_simple_types@U?$pair@$$CBW4SDL_Scancode@@_N@std@@@std@@@std@@@std@@@std@@YAAAV?$_Tree_iterator@V?$_Tree_val@U?$_Tree_simple_types@U?$pair@$$CBW4SDL_Scancode@@_N@std@@@std@@@std@@@0@AAV10@@Z PROC ; std::forward<std::_Tree_iterator<std::_Tree_val<std::_Tree_simple_types<std::pair<enum SDL_Scancode const ,bool> > > > &>, COMDAT
; File c:\program files (x86)\microsoft visual studio 12.0\vc\include\type_traits
; Line 1504
  00000	55		 push	 ebp
  00001	8b ec		 mov	 ebp, esp
  00003	81 ec c0 00 00
	00		 sub	 esp, 192		; 000000c0H
  00009	53		 push	 ebx
  0000a	56		 push	 esi
  0000b	57		 push	 edi
  0000c	8d bd 40 ff ff
	ff		 lea	 edi, DWORD PTR [ebp-192]
  00012	b9 30 00 00 00	 mov	 ecx, 48			; 00000030H
  00017	b8 cc cc cc cc	 mov	 eax, -858993460		; ccccccccH
  0001c	f3 ab		 rep stosd
; Line 1505
  0001e	8b 45 08	 mov	 eax, DWORD PTR __Arg$[ebp]
; Line 1506
  00021	5f		 pop	 edi
  00022	5e		 pop	 esi
  00023	5b		 pop	 ebx
  00024	8b e5		 mov	 esp, ebp
  00026	5d		 pop	 ebp
  00027	c3		 ret	 0
??$forward@AAV?$_Tree_iterator@V?$_Tree_val@U?$_Tree_simple_types@U?$pair@$$CBW4SDL_Scancode@@_N@std@@@std@@@std@@@std@@@std@@YAAAV?$_Tree_iterator@V?$_Tree_val@U?$_Tree_simple_types@U?$pair@$$CBW4SDL_Scancode@@_N@std@@@std@@@std@@@0@AAV10@@Z ENDP ; std::forward<std::_Tree_iterator<std::_Tree_val<std::_Tree_simple_types<std::pair<enum SDL_Scancode const ,bool> > > > &>
_TEXT	ENDS
; Function compile flags: /Odtp /RTCsu /ZI
;	COMDAT ??$forward@_N@std@@YA$$QA_NAA_N@Z
_TEXT	SEGMENT
__Arg$ = 8						; size = 4
??$forward@_N@std@@YA$$QA_NAA_N@Z PROC			; std::forward<bool>, COMDAT
; File c:\program files (x86)\microsoft visual studio 12.0\vc\include\type_traits
; Line 1504
  00000	55		 push	 ebp
  00001	8b ec		 mov	 ebp, esp
  00003	81 ec c0 00 00
	00		 sub	 esp, 192		; 000000c0H
  00009	53		 push	 ebx
  0000a	56		 push	 esi
  0000b	57		 push	 edi
  0000c	8d bd 40 ff ff
	ff		 lea	 edi, DWORD PTR [ebp-192]
  00012	b9 30 00 00 00	 mov	 ecx, 48			; 00000030H
  00017	b8 cc cc cc cc	 mov	 eax, -858993460		; ccccccccH
  0001c	f3 ab		 rep stosd
; Line 1505
  0001e	8b 45 08	 mov	 eax, DWORD PTR __Arg$[ebp]
; Line 1506
  00021	5f		 pop	 edi
  00022	5e		 pop	 esi
  00023	5b		 pop	 ebx
  00024	8b e5		 mov	 esp, ebp
  00026	5d		 pop	 ebp
  00027	c3		 ret	 0
??$forward@_N@std@@YA$$QA_NAA_N@Z ENDP			; std::forward<bool>
_TEXT	ENDS
; Function compile flags: /Odtp /RTCsu /ZI
;	COMDAT ??$forward@V?$_Tree_iterator@V?$_Tree_val@U?$_Tree_simple_types@U?$pair@$$CBW4SDL_Scancode@@_N@std@@@std@@@std@@@std@@@std@@YA$$QAV?$_Tree_iterator@V?$_Tree_val@U?$_Tree_simple_types@U?$pair@$$CBW4SDL_Scancode@@_N@std@@@std@@@std@@@0@AAV10@@Z
_TEXT	SEGMENT
__Arg$ = 8						; size = 4
??$forward@V?$_Tree_iterator@V?$_Tree_val@U?$_Tree_simple_types@U?$pair@$$CBW4SDL_Scancode@@_N@std@@@std@@@std@@@std@@@std@@YA$$QAV?$_Tree_iterator@V?$_Tree_val@U?$_Tree_simple_types@U?$pair@$$CBW4SDL_Scancode@@_N@std@@@std@@@std@@@0@AAV10@@Z PROC ; std::forward<std::_Tree_iterator<std::_Tree_val<std::_Tree_simple_types<std::pair<enum SDL_Scancode const ,bool> > > > >, COMDAT
; File c:\program files (x86)\microsoft visual studio 12.0\vc\include\type_traits
; Line 1504
  00000	55		 push	 ebp
  00001	8b ec		 mov	 ebp, esp
  00003	81 ec c0 00 00
	00		 sub	 esp, 192		; 000000c0H
  00009	53		 push	 ebx
  0000a	56		 push	 esi
  0000b	57		 push	 edi
  0000c	8d bd 40 ff ff
	ff		 lea	 edi, DWORD PTR [ebp-192]
  00012	b9 30 00 00 00	 mov	 ecx, 48			; 00000030H
  00017	b8 cc cc cc cc	 mov	 eax, -858993460		; ccccccccH
  0001c	f3 ab		 rep stosd
; Line 1505
  0001e	8b 45 08	 mov	 eax, DWORD PTR __Arg$[ebp]
; Line 1506
  00021	5f		 pop	 edi
  00022	5e		 pop	 esi
  00023	5b		 pop	 ebx
  00024	8b e5		 mov	 esp, ebp
  00026	5d		 pop	 ebp
  00027	c3		 ret	 0
??$forward@V?$_Tree_iterator@V?$_Tree_val@U?$_Tree_simple_types@U?$pair@$$CBW4SDL_Scancode@@_N@std@@@std@@@std@@@std@@@std@@YA$$QAV?$_Tree_iterator@V?$_Tree_val@U?$_Tree_simple_types@U?$pair@$$CBW4SDL_Scancode@@_N@std@@@std@@@std@@@0@AAV10@@Z ENDP ; std::forward<std::_Tree_iterator<std::_Tree_val<std::_Tree_simple_types<std::pair<enum SDL_Scancode const ,bool> > > > >
_TEXT	ENDS
; Function compile flags: /Odtp /RTCsu /ZI
;	COMDAT ??$construct@U?$pair@$$CBW4SDL_Scancode@@_N@std@@ABUpiecewise_construct_t@2@V?$tuple@ABW4SDL_Scancode@@@2@V?$tuple@$$$V@2@@?$allocator@U?$_Tree_node@U?$pair@$$CBW4SDL_Scancode@@_N@std@@PAX@std@@@std@@QAEXPAU?$pair@$$CBW4SDL_Scancode@@_N@1@ABUpiecewise_construct_t@1@$$QAV?$tuple@ABW4SDL_Scancode@@@1@$$QAV?$tuple@$$$V@1@@Z
_TEXT	SEGMENT
tv134 = -268						; size = 4
$T2 = -260						; size = 4
$T3 = -248						; size = 4
$T4 = -236						; size = 4
$T5 = -224						; size = 4
_this$ = -20						; size = 4
__$EHRec$ = -12						; size = 12
__Ptr$ = 8						; size = 4
_<_Args_0>$ = 12					; size = 4
_<_Args_1>$ = 16					; size = 4
_<_Args_2>$ = 20					; size = 4
??$construct@U?$pair@$$CBW4SDL_Scancode@@_N@std@@ABUpiecewise_construct_t@2@V?$tuple@ABW4SDL_Scancode@@@2@V?$tuple@$$$V@2@@?$allocator@U?$_Tree_node@U?$pair@$$CBW4SDL_Scancode@@_N@std@@PAX@std@@@std@@QAEXPAU?$pair@$$CBW4SDL_Scancode@@_N@1@ABUpiecewise_construct_t@1@$$QAV?$tuple@ABW4SDL_Scancode@@@1@$$QAV?$tuple@$$$V@1@@Z PROC ; std::allocator<std::_Tree_node<std::pair<enum SDL_Scancode const ,bool>,void *> >::construct<std::pair<enum SDL_Scancode const ,bool>,std::piecewise_construct_t const &,std::tuple<enum SDL_Scancode const &>,std::tuple<> >, COMDAT
; _this$ = ecx
; File c:\program files (x86)\microsoft visual studio 12.0\vc\include\xmemory0
; Line 598
  00000	55		 push	 ebp
  00001	8b ec		 mov	 ebp, esp
  00003	6a ff		 push	 -1
  00005	68 00 00 00 00	 push	 __ehhandler$??$construct@U?$pair@$$CBW4SDL_Scancode@@_N@std@@ABUpiecewise_construct_t@2@V?$tuple@ABW4SDL_Scancode@@@2@V?$tuple@$$$V@2@@?$allocator@U?$_Tree_node@U?$pair@$$CBW4SDL_Scancode@@_N@std@@PAX@std@@@std@@QAEXPAU?$pair@$$CBW4SDL_Scancode@@_N@1@ABUpiecewise_construct_t@1@$$QAV?$tuple@ABW4SDL_Scancode@@@1@$$QAV?$tuple@$$$V@1@@Z
  0000a	64 a1 00 00 00
	00		 mov	 eax, DWORD PTR fs:0
  00010	50		 push	 eax
  00011	81 ec 00 01 00
	00		 sub	 esp, 256		; 00000100H
  00017	53		 push	 ebx
  00018	56		 push	 esi
  00019	57		 push	 edi
  0001a	51		 push	 ecx
  0001b	8d bd f4 fe ff
	ff		 lea	 edi, DWORD PTR [ebp-268]
  00021	b9 40 00 00 00	 mov	 ecx, 64			; 00000040H
  00026	b8 cc cc cc cc	 mov	 eax, -858993460		; ccccccccH
  0002b	f3 ab		 rep stosd
  0002d	59		 pop	 ecx
  0002e	a1 00 00 00 00	 mov	 eax, DWORD PTR ___security_cookie
  00033	33 c5		 xor	 eax, ebp
  00035	50		 push	 eax
  00036	8d 45 f4	 lea	 eax, DWORD PTR __$EHRec$[ebp]
  00039	64 a3 00 00 00
	00		 mov	 DWORD PTR fs:0, eax
  0003f	89 4d ec	 mov	 DWORD PTR _this$[ebp], ecx
; Line 600
  00042	8b 45 08	 mov	 eax, DWORD PTR __Ptr$[ebp]
  00045	50		 push	 eax
  00046	6a 08		 push	 8
  00048	e8 00 00 00 00	 call	 ??2@YAPAXIPAX@Z		; operator new
  0004d	83 c4 08	 add	 esp, 8
  00050	89 85 08 ff ff
	ff		 mov	 DWORD PTR $T3[ebp], eax
  00056	c7 45 fc 00 00
	00 00		 mov	 DWORD PTR __$EHRec$[ebp+8], 0
  0005d	83 bd 08 ff ff
	ff 00		 cmp	 DWORD PTR $T3[ebp], 0
  00064	74 53		 je	 SHORT $LN3@construct
  00066	8b 4d 14	 mov	 ecx, DWORD PTR _<_Args_2>$[ebp]
  00069	51		 push	 ecx
  0006a	e8 00 00 00 00	 call	 ??$forward@V?$tuple@$$$V@std@@@std@@YA$$QAV?$tuple@$$$V@0@AAV10@@Z ; std::forward<std::tuple<> >
  0006f	8b cc		 mov	 ecx, esp
  00071	89 a5 14 ff ff
	ff		 mov	 DWORD PTR $T4[ebp], esp
  00077	50		 push	 eax
  00078	e8 00 00 00 00	 call	 ??0?$tuple@$$$V@std@@QAE@ABV01@@Z ; std::tuple<>::tuple<>
  0007d	8b 55 10	 mov	 edx, DWORD PTR _<_Args_1>$[ebp]
  00080	52		 push	 edx
  00081	e8 00 00 00 00	 call	 ??$forward@V?$tuple@ABW4SDL_Scancode@@@std@@@std@@YA$$QAV?$tuple@ABW4SDL_Scancode@@@0@AAV10@@Z ; std::forward<std::tuple<enum SDL_Scancode const &> >
  00086	8b cc		 mov	 ecx, esp
  00088	89 a5 20 ff ff
	ff		 mov	 DWORD PTR $T5[ebp], esp
  0008e	50		 push	 eax
  0008f	e8 00 00 00 00	 call	 ??$?0ABW4SDL_Scancode@@PAPAX@?$tuple@ABW4SDL_Scancode@@@std@@QAE@$$QAV01@@Z ; std::tuple<enum SDL_Scancode const &>::tuple<enum SDL_Scancode const &><enum SDL_Scancode const &,void * *>
  00094	8b 45 0c	 mov	 eax, DWORD PTR _<_Args_0>$[ebp]
  00097	50		 push	 eax
  00098	e8 00 00 00 00	 call	 ??$forward@ABUpiecewise_construct_t@std@@@std@@YAABUpiecewise_construct_t@0@ABU10@@Z ; std::forward<std::piecewise_construct_t const &>
  0009d	83 c4 04	 add	 esp, 4
  000a0	8a 08		 mov	 cl, BYTE PTR [eax]
  000a2	0f b6 d1	 movzx	 edx, cl
  000a5	52		 push	 edx
  000a6	8b 8d 08 ff ff
	ff		 mov	 ecx, DWORD PTR $T3[ebp]
  000ac	e8 00 00 00 00	 call	 ??$?0ABW4SDL_Scancode@@$$$V@?$pair@$$CBW4SDL_Scancode@@_N@std@@QAE@Upiecewise_construct_t@1@V?$tuple@ABW4SDL_Scancode@@@1@V?$tuple@$$$V@1@@Z ; std::pair<enum SDL_Scancode const ,bool>::pair<enum SDL_Scancode const ,bool><enum SDL_Scancode const &>
  000b1	89 85 f4 fe ff
	ff		 mov	 DWORD PTR tv134[ebp], eax
  000b7	eb 0a		 jmp	 SHORT $LN4@construct
$LN3@construct:
  000b9	c7 85 f4 fe ff
	ff 00 00 00 00	 mov	 DWORD PTR tv134[ebp], 0
$LN4@construct:
  000c3	8b 85 f4 fe ff
	ff		 mov	 eax, DWORD PTR tv134[ebp]
  000c9	89 85 fc fe ff
	ff		 mov	 DWORD PTR $T2[ebp], eax
  000cf	c7 45 fc ff ff
	ff ff		 mov	 DWORD PTR __$EHRec$[ebp+8], -1
; Line 601
  000d6	8b 4d f4	 mov	 ecx, DWORD PTR __$EHRec$[ebp]
  000d9	64 89 0d 00 00
	00 00		 mov	 DWORD PTR fs:0, ecx
  000e0	59		 pop	 ecx
  000e1	5f		 pop	 edi
  000e2	5e		 pop	 esi
  000e3	5b		 pop	 ebx
  000e4	81 c4 0c 01 00
	00		 add	 esp, 268		; 0000010cH
  000ea	3b ec		 cmp	 ebp, esp
  000ec	e8 00 00 00 00	 call	 __RTC_CheckEsp
  000f1	8b e5		 mov	 esp, ebp
  000f3	5d		 pop	 ebp
  000f4	c2 10 00	 ret	 16			; 00000010H
_TEXT	ENDS
;	COMDAT text$x
text$x	SEGMENT
__unwindfunclet$??$construct@U?$pair@$$CBW4SDL_Scancode@@_N@std@@ABUpiecewise_construct_t@2@V?$tuple@ABW4SDL_Scancode@@@2@V?$tuple@$$$V@2@@?$allocator@U?$_Tree_node@U?$pair@$$CBW4SDL_Scancode@@_N@std@@PAX@std@@@std@@QAEXPAU?$pair@$$CBW4SDL_Scancode@@_N@1@ABUpiecewise_construct_t@1@$$QAV?$tuple@ABW4SDL_Scancode@@@1@$$QAV?$tuple@$$$V@1@@Z$0:
  00000	8b 45 08	 mov	 eax, DWORD PTR __Ptr$[ebp]
  00003	50		 push	 eax
  00004	8b 85 08 ff ff
	ff		 mov	 eax, DWORD PTR $T3[ebp]
  0000a	50		 push	 eax
  0000b	e8 00 00 00 00	 call	 ??3@YAXPAX0@Z		; operator delete
  00010	83 c4 08	 add	 esp, 8
  00013	c3		 ret	 0
__ehhandler$??$construct@U?$pair@$$CBW4SDL_Scancode@@_N@std@@ABUpiecewise_construct_t@2@V?$tuple@ABW4SDL_Scancode@@@2@V?$tuple@$$$V@2@@?$allocator@U?$_Tree_node@U?$pair@$$CBW4SDL_Scancode@@_N@std@@PAX@std@@@std@@QAEXPAU?$pair@$$CBW4SDL_Scancode@@_N@1@ABUpiecewise_construct_t@1@$$QAV?$tuple@ABW4SDL_Scancode@@@1@$$QAV?$tuple@$$$V@1@@Z:
  00014	8b 54 24 08	 mov	 edx, DWORD PTR [esp+8]
  00018	8d 42 0c	 lea	 eax, DWORD PTR [edx+12]
  0001b	8b 8a f0 fe ff
	ff		 mov	 ecx, DWORD PTR [edx-272]
  00021	33 c8		 xor	 ecx, eax
  00023	e8 00 00 00 00	 call	 @__security_check_cookie@4
  00028	b8 00 00 00 00	 mov	 eax, OFFSET __ehfuncinfo$??$construct@U?$pair@$$CBW4SDL_Scancode@@_N@std@@ABUpiecewise_construct_t@2@V?$tuple@ABW4SDL_Scancode@@@2@V?$tuple@$$$V@2@@?$allocator@U?$_Tree_node@U?$pair@$$CBW4SDL_Scancode@@_N@std@@PAX@std@@@std@@QAEXPAU?$pair@$$CBW4SDL_Scancode@@_N@1@ABUpiecewise_construct_t@1@$$QAV?$tuple@ABW4SDL_Scancode@@@1@$$QAV?$tuple@$$$V@1@@Z
  0002d	e9 00 00 00 00	 jmp	 ___CxxFrameHandler3
text$x	ENDS
??$construct@U?$pair@$$CBW4SDL_Scancode@@_N@std@@ABUpiecewise_construct_t@2@V?$tuple@ABW4SDL_Scancode@@@2@V?$tuple@$$$V@2@@?$allocator@U?$_Tree_node@U?$pair@$$CBW4SDL_Scancode@@_N@std@@PAX@std@@@std@@QAEXPAU?$pair@$$CBW4SDL_Scancode@@_N@1@ABUpiecewise_construct_t@1@$$QAV?$tuple@ABW4SDL_Scancode@@@1@$$QAV?$tuple@$$$V@1@@Z ENDP ; std::allocator<std::_Tree_node<std::pair<enum SDL_Scancode const ,bool>,void *> >::construct<std::pair<enum SDL_Scancode const ,bool>,std::piecewise_construct_t const &,std::tuple<enum SDL_Scancode const &>,std::tuple<> >
; Function compile flags: /Odtp /RTCsu /ZI
;	COMDAT ??$destroy@PAU?$_Tree_node@U?$pair@$$CBW4SDL_Scancode@@_N@std@@PAX@std@@@?$allocator_traits@V?$allocator@U?$_Tree_node@U?$pair@$$CBW4SDL_Scancode@@_N@std@@PAX@std@@@std@@@std@@SAXAAV?$allocator@U?$_Tree_node@U?$pair@$$CBW4SDL_Scancode@@_N@std@@PAX@std@@@1@PAPAU?$_Tree_node@U?$pair@$$CBW4SDL_Scancode@@_N@std@@PAX@1@@Z
_TEXT	SEGMENT
__Al$ = 8						; size = 4
__Ptr$ = 12						; size = 4
??$destroy@PAU?$_Tree_node@U?$pair@$$CBW4SDL_Scancode@@_N@std@@PAX@std@@@?$allocator_traits@V?$allocator@U?$_Tree_node@U?$pair@$$CBW4SDL_Scancode@@_N@std@@PAX@std@@@std@@@std@@SAXAAV?$allocator@U?$_Tree_node@U?$pair@$$CBW4SDL_Scancode@@_N@std@@PAX@std@@@1@PAPAU?$_Tree_node@U?$pair@$$CBW4SDL_Scancode@@_N@std@@PAX@1@@Z PROC ; std::allocator_traits<std::allocator<std::_Tree_node<std::pair<enum SDL_Scancode const ,bool>,void *> > >::destroy<std::_Tree_node<std::pair<enum SDL_Scancode const ,bool>,void *> *>, COMDAT
; File c:\program files (x86)\microsoft visual studio 12.0\vc\include\xmemory0
; Line 728
  00000	55		 push	 ebp
  00001	8b ec		 mov	 ebp, esp
  00003	81 ec c0 00 00
	00		 sub	 esp, 192		; 000000c0H
  00009	53		 push	 ebx
  0000a	56		 push	 esi
  0000b	57		 push	 edi
  0000c	8d bd 40 ff ff
	ff		 lea	 edi, DWORD PTR [ebp-192]
  00012	b9 30 00 00 00	 mov	 ecx, 48			; 00000030H
  00017	b8 cc cc cc cc	 mov	 eax, -858993460		; ccccccccH
  0001c	f3 ab		 rep stosd
; Line 730
  0001e	8b 45 0c	 mov	 eax, DWORD PTR __Ptr$[ebp]
  00021	50		 push	 eax
  00022	8b 4d 08	 mov	 ecx, DWORD PTR __Al$[ebp]
  00025	e8 00 00 00 00	 call	 ??$destroy@PAU?$_Tree_node@U?$pair@$$CBW4SDL_Scancode@@_N@std@@PAX@std@@@?$allocator@U?$_Tree_node@U?$pair@$$CBW4SDL_Scancode@@_N@std@@PAX@std@@@std@@QAEXPAPAU?$_Tree_node@U?$pair@$$CBW4SDL_Scancode@@_N@std@@PAX@1@@Z ; std::allocator<std::_Tree_node<std::pair<enum SDL_Scancode const ,bool>,void *> >::destroy<std::_Tree_node<std::pair<enum SDL_Scancode const ,bool>,void *> *>
; Line 731
  0002a	5f		 pop	 edi
  0002b	5e		 pop	 esi
  0002c	5b		 pop	 ebx
  0002d	81 c4 c0 00 00
	00		 add	 esp, 192		; 000000c0H
  00033	3b ec		 cmp	 ebp, esp
  00035	e8 00 00 00 00	 call	 __RTC_CheckEsp
  0003a	8b e5		 mov	 esp, ebp
  0003c	5d		 pop	 ebp
  0003d	c3		 ret	 0
??$destroy@PAU?$_Tree_node@U?$pair@$$CBW4SDL_Scancode@@_N@std@@PAX@std@@@?$allocator_traits@V?$allocator@U?$_Tree_node@U?$pair@$$CBW4SDL_Scancode@@_N@std@@PAX@std@@@std@@@std@@SAXAAV?$allocator@U?$_Tree_node@U?$pair@$$CBW4SDL_Scancode@@_N@std@@PAX@std@@@1@PAPAU?$_Tree_node@U?$pair@$$CBW4SDL_Scancode@@_N@std@@PAX@1@@Z ENDP ; std::allocator_traits<std::allocator<std::_Tree_node<std::pair<enum SDL_Scancode const ,bool>,void *> > >::destroy<std::_Tree_node<std::pair<enum SDL_Scancode const ,bool>,void *> *>
_TEXT	ENDS
; Function compile flags: /Odtp /RTCsu /ZI
;	COMDAT ??$construct@PAU?$_Tree_node@U?$pair@$$CBW4SDL_Scancode@@_N@std@@PAX@std@@AAPAU12@@?$allocator_traits@V?$allocator@U?$_Tree_node@U?$pair@$$CBW4SDL_Scancode@@_N@std@@PAX@std@@@std@@@std@@SAXAAV?$allocator@U?$_Tree_node@U?$pair@$$CBW4SDL_Scancode@@_N@std@@PAX@std@@@1@PAPAU?$_Tree_node@U?$pair@$$CBW4SDL_Scancode@@_N@std@@PAX@1@AAPAU31@@Z
_TEXT	SEGMENT
__Al$ = 8						; size = 4
__Ptr$ = 12						; size = 4
_<_Args_0>$ = 16					; size = 4
??$construct@PAU?$_Tree_node@U?$pair@$$CBW4SDL_Scancode@@_N@std@@PAX@std@@AAPAU12@@?$allocator_traits@V?$allocator@U?$_Tree_node@U?$pair@$$CBW4SDL_Scancode@@_N@std@@PAX@std@@@std@@@std@@SAXAAV?$allocator@U?$_Tree_node@U?$pair@$$CBW4SDL_Scancode@@_N@std@@PAX@std@@@1@PAPAU?$_Tree_node@U?$pair@$$CBW4SDL_Scancode@@_N@std@@PAX@1@AAPAU31@@Z PROC ; std::allocator_traits<std::allocator<std::_Tree_node<std::pair<enum SDL_Scancode const ,bool>,void *> > >::construct<std::_Tree_node<std::pair<enum SDL_Scancode const ,bool>,void *> *,std::_Tree_node<std::pair<enum SDL_Scancode const ,bool>,void *> * &>, COMDAT
; File c:\program files (x86)\microsoft visual studio 12.0\vc\include\xmemory0
; Line 720
  00000	55		 push	 ebp
  00001	8b ec		 mov	 ebp, esp
  00003	81 ec c0 00 00
	00		 sub	 esp, 192		; 000000c0H
  00009	53		 push	 ebx
  0000a	56		 push	 esi
  0000b	57		 push	 edi
  0000c	8d bd 40 ff ff
	ff		 lea	 edi, DWORD PTR [ebp-192]
  00012	b9 30 00 00 00	 mov	 ecx, 48			; 00000030H
  00017	b8 cc cc cc cc	 mov	 eax, -858993460		; ccccccccH
  0001c	f3 ab		 rep stosd
; Line 723
  0001e	8b 45 10	 mov	 eax, DWORD PTR _<_Args_0>$[ebp]
  00021	50		 push	 eax
  00022	e8 00 00 00 00	 call	 ??$forward@AAPAU?$_Tree_node@U?$pair@$$CBW4SDL_Scancode@@_N@std@@PAX@std@@@std@@YAAAPAU?$_Tree_node@U?$pair@$$CBW4SDL_Scancode@@_N@std@@PAX@0@AAPAU10@@Z ; std::forward<std::_Tree_node<std::pair<enum SDL_Scancode const ,bool>,void *> * &>
  00027	83 c4 04	 add	 esp, 4
  0002a	50		 push	 eax
  0002b	8b 4d 0c	 mov	 ecx, DWORD PTR __Ptr$[ebp]
  0002e	51		 push	 ecx
  0002f	8b 4d 08	 mov	 ecx, DWORD PTR __Al$[ebp]
  00032	e8 00 00 00 00	 call	 ??$construct@PAU?$_Tree_node@U?$pair@$$CBW4SDL_Scancode@@_N@std@@PAX@std@@AAPAU12@@?$allocator@U?$_Tree_node@U?$pair@$$CBW4SDL_Scancode@@_N@std@@PAX@std@@@std@@QAEXPAPAU?$_Tree_node@U?$pair@$$CBW4SDL_Scancode@@_N@std@@PAX@1@AAPAU21@@Z ; std::allocator<std::_Tree_node<std::pair<enum SDL_Scancode const ,bool>,void *> >::construct<std::_Tree_node<std::pair<enum SDL_Scancode const ,bool>,void *> *,std::_Tree_node<std::pair<enum SDL_Scancode const ,bool>,void *> * &>
; Line 724
  00037	5f		 pop	 edi
  00038	5e		 pop	 esi
  00039	5b		 pop	 ebx
  0003a	81 c4 c0 00 00
	00		 add	 esp, 192		; 000000c0H
  00040	3b ec		 cmp	 ebp, esp
  00042	e8 00 00 00 00	 call	 __RTC_CheckEsp
  00047	8b e5		 mov	 esp, ebp
  00049	5d		 pop	 ebp
  0004a	c3		 ret	 0
??$construct@PAU?$_Tree_node@U?$pair@$$CBW4SDL_Scancode@@_N@std@@PAX@std@@AAPAU12@@?$allocator_traits@V?$allocator@U?$_Tree_node@U?$pair@$$CBW4SDL_Scancode@@_N@std@@PAX@std@@@std@@@std@@SAXAAV?$allocator@U?$_Tree_node@U?$pair@$$CBW4SDL_Scancode@@_N@std@@PAX@std@@@1@PAPAU?$_Tree_node@U?$pair@$$CBW4SDL_Scancode@@_N@std@@PAX@1@AAPAU31@@Z ENDP ; std::allocator_traits<std::allocator<std::_Tree_node<std::pair<enum SDL_Scancode const ,bool>,void *> > >::construct<std::_Tree_node<std::pair<enum SDL_Scancode const ,bool>,void *> *,std::_Tree_node<std::pair<enum SDL_Scancode const ,bool>,void *> * &>
_TEXT	ENDS
; Function compile flags: /Odtp /RTCsu /ZI
;	COMDAT ??$forward@AAPAU?$_Tree_node@U?$pair@$$CBW4SDL_Scancode@@_N@std@@PAX@std@@@std@@YAAAPAU?$_Tree_node@U?$pair@$$CBW4SDL_Scancode@@_N@std@@PAX@0@AAPAU10@@Z
_TEXT	SEGMENT
__Arg$ = 8						; size = 4
??$forward@AAPAU?$_Tree_node@U?$pair@$$CBW4SDL_Scancode@@_N@std@@PAX@std@@@std@@YAAAPAU?$_Tree_node@U?$pair@$$CBW4SDL_Scancode@@_N@std@@PAX@0@AAPAU10@@Z PROC ; std::forward<std::_Tree_node<std::pair<enum SDL_Scancode const ,bool>,void *> * &>, COMDAT
; File c:\program files (x86)\microsoft visual studio 12.0\vc\include\type_traits
; Line 1504
  00000	55		 push	 ebp
  00001	8b ec		 mov	 ebp, esp
  00003	81 ec c0 00 00
	00		 sub	 esp, 192		; 000000c0H
  00009	53		 push	 ebx
  0000a	56		 push	 esi
  0000b	57		 push	 edi
  0000c	8d bd 40 ff ff
	ff		 lea	 edi, DWORD PTR [ebp-192]
  00012	b9 30 00 00 00	 mov	 ecx, 48			; 00000030H
  00017	b8 cc cc cc cc	 mov	 eax, -858993460		; ccccccccH
  0001c	f3 ab		 rep stosd
; Line 1505
  0001e	8b 45 08	 mov	 eax, DWORD PTR __Arg$[ebp]
; Line 1506
  00021	5f		 pop	 edi
  00022	5e		 pop	 esi
  00023	5b		 pop	 ebx
  00024	8b e5		 mov	 esp, ebp
  00026	5d		 pop	 ebp
  00027	c3		 ret	 0
??$forward@AAPAU?$_Tree_node@U?$pair@$$CBW4SDL_Scancode@@_N@std@@PAX@std@@@std@@YAAAPAU?$_Tree_node@U?$pair@$$CBW4SDL_Scancode@@_N@std@@PAX@0@AAPAU10@@Z ENDP ; std::forward<std::_Tree_node<std::pair<enum SDL_Scancode const ,bool>,void *> * &>
_TEXT	ENDS
; Function compile flags: /Odtp /RTCsu /ZI
;	COMDAT ??$?0AAV?$_Tree_iterator@V?$_Tree_val@U?$_Tree_simple_types@U?$pair@$$CBW4SDL_Scancode@@_N@std@@@std@@@std@@@std@@_NX@?$pair@V?$_Tree_iterator@V?$_Tree_val@U?$_Tree_simple_types@U?$pair@$$CBW4SDL_Scancode@@_N@std@@@std@@@std@@@std@@_N@std@@QAE@AAV?$_Tree_iterator@V?$_Tree_val@U?$_Tree_simple_types@U?$pair@$$CBW4SDL_Scancode@@_N@std@@@std@@@std@@@1@$$QA_N@Z
_TEXT	SEGMENT
_this$ = -20						; size = 4
__$EHRec$ = -12						; size = 12
__Val1$ = 8						; size = 4
__Val2$ = 12						; size = 4
??$?0AAV?$_Tree_iterator@V?$_Tree_val@U?$_Tree_simple_types@U?$pair@$$CBW4SDL_Scancode@@_N@std@@@std@@@std@@@std@@_NX@?$pair@V?$_Tree_iterator@V?$_Tree_val@U?$_Tree_simple_types@U?$pair@$$CBW4SDL_Scancode@@_N@std@@@std@@@std@@@std@@_N@std@@QAE@AAV?$_Tree_iterator@V?$_Tree_val@U?$_Tree_simple_types@U?$pair@$$CBW4SDL_Scancode@@_N@std@@@std@@@std@@@1@$$QA_N@Z PROC ; std::pair<std::_Tree_iterator<std::_Tree_val<std::_Tree_simple_types<std::pair<enum SDL_Scancode const ,bool> > > >,bool>::pair<std::_Tree_iterator<std::_Tree_val<std::_Tree_simple_types<std::pair<enum SDL_Scancode const ,bool> > > >,bool><std::_Tree_iterator<std::_Tree_val<std::_Tree_simple_types<std::pair<enum SDL_Scancode const ,bool> > > > &,bool,void>, COMDAT
; _this$ = ecx
; File c:\program files (x86)\microsoft visual studio 12.0\vc\include\utility
; Line 144
  00000	55		 push	 ebp
  00001	8b ec		 mov	 ebp, esp
  00003	6a ff		 push	 -1
  00005	68 00 00 00 00	 push	 __ehhandler$??$?0AAV?$_Tree_iterator@V?$_Tree_val@U?$_Tree_simple_types@U?$pair@$$CBW4SDL_Scancode@@_N@std@@@std@@@std@@@std@@_NX@?$pair@V?$_Tree_iterator@V?$_Tree_val@U?$_Tree_simple_types@U?$pair@$$CBW4SDL_Scancode@@_N@std@@@std@@@std@@@std@@_N@std@@QAE@AAV?$_Tree_iterator@V?$_Tree_val@U?$_Tree_simple_types@U?$pair@$$CBW4SDL_Scancode@@_N@std@@@std@@@std@@@1@$$QA_N@Z
  0000a	64 a1 00 00 00
	00		 mov	 eax, DWORD PTR fs:0
  00010	50		 push	 eax
  00011	81 ec cc 00 00
	00		 sub	 esp, 204		; 000000ccH
  00017	53		 push	 ebx
  00018	56		 push	 esi
  00019	57		 push	 edi
  0001a	51		 push	 ecx
  0001b	8d bd 28 ff ff
	ff		 lea	 edi, DWORD PTR [ebp-216]
  00021	b9 33 00 00 00	 mov	 ecx, 51			; 00000033H
  00026	b8 cc cc cc cc	 mov	 eax, -858993460		; ccccccccH
  0002b	f3 ab		 rep stosd
  0002d	59		 pop	 ecx
  0002e	a1 00 00 00 00	 mov	 eax, DWORD PTR ___security_cookie
  00033	33 c5		 xor	 eax, ebp
  00035	50		 push	 eax
  00036	8d 45 f4	 lea	 eax, DWORD PTR __$EHRec$[ebp]
  00039	64 a3 00 00 00
	00		 mov	 DWORD PTR fs:0, eax
  0003f	89 4d ec	 mov	 DWORD PTR _this$[ebp], ecx
  00042	8b 45 08	 mov	 eax, DWORD PTR __Val1$[ebp]
  00045	50		 push	 eax
  00046	e8 00 00 00 00	 call	 ??$forward@AAV?$_Tree_iterator@V?$_Tree_val@U?$_Tree_simple_types@U?$pair@$$CBW4SDL_Scancode@@_N@std@@@std@@@std@@@std@@@std@@YAAAV?$_Tree_iterator@V?$_Tree_val@U?$_Tree_simple_types@U?$pair@$$CBW4SDL_Scancode@@_N@std@@@std@@@std@@@0@AAV10@@Z ; std::forward<std::_Tree_iterator<std::_Tree_val<std::_Tree_simple_types<std::pair<enum SDL_Scancode const ,bool> > > > &>
  0004b	83 c4 04	 add	 esp, 4
  0004e	50		 push	 eax
  0004f	8b 4d ec	 mov	 ecx, DWORD PTR _this$[ebp]
  00052	e8 00 00 00 00	 call	 ??0?$_Tree_iterator@V?$_Tree_val@U?$_Tree_simple_types@U?$pair@$$CBW4SDL_Scancode@@_N@std@@@std@@@std@@@std@@QAE@ABV01@@Z
  00057	c7 45 fc 00 00
	00 00		 mov	 DWORD PTR __$EHRec$[ebp+8], 0
  0005e	8b 45 0c	 mov	 eax, DWORD PTR __Val2$[ebp]
  00061	50		 push	 eax
  00062	e8 00 00 00 00	 call	 ??$forward@_N@std@@YA$$QA_NAA_N@Z ; std::forward<bool>
  00067	83 c4 04	 add	 esp, 4
  0006a	8b 4d ec	 mov	 ecx, DWORD PTR _this$[ebp]
  0006d	8a 10		 mov	 dl, BYTE PTR [eax]
  0006f	88 51 0c	 mov	 BYTE PTR [ecx+12], dl
; Line 145
  00072	c7 45 fc ff ff
	ff ff		 mov	 DWORD PTR __$EHRec$[ebp+8], -1
  00079	8b 45 ec	 mov	 eax, DWORD PTR _this$[ebp]
  0007c	8b 4d f4	 mov	 ecx, DWORD PTR __$EHRec$[ebp]
  0007f	64 89 0d 00 00
	00 00		 mov	 DWORD PTR fs:0, ecx
  00086	59		 pop	 ecx
  00087	5f		 pop	 edi
  00088	5e		 pop	 esi
  00089	5b		 pop	 ebx
  0008a	81 c4 d8 00 00
	00		 add	 esp, 216		; 000000d8H
  00090	3b ec		 cmp	 ebp, esp
  00092	e8 00 00 00 00	 call	 __RTC_CheckEsp
  00097	8b e5		 mov	 esp, ebp
  00099	5d		 pop	 ebp
  0009a	c2 08 00	 ret	 8
_TEXT	ENDS
;	COMDAT text$x
text$x	SEGMENT
__unwindfunclet$??$?0AAV?$_Tree_iterator@V?$_Tree_val@U?$_Tree_simple_types@U?$pair@$$CBW4SDL_Scancode@@_N@std@@@std@@@std@@@std@@_NX@?$pair@V?$_Tree_iterator@V?$_Tree_val@U?$_Tree_simple_types@U?$pair@$$CBW4SDL_Scancode@@_N@std@@@std@@@std@@@std@@_N@std@@QAE@AAV?$_Tree_iterator@V?$_Tree_val@U?$_Tree_simple_types@U?$pair@$$CBW4SDL_Scancode@@_N@std@@@std@@@std@@@1@$$QA_N@Z$0:
  00000	8b 4d ec	 mov	 ecx, DWORD PTR _this$[ebp]
  00003	e9 00 00 00 00	 jmp	 ??1?$_Tree_iterator@V?$_Tree_val@U?$_Tree_simple_types@U?$pair@$$CBW4SDL_Scancode@@_N@std@@@std@@@std@@@std@@QAE@XZ
__ehhandler$??$?0AAV?$_Tree_iterator@V?$_Tree_val@U?$_Tree_simple_types@U?$pair@$$CBW4SDL_Scancode@@_N@std@@@std@@@std@@@std@@_NX@?$pair@V?$_Tree_iterator@V?$_Tree_val@U?$_Tree_simple_types@U?$pair@$$CBW4SDL_Scancode@@_N@std@@@std@@@std@@@std@@_N@std@@QAE@AAV?$_Tree_iterator@V?$_Tree_val@U?$_Tree_simple_types@U?$pair@$$CBW4SDL_Scancode@@_N@std@@@std@@@std@@@1@$$QA_N@Z:
  00008	8b 54 24 08	 mov	 edx, DWORD PTR [esp+8]
  0000c	8d 42 0c	 lea	 eax, DWORD PTR [edx+12]
  0000f	8b 8a 24 ff ff
	ff		 mov	 ecx, DWORD PTR [edx-220]
  00015	33 c8		 xor	 ecx, eax
  00017	e8 00 00 00 00	 call	 @__security_check_cookie@4
  0001c	b8 00 00 00 00	 mov	 eax, OFFSET __ehfuncinfo$??$?0AAV?$_Tree_iterator@V?$_Tree_val@U?$_Tree_simple_types@U?$pair@$$CBW4SDL_Scancode@@_N@std@@@std@@@std@@@std@@_NX@?$pair@V?$_Tree_iterator@V?$_Tree_val@U?$_Tree_simple_types@U?$pair@$$CBW4SDL_Scancode@@_N@std@@@std@@@std@@@std@@_N@std@@QAE@AAV?$_Tree_iterator@V?$_Tree_val@U?$_Tree_simple_types@U?$pair@$$CBW4SDL_Scancode@@_N@std@@@std@@@std@@@1@$$QA_N@Z
  00021	e9 00 00 00 00	 jmp	 ___CxxFrameHandler3
text$x	ENDS
??$?0AAV?$_Tree_iterator@V?$_Tree_val@U?$_Tree_simple_types@U?$pair@$$CBW4SDL_Scancode@@_N@std@@@std@@@std@@@std@@_NX@?$pair@V?$_Tree_iterator@V?$_Tree_val@U?$_Tree_simple_types@U?$pair@$$CBW4SDL_Scancode@@_N@std@@@std@@@std@@@std@@_N@std@@QAE@AAV?$_Tree_iterator@V?$_Tree_val@U?$_Tree_simple_types@U?$pair@$$CBW4SDL_Scancode@@_N@std@@@std@@@std@@@1@$$QA_N@Z ENDP ; std::pair<std::_Tree_iterator<std::_Tree_val<std::_Tree_simple_types<std::pair<enum SDL_Scancode const ,bool> > > >,bool>::pair<std::_Tree_iterator<std::_Tree_val<std::_Tree_simple_types<std::pair<enum SDL_Scancode const ,bool> > > >,bool><std::_Tree_iterator<std::_Tree_val<std::_Tree_simple_types<std::pair<enum SDL_Scancode const ,bool> > > > &,bool,void>
; Function compile flags: /Odtp /RTCsu /ZI
;	COMDAT ??$?0V?$_Tree_iterator@V?$_Tree_val@U?$_Tree_simple_types@U?$pair@$$CBW4SDL_Scancode@@_N@std@@@std@@@std@@@std@@_NX@?$pair@V?$_Tree_iterator@V?$_Tree_val@U?$_Tree_simple_types@U?$pair@$$CBW4SDL_Scancode@@_N@std@@@std@@@std@@@std@@_N@std@@QAE@$$QAV?$_Tree_iterator@V?$_Tree_val@U?$_Tree_simple_types@U?$pair@$$CBW4SDL_Scancode@@_N@std@@@std@@@std@@@1@$$QA_N@Z
_TEXT	SEGMENT
_this$ = -20						; size = 4
__$EHRec$ = -12						; size = 12
__Val1$ = 8						; size = 4
__Val2$ = 12						; size = 4
??$?0V?$_Tree_iterator@V?$_Tree_val@U?$_Tree_simple_types@U?$pair@$$CBW4SDL_Scancode@@_N@std@@@std@@@std@@@std@@_NX@?$pair@V?$_Tree_iterator@V?$_Tree_val@U?$_Tree_simple_types@U?$pair@$$CBW4SDL_Scancode@@_N@std@@@std@@@std@@@std@@_N@std@@QAE@$$QAV?$_Tree_iterator@V?$_Tree_val@U?$_Tree_simple_types@U?$pair@$$CBW4SDL_Scancode@@_N@std@@@std@@@std@@@1@$$QA_N@Z PROC ; std::pair<std::_Tree_iterator<std::_Tree_val<std::_Tree_simple_types<std::pair<enum SDL_Scancode const ,bool> > > >,bool>::pair<std::_Tree_iterator<std::_Tree_val<std::_Tree_simple_types<std::pair<enum SDL_Scancode const ,bool> > > >,bool><std::_Tree_iterator<std::_Tree_val<std::_Tree_simple_types<std::pair<enum SDL_Scancode const ,bool> > > >,bool,void>, COMDAT
; _this$ = ecx
; File c:\program files (x86)\microsoft visual studio 12.0\vc\include\utility
; Line 144
  00000	55		 push	 ebp
  00001	8b ec		 mov	 ebp, esp
  00003	6a ff		 push	 -1
  00005	68 00 00 00 00	 push	 __ehhandler$??$?0V?$_Tree_iterator@V?$_Tree_val@U?$_Tree_simple_types@U?$pair@$$CBW4SDL_Scancode@@_N@std@@@std@@@std@@@std@@_NX@?$pair@V?$_Tree_iterator@V?$_Tree_val@U?$_Tree_simple_types@U?$pair@$$CBW4SDL_Scancode@@_N@std@@@std@@@std@@@std@@_N@std@@QAE@$$QAV?$_Tree_iterator@V?$_Tree_val@U?$_Tree_simple_types@U?$pair@$$CBW4SDL_Scancode@@_N@std@@@std@@@std@@@1@$$QA_N@Z
  0000a	64 a1 00 00 00
	00		 mov	 eax, DWORD PTR fs:0
  00010	50		 push	 eax
  00011	81 ec cc 00 00
	00		 sub	 esp, 204		; 000000ccH
  00017	53		 push	 ebx
  00018	56		 push	 esi
  00019	57		 push	 edi
  0001a	51		 push	 ecx
  0001b	8d bd 28 ff ff
	ff		 lea	 edi, DWORD PTR [ebp-216]
  00021	b9 33 00 00 00	 mov	 ecx, 51			; 00000033H
  00026	b8 cc cc cc cc	 mov	 eax, -858993460		; ccccccccH
  0002b	f3 ab		 rep stosd
  0002d	59		 pop	 ecx
  0002e	a1 00 00 00 00	 mov	 eax, DWORD PTR ___security_cookie
  00033	33 c5		 xor	 eax, ebp
  00035	50		 push	 eax
  00036	8d 45 f4	 lea	 eax, DWORD PTR __$EHRec$[ebp]
  00039	64 a3 00 00 00
	00		 mov	 DWORD PTR fs:0, eax
  0003f	89 4d ec	 mov	 DWORD PTR _this$[ebp], ecx
  00042	8b 45 08	 mov	 eax, DWORD PTR __Val1$[ebp]
  00045	50		 push	 eax
  00046	e8 00 00 00 00	 call	 ??$forward@V?$_Tree_iterator@V?$_Tree_val@U?$_Tree_simple_types@U?$pair@$$CBW4SDL_Scancode@@_N@std@@@std@@@std@@@std@@@std@@YA$$QAV?$_Tree_iterator@V?$_Tree_val@U?$_Tree_simple_types@U?$pair@$$CBW4SDL_Scancode@@_N@std@@@std@@@std@@@0@AAV10@@Z ; std::forward<std::_Tree_iterator<std::_Tree_val<std::_Tree_simple_types<std::pair<enum SDL_Scancode const ,bool> > > > >
  0004b	83 c4 04	 add	 esp, 4
  0004e	50		 push	 eax
  0004f	8b 4d ec	 mov	 ecx, DWORD PTR _this$[ebp]
  00052	e8 00 00 00 00	 call	 ??0?$_Tree_iterator@V?$_Tree_val@U?$_Tree_simple_types@U?$pair@$$CBW4SDL_Scancode@@_N@std@@@std@@@std@@@std@@QAE@ABV01@@Z
  00057	c7 45 fc 00 00
	00 00		 mov	 DWORD PTR __$EHRec$[ebp+8], 0
  0005e	8b 45 0c	 mov	 eax, DWORD PTR __Val2$[ebp]
  00061	50		 push	 eax
  00062	e8 00 00 00 00	 call	 ??$forward@_N@std@@YA$$QA_NAA_N@Z ; std::forward<bool>
  00067	83 c4 04	 add	 esp, 4
  0006a	8b 4d ec	 mov	 ecx, DWORD PTR _this$[ebp]
  0006d	8a 10		 mov	 dl, BYTE PTR [eax]
  0006f	88 51 0c	 mov	 BYTE PTR [ecx+12], dl
; Line 145
  00072	c7 45 fc ff ff
	ff ff		 mov	 DWORD PTR __$EHRec$[ebp+8], -1
  00079	8b 45 ec	 mov	 eax, DWORD PTR _this$[ebp]
  0007c	8b 4d f4	 mov	 ecx, DWORD PTR __$EHRec$[ebp]
  0007f	64 89 0d 00 00
	00 00		 mov	 DWORD PTR fs:0, ecx
  00086	59		 pop	 ecx
  00087	5f		 pop	 edi
  00088	5e		 pop	 esi
  00089	5b		 pop	 ebx
  0008a	81 c4 d8 00 00
	00		 add	 esp, 216		; 000000d8H
  00090	3b ec		 cmp	 ebp, esp
  00092	e8 00 00 00 00	 call	 __RTC_CheckEsp
  00097	8b e5		 mov	 esp, ebp
  00099	5d		 pop	 ebp
  0009a	c2 08 00	 ret	 8
_TEXT	ENDS
;	COMDAT text$x
text$x	SEGMENT
__unwindfunclet$??$?0V?$_Tree_iterator@V?$_Tree_val@U?$_Tree_simple_types@U?$pair@$$CBW4SDL_Scancode@@_N@std@@@std@@@std@@@std@@_NX@?$pair@V?$_Tree_iterator@V?$_Tree_val@U?$_Tree_simple_types@U?$pair@$$CBW4SDL_Scancode@@_N@std@@@std@@@std@@@std@@_N@std@@QAE@$$QAV?$_Tree_iterator@V?$_Tree_val@U?$_Tree_simple_types@U?$pair@$$CBW4SDL_Scancode@@_N@std@@@std@@@std@@@1@$$QA_N@Z$0:
  00000	8b 4d ec	 mov	 ecx, DWORD PTR _this$[ebp]
  00003	e9 00 00 00 00	 jmp	 ??1?$_Tree_iterator@V?$_Tree_val@U?$_Tree_simple_types@U?$pair@$$CBW4SDL_Scancode@@_N@std@@@std@@@std@@@std@@QAE@XZ
__ehhandler$??$?0V?$_Tree_iterator@V?$_Tree_val@U?$_Tree_simple_types@U?$pair@$$CBW4SDL_Scancode@@_N@std@@@std@@@std@@@std@@_NX@?$pair@V?$_Tree_iterator@V?$_Tree_val@U?$_Tree_simple_types@U?$pair@$$CBW4SDL_Scancode@@_N@std@@@std@@@std@@@std@@_N@std@@QAE@$$QAV?$_Tree_iterator@V?$_Tree_val@U?$_Tree_simple_types@U?$pair@$$CBW4SDL_Scancode@@_N@std@@@std@@@std@@@1@$$QA_N@Z:
  00008	8b 54 24 08	 mov	 edx, DWORD PTR [esp+8]
  0000c	8d 42 0c	 lea	 eax, DWORD PTR [edx+12]
  0000f	8b 8a 24 ff ff
	ff		 mov	 ecx, DWORD PTR [edx-220]
  00015	33 c8		 xor	 ecx, eax
  00017	e8 00 00 00 00	 call	 @__security_check_cookie@4
  0001c	b8 00 00 00 00	 mov	 eax, OFFSET __ehfuncinfo$??$?0V?$_Tree_iterator@V?$_Tree_val@U?$_Tree_simple_types@U?$pair@$$CBW4SDL_Scancode@@_N@std@@@std@@@std@@@std@@_NX@?$pair@V?$_Tree_iterator@V?$_Tree_val@U?$_Tree_simple_types@U?$pair@$$CBW4SDL_Scancode@@_N@std@@@std@@@std@@@std@@_N@std@@QAE@$$QAV?$_Tree_iterator@V?$_Tree_val@U?$_Tree_simple_types@U?$pair@$$CBW4SDL_Scancode@@_N@std@@@std@@@std@@@1@$$QA_N@Z
  00021	e9 00 00 00 00	 jmp	 ___CxxFrameHandler3
text$x	ENDS
??$?0V?$_Tree_iterator@V?$_Tree_val@U?$_Tree_simple_types@U?$pair@$$CBW4SDL_Scancode@@_N@std@@@std@@@std@@@std@@_NX@?$pair@V?$_Tree_iterator@V?$_Tree_val@U?$_Tree_simple_types@U?$pair@$$CBW4SDL_Scancode@@_N@std@@@std@@@std@@@std@@_N@std@@QAE@$$QAV?$_Tree_iterator@V?$_Tree_val@U?$_Tree_simple_types@U?$pair@$$CBW4SDL_Scancode@@_N@std@@@std@@@std@@@1@$$QA_N@Z ENDP ; std::pair<std::_Tree_iterator<std::_Tree_val<std::_Tree_simple_types<std::pair<enum SDL_Scancode const ,bool> > > >,bool>::pair<std::_Tree_iterator<std::_Tree_val<std::_Tree_simple_types<std::pair<enum SDL_Scancode const ,bool> > > >,bool><std::_Tree_iterator<std::_Tree_val<std::_Tree_simple_types<std::pair<enum SDL_Scancode const ,bool> > > >,bool,void>
; Function compile flags: /Odtp /RTCsu /ZI
;	COMDAT ??$_Buynode_if_nil@AAU?$pair@$$CBW4SDL_Scancode@@_N@std@@@?$_Tree@V?$_Tmap_traits@W4SDL_Scancode@@_NU?$less@W4SDL_Scancode@@@std@@V?$allocator@U?$pair@$$CBW4SDL_Scancode@@_N@std@@@3@$0A@@std@@@std@@IAEPAU?$_Tree_node@U?$pair@$$CBW4SDL_Scancode@@_N@std@@PAX@1@PAU21@AAU?$pair@$$CBW4SDL_Scancode@@_N@1@@Z
_TEXT	SEGMENT
_this$ = -8						; size = 4
__Node$ = 8						; size = 4
___formal$ = 12						; size = 4
??$_Buynode_if_nil@AAU?$pair@$$CBW4SDL_Scancode@@_N@std@@@?$_Tree@V?$_Tmap_traits@W4SDL_Scancode@@_NU?$less@W4SDL_Scancode@@@std@@V?$allocator@U?$pair@$$CBW4SDL_Scancode@@_N@std@@@3@$0A@@std@@@std@@IAEPAU?$_Tree_node@U?$pair@$$CBW4SDL_Scancode@@_N@std@@PAX@1@PAU21@AAU?$pair@$$CBW4SDL_Scancode@@_N@1@@Z PROC ; std::_Tree<std::_Tmap_traits<enum SDL_Scancode,bool,std::less<enum SDL_Scancode>,std::allocator<std::pair<enum SDL_Scancode const ,bool> >,0> >::_Buynode_if_nil<std::pair<enum SDL_Scancode const ,bool> &>, COMDAT
; _this$ = ecx
; File c:\program files (x86)\microsoft visual studio 12.0\vc\include\xtree
; Line 1636
  00000	55		 push	 ebp
  00001	8b ec		 mov	 ebp, esp
  00003	81 ec cc 00 00
	00		 sub	 esp, 204		; 000000ccH
  00009	53		 push	 ebx
  0000a	56		 push	 esi
  0000b	57		 push	 edi
  0000c	51		 push	 ecx
  0000d	8d bd 34 ff ff
	ff		 lea	 edi, DWORD PTR [ebp-204]
  00013	b9 33 00 00 00	 mov	 ecx, 51			; 00000033H
  00018	b8 cc cc cc cc	 mov	 eax, -858993460		; ccccccccH
  0001d	f3 ab		 rep stosd
  0001f	59		 pop	 ecx
  00020	89 4d f8	 mov	 DWORD PTR _this$[ebp], ecx
; Line 1638
  00023	8b 45 08	 mov	 eax, DWORD PTR __Node$[ebp]
; Line 1639
  00026	5f		 pop	 edi
  00027	5e		 pop	 esi
  00028	5b		 pop	 ebx
  00029	8b e5		 mov	 esp, ebp
  0002b	5d		 pop	 ebp
  0002c	c2 08 00	 ret	 8
??$_Buynode_if_nil@AAU?$pair@$$CBW4SDL_Scancode@@_N@std@@@?$_Tree@V?$_Tmap_traits@W4SDL_Scancode@@_NU?$less@W4SDL_Scancode@@@std@@V?$allocator@U?$pair@$$CBW4SDL_Scancode@@_N@std@@@3@$0A@@std@@@std@@IAEPAU?$_Tree_node@U?$pair@$$CBW4SDL_Scancode@@_N@std@@PAX@1@PAU21@AAU?$pair@$$CBW4SDL_Scancode@@_N@1@@Z ENDP ; std::_Tree<std::_Tmap_traits<enum SDL_Scancode,bool,std::less<enum SDL_Scancode>,std::allocator<std::pair<enum SDL_Scancode const ,bool> >,0> >::_Buynode_if_nil<std::pair<enum SDL_Scancode const ,bool> &>
_TEXT	ENDS
; Function compile flags: /Odtp /RTCsu /ZI
;	COMDAT ??$construct@U?$pair@$$CBW4SDL_Scancode@@_N@std@@ABUpiecewise_construct_t@2@V?$tuple@ABW4SDL_Scancode@@@2@V?$tuple@$$$V@2@@?$allocator_traits@V?$allocator@U?$_Tree_node@U?$pair@$$CBW4SDL_Scancode@@_N@std@@PAX@std@@@std@@@std@@SAXAAV?$allocator@U?$_Tree_node@U?$pair@$$CBW4SDL_Scancode@@_N@std@@PAX@std@@@1@PAU?$pair@$$CBW4SDL_Scancode@@_N@1@ABUpiecewise_construct_t@1@$$QAV?$tuple@ABW4SDL_Scancode@@@1@$$QAV?$tuple@$$$V@1@@Z
_TEXT	SEGMENT
__Al$ = 8						; size = 4
__Ptr$ = 12						; size = 4
_<_Args_0>$ = 16					; size = 4
_<_Args_1>$ = 20					; size = 4
_<_Args_2>$ = 24					; size = 4
??$construct@U?$pair@$$CBW4SDL_Scancode@@_N@std@@ABUpiecewise_construct_t@2@V?$tuple@ABW4SDL_Scancode@@@2@V?$tuple@$$$V@2@@?$allocator_traits@V?$allocator@U?$_Tree_node@U?$pair@$$CBW4SDL_Scancode@@_N@std@@PAX@std@@@std@@@std@@SAXAAV?$allocator@U?$_Tree_node@U?$pair@$$CBW4SDL_Scancode@@_N@std@@PAX@std@@@1@PAU?$pair@$$CBW4SDL_Scancode@@_N@1@ABUpiecewise_construct_t@1@$$QAV?$tuple@ABW4SDL_Scancode@@@1@$$QAV?$tuple@$$$V@1@@Z PROC ; std::allocator_traits<std::allocator<std::_Tree_node<std::pair<enum SDL_Scancode const ,bool>,void *> > >::construct<std::pair<enum SDL_Scancode const ,bool>,std::piecewise_construct_t const &,std::tuple<enum SDL_Scancode const &>,std::tuple<> >, COMDAT
; File c:\program files (x86)\microsoft visual studio 12.0\vc\include\xmemory0
; Line 720
  00000	55		 push	 ebp
  00001	8b ec		 mov	 ebp, esp
  00003	81 ec c0 00 00
	00		 sub	 esp, 192		; 000000c0H
  00009	53		 push	 ebx
  0000a	56		 push	 esi
  0000b	57		 push	 edi
  0000c	8d bd 40 ff ff
	ff		 lea	 edi, DWORD PTR [ebp-192]
  00012	b9 30 00 00 00	 mov	 ecx, 48			; 00000030H
  00017	b8 cc cc cc cc	 mov	 eax, -858993460		; ccccccccH
  0001c	f3 ab		 rep stosd
; Line 723
  0001e	8b 45 18	 mov	 eax, DWORD PTR _<_Args_2>$[ebp]
  00021	50		 push	 eax
  00022	e8 00 00 00 00	 call	 ??$forward@V?$tuple@$$$V@std@@@std@@YA$$QAV?$tuple@$$$V@0@AAV10@@Z ; std::forward<std::tuple<> >
  00027	83 c4 04	 add	 esp, 4
  0002a	50		 push	 eax
  0002b	8b 4d 14	 mov	 ecx, DWORD PTR _<_Args_1>$[ebp]
  0002e	51		 push	 ecx
  0002f	e8 00 00 00 00	 call	 ??$forward@V?$tuple@ABW4SDL_Scancode@@@std@@@std@@YA$$QAV?$tuple@ABW4SDL_Scancode@@@0@AAV10@@Z ; std::forward<std::tuple<enum SDL_Scancode const &> >
  00034	83 c4 04	 add	 esp, 4
  00037	50		 push	 eax
  00038	8b 55 10	 mov	 edx, DWORD PTR _<_Args_0>$[ebp]
  0003b	52		 push	 edx
  0003c	e8 00 00 00 00	 call	 ??$forward@ABUpiecewise_construct_t@std@@@std@@YAABUpiecewise_construct_t@0@ABU10@@Z ; std::forward<std::piecewise_construct_t const &>
  00041	83 c4 04	 add	 esp, 4
  00044	50		 push	 eax
  00045	8b 45 0c	 mov	 eax, DWORD PTR __Ptr$[ebp]
  00048	50		 push	 eax
  00049	8b 4d 08	 mov	 ecx, DWORD PTR __Al$[ebp]
  0004c	e8 00 00 00 00	 call	 ??$construct@U?$pair@$$CBW4SDL_Scancode@@_N@std@@ABUpiecewise_construct_t@2@V?$tuple@ABW4SDL_Scancode@@@2@V?$tuple@$$$V@2@@?$allocator@U?$_Tree_node@U?$pair@$$CBW4SDL_Scancode@@_N@std@@PAX@std@@@std@@QAEXPAU?$pair@$$CBW4SDL_Scancode@@_N@1@ABUpiecewise_construct_t@1@$$QAV?$tuple@ABW4SDL_Scancode@@@1@$$QAV?$tuple@$$$V@1@@Z ; std::allocator<std::_Tree_node<std::pair<enum SDL_Scancode const ,bool>,void *> >::construct<std::pair<enum SDL_Scancode const ,bool>,std::piecewise_construct_t const &,std::tuple<enum SDL_Scancode const &>,std::tuple<> >
; Line 724
  00051	5f		 pop	 edi
  00052	5e		 pop	 esi
  00053	5b		 pop	 ebx
  00054	81 c4 c0 00 00
	00		 add	 esp, 192		; 000000c0H
  0005a	3b ec		 cmp	 ebp, esp
  0005c	e8 00 00 00 00	 call	 __RTC_CheckEsp
  00061	8b e5		 mov	 esp, ebp
  00063	5d		 pop	 ebp
  00064	c3		 ret	 0
??$construct@U?$pair@$$CBW4SDL_Scancode@@_N@std@@ABUpiecewise_construct_t@2@V?$tuple@ABW4SDL_Scancode@@@2@V?$tuple@$$$V@2@@?$allocator_traits@V?$allocator@U?$_Tree_node@U?$pair@$$CBW4SDL_Scancode@@_N@std@@PAX@std@@@std@@@std@@SAXAAV?$allocator@U?$_Tree_node@U?$pair@$$CBW4SDL_Scancode@@_N@std@@PAX@std@@@1@PAU?$pair@$$CBW4SDL_Scancode@@_N@1@ABUpiecewise_construct_t@1@$$QAV?$tuple@ABW4SDL_Scancode@@@1@$$QAV?$tuple@$$$V@1@@Z ENDP ; std::allocator_traits<std::allocator<std::_Tree_node<std::pair<enum SDL_Scancode const ,bool>,void *> > >::construct<std::pair<enum SDL_Scancode const ,bool>,std::piecewise_construct_t const &,std::tuple<enum SDL_Scancode const &>,std::tuple<> >
_TEXT	ENDS
; Function compile flags: /Odtp /RTCsu /ZI
;	COMDAT ??$_Allocate@U?$_Tree_node@U?$pair@$$CBW4SDL_Scancode@@_N@std@@PAX@std@@@std@@YAPAU?$_Tree_node@U?$pair@$$CBW4SDL_Scancode@@_N@std@@PAX@0@IPAU10@@Z
_TEXT	SEGMENT
__Ptr$ = -8						; size = 4
__Count$ = 8						; size = 4
___formal$ = 12						; size = 4
??$_Allocate@U?$_Tree_node@U?$pair@$$CBW4SDL_Scancode@@_N@std@@PAX@std@@@std@@YAPAU?$_Tree_node@U?$pair@$$CBW4SDL_Scancode@@_N@std@@PAX@0@IPAU10@@Z PROC ; std::_Allocate<std::_Tree_node<std::pair<enum SDL_Scancode const ,bool>,void *> >, COMDAT
; File c:\program files (x86)\microsoft visual studio 12.0\vc\include\xmemory0
; Line 22
  00000	55		 push	 ebp
  00001	8b ec		 mov	 ebp, esp
  00003	81 ec cc 00 00
	00		 sub	 esp, 204		; 000000ccH
  00009	53		 push	 ebx
  0000a	56		 push	 esi
  0000b	57		 push	 edi
  0000c	8d bd 34 ff ff
	ff		 lea	 edi, DWORD PTR [ebp-204]
  00012	b9 33 00 00 00	 mov	 ecx, 51			; 00000033H
  00017	b8 cc cc cc cc	 mov	 eax, -858993460		; ccccccccH
  0001c	f3 ab		 rep stosd
; Line 23
  0001e	c7 45 f8 00 00
	00 00		 mov	 DWORD PTR __Ptr$[ebp], 0
; Line 25
  00025	83 7d 08 00	 cmp	 DWORD PTR __Count$[ebp], 0
  00029	75 02		 jne	 SHORT $LN4@Allocate
; Line 27
  0002b	eb 2e		 jmp	 SHORT $LN3@Allocate
$LN4@Allocate:
; Line 28
  0002d	81 7d 08 aa aa
	aa 0a		 cmp	 DWORD PTR __Count$[ebp], 178956970 ; 0aaaaaaaH
  00034	77 16		 ja	 SHORT $LN1@Allocate
  00036	6b 45 08 18	 imul	 eax, DWORD PTR __Count$[ebp], 24
  0003a	50		 push	 eax
  0003b	e8 00 00 00 00	 call	 ??2@YAPAXI@Z		; operator new
  00040	83 c4 04	 add	 esp, 4
  00043	89 45 f8	 mov	 DWORD PTR __Ptr$[ebp], eax
  00046	83 7d f8 00	 cmp	 DWORD PTR __Ptr$[ebp], 0
  0004a	75 0f		 jne	 SHORT $LN3@Allocate
$LN1@Allocate:
; Line 29
  0004c	8b f4		 mov	 esi, esp
  0004e	ff 15 00 00 00
	00		 call	 DWORD PTR __imp_?_Xbad_alloc@std@@YAXXZ
  00054	3b f4		 cmp	 esi, esp
  00056	e8 00 00 00 00	 call	 __RTC_CheckEsp
$LN3@Allocate:
; Line 31
  0005b	8b 45 f8	 mov	 eax, DWORD PTR __Ptr$[ebp]
$LN6@Allocate:
; Line 32
  0005e	5f		 pop	 edi
  0005f	5e		 pop	 esi
  00060	5b		 pop	 ebx
  00061	81 c4 cc 00 00
	00		 add	 esp, 204		; 000000ccH
  00067	3b ec		 cmp	 ebp, esp
  00069	e8 00 00 00 00	 call	 __RTC_CheckEsp
  0006e	8b e5		 mov	 esp, ebp
  00070	5d		 pop	 ebp
  00071	c3		 ret	 0
??$_Allocate@U?$_Tree_node@U?$pair@$$CBW4SDL_Scancode@@_N@std@@PAX@std@@@std@@YAPAU?$_Tree_node@U?$pair@$$CBW4SDL_Scancode@@_N@std@@PAX@0@IPAU10@@Z ENDP ; std::_Allocate<std::_Tree_node<std::pair<enum SDL_Scancode const ,bool>,void *> >
_TEXT	ENDS
; Function compile flags: /Odtp /RTCsu /ZI
;	COMDAT ??$destroy@PAU?$_Tree_node@U?$pair@$$CBW4SDL_Scancode@@_N@std@@PAX@std@@@?$_Wrap_alloc@V?$allocator@U?$_Tree_node@U?$pair@$$CBW4SDL_Scancode@@_N@std@@PAX@std@@@std@@@std@@QAEXPAPAU?$_Tree_node@U?$pair@$$CBW4SDL_Scancode@@_N@std@@PAX@1@@Z
_TEXT	SEGMENT
_this$ = -8						; size = 4
__Ptr$ = 8						; size = 4
??$destroy@PAU?$_Tree_node@U?$pair@$$CBW4SDL_Scancode@@_N@std@@PAX@std@@@?$_Wrap_alloc@V?$allocator@U?$_Tree_node@U?$pair@$$CBW4SDL_Scancode@@_N@std@@PAX@std@@@std@@@std@@QAEXPAPAU?$_Tree_node@U?$pair@$$CBW4SDL_Scancode@@_N@std@@PAX@1@@Z PROC ; std::_Wrap_alloc<std::allocator<std::_Tree_node<std::pair<enum SDL_Scancode const ,bool>,void *> > >::destroy<std::_Tree_node<std::pair<enum SDL_Scancode const ,bool>,void *> *>, COMDAT
; _this$ = ecx
; File c:\program files (x86)\microsoft visual studio 12.0\vc\include\xmemory0
; Line 877
  00000	55		 push	 ebp
  00001	8b ec		 mov	 ebp, esp
  00003	81 ec cc 00 00
	00		 sub	 esp, 204		; 000000ccH
  00009	53		 push	 ebx
  0000a	56		 push	 esi
  0000b	57		 push	 edi
  0000c	51		 push	 ecx
  0000d	8d bd 34 ff ff
	ff		 lea	 edi, DWORD PTR [ebp-204]
  00013	b9 33 00 00 00	 mov	 ecx, 51			; 00000033H
  00018	b8 cc cc cc cc	 mov	 eax, -858993460		; ccccccccH
  0001d	f3 ab		 rep stosd
  0001f	59		 pop	 ecx
  00020	89 4d f8	 mov	 DWORD PTR _this$[ebp], ecx
; Line 879
  00023	8b 45 08	 mov	 eax, DWORD PTR __Ptr$[ebp]
  00026	50		 push	 eax
  00027	8b 4d f8	 mov	 ecx, DWORD PTR _this$[ebp]
  0002a	51		 push	 ecx
  0002b	e8 00 00 00 00	 call	 ??$destroy@PAU?$_Tree_node@U?$pair@$$CBW4SDL_Scancode@@_N@std@@PAX@std@@@?$allocator_traits@V?$allocator@U?$_Tree_node@U?$pair@$$CBW4SDL_Scancode@@_N@std@@PAX@std@@@std@@@std@@SAXAAV?$allocator@U?$_Tree_node@U?$pair@$$CBW4SDL_Scancode@@_N@std@@PAX@std@@@1@PAPAU?$_Tree_node@U?$pair@$$CBW4SDL_Scancode@@_N@std@@PAX@1@@Z ; std::allocator_traits<std::allocator<std::_Tree_node<std::pair<enum SDL_Scancode const ,bool>,void *> > >::destroy<std::_Tree_node<std::pair<enum SDL_Scancode const ,bool>,void *> *>
  00030	83 c4 08	 add	 esp, 8
; Line 880
  00033	5f		 pop	 edi
  00034	5e		 pop	 esi
  00035	5b		 pop	 ebx
  00036	81 c4 cc 00 00
	00		 add	 esp, 204		; 000000ccH
  0003c	3b ec		 cmp	 ebp, esp
  0003e	e8 00 00 00 00	 call	 __RTC_CheckEsp
  00043	8b e5		 mov	 esp, ebp
  00045	5d		 pop	 ebp
  00046	c2 04 00	 ret	 4
??$destroy@PAU?$_Tree_node@U?$pair@$$CBW4SDL_Scancode@@_N@std@@PAX@std@@@?$_Wrap_alloc@V?$allocator@U?$_Tree_node@U?$pair@$$CBW4SDL_Scancode@@_N@std@@PAX@std@@@std@@@std@@QAEXPAPAU?$_Tree_node@U?$pair@$$CBW4SDL_Scancode@@_N@std@@PAX@1@@Z ENDP ; std::_Wrap_alloc<std::allocator<std::_Tree_node<std::pair<enum SDL_Scancode const ,bool>,void *> > >::destroy<std::_Tree_node<std::pair<enum SDL_Scancode const ,bool>,void *> *>
_TEXT	ENDS
; Function compile flags: /Odtp /RTCsu /ZI
;	COMDAT ??$construct@PAU?$_Tree_node@U?$pair@$$CBW4SDL_Scancode@@_N@std@@PAX@std@@AAPAU12@@?$_Wrap_alloc@V?$allocator@U?$_Tree_node@U?$pair@$$CBW4SDL_Scancode@@_N@std@@PAX@std@@@std@@@std@@QAEXPAPAU?$_Tree_node@U?$pair@$$CBW4SDL_Scancode@@_N@std@@PAX@1@AAPAU21@@Z
_TEXT	SEGMENT
_this$ = -8						; size = 4
__Ptr$ = 8						; size = 4
_<_Args_0>$ = 12					; size = 4
??$construct@PAU?$_Tree_node@U?$pair@$$CBW4SDL_Scancode@@_N@std@@PAX@std@@AAPAU12@@?$_Wrap_alloc@V?$allocator@U?$_Tree_node@U?$pair@$$CBW4SDL_Scancode@@_N@std@@PAX@std@@@std@@@std@@QAEXPAPAU?$_Tree_node@U?$pair@$$CBW4SDL_Scancode@@_N@std@@PAX@1@AAPAU21@@Z PROC ; std::_Wrap_alloc<std::allocator<std::_Tree_node<std::pair<enum SDL_Scancode const ,bool>,void *> > >::construct<std::_Tree_node<std::pair<enum SDL_Scancode const ,bool>,void *> *,std::_Tree_node<std::pair<enum SDL_Scancode const ,bool>,void *> * &>, COMDAT
; _this$ = ecx
; File c:\program files (x86)\microsoft visual studio 12.0\vc\include\xmemory0
; Line 868
  00000	55		 push	 ebp
  00001	8b ec		 mov	 ebp, esp
  00003	81 ec cc 00 00
	00		 sub	 esp, 204		; 000000ccH
  00009	53		 push	 ebx
  0000a	56		 push	 esi
  0000b	57		 push	 edi
  0000c	51		 push	 ecx
  0000d	8d bd 34 ff ff
	ff		 lea	 edi, DWORD PTR [ebp-204]
  00013	b9 33 00 00 00	 mov	 ecx, 51			; 00000033H
  00018	b8 cc cc cc cc	 mov	 eax, -858993460		; ccccccccH
  0001d	f3 ab		 rep stosd
  0001f	59		 pop	 ecx
  00020	89 4d f8	 mov	 DWORD PTR _this$[ebp], ecx
; Line 872
  00023	8b 45 0c	 mov	 eax, DWORD PTR _<_Args_0>$[ebp]
  00026	50		 push	 eax
  00027	e8 00 00 00 00	 call	 ??$forward@AAPAU?$_Tree_node@U?$pair@$$CBW4SDL_Scancode@@_N@std@@PAX@std@@@std@@YAAAPAU?$_Tree_node@U?$pair@$$CBW4SDL_Scancode@@_N@std@@PAX@0@AAPAU10@@Z ; std::forward<std::_Tree_node<std::pair<enum SDL_Scancode const ,bool>,void *> * &>
  0002c	83 c4 04	 add	 esp, 4
  0002f	50		 push	 eax
  00030	8b 4d 08	 mov	 ecx, DWORD PTR __Ptr$[ebp]
  00033	51		 push	 ecx
  00034	8b 55 f8	 mov	 edx, DWORD PTR _this$[ebp]
  00037	52		 push	 edx
  00038	e8 00 00 00 00	 call	 ??$construct@PAU?$_Tree_node@U?$pair@$$CBW4SDL_Scancode@@_N@std@@PAX@std@@AAPAU12@@?$allocator_traits@V?$allocator@U?$_Tree_node@U?$pair@$$CBW4SDL_Scancode@@_N@std@@PAX@std@@@std@@@std@@SAXAAV?$allocator@U?$_Tree_node@U?$pair@$$CBW4SDL_Scancode@@_N@std@@PAX@std@@@1@PAPAU?$_Tree_node@U?$pair@$$CBW4SDL_Scancode@@_N@std@@PAX@1@AAPAU31@@Z ; std::allocator_traits<std::allocator<std::_Tree_node<std::pair<enum SDL_Scancode const ,bool>,void *> > >::construct<std::_Tree_node<std::pair<enum SDL_Scancode const ,bool>,void *> *,std::_Tree_node<std::pair<enum SDL_Scancode const ,bool>,void *> * &>
  0003d	83 c4 0c	 add	 esp, 12			; 0000000cH
; Line 873
  00040	5f		 pop	 edi
  00041	5e		 pop	 esi
  00042	5b		 pop	 ebx
  00043	81 c4 cc 00 00
	00		 add	 esp, 204		; 000000ccH
  00049	3b ec		 cmp	 ebp, esp
  0004b	e8 00 00 00 00	 call	 __RTC_CheckEsp
  00050	8b e5		 mov	 esp, ebp
  00052	5d		 pop	 ebp
  00053	c2 08 00	 ret	 8
??$construct@PAU?$_Tree_node@U?$pair@$$CBW4SDL_Scancode@@_N@std@@PAX@std@@AAPAU12@@?$_Wrap_alloc@V?$allocator@U?$_Tree_node@U?$pair@$$CBW4SDL_Scancode@@_N@std@@PAX@std@@@std@@@std@@QAEXPAPAU?$_Tree_node@U?$pair@$$CBW4SDL_Scancode@@_N@std@@PAX@1@AAPAU21@@Z ENDP ; std::_Wrap_alloc<std::allocator<std::_Tree_node<std::pair<enum SDL_Scancode const ,bool>,void *> > >::construct<std::_Tree_node<std::pair<enum SDL_Scancode const ,bool>,void *> *,std::_Tree_node<std::pair<enum SDL_Scancode const ,bool>,void *> * &>
_TEXT	ENDS
; Function compile flags: /Odtp /RTCsu /ZI
;	COMDAT ??$addressof@PAU?$_Tree_node@U?$pair@$$CBW4SDL_Scancode@@_N@std@@PAX@std@@@std@@YAPAPAU?$_Tree_node@U?$pair@$$CBW4SDL_Scancode@@_N@std@@PAX@0@AAPAU10@@Z
_TEXT	SEGMENT
__Val$ = 8						; size = 4
??$addressof@PAU?$_Tree_node@U?$pair@$$CBW4SDL_Scancode@@_N@std@@PAX@std@@@std@@YAPAPAU?$_Tree_node@U?$pair@$$CBW4SDL_Scancode@@_N@std@@PAX@0@AAPAU10@@Z PROC ; std::addressof<std::_Tree_node<std::pair<enum SDL_Scancode const ,bool>,void *> *>, COMDAT
; File c:\program files (x86)\microsoft visual studio 12.0\vc\include\xstddef
; Line 92
  00000	55		 push	 ebp
  00001	8b ec		 mov	 ebp, esp
  00003	81 ec c0 00 00
	00		 sub	 esp, 192		; 000000c0H
  00009	53		 push	 ebx
  0000a	56		 push	 esi
  0000b	57		 push	 edi
  0000c	8d bd 40 ff ff
	ff		 lea	 edi, DWORD PTR [ebp-192]
  00012	b9 30 00 00 00	 mov	 ecx, 48			; 00000030H
  00017	b8 cc cc cc cc	 mov	 eax, -858993460		; ccccccccH
  0001c	f3 ab		 rep stosd
; Line 95
  0001e	8b 45 08	 mov	 eax, DWORD PTR __Val$[ebp]
; Line 96
  00021	5f		 pop	 edi
  00022	5e		 pop	 esi
  00023	5b		 pop	 ebx
  00024	8b e5		 mov	 esp, ebp
  00026	5d		 pop	 ebp
  00027	c3		 ret	 0
??$addressof@PAU?$_Tree_node@U?$pair@$$CBW4SDL_Scancode@@_N@std@@PAX@std@@@std@@YAPAPAU?$_Tree_node@U?$pair@$$CBW4SDL_Scancode@@_N@std@@PAX@0@AAPAU10@@Z ENDP ; std::addressof<std::_Tree_node<std::pair<enum SDL_Scancode const ,bool>,void *> *>
_TEXT	ENDS
; Function compile flags: /Odtp /RTCsu /ZI
;	COMDAT ??$destroy@U?$pair@$$CBW4SDL_Scancode@@_N@std@@@?$allocator@U?$_Tree_node@U?$pair@$$CBW4SDL_Scancode@@_N@std@@PAX@std@@@std@@QAEXPAU?$pair@$$CBW4SDL_Scancode@@_N@1@@Z
_TEXT	SEGMENT
_this$ = -8						; size = 4
__Ptr$ = 8						; size = 4
??$destroy@U?$pair@$$CBW4SDL_Scancode@@_N@std@@@?$allocator@U?$_Tree_node@U?$pair@$$CBW4SDL_Scancode@@_N@std@@PAX@std@@@std@@QAEXPAU?$pair@$$CBW4SDL_Scancode@@_N@1@@Z PROC ; std::allocator<std::_Tree_node<std::pair<enum SDL_Scancode const ,bool>,void *> >::destroy<std::pair<enum SDL_Scancode const ,bool> >, COMDAT
; _this$ = ecx
; File c:\program files (x86)\microsoft visual studio 12.0\vc\include\xmemory0
; Line 605
  00000	55		 push	 ebp
  00001	8b ec		 mov	 ebp, esp
  00003	81 ec cc 00 00
	00		 sub	 esp, 204		; 000000ccH
  00009	53		 push	 ebx
  0000a	56		 push	 esi
  0000b	57		 push	 edi
  0000c	51		 push	 ecx
  0000d	8d bd 34 ff ff
	ff		 lea	 edi, DWORD PTR [ebp-204]
  00013	b9 33 00 00 00	 mov	 ecx, 51			; 00000033H
  00018	b8 cc cc cc cc	 mov	 eax, -858993460		; ccccccccH
  0001d	f3 ab		 rep stosd
  0001f	59		 pop	 ecx
  00020	89 4d f8	 mov	 DWORD PTR _this$[ebp], ecx
; Line 608
  00023	5f		 pop	 edi
  00024	5e		 pop	 esi
  00025	5b		 pop	 ebx
  00026	8b e5		 mov	 esp, ebp
  00028	5d		 pop	 ebp
  00029	c2 04 00	 ret	 4
??$destroy@U?$pair@$$CBW4SDL_Scancode@@_N@std@@@?$allocator@U?$_Tree_node@U?$pair@$$CBW4SDL_Scancode@@_N@std@@PAX@std@@@std@@QAEXPAU?$pair@$$CBW4SDL_Scancode@@_N@1@@Z ENDP ; std::allocator<std::_Tree_node<std::pair<enum SDL_Scancode const ,bool>,void *> >::destroy<std::pair<enum SDL_Scancode const ,bool> >
_TEXT	ENDS
; Function compile flags: /Odtp /RTCsu /ZI
;	COMDAT ??1?$pair@V?$_Tree_iterator@V?$_Tree_val@U?$_Tree_simple_types@U?$pair@$$CBW4SDL_Scancode@@_N@std@@@std@@@std@@@std@@_N@std@@QAE@XZ
_TEXT	SEGMENT
_this$ = -8						; size = 4
??1?$pair@V?$_Tree_iterator@V?$_Tree_val@U?$_Tree_simple_types@U?$pair@$$CBW4SDL_Scancode@@_N@std@@@std@@@std@@@std@@_N@std@@QAE@XZ PROC ; std::pair<std::_Tree_iterator<std::_Tree_val<std::_Tree_simple_types<std::pair<enum SDL_Scancode const ,bool> > > >,bool>::~pair<std::_Tree_iterator<std::_Tree_val<std::_Tree_simple_types<std::pair<enum SDL_Scancode const ,bool> > > >,bool>, COMDAT
; _this$ = ecx
  00000	55		 push	 ebp
  00001	8b ec		 mov	 ebp, esp
  00003	81 ec cc 00 00
	00		 sub	 esp, 204		; 000000ccH
  00009	53		 push	 ebx
  0000a	56		 push	 esi
  0000b	57		 push	 edi
  0000c	51		 push	 ecx
  0000d	8d bd 34 ff ff
	ff		 lea	 edi, DWORD PTR [ebp-204]
  00013	b9 33 00 00 00	 mov	 ecx, 51			; 00000033H
  00018	b8 cc cc cc cc	 mov	 eax, -858993460		; ccccccccH
  0001d	f3 ab		 rep stosd
  0001f	59		 pop	 ecx
  00020	89 4d f8	 mov	 DWORD PTR _this$[ebp], ecx
  00023	8b 4d f8	 mov	 ecx, DWORD PTR _this$[ebp]
  00026	e8 00 00 00 00	 call	 ??1?$_Tree_iterator@V?$_Tree_val@U?$_Tree_simple_types@U?$pair@$$CBW4SDL_Scancode@@_N@std@@@std@@@std@@@std@@QAE@XZ
  0002b	5f		 pop	 edi
  0002c	5e		 pop	 esi
  0002d	5b		 pop	 ebx
  0002e	81 c4 cc 00 00
	00		 add	 esp, 204		; 000000ccH
  00034	3b ec		 cmp	 ebp, esp
  00036	e8 00 00 00 00	 call	 __RTC_CheckEsp
  0003b	8b e5		 mov	 esp, ebp
  0003d	5d		 pop	 ebp
  0003e	c3		 ret	 0
??1?$pair@V?$_Tree_iterator@V?$_Tree_val@U?$_Tree_simple_types@U?$pair@$$CBW4SDL_Scancode@@_N@std@@@std@@@std@@@std@@_N@std@@QAE@XZ ENDP ; std::pair<std::_Tree_iterator<std::_Tree_val<std::_Tree_simple_types<std::pair<enum SDL_Scancode const ,bool> > > >,bool>::~pair<std::_Tree_iterator<std::_Tree_val<std::_Tree_simple_types<std::pair<enum SDL_Scancode const ,bool> > > >,bool>
_TEXT	ENDS
; Function compile flags: /Odtp /RTCsu /ZI
;	COMDAT ??$_Insert_nohint@AAU?$pair@$$CBW4SDL_Scancode@@_N@std@@PAU?$_Tree_node@U?$pair@$$CBW4SDL_Scancode@@_N@std@@PAX@2@@?$_Tree@V?$_Tmap_traits@W4SDL_Scancode@@_NU?$less@W4SDL_Scancode@@@std@@V?$allocator@U?$pair@$$CBW4SDL_Scancode@@_N@std@@@3@$0A@@std@@@std@@IAE?AU?$pair@V?$_Tree_iterator@V?$_Tree_val@U?$_Tree_simple_types@U?$pair@$$CBW4SDL_Scancode@@_N@std@@@std@@@std@@@std@@_N@1@_NAAU?$pair@$$CBW4SDL_Scancode@@_N@1@PAU?$_Tree_node@U?$pair@$$CBW4SDL_Scancode@@_N@std@@PAX@1@@Z
_TEXT	SEGMENT
tv130 = -488						; size = 4
tv316 = -485						; size = 1
tv315 = -484						; size = 4
tv302 = -481						; size = 1
tv298 = -481						; size = 1
tv314 = -480						; size = 4
tv304 = -480						; size = 4
tv301 = -480						; size = 4
tv297 = -480						; size = 4
tv291 = -480						; size = 4
tv287 = -480						; size = 4
tv278 = -480						; size = 4
tv309 = -477						; size = 1
tv318 = -476						; size = 4
tv313 = -476						; size = 4
tv311 = -476						; size = 4
tv306 = -476						; size = 4
tv300 = -476						; size = 4
tv285 = -476						; size = 4
tv160 = -476						; size = 4
tv157 = -476						; size = 4
tv317 = -472						; size = 4
tv312 = -472						; size = 4
tv310 = -472						; size = 4
tv308 = -472						; size = 4
tv307 = -472						; size = 4
tv305 = -472						; size = 4
tv303 = -472						; size = 4
tv299 = -472						; size = 4
tv269 = -472						; size = 4
tv251 = -472						; size = 4
tv207 = -472						; size = 4
$T2 = -461						; size = 1
$T3 = -449						; size = 1
$T4 = -437						; size = 1
$T5 = -428						; size = 12
$T6 = -405						; size = 1
$T7 = -396						; size = 12
$T8 = -373						; size = 1
$T9 = -364						; size = 12
$T10 = -341						; size = 1
$T11 = -329						; size = 1
$T12 = -320						; size = 12
$T13 = -297						; size = 1
$T14 = -288						; size = 4
__Where$15 = -84					; size = 12
__Addleft$16 = -61					; size = 1
__Wherenode$17 = -52					; size = 4
__Trynode$18 = -40					; size = 4
_this$ = -28						; size = 4
__$ArrayPad$ = -20					; size = 4
__$EHRec$ = -16						; size = 16
___$ReturnUdt$ = 8					; size = 4
__Leftish$ = 12						; size = 1
__Val$ = 16						; size = 4
__Newnode$ = 20						; size = 4
??$_Insert_nohint@AAU?$pair@$$CBW4SDL_Scancode@@_N@std@@PAU?$_Tree_node@U?$pair@$$CBW4SDL_Scancode@@_N@std@@PAX@2@@?$_Tree@V?$_Tmap_traits@W4SDL_Scancode@@_NU?$less@W4SDL_Scancode@@@std@@V?$allocator@U?$pair@$$CBW4SDL_Scancode@@_N@std@@@3@$0A@@std@@@std@@IAE?AU?$pair@V?$_Tree_iterator@V?$_Tree_val@U?$_Tree_simple_types@U?$pair@$$CBW4SDL_Scancode@@_N@std@@@std@@@std@@@std@@_N@1@_NAAU?$pair@$$CBW4SDL_Scancode@@_N@1@PAU?$_Tree_node@U?$pair@$$CBW4SDL_Scancode@@_N@std@@PAX@1@@Z PROC ; std::_Tree<std::_Tmap_traits<enum SDL_Scancode,bool,std::less<enum SDL_Scancode>,std::allocator<std::pair<enum SDL_Scancode const ,bool> >,0> >::_Insert_nohint<std::pair<enum SDL_Scancode const ,bool> &,std::_Tree_node<std::pair<enum SDL_Scancode const ,bool>,void *> *>, COMDAT
; _this$ = ecx
; File c:\program files (x86)\microsoft visual studio 12.0\vc\include\xtree
; Line 1777
  00000	55		 push	 ebp
  00001	8b ec		 mov	 ebp, esp
  00003	6a ff		 push	 -1
  00005	68 00 00 00 00	 push	 __ehhandler$??$_Insert_nohint@AAU?$pair@$$CBW4SDL_Scancode@@_N@std@@PAU?$_Tree_node@U?$pair@$$CBW4SDL_Scancode@@_N@std@@PAX@2@@?$_Tree@V?$_Tmap_traits@W4SDL_Scancode@@_NU?$less@W4SDL_Scancode@@@std@@V?$allocator@U?$pair@$$CBW4SDL_Scancode@@_N@std@@@3@$0A@@std@@@std@@IAE?AU?$pair@V?$_Tree_iterator@V?$_Tree_val@U?$_Tree_simple_types@U?$pair@$$CBW4SDL_Scancode@@_N@std@@@std@@@std@@@std@@_N@1@_NAAU?$pair@$$CBW4SDL_Scancode@@_N@1@PAU?$_Tree_node@U?$pair@$$CBW4SDL_Scancode@@_N@std@@PAX@1@@Z
  0000a	64 a1 00 00 00
	00		 mov	 eax, DWORD PTR fs:0
  00010	50		 push	 eax
  00011	51		 push	 ecx
  00012	81 ec d8 01 00
	00		 sub	 esp, 472		; 000001d8H
  00018	53		 push	 ebx
  00019	56		 push	 esi
  0001a	57		 push	 edi
  0001b	51		 push	 ecx
  0001c	8d bd 18 fe ff
	ff		 lea	 edi, DWORD PTR [ebp-488]
  00022	b9 76 00 00 00	 mov	 ecx, 118		; 00000076H
  00027	b8 cc cc cc cc	 mov	 eax, -858993460		; ccccccccH
  0002c	f3 ab		 rep stosd
  0002e	59		 pop	 ecx
  0002f	a1 00 00 00 00	 mov	 eax, DWORD PTR ___security_cookie
  00034	33 c5		 xor	 eax, ebp
  00036	89 45 ec	 mov	 DWORD PTR __$ArrayPad$[ebp], eax
  00039	50		 push	 eax
  0003a	8d 45 f4	 lea	 eax, DWORD PTR __$EHRec$[ebp+4]
  0003d	64 a3 00 00 00
	00		 mov	 DWORD PTR fs:0, eax
  00043	89 65 f0	 mov	 DWORD PTR __$EHRec$[ebp], esp
  00046	89 4d e4	 mov	 DWORD PTR _this$[ebp], ecx
  00049	c7 85 e0 fe ff
	ff 00 00 00 00	 mov	 DWORD PTR $T14[ebp], 0
; Line 1780
  00053	c7 45 fc 00 00
	00 00		 mov	 DWORD PTR __$EHRec$[ebp+12], 0
; Line 1781
  0005a	8b 4d e4	 mov	 ecx, DWORD PTR _this$[ebp]
  0005d	e8 00 00 00 00	 call	 ?_Root@?$_Tree@V?$_Tmap_traits@W4SDL_Scancode@@_NU?$less@W4SDL_Scancode@@@std@@V?$allocator@U?$pair@$$CBW4SDL_Scancode@@_N@std@@@3@$0A@@std@@@std@@IBEAAPAU?$_Tree_node@U?$pair@$$CBW4SDL_Scancode@@_N@std@@PAX@2@XZ ; std::_Tree<std::_Tmap_traits<enum SDL_Scancode,bool,std::less<enum SDL_Scancode>,std::allocator<std::pair<enum SDL_Scancode const ,bool> >,0> >::_Root
  00062	89 85 28 fe ff
	ff		 mov	 DWORD PTR tv269[ebp], eax
  00068	8b 85 28 fe ff
	ff		 mov	 eax, DWORD PTR tv269[ebp]
  0006e	8b 08		 mov	 ecx, DWORD PTR [eax]
  00070	89 4d d8	 mov	 DWORD PTR __Trynode$18[ebp], ecx
; Line 1782
  00073	8b 45 e4	 mov	 eax, DWORD PTR _this$[ebp]
  00076	8b 48 04	 mov	 ecx, DWORD PTR [eax+4]
  00079	89 4d cc	 mov	 DWORD PTR __Wherenode$17[ebp], ecx
; Line 1783
  0007c	c6 45 c3 01	 mov	 BYTE PTR __Addleft$16[ebp], 1
$LN12@Insert_noh:
; Line 1785
  00080	8b 45 d8	 mov	 eax, DWORD PTR __Trynode$18[ebp]
  00083	50		 push	 eax
  00084	e8 00 00 00 00	 call	 ?_Isnil@?$_Tree_val@U?$_Tree_simple_types@U?$pair@$$CBW4SDL_Scancode@@_N@std@@@std@@@std@@SAAADPAU?$_Tree_node@U?$pair@$$CBW4SDL_Scancode@@_N@std@@PAX@2@@Z ; std::_Tree_val<std::_Tree_simple_types<std::pair<enum SDL_Scancode const ,bool> > >::_Isnil
  00089	83 c4 04	 add	 esp, 4
  0008c	89 85 28 fe ff
	ff		 mov	 DWORD PTR tv251[ebp], eax
  00092	8b 8d 28 fe ff
	ff		 mov	 ecx, DWORD PTR tv251[ebp]
  00098	0f be 11	 movsx	 edx, BYTE PTR [ecx]
  0009b	85 d2		 test	 edx, edx
  0009d	0f 85 71 01 00
	00		 jne	 $LN11@Insert_noh
; Line 1787
  000a3	8b 45 d8	 mov	 eax, DWORD PTR __Trynode$18[ebp]
  000a6	89 45 cc	 mov	 DWORD PTR __Wherenode$17[ebp], eax
; Line 1788
  000a9	0f b6 45 0c	 movzx	 eax, BYTE PTR __Leftish$[ebp]
  000ad	85 c0		 test	 eax, eax
  000af	0f 84 95 00 00
	00		 je	 $LN10@Insert_noh
; Line 1789
  000b5	8b 45 10	 mov	 eax, DWORD PTR __Val$[ebp]
  000b8	50		 push	 eax
  000b9	8b 4d e4	 mov	 ecx, DWORD PTR _this$[ebp]
  000bc	e8 00 00 00 00	 call	 ?_Kfn@?$_Tree@V?$_Tmap_traits@W4SDL_Scancode@@_NU?$less@W4SDL_Scancode@@@std@@V?$allocator@U?$pair@$$CBW4SDL_Scancode@@_N@std@@@3@$0A@@std@@@std@@IBEABW4SDL_Scancode@@ABU?$pair@$$CBW4SDL_Scancode@@_N@2@@Z ; std::_Tree<std::_Tmap_traits<enum SDL_Scancode,bool,std::less<enum SDL_Scancode>,std::allocator<std::pair<enum SDL_Scancode const ,bool> >,0> >::_Kfn
  000c1	89 85 28 fe ff
	ff		 mov	 DWORD PTR tv207[ebp], eax
  000c7	8b 4d d8	 mov	 ecx, DWORD PTR __Trynode$18[ebp]
  000ca	51		 push	 ecx
  000cb	8b 4d e4	 mov	 ecx, DWORD PTR _this$[ebp]
  000ce	e8 00 00 00 00	 call	 ?_Key@?$_Tree@V?$_Tmap_traits@W4SDL_Scancode@@_NU?$less@W4SDL_Scancode@@@std@@V?$allocator@U?$pair@$$CBW4SDL_Scancode@@_N@std@@@3@$0A@@std@@@std@@IBEABW4SDL_Scancode@@PAU?$_Tree_node@U?$pair@$$CBW4SDL_Scancode@@_N@std@@PAX@2@@Z ; std::_Tree<std::_Tmap_traits<enum SDL_Scancode,bool,std::less<enum SDL_Scancode>,std::allocator<std::pair<enum SDL_Scancode const ,bool> >,0> >::_Key
  000d3	89 85 24 fe ff
	ff		 mov	 DWORD PTR tv160[ebp], eax
  000d9	8d 95 33 fe ff
	ff		 lea	 edx, DWORD PTR $T2[ebp]
  000df	52		 push	 edx
  000e0	8b 4d e4	 mov	 ecx, DWORD PTR _this$[ebp]
  000e3	e8 00 00 00 00	 call	 ?_Getcomp@?$_Tree_comp@$0A@V?$_Tmap_traits@W4SDL_Scancode@@_NU?$less@W4SDL_Scancode@@@std@@V?$allocator@U?$pair@$$CBW4SDL_Scancode@@_N@std@@@3@$0A@@std@@@std@@QBE?AU?$less@W4SDL_Scancode@@@2@XZ ; std::_Tree_comp<0,std::_Tmap_traits<enum SDL_Scancode,bool,std::less<enum SDL_Scancode>,std::allocator<std::pair<enum SDL_Scancode const ,bool> >,0> >::_Getcomp
  000e8	89 85 20 fe ff
	ff		 mov	 DWORD PTR tv297[ebp], eax
  000ee	68 ff 06 00 00	 push	 1791			; 000006ffH
  000f3	68 00 00 00 00	 push	 OFFSET ??_C@_1IK@HBAODOLH@?$AAc?$AA?3?$AA?2?$AAp?$AAr?$AAo?$AAg?$AAr?$AAa?$AAm?$AA?5?$AAf?$AAi?$AAl?$AAe?$AAs?$AA?5?$AA?$CI?$AAx?$AA8?$AA6?$AA?$CJ?$AA?2?$AAm?$AAi?$AAc?$AAr?$AAo?$AAs?$AAo?$AAf?$AAt@
  000f8	8b 85 28 fe ff
	ff		 mov	 eax, DWORD PTR tv207[ebp]
  000fe	50		 push	 eax
  000ff	8b 8d 24 fe ff
	ff		 mov	 ecx, DWORD PTR tv160[ebp]
  00105	51		 push	 ecx
  00106	8b 95 20 fe ff
	ff		 mov	 edx, DWORD PTR tv297[ebp]
  0010c	0f b6 02	 movzx	 eax, BYTE PTR [edx]
  0010f	50		 push	 eax
  00110	e8 00 00 00 00	 call	 ??$_Debug_lt_pred@U?$less@W4SDL_Scancode@@@std@@ABW4SDL_Scancode@@ABW43@@std@@YA_NU?$less@W4SDL_Scancode@@@0@ABW4SDL_Scancode@@1PB_WI@Z ; std::_Debug_lt_pred<std::less<enum SDL_Scancode>,enum SDL_Scancode const &,enum SDL_Scancode const &>
  00115	83 c4 14	 add	 esp, 20			; 00000014H
  00118	88 85 1f fe ff
	ff		 mov	 BYTE PTR tv298[ebp], al
  0011e	0f b6 8d 1f fe
	ff ff		 movzx	 ecx, BYTE PTR tv298[ebp]
  00125	85 c9		 test	 ecx, ecx
  00127	75 0c		 jne	 SHORT $LN16@Insert_noh
  00129	c7 85 18 fe ff
	ff 01 00 00 00	 mov	 DWORD PTR tv130[ebp], 1
  00133	eb 0a		 jmp	 SHORT $LN17@Insert_noh
$LN16@Insert_noh:
  00135	c7 85 18 fe ff
	ff 00 00 00 00	 mov	 DWORD PTR tv130[ebp], 0
$LN17@Insert_noh:
  0013f	8a 95 18 fe ff
	ff		 mov	 dl, BYTE PTR tv130[ebp]
  00145	88 55 c3	 mov	 BYTE PTR __Addleft$16[ebp], dl
; Line 1792
  00148	eb 72		 jmp	 SHORT $LN9@Insert_noh
$LN10@Insert_noh:
; Line 1793
  0014a	8b 45 d8	 mov	 eax, DWORD PTR __Trynode$18[ebp]
  0014d	50		 push	 eax
  0014e	8b 4d e4	 mov	 ecx, DWORD PTR _this$[ebp]
  00151	e8 00 00 00 00	 call	 ?_Key@?$_Tree@V?$_Tmap_traits@W4SDL_Scancode@@_NU?$less@W4SDL_Scancode@@@std@@V?$allocator@U?$pair@$$CBW4SDL_Scancode@@_N@std@@@3@$0A@@std@@@std@@IBEABW4SDL_Scancode@@PAU?$_Tree_node@U?$pair@$$CBW4SDL_Scancode@@_N@std@@PAX@2@@Z ; std::_Tree<std::_Tmap_traits<enum SDL_Scancode,bool,std::less<enum SDL_Scancode>,std::allocator<std::pair<enum SDL_Scancode const ,bool> >,0> >::_Key
  00156	89 85 28 fe ff
	ff		 mov	 DWORD PTR tv299[ebp], eax
  0015c	8b 4d 10	 mov	 ecx, DWORD PTR __Val$[ebp]
  0015f	51		 push	 ecx
  00160	8b 4d e4	 mov	 ecx, DWORD PTR _this$[ebp]
  00163	e8 00 00 00 00	 call	 ?_Kfn@?$_Tree@V?$_Tmap_traits@W4SDL_Scancode@@_NU?$less@W4SDL_Scancode@@@std@@V?$allocator@U?$pair@$$CBW4SDL_Scancode@@_N@std@@@3@$0A@@std@@@std@@IBEABW4SDL_Scancode@@ABU?$pair@$$CBW4SDL_Scancode@@_N@2@@Z ; std::_Tree<std::_Tmap_traits<enum SDL_Scancode,bool,std::less<enum SDL_Scancode>,std::allocator<std::pair<enum SDL_Scancode const ,bool> >,0> >::_Kfn
  00168	89 85 24 fe ff
	ff		 mov	 DWORD PTR tv300[ebp], eax
  0016e	8d 95 3f fe ff
	ff		 lea	 edx, DWORD PTR $T3[ebp]
  00174	52		 push	 edx
  00175	8b 4d e4	 mov	 ecx, DWORD PTR _this$[ebp]
  00178	e8 00 00 00 00	 call	 ?_Getcomp@?$_Tree_comp@$0A@V?$_Tmap_traits@W4SDL_Scancode@@_NU?$less@W4SDL_Scancode@@@std@@V?$allocator@U?$pair@$$CBW4SDL_Scancode@@_N@std@@@3@$0A@@std@@@std@@QBE?AU?$less@W4SDL_Scancode@@@2@XZ ; std::_Tree_comp<0,std::_Tmap_traits<enum SDL_Scancode,bool,std::less<enum SDL_Scancode>,std::allocator<std::pair<enum SDL_Scancode const ,bool> >,0> >::_Getcomp
  0017d	89 85 20 fe ff
	ff		 mov	 DWORD PTR tv301[ebp], eax
  00183	68 03 07 00 00	 push	 1795			; 00000703H
  00188	68 00 00 00 00	 push	 OFFSET ??_C@_1IK@HBAODOLH@?$AAc?$AA?3?$AA?2?$AAp?$AAr?$AAo?$AAg?$AAr?$AAa?$AAm?$AA?5?$AAf?$AAi?$AAl?$AAe?$AAs?$AA?5?$AA?$CI?$AAx?$AA8?$AA6?$AA?$CJ?$AA?2?$AAm?$AAi?$AAc?$AAr?$AAo?$AAs?$AAo?$AAf?$AAt@
  0018d	8b 85 28 fe ff
	ff		 mov	 eax, DWORD PTR tv299[ebp]
  00193	50		 push	 eax
  00194	8b 8d 24 fe ff
	ff		 mov	 ecx, DWORD PTR tv300[ebp]
  0019a	51		 push	 ecx
  0019b	8b 95 20 fe ff
	ff		 mov	 edx, DWORD PTR tv301[ebp]
  001a1	0f b6 02	 movzx	 eax, BYTE PTR [edx]
  001a4	50		 push	 eax
  001a5	e8 00 00 00 00	 call	 ??$_Debug_lt_pred@U?$less@W4SDL_Scancode@@@std@@ABW4SDL_Scancode@@ABW43@@std@@YA_NU?$less@W4SDL_Scancode@@@0@ABW4SDL_Scancode@@1PB_WI@Z ; std::_Debug_lt_pred<std::less<enum SDL_Scancode>,enum SDL_Scancode const &,enum SDL_Scancode const &>
  001aa	83 c4 14	 add	 esp, 20			; 00000014H
  001ad	88 85 1f fe ff
	ff		 mov	 BYTE PTR tv302[ebp], al
  001b3	8a 8d 1f fe ff
	ff		 mov	 cl, BYTE PTR tv302[ebp]
  001b9	88 4d c3	 mov	 BYTE PTR __Addleft$16[ebp], cl
$LN9@Insert_noh:
; Line 1797
  001bc	0f b6 45 c3	 movzx	 eax, BYTE PTR __Addleft$16[ebp]
  001c0	85 c0		 test	 eax, eax
  001c2	74 22		 je	 SHORT $LN18@Insert_noh
  001c4	8b 4d d8	 mov	 ecx, DWORD PTR __Trynode$18[ebp]
  001c7	51		 push	 ecx
  001c8	e8 00 00 00 00	 call	 ?_Left@?$_Tree_val@U?$_Tree_simple_types@U?$pair@$$CBW4SDL_Scancode@@_N@std@@@std@@@std@@SAAAPAU?$_Tree_node@U?$pair@$$CBW4SDL_Scancode@@_N@std@@PAX@2@PAU32@@Z ; std::_Tree_val<std::_Tree_simple_types<std::pair<enum SDL_Scancode const ,bool> > >::_Left
  001cd	83 c4 04	 add	 esp, 4
  001d0	89 85 28 fe ff
	ff		 mov	 DWORD PTR tv303[ebp], eax
  001d6	8b 95 28 fe ff
	ff		 mov	 edx, DWORD PTR tv303[ebp]
  001dc	8b 02		 mov	 eax, DWORD PTR [edx]
  001de	89 85 24 fe ff
	ff		 mov	 DWORD PTR tv157[ebp], eax
  001e4	eb 20		 jmp	 SHORT $LN19@Insert_noh
$LN18@Insert_noh:
  001e6	8b 4d d8	 mov	 ecx, DWORD PTR __Trynode$18[ebp]
  001e9	51		 push	 ecx
  001ea	e8 00 00 00 00	 call	 ?_Right@?$_Tree_val@U?$_Tree_simple_types@U?$pair@$$CBW4SDL_Scancode@@_N@std@@@std@@@std@@SAAAPAU?$_Tree_node@U?$pair@$$CBW4SDL_Scancode@@_N@std@@PAX@2@PAU32@@Z ; std::_Tree_val<std::_Tree_simple_types<std::pair<enum SDL_Scancode const ,bool> > >::_Right
  001ef	83 c4 04	 add	 esp, 4
  001f2	89 85 20 fe ff
	ff		 mov	 DWORD PTR tv304[ebp], eax
  001f8	8b 95 20 fe ff
	ff		 mov	 edx, DWORD PTR tv304[ebp]
  001fe	8b 02		 mov	 eax, DWORD PTR [edx]
  00200	89 85 24 fe ff
	ff		 mov	 DWORD PTR tv157[ebp], eax
$LN19@Insert_noh:
  00206	8b 8d 24 fe ff
	ff		 mov	 ecx, DWORD PTR tv157[ebp]
  0020c	89 4d d8	 mov	 DWORD PTR __Trynode$18[ebp], ecx
; Line 1798
  0020f	e9 6c fe ff ff	 jmp	 $LN12@Insert_noh
$LN11@Insert_noh:
; Line 1800
  00214	33 c0		 xor	 eax, eax
  00216	0f 84 93 00 00
	00		 je	 $LN8@Insert_noh
; Line 1801
  0021c	c6 85 4b fe ff
	ff 01		 mov	 BYTE PTR $T4[ebp], 1
  00223	8b 45 10	 mov	 eax, DWORD PTR __Val$[ebp]
  00226	50		 push	 eax
  00227	e8 00 00 00 00	 call	 ??$forward@AAU?$pair@$$CBW4SDL_Scancode@@_N@std@@@std@@YAAAU?$pair@$$CBW4SDL_Scancode@@_N@0@AAU10@@Z ; std::forward<std::pair<enum SDL_Scancode const ,bool> &>
  0022c	83 c4 04	 add	 esp, 4
  0022f	89 85 28 fe ff
	ff		 mov	 DWORD PTR tv305[ebp], eax
  00235	8b 4d 14	 mov	 ecx, DWORD PTR __Newnode$[ebp]
  00238	51		 push	 ecx
  00239	8b 95 28 fe ff
	ff		 mov	 edx, DWORD PTR tv305[ebp]
  0023f	52		 push	 edx
  00240	8b 45 cc	 mov	 eax, DWORD PTR __Wherenode$17[ebp]
  00243	50		 push	 eax
  00244	0f b6 4d c3	 movzx	 ecx, BYTE PTR __Addleft$16[ebp]
  00248	51		 push	 ecx
  00249	8d 95 54 fe ff
	ff		 lea	 edx, DWORD PTR $T5[ebp]
  0024f	52		 push	 edx
  00250	8b 4d e4	 mov	 ecx, DWORD PTR _this$[ebp]
  00253	e8 00 00 00 00	 call	 ??$_Insert_at@AAU?$pair@$$CBW4SDL_Scancode@@_N@std@@PAU?$_Tree_node@U?$pair@$$CBW4SDL_Scancode@@_N@std@@PAX@2@@?$_Tree@V?$_Tmap_traits@W4SDL_Scancode@@_NU?$less@W4SDL_Scancode@@@std@@V?$allocator@U?$pair@$$CBW4SDL_Scancode@@_N@std@@@3@$0A@@std@@@std@@IAE?AV?$_Tree_iterator@V?$_Tree_val@U?$_Tree_simple_types@U?$pair@$$CBW4SDL_Scancode@@_N@std@@@std@@@std@@@1@_NPAU?$_Tree_node@U?$pair@$$CBW4SDL_Scancode@@_N@std@@PAX@1@AAU?$pair@$$CBW4SDL_Scancode@@_N@1@1@Z ; std::_Tree<std::_Tmap_traits<enum SDL_Scancode,bool,std::less<enum SDL_Scancode>,std::allocator<std::pair<enum SDL_Scancode const ,bool> >,0> >::_Insert_at<std::pair<enum SDL_Scancode const ,bool> &,std::_Tree_node<std::pair<enum SDL_Scancode const ,bool>,void *> *>
  00258	89 85 24 fe ff
	ff		 mov	 DWORD PTR tv306[ebp], eax
  0025e	8b 85 24 fe ff
	ff		 mov	 eax, DWORD PTR tv306[ebp]
  00264	89 85 20 fe ff
	ff		 mov	 DWORD PTR tv278[ebp], eax
  0026a	c6 45 fc 01	 mov	 BYTE PTR __$EHRec$[ebp+12], 1
  0026e	8d 8d 4b fe ff
	ff		 lea	 ecx, DWORD PTR $T4[ebp]
  00274	51		 push	 ecx
  00275	8b 95 20 fe ff
	ff		 mov	 edx, DWORD PTR tv278[ebp]
  0027b	52		 push	 edx
  0027c	8b 4d 08	 mov	 ecx, DWORD PTR ___$ReturnUdt$[ebp]
  0027f	e8 00 00 00 00	 call	 ??$?0V?$_Tree_iterator@V?$_Tree_val@U?$_Tree_simple_types@U?$pair@$$CBW4SDL_Scancode@@_N@std@@@std@@@std@@@std@@_NX@?$pair@V?$_Tree_iterator@V?$_Tree_val@U?$_Tree_simple_types@U?$pair@$$CBW4SDL_Scancode@@_N@std@@@std@@@std@@@std@@_N@std@@QAE@$$QAV?$_Tree_iterator@V?$_Tree_val@U?$_Tree_simple_types@U?$pair@$$CBW4SDL_Scancode@@_N@std@@@std@@@std@@@1@$$QA_N@Z ; std::pair<std::_Tree_iterator<std::_Tree_val<std::_Tree_simple_types<std::pair<enum SDL_Scancode const ,bool> > > >,bool>::pair<std::_Tree_iterator<std::_Tree_val<std::_Tree_simple_types<std::pair<enum SDL_Scancode const ,bool> > > >,bool><std::_Tree_iterator<std::_Tree_val<std::_Tree_simple_types<std::pair<enum SDL_Scancode const ,bool> > > >,bool,void>
  00284	8b 85 e0 fe ff
	ff		 mov	 eax, DWORD PTR $T14[ebp]
  0028a	83 c8 01	 or	 eax, 1
  0028d	89 85 e0 fe ff
	ff		 mov	 DWORD PTR $T14[ebp], eax
  00293	c6 45 fc 00	 mov	 BYTE PTR __$EHRec$[ebp+12], 0
  00297	8d 8d 54 fe ff
	ff		 lea	 ecx, DWORD PTR $T5[ebp]
  0029d	e8 00 00 00 00	 call	 ??1?$_Tree_iterator@V?$_Tree_val@U?$_Tree_simple_types@U?$pair@$$CBW4SDL_Scancode@@_N@std@@@std@@@std@@@std@@QAE@XZ
  002a2	8b 45 08	 mov	 eax, DWORD PTR ___$ReturnUdt$[ebp]
  002a5	e9 df 02 00 00	 jmp	 $LN15@Insert_noh
; Line 1803
  002aa	e9 ad 02 00 00	 jmp	 $LN7@Insert_noh
$LN8@Insert_noh:
; Line 1805
  002af	6a 0c		 push	 12			; 0000000cH
  002b1	8d 4d ac	 lea	 ecx, DWORD PTR __Where$15[ebp]
  002b4	e8 00 00 00 00	 call	 ?__autoclassinit2@?$_Tree_iterator@V?$_Tree_val@U?$_Tree_simple_types@U?$pair@$$CBW4SDL_Scancode@@_N@std@@@std@@@std@@@std@@QAEXI@Z
  002b9	8b 45 e4	 mov	 eax, DWORD PTR _this$[ebp]
  002bc	50		 push	 eax
  002bd	8b 4d cc	 mov	 ecx, DWORD PTR __Wherenode$17[ebp]
  002c0	51		 push	 ecx
  002c1	8d 4d ac	 lea	 ecx, DWORD PTR __Where$15[ebp]
  002c4	e8 00 00 00 00	 call	 ??0?$_Tree_iterator@V?$_Tree_val@U?$_Tree_simple_types@U?$pair@$$CBW4SDL_Scancode@@_N@std@@@std@@@std@@@std@@QAE@PAU?$_Tree_node@U?$pair@$$CBW4SDL_Scancode@@_N@std@@PAX@1@PBV?$_Tree_val@U?$_Tree_simple_types@U?$pair@$$CBW4SDL_Scancode@@_N@std@@@std@@@1@@Z ; std::_Tree_iterator<std::_Tree_val<std::_Tree_simple_types<std::pair<enum SDL_Scancode const ,bool> > > >::_Tree_iterator<std::_Tree_val<std::_Tree_simple_types<std::pair<enum SDL_Scancode const ,bool> > > >
  002c9	89 85 28 fe ff
	ff		 mov	 DWORD PTR tv307[ebp], eax
  002cf	c6 45 fc 02	 mov	 BYTE PTR __$EHRec$[ebp+12], 2
; Line 1806
  002d3	0f b6 45 c3	 movzx	 eax, BYTE PTR __Addleft$16[ebp]
  002d7	85 c0		 test	 eax, eax
  002d9	75 05		 jne	 SHORT $LN6@Insert_noh
  002db	e9 05 01 00 00	 jmp	 $LN5@Insert_noh
$LN6@Insert_noh:
; Line 1808
  002e0	8d 85 74 fe ff
	ff		 lea	 eax, DWORD PTR $T7[ebp]
  002e6	50		 push	 eax
  002e7	8b 4d e4	 mov	 ecx, DWORD PTR _this$[ebp]
  002ea	e8 00 00 00 00	 call	 ?begin@?$_Tree@V?$_Tmap_traits@W4SDL_Scancode@@_NU?$less@W4SDL_Scancode@@@std@@V?$allocator@U?$pair@$$CBW4SDL_Scancode@@_N@std@@@3@$0A@@std@@@std@@QAE?AV?$_Tree_iterator@V?$_Tree_val@U?$_Tree_simple_types@U?$pair@$$CBW4SDL_Scancode@@_N@std@@@std@@@std@@@2@XZ ; std::_Tree<std::_Tmap_traits<enum SDL_Scancode,bool,std::less<enum SDL_Scancode>,std::allocator<std::pair<enum SDL_Scancode const ,bool> >,0> >::begin
  002ef	89 85 28 fe ff
	ff		 mov	 DWORD PTR tv308[ebp], eax
  002f5	8b 8d 28 fe ff
	ff		 mov	 ecx, DWORD PTR tv308[ebp]
  002fb	89 8d 24 fe ff
	ff		 mov	 DWORD PTR tv285[ebp], ecx
  00301	c6 45 fc 03	 mov	 BYTE PTR __$EHRec$[ebp+12], 3
  00305	8b 95 24 fe ff
	ff		 mov	 edx, DWORD PTR tv285[ebp]
  0030b	52		 push	 edx
  0030c	8d 4d ac	 lea	 ecx, DWORD PTR __Where$15[ebp]
  0030f	e8 00 00 00 00	 call	 ??8?$_Tree_const_iterator@V?$_Tree_val@U?$_Tree_simple_types@U?$pair@$$CBW4SDL_Scancode@@_N@std@@@std@@@std@@@std@@QBE_NABV01@@Z ; std::_Tree_const_iterator<std::_Tree_val<std::_Tree_simple_types<std::pair<enum SDL_Scancode const ,bool> > > >::operator==
  00314	88 85 23 fe ff
	ff		 mov	 BYTE PTR tv309[ebp], al
  0031a	8a 85 23 fe ff
	ff		 mov	 al, BYTE PTR tv309[ebp]
  00320	88 85 6b fe ff
	ff		 mov	 BYTE PTR $T6[ebp], al
  00326	c6 45 fc 02	 mov	 BYTE PTR __$EHRec$[ebp+12], 2
  0032a	8d 8d 74 fe ff
	ff		 lea	 ecx, DWORD PTR $T7[ebp]
  00330	e8 00 00 00 00	 call	 ??1?$_Tree_iterator@V?$_Tree_val@U?$_Tree_simple_types@U?$pair@$$CBW4SDL_Scancode@@_N@std@@@std@@@std@@@std@@QAE@XZ
  00335	0f b6 8d 6b fe
	ff ff		 movzx	 ecx, BYTE PTR $T6[ebp]
  0033c	85 c9		 test	 ecx, ecx
  0033e	0f 84 99 00 00
	00		 je	 $LN4@Insert_noh
; Line 1809
  00344	c6 85 8b fe ff
	ff 01		 mov	 BYTE PTR $T8[ebp], 1
  0034b	8b 45 10	 mov	 eax, DWORD PTR __Val$[ebp]
  0034e	50		 push	 eax
  0034f	e8 00 00 00 00	 call	 ??$forward@AAU?$pair@$$CBW4SDL_Scancode@@_N@std@@@std@@YAAAU?$pair@$$CBW4SDL_Scancode@@_N@0@AAU10@@Z ; std::forward<std::pair<enum SDL_Scancode const ,bool> &>
  00354	83 c4 04	 add	 esp, 4
  00357	89 85 28 fe ff
	ff		 mov	 DWORD PTR tv310[ebp], eax
  0035d	8b 4d 14	 mov	 ecx, DWORD PTR __Newnode$[ebp]
  00360	51		 push	 ecx
  00361	8b 95 28 fe ff
	ff		 mov	 edx, DWORD PTR tv310[ebp]
  00367	52		 push	 edx
  00368	8b 45 cc	 mov	 eax, DWORD PTR __Wherenode$17[ebp]
  0036b	50		 push	 eax
  0036c	6a 01		 push	 1
  0036e	8d 8d 94 fe ff
	ff		 lea	 ecx, DWORD PTR $T9[ebp]
  00374	51		 push	 ecx
  00375	8b 4d e4	 mov	 ecx, DWORD PTR _this$[ebp]
  00378	e8 00 00 00 00	 call	 ??$_Insert_at@AAU?$pair@$$CBW4SDL_Scancode@@_N@std@@PAU?$_Tree_node@U?$pair@$$CBW4SDL_Scancode@@_N@std@@PAX@2@@?$_Tree@V?$_Tmap_traits@W4SDL_Scancode@@_NU?$less@W4SDL_Scancode@@@std@@V?$allocator@U?$pair@$$CBW4SDL_Scancode@@_N@std@@@3@$0A@@std@@@std@@IAE?AV?$_Tree_iterator@V?$_Tree_val@U?$_Tree_simple_types@U?$pair@$$CBW4SDL_Scancode@@_N@std@@@std@@@std@@@1@_NPAU?$_Tree_node@U?$pair@$$CBW4SDL_Scancode@@_N@std@@PAX@1@AAU?$pair@$$CBW4SDL_Scancode@@_N@1@1@Z ; std::_Tree<std::_Tmap_traits<enum SDL_Scancode,bool,std::less<enum SDL_Scancode>,std::allocator<std::pair<enum SDL_Scancode const ,bool> >,0> >::_Insert_at<std::pair<enum SDL_Scancode const ,bool> &,std::_Tree_node<std::pair<enum SDL_Scancode const ,bool>,void *> *>
  0037d	89 85 24 fe ff
	ff		 mov	 DWORD PTR tv311[ebp], eax
  00383	8b 95 24 fe ff
	ff		 mov	 edx, DWORD PTR tv311[ebp]
  00389	89 95 20 fe ff
	ff		 mov	 DWORD PTR tv287[ebp], edx
  0038f	c6 45 fc 04	 mov	 BYTE PTR __$EHRec$[ebp+12], 4
  00393	8d 85 8b fe ff
	ff		 lea	 eax, DWORD PTR $T8[ebp]
  00399	50		 push	 eax
  0039a	8b 8d 20 fe ff
	ff		 mov	 ecx, DWORD PTR tv287[ebp]
  003a0	51		 push	 ecx
  003a1	8b 4d 08	 mov	 ecx, DWORD PTR ___$ReturnUdt$[ebp]
  003a4	e8 00 00 00 00	 call	 ??$?0V?$_Tree_iterator@V?$_Tree_val@U?$_Tree_simple_types@U?$pair@$$CBW4SDL_Scancode@@_N@std@@@std@@@std@@@std@@_NX@?$pair@V?$_Tree_iterator@V?$_Tree_val@U?$_Tree_simple_types@U?$pair@$$CBW4SDL_Scancode@@_N@std@@@std@@@std@@@std@@_N@std@@QAE@$$QAV?$_Tree_iterator@V?$_Tree_val@U?$_Tree_simple_types@U?$pair@$$CBW4SDL_Scancode@@_N@std@@@std@@@std@@@1@$$QA_N@Z ; std::pair<std::_Tree_iterator<std::_Tree_val<std::_Tree_simple_types<std::pair<enum SDL_Scancode const ,bool> > > >,bool>::pair<std::_Tree_iterator<std::_Tree_val<std::_Tree_simple_types<std::pair<enum SDL_Scancode const ,bool> > > >,bool><std::_Tree_iterator<std::_Tree_val<std::_Tree_simple_types<std::pair<enum SDL_Scancode const ,bool> > > >,bool,void>
  003a9	8b 95 e0 fe ff
	ff		 mov	 edx, DWORD PTR $T14[ebp]
  003af	83 ca 01	 or	 edx, 1
  003b2	89 95 e0 fe ff
	ff		 mov	 DWORD PTR $T14[ebp], edx
  003b8	c6 45 fc 02	 mov	 BYTE PTR __$EHRec$[ebp+12], 2
  003bc	8d 8d 94 fe ff
	ff		 lea	 ecx, DWORD PTR $T9[ebp]
  003c2	e8 00 00 00 00	 call	 ??1?$_Tree_iterator@V?$_Tree_val@U?$_Tree_simple_types@U?$pair@$$CBW4SDL_Scancode@@_N@std@@@std@@@std@@@std@@QAE@XZ
  003c7	c6 45 fc 00	 mov	 BYTE PTR __$EHRec$[ebp+12], 0
  003cb	8d 4d ac	 lea	 ecx, DWORD PTR __Where$15[ebp]
  003ce	e8 00 00 00 00	 call	 ??1?$_Tree_iterator@V?$_Tree_val@U?$_Tree_simple_types@U?$pair@$$CBW4SDL_Scancode@@_N@std@@@std@@@std@@@std@@QAE@XZ
  003d3	8b 45 08	 mov	 eax, DWORD PTR ___$ReturnUdt$[ebp]
  003d6	e9 ae 01 00 00	 jmp	 $LN15@Insert_noh
; Line 1811
  003db	eb 08		 jmp	 SHORT $LN5@Insert_noh
$LN4@Insert_noh:
; Line 1812
  003dd	8d 4d ac	 lea	 ecx, DWORD PTR __Where$15[ebp]
  003e0	e8 00 00 00 00	 call	 ??F?$_Tree_iterator@V?$_Tree_val@U?$_Tree_simple_types@U?$pair@$$CBW4SDL_Scancode@@_N@std@@@std@@@std@@@std@@QAEAAV01@XZ ; std::_Tree_iterator<std::_Tree_val<std::_Tree_simple_types<std::pair<enum SDL_Scancode const ,bool> > > >::operator--
$LN5@Insert_noh:
; Line 1814
  003e5	8b 45 10	 mov	 eax, DWORD PTR __Val$[ebp]
  003e8	50		 push	 eax
  003e9	8b 4d e4	 mov	 ecx, DWORD PTR _this$[ebp]
  003ec	e8 00 00 00 00	 call	 ?_Kfn@?$_Tree@V?$_Tmap_traits@W4SDL_Scancode@@_NU?$less@W4SDL_Scancode@@@std@@V?$allocator@U?$pair@$$CBW4SDL_Scancode@@_N@std@@@3@$0A@@std@@@std@@IBEABW4SDL_Scancode@@ABU?$pair@$$CBW4SDL_Scancode@@_N@2@@Z ; std::_Tree<std::_Tmap_traits<enum SDL_Scancode,bool,std::less<enum SDL_Scancode>,std::allocator<std::pair<enum SDL_Scancode const ,bool> >,0> >::_Kfn
  003f1	89 85 28 fe ff
	ff		 mov	 DWORD PTR tv312[ebp], eax
  003f7	8d 4d ac	 lea	 ecx, DWORD PTR __Where$15[ebp]
  003fa	e8 00 00 00 00	 call	 ?_Mynode@?$_Tree_unchecked_const_iterator@V?$_Tree_val@U?$_Tree_simple_types@U?$pair@$$CBW4SDL_Scancode@@_N@std@@@std@@@std@@U_Iterator_base12@2@@std@@QBEPAU?$_Tree_node@U?$pair@$$CBW4SDL_Scancode@@_N@std@@PAX@2@XZ ; std::_Tree_unchecked_const_iterator<std::_Tree_val<std::_Tree_simple_types<std::pair<enum SDL_Scancode const ,bool> > >,std::_Iterator_base12>::_Mynode
  003ff	89 85 24 fe ff
	ff		 mov	 DWORD PTR tv313[ebp], eax
  00405	8b 8d 24 fe ff
	ff		 mov	 ecx, DWORD PTR tv313[ebp]
  0040b	51		 push	 ecx
  0040c	8b 4d e4	 mov	 ecx, DWORD PTR _this$[ebp]
  0040f	e8 00 00 00 00	 call	 ?_Key@?$_Tree@V?$_Tmap_traits@W4SDL_Scancode@@_NU?$less@W4SDL_Scancode@@@std@@V?$allocator@U?$pair@$$CBW4SDL_Scancode@@_N@std@@@3@$0A@@std@@@std@@IBEABW4SDL_Scancode@@PAU?$_Tree_node@U?$pair@$$CBW4SDL_Scancode@@_N@std@@PAX@2@@Z ; std::_Tree<std::_Tmap_traits<enum SDL_Scancode,bool,std::less<enum SDL_Scancode>,std::allocator<std::pair<enum SDL_Scancode const ,bool> >,0> >::_Key
  00414	89 85 20 fe ff
	ff		 mov	 DWORD PTR tv314[ebp], eax
  0041a	8d 95 ab fe ff
	ff		 lea	 edx, DWORD PTR $T10[ebp]
  00420	52		 push	 edx
  00421	8b 4d e4	 mov	 ecx, DWORD PTR _this$[ebp]
  00424	e8 00 00 00 00	 call	 ?_Getcomp@?$_Tree_comp@$0A@V?$_Tmap_traits@W4SDL_Scancode@@_NU?$less@W4SDL_Scancode@@@std@@V?$allocator@U?$pair@$$CBW4SDL_Scancode@@_N@std@@@3@$0A@@std@@@std@@QBE?AU?$less@W4SDL_Scancode@@@2@XZ ; std::_Tree_comp<0,std::_Tmap_traits<enum SDL_Scancode,bool,std::less<enum SDL_Scancode>,std::allocator<std::pair<enum SDL_Scancode const ,bool> >,0> >::_Getcomp
  00429	89 85 1c fe ff
	ff		 mov	 DWORD PTR tv315[ebp], eax
  0042f	68 18 07 00 00	 push	 1816			; 00000718H
  00434	68 00 00 00 00	 push	 OFFSET ??_C@_1IK@HBAODOLH@?$AAc?$AA?3?$AA?2?$AAp?$AAr?$AAo?$AAg?$AAr?$AAa?$AAm?$AA?5?$AAf?$AAi?$AAl?$AAe?$AAs?$AA?5?$AA?$CI?$AAx?$AA8?$AA6?$AA?$CJ?$AA?2?$AAm?$AAi?$AAc?$AAr?$AAo?$AAs?$AAo?$AAf?$AAt@
  00439	8b 85 28 fe ff
	ff		 mov	 eax, DWORD PTR tv312[ebp]
  0043f	50		 push	 eax
  00440	8b 8d 20 fe ff
	ff		 mov	 ecx, DWORD PTR tv314[ebp]
  00446	51		 push	 ecx
  00447	8b 95 1c fe ff
	ff		 mov	 edx, DWORD PTR tv315[ebp]
  0044d	0f b6 02	 movzx	 eax, BYTE PTR [edx]
  00450	50		 push	 eax
  00451	e8 00 00 00 00	 call	 ??$_Debug_lt_pred@U?$less@W4SDL_Scancode@@@std@@ABW4SDL_Scancode@@ABW43@@std@@YA_NU?$less@W4SDL_Scancode@@@0@ABW4SDL_Scancode@@1PB_WI@Z ; std::_Debug_lt_pred<std::less<enum SDL_Scancode>,enum SDL_Scancode const &,enum SDL_Scancode const &>
  00456	83 c4 14	 add	 esp, 20			; 00000014H
  00459	88 85 1b fe ff
	ff		 mov	 BYTE PTR tv316[ebp], al
  0045f	0f b6 8d 1b fe
	ff ff		 movzx	 ecx, BYTE PTR tv316[ebp]
  00466	85 c9		 test	 ecx, ecx
  00468	0f 84 9c 00 00
	00		 je	 $LN2@Insert_noh
; Line 1817
  0046e	c6 85 b7 fe ff
	ff 01		 mov	 BYTE PTR $T11[ebp], 1
  00475	8b 45 10	 mov	 eax, DWORD PTR __Val$[ebp]
  00478	50		 push	 eax
  00479	e8 00 00 00 00	 call	 ??$forward@AAU?$pair@$$CBW4SDL_Scancode@@_N@std@@@std@@YAAAU?$pair@$$CBW4SDL_Scancode@@_N@0@AAU10@@Z ; std::forward<std::pair<enum SDL_Scancode const ,bool> &>
  0047e	83 c4 04	 add	 esp, 4
  00481	89 85 28 fe ff
	ff		 mov	 DWORD PTR tv317[ebp], eax
  00487	8b 4d 14	 mov	 ecx, DWORD PTR __Newnode$[ebp]
  0048a	51		 push	 ecx
  0048b	8b 95 28 fe ff
	ff		 mov	 edx, DWORD PTR tv317[ebp]
  00491	52		 push	 edx
  00492	8b 45 cc	 mov	 eax, DWORD PTR __Wherenode$17[ebp]
  00495	50		 push	 eax
  00496	0f b6 4d c3	 movzx	 ecx, BYTE PTR __Addleft$16[ebp]
  0049a	51		 push	 ecx
  0049b	8d 95 c0 fe ff
	ff		 lea	 edx, DWORD PTR $T12[ebp]
  004a1	52		 push	 edx
  004a2	8b 4d e4	 mov	 ecx, DWORD PTR _this$[ebp]
  004a5	e8 00 00 00 00	 call	 ??$_Insert_at@AAU?$pair@$$CBW4SDL_Scancode@@_N@std@@PAU?$_Tree_node@U?$pair@$$CBW4SDL_Scancode@@_N@std@@PAX@2@@?$_Tree@V?$_Tmap_traits@W4SDL_Scancode@@_NU?$less@W4SDL_Scancode@@@std@@V?$allocator@U?$pair@$$CBW4SDL_Scancode@@_N@std@@@3@$0A@@std@@@std@@IAE?AV?$_Tree_iterator@V?$_Tree_val@U?$_Tree_simple_types@U?$pair@$$CBW4SDL_Scancode@@_N@std@@@std@@@std@@@1@_NPAU?$_Tree_node@U?$pair@$$CBW4SDL_Scancode@@_N@std@@PAX@1@AAU?$pair@$$CBW4SDL_Scancode@@_N@1@1@Z ; std::_Tree<std::_Tmap_traits<enum SDL_Scancode,bool,std::less<enum SDL_Scancode>,std::allocator<std::pair<enum SDL_Scancode const ,bool> >,0> >::_Insert_at<std::pair<enum SDL_Scancode const ,bool> &,std::_Tree_node<std::pair<enum SDL_Scancode const ,bool>,void *> *>
  004aa	89 85 24 fe ff
	ff		 mov	 DWORD PTR tv318[ebp], eax
  004b0	8b 85 24 fe ff
	ff		 mov	 eax, DWORD PTR tv318[ebp]
  004b6	89 85 20 fe ff
	ff		 mov	 DWORD PTR tv291[ebp], eax
  004bc	c6 45 fc 05	 mov	 BYTE PTR __$EHRec$[ebp+12], 5
  004c0	8d 8d b7 fe ff
	ff		 lea	 ecx, DWORD PTR $T11[ebp]
  004c6	51		 push	 ecx
  004c7	8b 95 20 fe ff
	ff		 mov	 edx, DWORD PTR tv291[ebp]
  004cd	52		 push	 edx
  004ce	8b 4d 08	 mov	 ecx, DWORD PTR ___$ReturnUdt$[ebp]
  004d1	e8 00 00 00 00	 call	 ??$?0V?$_Tree_iterator@V?$_Tree_val@U?$_Tree_simple_types@U?$pair@$$CBW4SDL_Scancode@@_N@std@@@std@@@std@@@std@@_NX@?$pair@V?$_Tree_iterator@V?$_Tree_val@U?$_Tree_simple_types@U?$pair@$$CBW4SDL_Scancode@@_N@std@@@std@@@std@@@std@@_N@std@@QAE@$$QAV?$_Tree_iterator@V?$_Tree_val@U?$_Tree_simple_types@U?$pair@$$CBW4SDL_Scancode@@_N@std@@@std@@@std@@@1@$$QA_N@Z ; std::pair<std::_Tree_iterator<std::_Tree_val<std::_Tree_simple_types<std::pair<enum SDL_Scancode const ,bool> > > >,bool>::pair<std::_Tree_iterator<std::_Tree_val<std::_Tree_simple_types<std::pair<enum SDL_Scancode const ,bool> > > >,bool><std::_Tree_iterator<std::_Tree_val<std::_Tree_simple_types<std::pair<enum SDL_Scancode const ,bool> > > >,bool,void>
  004d6	8b 85 e0 fe ff
	ff		 mov	 eax, DWORD PTR $T14[ebp]
  004dc	83 c8 01	 or	 eax, 1
  004df	89 85 e0 fe ff
	ff		 mov	 DWORD PTR $T14[ebp], eax
  004e5	c6 45 fc 02	 mov	 BYTE PTR __$EHRec$[ebp+12], 2
  004e9	8d 8d c0 fe ff
	ff		 lea	 ecx, DWORD PTR $T12[ebp]
  004ef	e8 00 00 00 00	 call	 ??1?$_Tree_iterator@V?$_Tree_val@U?$_Tree_simple_types@U?$pair@$$CBW4SDL_Scancode@@_N@std@@@std@@@std@@@std@@QAE@XZ
  004f4	c6 45 fc 00	 mov	 BYTE PTR __$EHRec$[ebp+12], 0
  004f8	8d 4d ac	 lea	 ecx, DWORD PTR __Where$15[ebp]
  004fb	e8 00 00 00 00	 call	 ??1?$_Tree_iterator@V?$_Tree_val@U?$_Tree_simple_types@U?$pair@$$CBW4SDL_Scancode@@_N@std@@@std@@@std@@@std@@QAE@XZ
  00500	8b 45 08	 mov	 eax, DWORD PTR ___$ReturnUdt$[ebp]
  00503	e9 81 00 00 00	 jmp	 $LN15@Insert_noh
; Line 1819
  00508	eb 46		 jmp	 SHORT $LN1@Insert_noh
$LN2@Insert_noh:
; Line 1821
  0050a	8b 45 14	 mov	 eax, DWORD PTR __Newnode$[ebp]
  0050d	50		 push	 eax
  0050e	8b 4d e4	 mov	 ecx, DWORD PTR _this$[ebp]
  00511	e8 00 00 00 00	 call	 ?_Destroy_if_not_nil@?$_Tree@V?$_Tmap_traits@W4SDL_Scancode@@_NU?$less@W4SDL_Scancode@@@std@@V?$allocator@U?$pair@$$CBW4SDL_Scancode@@_N@std@@@3@$0A@@std@@@std@@IAEXPAU?$_Tree_node@U?$pair@$$CBW4SDL_Scancode@@_N@std@@PAX@2@@Z ; std::_Tree<std::_Tmap_traits<enum SDL_Scancode,bool,std::less<enum SDL_Scancode>,std::allocator<std::pair<enum SDL_Scancode const ,bool> >,0> >::_Destroy_if_not_nil
; Line 1822
  00516	c6 85 d7 fe ff
	ff 00		 mov	 BYTE PTR $T13[ebp], 0
  0051d	8d 85 d7 fe ff
	ff		 lea	 eax, DWORD PTR $T13[ebp]
  00523	50		 push	 eax
  00524	8d 4d ac	 lea	 ecx, DWORD PTR __Where$15[ebp]
  00527	51		 push	 ecx
  00528	8b 4d 08	 mov	 ecx, DWORD PTR ___$ReturnUdt$[ebp]
  0052b	e8 00 00 00 00	 call	 ??$?0AAV?$_Tree_iterator@V?$_Tree_val@U?$_Tree_simple_types@U?$pair@$$CBW4SDL_Scancode@@_N@std@@@std@@@std@@@std@@_NX@?$pair@V?$_Tree_iterator@V?$_Tree_val@U?$_Tree_simple_types@U?$pair@$$CBW4SDL_Scancode@@_N@std@@@std@@@std@@@std@@_N@std@@QAE@AAV?$_Tree_iterator@V?$_Tree_val@U?$_Tree_simple_types@U?$pair@$$CBW4SDL_Scancode@@_N@std@@@std@@@std@@@1@$$QA_N@Z ; std::pair<std::_Tree_iterator<std::_Tree_val<std::_Tree_simple_types<std::pair<enum SDL_Scancode const ,bool> > > >,bool>::pair<std::_Tree_iterator<std::_Tree_val<std::_Tree_simple_types<std::pair<enum SDL_Scancode const ,bool> > > >,bool><std::_Tree_iterator<std::_Tree_val<std::_Tree_simple_types<std::pair<enum SDL_Scancode const ,bool> > > > &,bool,void>
  00530	8b 95 e0 fe ff
	ff		 mov	 edx, DWORD PTR $T14[ebp]
  00536	83 ca 01	 or	 edx, 1
  00539	89 95 e0 fe ff
	ff		 mov	 DWORD PTR $T14[ebp], edx
  0053f	c6 45 fc 00	 mov	 BYTE PTR __$EHRec$[ebp+12], 0
  00543	8d 4d ac	 lea	 ecx, DWORD PTR __Where$15[ebp]
  00546	e8 00 00 00 00	 call	 ??1?$_Tree_iterator@V?$_Tree_val@U?$_Tree_simple_types@U?$pair@$$CBW4SDL_Scancode@@_N@std@@@std@@@std@@@std@@QAE@XZ
  0054b	8b 45 08	 mov	 eax, DWORD PTR ___$ReturnUdt$[ebp]
  0054e	eb 39		 jmp	 SHORT $LN15@Insert_noh
$LN1@Insert_noh:
; Line 1824
  00550	c6 45 fc 00	 mov	 BYTE PTR __$EHRec$[ebp+12], 0
  00554	8d 4d ac	 lea	 ecx, DWORD PTR __Where$15[ebp]
  00557	e8 00 00 00 00	 call	 ??1?$_Tree_iterator@V?$_Tree_val@U?$_Tree_simple_types@U?$pair@$$CBW4SDL_Scancode@@_N@std@@@std@@@std@@@std@@QAE@XZ
$LN7@Insert_noh:
  0055c	eb 1b		 jmp	 SHORT $LN20@Insert_noh
__catch$??$_Insert_nohint@AAU?$pair@$$CBW4SDL_Scancode@@_N@std@@PAU?$_Tree_node@U?$pair@$$CBW4SDL_Scancode@@_N@std@@PAX@2@@?$_Tree@V?$_Tmap_traits@W4SDL_Scancode@@_NU?$less@W4SDL_Scancode@@@std@@V?$allocator@U?$pair@$$CBW4SDL_Scancode@@_N@std@@@3@$0A@@std@@@std@@IAE?AU?$pair@V?$_Tree_iterator@V?$_Tree_val@U?$_Tree_simple_types@U?$pair@$$CBW4SDL_Scancode@@_N@std@@@std@@@std@@@std@@_N@1@_NAAU?$pair@$$CBW4SDL_Scancode@@_N@1@PAU?$_Tree_node@U?$pair@$$CBW4SDL_Scancode@@_N@std@@PAX@1@@Z$0:
; Line 1826
  0055e	8b 45 14	 mov	 eax, DWORD PTR __Newnode$[ebp]
  00561	50		 push	 eax
  00562	8b 4d e4	 mov	 ecx, DWORD PTR _this$[ebp]
  00565	e8 00 00 00 00	 call	 ?_Destroy_if_not_nil@?$_Tree@V?$_Tmap_traits@W4SDL_Scancode@@_NU?$less@W4SDL_Scancode@@@std@@V?$allocator@U?$pair@$$CBW4SDL_Scancode@@_N@std@@@3@$0A@@std@@@std@@IAEXPAU?$_Tree_node@U?$pair@$$CBW4SDL_Scancode@@_N@std@@PAX@2@@Z ; std::_Tree<std::_Tmap_traits<enum SDL_Scancode,bool,std::less<enum SDL_Scancode>,std::allocator<std::pair<enum SDL_Scancode const ,bool> >,0> >::_Destroy_if_not_nil
; Line 1827
  0056a	6a 00		 push	 0
  0056c	6a 00		 push	 0
  0056e	e8 00 00 00 00	 call	 __CxxThrowException@8
; Line 1828
  00573	b8 00 00 00 00	 mov	 eax, $LN30@Insert_noh
  00578	c3		 ret	 0
$LN20@Insert_noh:
  00579	c7 45 fc ff ff
	ff ff		 mov	 DWORD PTR __$EHRec$[ebp+12], -1
  00580	eb 07		 jmp	 SHORT $LN15@Insert_noh
$LN30@Insert_noh:
  00582	c7 45 fc ff ff
	ff ff		 mov	 DWORD PTR __$EHRec$[ebp+12], -1
$LN15@Insert_noh:
; Line 1829
  00589	52		 push	 edx
  0058a	8b cd		 mov	 ecx, ebp
  0058c	50		 push	 eax
  0058d	8d 15 00 00 00
	00		 lea	 edx, DWORD PTR $LN34@Insert_noh
  00593	e8 00 00 00 00	 call	 @_RTC_CheckStackVars@8
  00598	58		 pop	 eax
  00599	5a		 pop	 edx
  0059a	8b 4d f4	 mov	 ecx, DWORD PTR __$EHRec$[ebp+4]
  0059d	64 89 0d 00 00
	00 00		 mov	 DWORD PTR fs:0, ecx
  005a4	59		 pop	 ecx
  005a5	5f		 pop	 edi
  005a6	5e		 pop	 esi
  005a7	5b		 pop	 ebx
  005a8	8b 4d ec	 mov	 ecx, DWORD PTR __$ArrayPad$[ebp]
  005ab	33 cd		 xor	 ecx, ebp
  005ad	e8 00 00 00 00	 call	 @__security_check_cookie@4
  005b2	81 c4 e8 01 00
	00		 add	 esp, 488		; 000001e8H
  005b8	3b ec		 cmp	 ebp, esp
  005ba	e8 00 00 00 00	 call	 __RTC_CheckEsp
  005bf	8b e5		 mov	 esp, ebp
  005c1	5d		 pop	 ebp
  005c2	c2 10 00	 ret	 16			; 00000010H
  005c5	8d 49 00	 npad	 3
$LN34@Insert_noh:
  005c8	01 00 00 00	 DD	 1
  005cc	00 00 00 00	 DD	 $LN33@Insert_noh
$LN33@Insert_noh:
  005d0	ac ff ff ff	 DD	 -84			; ffffffacH
  005d4	0c 00 00 00	 DD	 12			; 0000000cH
  005d8	00 00 00 00	 DD	 $LN31@Insert_noh
$LN31@Insert_noh:
  005dc	5f		 DB	 95			; 0000005fH
  005dd	57		 DB	 87			; 00000057H
  005de	68		 DB	 104			; 00000068H
  005df	65		 DB	 101			; 00000065H
  005e0	72		 DB	 114			; 00000072H
  005e1	65		 DB	 101			; 00000065H
  005e2	00		 DB	 0
_TEXT	ENDS
;	COMDAT text$x
text$x	SEGMENT
__unwindfunclet$??$_Insert_nohint@AAU?$pair@$$CBW4SDL_Scancode@@_N@std@@PAU?$_Tree_node@U?$pair@$$CBW4SDL_Scancode@@_N@std@@PAX@2@@?$_Tree@V?$_Tmap_traits@W4SDL_Scancode@@_NU?$less@W4SDL_Scancode@@@std@@V?$allocator@U?$pair@$$CBW4SDL_Scancode@@_N@std@@@3@$0A@@std@@@std@@IAE?AU?$pair@V?$_Tree_iterator@V?$_Tree_val@U?$_Tree_simple_types@U?$pair@$$CBW4SDL_Scancode@@_N@std@@@std@@@std@@@std@@_N@1@_NAAU?$pair@$$CBW4SDL_Scancode@@_N@1@PAU?$_Tree_node@U?$pair@$$CBW4SDL_Scancode@@_N@std@@PAX@1@@Z$2:
  00000	8d 8d 54 fe ff
	ff		 lea	 ecx, DWORD PTR $T5[ebp]
  00006	e9 00 00 00 00	 jmp	 ??1?$_Tree_iterator@V?$_Tree_val@U?$_Tree_simple_types@U?$pair@$$CBW4SDL_Scancode@@_N@std@@@std@@@std@@@std@@QAE@XZ
__unwindfunclet$??$_Insert_nohint@AAU?$pair@$$CBW4SDL_Scancode@@_N@std@@PAU?$_Tree_node@U?$pair@$$CBW4SDL_Scancode@@_N@std@@PAX@2@@?$_Tree@V?$_Tmap_traits@W4SDL_Scancode@@_NU?$less@W4SDL_Scancode@@@std@@V?$allocator@U?$pair@$$CBW4SDL_Scancode@@_N@std@@@3@$0A@@std@@@std@@IAE?AU?$pair@V?$_Tree_iterator@V?$_Tree_val@U?$_Tree_simple_types@U?$pair@$$CBW4SDL_Scancode@@_N@std@@@std@@@std@@@std@@_N@1@_NAAU?$pair@$$CBW4SDL_Scancode@@_N@1@PAU?$_Tree_node@U?$pair@$$CBW4SDL_Scancode@@_N@std@@PAX@1@@Z$4:
  0000b	8d 4d ac	 lea	 ecx, DWORD PTR __Where$15[ebp]
  0000e	e9 00 00 00 00	 jmp	 ??1?$_Tree_iterator@V?$_Tree_val@U?$_Tree_simple_types@U?$pair@$$CBW4SDL_Scancode@@_N@std@@@std@@@std@@@std@@QAE@XZ
__unwindfunclet$??$_Insert_nohint@AAU?$pair@$$CBW4SDL_Scancode@@_N@std@@PAU?$_Tree_node@U?$pair@$$CBW4SDL_Scancode@@_N@std@@PAX@2@@?$_Tree@V?$_Tmap_traits@W4SDL_Scancode@@_NU?$less@W4SDL_Scancode@@@std@@V?$allocator@U?$pair@$$CBW4SDL_Scancode@@_N@std@@@3@$0A@@std@@@std@@IAE?AU?$pair@V?$_Tree_iterator@V?$_Tree_val@U?$_Tree_simple_types@U?$pair@$$CBW4SDL_Scancode@@_N@std@@@std@@@std@@@std@@_N@1@_NAAU?$pair@$$CBW4SDL_Scancode@@_N@1@PAU?$_Tree_node@U?$pair@$$CBW4SDL_Scancode@@_N@std@@PAX@1@@Z$5:
  00013	8d 8d 74 fe ff
	ff		 lea	 ecx, DWORD PTR $T7[ebp]
  00019	e9 00 00 00 00	 jmp	 ??1?$_Tree_iterator@V?$_Tree_val@U?$_Tree_simple_types@U?$pair@$$CBW4SDL_Scancode@@_N@std@@@std@@@std@@@std@@QAE@XZ
__unwindfunclet$??$_Insert_nohint@AAU?$pair@$$CBW4SDL_Scancode@@_N@std@@PAU?$_Tree_node@U?$pair@$$CBW4SDL_Scancode@@_N@std@@PAX@2@@?$_Tree@V?$_Tmap_traits@W4SDL_Scancode@@_NU?$less@W4SDL_Scancode@@@std@@V?$allocator@U?$pair@$$CBW4SDL_Scancode@@_N@std@@@3@$0A@@std@@@std@@IAE?AU?$pair@V?$_Tree_iterator@V?$_Tree_val@U?$_Tree_simple_types@U?$pair@$$CBW4SDL_Scancode@@_N@std@@@std@@@std@@@std@@_N@1@_NAAU?$pair@$$CBW4SDL_Scancode@@_N@1@PAU?$_Tree_node@U?$pair@$$CBW4SDL_Scancode@@_N@std@@PAX@1@@Z$6:
  0001e	8d 8d 94 fe ff
	ff		 lea	 ecx, DWORD PTR $T9[ebp]
  00024	e9 00 00 00 00	 jmp	 ??1?$_Tree_iterator@V?$_Tree_val@U?$_Tree_simple_types@U?$pair@$$CBW4SDL_Scancode@@_N@std@@@std@@@std@@@std@@QAE@XZ
__unwindfunclet$??$_Insert_nohint@AAU?$pair@$$CBW4SDL_Scancode@@_N@std@@PAU?$_Tree_node@U?$pair@$$CBW4SDL_Scancode@@_N@std@@PAX@2@@?$_Tree@V?$_Tmap_traits@W4SDL_Scancode@@_NU?$less@W4SDL_Scancode@@@std@@V?$allocator@U?$pair@$$CBW4SDL_Scancode@@_N@std@@@3@$0A@@std@@@std@@IAE?AU?$pair@V?$_Tree_iterator@V?$_Tree_val@U?$_Tree_simple_types@U?$pair@$$CBW4SDL_Scancode@@_N@std@@@std@@@std@@@std@@_N@1@_NAAU?$pair@$$CBW4SDL_Scancode@@_N@1@PAU?$_Tree_node@U?$pair@$$CBW4SDL_Scancode@@_N@std@@PAX@1@@Z$7:
  00029	8d 8d c0 fe ff
	ff		 lea	 ecx, DWORD PTR $T12[ebp]
  0002f	e9 00 00 00 00	 jmp	 ??1?$_Tree_iterator@V?$_Tree_val@U?$_Tree_simple_types@U?$pair@$$CBW4SDL_Scancode@@_N@std@@@std@@@std@@@std@@QAE@XZ
__ehhandler$??$_Insert_nohint@AAU?$pair@$$CBW4SDL_Scancode@@_N@std@@PAU?$_Tree_node@U?$pair@$$CBW4SDL_Scancode@@_N@std@@PAX@2@@?$_Tree@V?$_Tmap_traits@W4SDL_Scancode@@_NU?$less@W4SDL_Scancode@@@std@@V?$allocator@U?$pair@$$CBW4SDL_Scancode@@_N@std@@@3@$0A@@std@@@std@@IAE?AU?$pair@V?$_Tree_iterator@V?$_Tree_val@U?$_Tree_simple_types@U?$pair@$$CBW4SDL_Scancode@@_N@std@@@std@@@std@@@std@@_N@1@_NAAU?$pair@$$CBW4SDL_Scancode@@_N@1@PAU?$_Tree_node@U?$pair@$$CBW4SDL_Scancode@@_N@std@@PAX@1@@Z:
  00034	8b 54 24 08	 mov	 edx, DWORD PTR [esp+8]
  00038	8d 42 0c	 lea	 eax, DWORD PTR [edx+12]
  0003b	8b 8a 14 fe ff
	ff		 mov	 ecx, DWORD PTR [edx-492]
  00041	33 c8		 xor	 ecx, eax
  00043	e8 00 00 00 00	 call	 @__security_check_cookie@4
  00048	8b 4a f8	 mov	 ecx, DWORD PTR [edx-8]
  0004b	33 c8		 xor	 ecx, eax
  0004d	e8 00 00 00 00	 call	 @__security_check_cookie@4
  00052	b8 00 00 00 00	 mov	 eax, OFFSET __ehfuncinfo$??$_Insert_nohint@AAU?$pair@$$CBW4SDL_Scancode@@_N@std@@PAU?$_Tree_node@U?$pair@$$CBW4SDL_Scancode@@_N@std@@PAX@2@@?$_Tree@V?$_Tmap_traits@W4SDL_Scancode@@_NU?$less@W4SDL_Scancode@@@std@@V?$allocator@U?$pair@$$CBW4SDL_Scancode@@_N@std@@@3@$0A@@std@@@std@@IAE?AU?$pair@V?$_Tree_iterator@V?$_Tree_val@U?$_Tree_simple_types@U?$pair@$$CBW4SDL_Scancode@@_N@std@@@std@@@std@@@std@@_N@1@_NAAU?$pair@$$CBW4SDL_Scancode@@_N@1@PAU?$_Tree_node@U?$pair@$$CBW4SDL_Scancode@@_N@std@@PAX@1@@Z
  00057	e9 00 00 00 00	 jmp	 ___CxxFrameHandler3
text$x	ENDS
??$_Insert_nohint@AAU?$pair@$$CBW4SDL_Scancode@@_N@std@@PAU?$_Tree_node@U?$pair@$$CBW4SDL_Scancode@@_N@std@@PAX@2@@?$_Tree@V?$_Tmap_traits@W4SDL_Scancode@@_NU?$less@W4SDL_Scancode@@@std@@V?$allocator@U?$pair@$$CBW4SDL_Scancode@@_N@std@@@3@$0A@@std@@@std@@IAE?AU?$pair@V?$_Tree_iterator@V?$_Tree_val@U?$_Tree_simple_types@U?$pair@$$CBW4SDL_Scancode@@_N@std@@@std@@@std@@@std@@_N@1@_NAAU?$pair@$$CBW4SDL_Scancode@@_N@1@PAU?$_Tree_node@U?$pair@$$CBW4SDL_Scancode@@_N@std@@PAX@1@@Z ENDP ; std::_Tree<std::_Tmap_traits<enum SDL_Scancode,bool,std::less<enum SDL_Scancode>,std::allocator<std::pair<enum SDL_Scancode const ,bool> >,0> >::_Insert_nohint<std::pair<enum SDL_Scancode const ,bool> &,std::_Tree_node<std::pair<enum SDL_Scancode const ,bool>,void *> *>
; Function compile flags: /Odtp /RTCsu /ZI
;	COMDAT ??$_Insert_at@AAU?$pair@$$CBW4SDL_Scancode@@_N@std@@PAU?$_Tree_node@U?$pair@$$CBW4SDL_Scancode@@_N@std@@PAX@2@@?$_Tree@V?$_Tmap_traits@W4SDL_Scancode@@_NU?$less@W4SDL_Scancode@@@std@@V?$allocator@U?$pair@$$CBW4SDL_Scancode@@_N@std@@@3@$0A@@std@@@std@@IAE?AV?$_Tree_iterator@V?$_Tree_val@U?$_Tree_simple_types@U?$pair@$$CBW4SDL_Scancode@@_N@std@@@std@@@std@@@1@_NPAU?$_Tree_node@U?$pair@$$CBW4SDL_Scancode@@_N@std@@PAX@1@AAU?$pair@$$CBW4SDL_Scancode@@_N@1@1@Z
_TEXT	SEGMENT
$T1 = -236						; size = 4
__Pnode$2 = -32						; size = 4
__Newnode$ = -20					; size = 4
_this$ = -8						; size = 4
___$ReturnUdt$ = 8					; size = 4
__Addleft$ = 12						; size = 1
__Wherenode$ = 16					; size = 4
__Val$ = 20						; size = 4
__Node$ = 24						; size = 4
??$_Insert_at@AAU?$pair@$$CBW4SDL_Scancode@@_N@std@@PAU?$_Tree_node@U?$pair@$$CBW4SDL_Scancode@@_N@std@@PAX@2@@?$_Tree@V?$_Tmap_traits@W4SDL_Scancode@@_NU?$less@W4SDL_Scancode@@@std@@V?$allocator@U?$pair@$$CBW4SDL_Scancode@@_N@std@@@3@$0A@@std@@@std@@IAE?AV?$_Tree_iterator@V?$_Tree_val@U?$_Tree_simple_types@U?$pair@$$CBW4SDL_Scancode@@_N@std@@@std@@@std@@@1@_NPAU?$_Tree_node@U?$pair@$$CBW4SDL_Scancode@@_N@std@@PAX@1@AAU?$pair@$$CBW4SDL_Scancode@@_N@1@1@Z PROC ; std::_Tree<std::_Tmap_traits<enum SDL_Scancode,bool,std::less<enum SDL_Scancode>,std::allocator<std::pair<enum SDL_Scancode const ,bool> >,0> >::_Insert_at<std::pair<enum SDL_Scancode const ,bool> &,std::_Tree_node<std::pair<enum SDL_Scancode const ,bool>,void *> *>, COMDAT
; _this$ = ecx
; File c:\program files (x86)\microsoft visual studio 12.0\vc\include\xtree
; Line 1833
  00000	55		 push	 ebp
  00001	8b ec		 mov	 ebp, esp
  00003	81 ec f0 00 00
	00		 sub	 esp, 240		; 000000f0H
  00009	53		 push	 ebx
  0000a	56		 push	 esi
  0000b	57		 push	 edi
  0000c	51		 push	 ecx
  0000d	8d bd 10 ff ff
	ff		 lea	 edi, DWORD PTR [ebp-240]
  00013	b9 3c 00 00 00	 mov	 ecx, 60			; 0000003cH
  00018	b8 cc cc cc cc	 mov	 eax, -858993460		; ccccccccH
  0001d	f3 ab		 rep stosd
  0001f	59		 pop	 ecx
  00020	89 4d f8	 mov	 DWORD PTR _this$[ebp], ecx
  00023	c7 85 14 ff ff
	ff 00 00 00 00	 mov	 DWORD PTR $T1[ebp], 0
; Line 1836
  0002d	8b 4d f8	 mov	 ecx, DWORD PTR _this$[ebp]
  00030	e8 00 00 00 00	 call	 ?max_size@?$_Tree@V?$_Tmap_traits@W4SDL_Scancode@@_NU?$less@W4SDL_Scancode@@@std@@V?$allocator@U?$pair@$$CBW4SDL_Scancode@@_N@std@@@3@$0A@@std@@@std@@QBEIXZ ; std::_Tree<std::_Tmap_traits<enum SDL_Scancode,bool,std::less<enum SDL_Scancode>,std::allocator<std::pair<enum SDL_Scancode const ,bool> >,0> >::max_size
  00035	83 e8 01	 sub	 eax, 1
  00038	8b 4d f8	 mov	 ecx, DWORD PTR _this$[ebp]
  0003b	3b 41 08	 cmp	 eax, DWORD PTR [ecx+8]
  0003e	77 20		 ja	 SHORT $LN17@Insert_at
; Line 1838
  00040	8b 45 18	 mov	 eax, DWORD PTR __Node$[ebp]
  00043	50		 push	 eax
  00044	8b 4d f8	 mov	 ecx, DWORD PTR _this$[ebp]
  00047	e8 00 00 00 00	 call	 ?_Destroy_if_not_nil@?$_Tree@V?$_Tmap_traits@W4SDL_Scancode@@_NU?$less@W4SDL_Scancode@@@std@@V?$allocator@U?$pair@$$CBW4SDL_Scancode@@_N@std@@@3@$0A@@std@@@std@@IAEXPAU?$_Tree_node@U?$pair@$$CBW4SDL_Scancode@@_N@std@@PAX@2@@Z ; std::_Tree<std::_Tmap_traits<enum SDL_Scancode,bool,std::less<enum SDL_Scancode>,std::allocator<std::pair<enum SDL_Scancode const ,bool> >,0> >::_Destroy_if_not_nil
; Line 1839
  0004c	8b f4		 mov	 esi, esp
  0004e	68 00 00 00 00	 push	 OFFSET ??_C@_0BE@JONHPENG@map?1set?$DMT?$DO?5too?5long?$AA@
  00053	ff 15 00 00 00
	00		 call	 DWORD PTR __imp_?_Xlength_error@std@@YAXPBD@Z
  00059	3b f4		 cmp	 esi, esp
  0005b	e8 00 00 00 00	 call	 __RTC_CheckEsp
$LN17@Insert_at:
; Line 1842
  00060	8b 45 14	 mov	 eax, DWORD PTR __Val$[ebp]
  00063	50		 push	 eax
  00064	e8 00 00 00 00	 call	 ??$forward@AAU?$pair@$$CBW4SDL_Scancode@@_N@std@@@std@@YAAAU?$pair@$$CBW4SDL_Scancode@@_N@0@AAU10@@Z ; std::forward<std::pair<enum SDL_Scancode const ,bool> &>
  00069	83 c4 04	 add	 esp, 4
  0006c	50		 push	 eax
  0006d	8b 4d 18	 mov	 ecx, DWORD PTR __Node$[ebp]
  00070	51		 push	 ecx
  00071	8b 4d f8	 mov	 ecx, DWORD PTR _this$[ebp]
  00074	e8 00 00 00 00	 call	 ??$_Buynode_if_nil@AAU?$pair@$$CBW4SDL_Scancode@@_N@std@@@?$_Tree@V?$_Tmap_traits@W4SDL_Scancode@@_NU?$less@W4SDL_Scancode@@@std@@V?$allocator@U?$pair@$$CBW4SDL_Scancode@@_N@std@@@3@$0A@@std@@@std@@IAEPAU?$_Tree_node@U?$pair@$$CBW4SDL_Scancode@@_N@std@@PAX@1@PAU21@AAU?$pair@$$CBW4SDL_Scancode@@_N@1@@Z ; std::_Tree<std::_Tmap_traits<enum SDL_Scancode,bool,std::less<enum SDL_Scancode>,std::allocator<std::pair<enum SDL_Scancode const ,bool> >,0> >::_Buynode_if_nil<std::pair<enum SDL_Scancode const ,bool> &>
  00079	89 45 ec	 mov	 DWORD PTR __Newnode$[ebp], eax
; Line 1844
  0007c	8b 45 f8	 mov	 eax, DWORD PTR _this$[ebp]
  0007f	8b 48 08	 mov	 ecx, DWORD PTR [eax+8]
  00082	83 c1 01	 add	 ecx, 1
  00085	8b 55 f8	 mov	 edx, DWORD PTR _this$[ebp]
  00088	89 4a 08	 mov	 DWORD PTR [edx+8], ecx
; Line 1845
  0008b	8b 45 ec	 mov	 eax, DWORD PTR __Newnode$[ebp]
  0008e	8b 4d 10	 mov	 ecx, DWORD PTR __Wherenode$[ebp]
  00091	89 48 04	 mov	 DWORD PTR [eax+4], ecx
; Line 1847
  00094	8b 45 f8	 mov	 eax, DWORD PTR _this$[ebp]
  00097	8b 4d 10	 mov	 ecx, DWORD PTR __Wherenode$[ebp]
  0009a	3b 48 04	 cmp	 ecx, DWORD PTR [eax+4]
  0009d	75 29		 jne	 SHORT $LN16@Insert_at
; Line 1849
  0009f	8b 4d f8	 mov	 ecx, DWORD PTR _this$[ebp]
  000a2	e8 00 00 00 00	 call	 ?_Root@?$_Tree@V?$_Tmap_traits@W4SDL_Scancode@@_NU?$less@W4SDL_Scancode@@@std@@V?$allocator@U?$pair@$$CBW4SDL_Scancode@@_N@std@@@3@$0A@@std@@@std@@IBEAAPAU?$_Tree_node@U?$pair@$$CBW4SDL_Scancode@@_N@std@@PAX@2@XZ ; std::_Tree<std::_Tmap_traits<enum SDL_Scancode,bool,std::less<enum SDL_Scancode>,std::allocator<std::pair<enum SDL_Scancode const ,bool> >,0> >::_Root
  000a7	8b 4d ec	 mov	 ecx, DWORD PTR __Newnode$[ebp]
  000aa	89 08		 mov	 DWORD PTR [eax], ecx
; Line 1850
  000ac	8b 4d f8	 mov	 ecx, DWORD PTR _this$[ebp]
  000af	e8 00 00 00 00	 call	 ?_Lmost@?$_Tree@V?$_Tmap_traits@W4SDL_Scancode@@_NU?$less@W4SDL_Scancode@@@std@@V?$allocator@U?$pair@$$CBW4SDL_Scancode@@_N@std@@@3@$0A@@std@@@std@@IBEAAPAU?$_Tree_node@U?$pair@$$CBW4SDL_Scancode@@_N@std@@PAX@2@XZ ; std::_Tree<std::_Tmap_traits<enum SDL_Scancode,bool,std::less<enum SDL_Scancode>,std::allocator<std::pair<enum SDL_Scancode const ,bool> >,0> >::_Lmost
  000b4	8b 4d ec	 mov	 ecx, DWORD PTR __Newnode$[ebp]
  000b7	89 08		 mov	 DWORD PTR [eax], ecx
; Line 1851
  000b9	8b 4d f8	 mov	 ecx, DWORD PTR _this$[ebp]
  000bc	e8 00 00 00 00	 call	 ?_Rmost@?$_Tree@V?$_Tmap_traits@W4SDL_Scancode@@_NU?$less@W4SDL_Scancode@@@std@@V?$allocator@U?$pair@$$CBW4SDL_Scancode@@_N@std@@@3@$0A@@std@@@std@@IBEAAPAU?$_Tree_node@U?$pair@$$CBW4SDL_Scancode@@_N@std@@PAX@2@XZ ; std::_Tree<std::_Tmap_traits<enum SDL_Scancode,bool,std::less<enum SDL_Scancode>,std::allocator<std::pair<enum SDL_Scancode const ,bool> >,0> >::_Rmost
  000c1	8b 4d ec	 mov	 ecx, DWORD PTR __Newnode$[ebp]
  000c4	89 08		 mov	 DWORD PTR [eax], ecx
  000c6	eb 64		 jmp	 SHORT $LN15@Insert_at
$LN16@Insert_at:
; Line 1853
  000c8	0f b6 45 0c	 movzx	 eax, BYTE PTR __Addleft$[ebp]
  000cc	85 c0		 test	 eax, eax
  000ce	74 2f		 je	 SHORT $LN14@Insert_at
; Line 1855
  000d0	8b 45 10	 mov	 eax, DWORD PTR __Wherenode$[ebp]
  000d3	50		 push	 eax
  000d4	e8 00 00 00 00	 call	 ?_Left@?$_Tree_val@U?$_Tree_simple_types@U?$pair@$$CBW4SDL_Scancode@@_N@std@@@std@@@std@@SAAAPAU?$_Tree_node@U?$pair@$$CBW4SDL_Scancode@@_N@std@@PAX@2@PAU32@@Z ; std::_Tree_val<std::_Tree_simple_types<std::pair<enum SDL_Scancode const ,bool> > >::_Left
  000d9	83 c4 04	 add	 esp, 4
  000dc	8b 4d ec	 mov	 ecx, DWORD PTR __Newnode$[ebp]
  000df	89 08		 mov	 DWORD PTR [eax], ecx
; Line 1856
  000e1	8b 4d f8	 mov	 ecx, DWORD PTR _this$[ebp]
  000e4	e8 00 00 00 00	 call	 ?_Lmost@?$_Tree@V?$_Tmap_traits@W4SDL_Scancode@@_NU?$less@W4SDL_Scancode@@@std@@V?$allocator@U?$pair@$$CBW4SDL_Scancode@@_N@std@@@3@$0A@@std@@@std@@IBEAAPAU?$_Tree_node@U?$pair@$$CBW4SDL_Scancode@@_N@std@@PAX@2@XZ ; std::_Tree<std::_Tmap_traits<enum SDL_Scancode,bool,std::less<enum SDL_Scancode>,std::allocator<std::pair<enum SDL_Scancode const ,bool> >,0> >::_Lmost
  000e9	8b 4d 10	 mov	 ecx, DWORD PTR __Wherenode$[ebp]
  000ec	3b 08		 cmp	 ecx, DWORD PTR [eax]
  000ee	75 0d		 jne	 SHORT $LN13@Insert_at
; Line 1857
  000f0	8b 4d f8	 mov	 ecx, DWORD PTR _this$[ebp]
  000f3	e8 00 00 00 00	 call	 ?_Lmost@?$_Tree@V?$_Tmap_traits@W4SDL_Scancode@@_NU?$less@W4SDL_Scancode@@@std@@V?$allocator@U?$pair@$$CBW4SDL_Scancode@@_N@std@@@3@$0A@@std@@@std@@IBEAAPAU?$_Tree_node@U?$pair@$$CBW4SDL_Scancode@@_N@std@@PAX@2@XZ ; std::_Tree<std::_Tmap_traits<enum SDL_Scancode,bool,std::less<enum SDL_Scancode>,std::allocator<std::pair<enum SDL_Scancode const ,bool> >,0> >::_Lmost
  000f8	8b 4d ec	 mov	 ecx, DWORD PTR __Newnode$[ebp]
  000fb	89 08		 mov	 DWORD PTR [eax], ecx
$LN13@Insert_at:
; Line 1859
  000fd	eb 2d		 jmp	 SHORT $LN15@Insert_at
$LN14@Insert_at:
; Line 1861
