; Listing generated by Microsoft (R) Optimizing Compiler Version 18.00.21005.1 

	TITLE	F:\Cavestory\Cavestory\Cavestory\Level.cpp
	.686P
	.XMM
	include listing.inc
	.model	flat

INCLUDELIB MSVCRTD
INCLUDELIB OLDNAMES

PUBLIC	?numeric@?$_Locbase@H@std@@2HB			; std::_Locbase<int>::numeric
PUBLIC	?hex@?$_Iosb@H@std@@2W4_Fmtflags@12@B		; std::_Iosb<int>::hex
PUBLIC	?time@?$_Locbase@H@std@@2HB			; std::_Locbase<int>::time
PUBLIC	?scientific@?$_Iosb@H@std@@2W4_Fmtflags@12@B	; std::_Iosb<int>::scientific
PUBLIC	?messages@?$_Locbase@H@std@@2HB			; std::_Locbase<int>::messages
PUBLIC	?fixed@?$_Iosb@H@std@@2W4_Fmtflags@12@B		; std::_Iosb<int>::fixed
PUBLIC	?all@?$_Locbase@H@std@@2HB			; std::_Locbase<int>::all
PUBLIC	?none@?$_Locbase@H@std@@2HB			; std::_Locbase<int>::none
PUBLIC	?hexfloat@?$_Iosb@H@std@@2W4_Fmtflags@12@B	; std::_Iosb<int>::hexfloat
PUBLIC	?boolalpha@?$_Iosb@H@std@@2W4_Fmtflags@12@B	; std::_Iosb<int>::boolalpha
PUBLIC	?_Stdio@?$_Iosb@H@std@@2W4_Fmtflags@12@B	; std::_Iosb<int>::_Stdio
PUBLIC	?adjustfield@?$_Iosb@H@std@@2W4_Fmtflags@12@B	; std::_Iosb<int>::adjustfield
PUBLIC	?is_signed@?$numeric_limits@E@std@@2_NB		; std::numeric_limits<unsigned char>::is_signed
PUBLIC	?basefield@?$_Iosb@H@std@@2W4_Fmtflags@12@B	; std::_Iosb<int>::basefield
PUBLIC	?digits@?$numeric_limits@E@std@@2HB		; std::numeric_limits<unsigned char>::digits
PUBLIC	?floatfield@?$_Iosb@H@std@@2W4_Fmtflags@12@B	; std::_Iosb<int>::floatfield
PUBLIC	?digits10@?$numeric_limits@E@std@@2HB		; std::numeric_limits<unsigned char>::digits10
PUBLIC	?goodbit@?$_Iosb@H@std@@2W4_Iostate@12@B	; std::_Iosb<int>::goodbit
PUBLIC	?eofbit@?$_Iosb@H@std@@2W4_Iostate@12@B		; std::_Iosb<int>::eofbit
PUBLIC	?failbit@?$_Iosb@H@std@@2W4_Iostate@12@B	; std::_Iosb<int>::failbit
PUBLIC	?badbit@?$_Iosb@H@std@@2W4_Iostate@12@B		; std::_Iosb<int>::badbit
PUBLIC	?_Hardfail@?$_Iosb@H@std@@2W4_Iostate@12@B	; std::_Iosb<int>::_Hardfail
PUBLIC	?in@?$_Iosb@H@std@@2W4_Openmode@12@B		; std::_Iosb<int>::in
PUBLIC	?out@?$_Iosb@H@std@@2W4_Openmode@12@B		; std::_Iosb<int>::out
PUBLIC	?ate@?$_Iosb@H@std@@2W4_Openmode@12@B		; std::_Iosb<int>::ate
PUBLIC	?is_signed@?$numeric_limits@F@std@@2_NB		; std::numeric_limits<short>::is_signed
PUBLIC	?app@?$_Iosb@H@std@@2W4_Openmode@12@B		; std::_Iosb<int>::app
PUBLIC	?trunc@?$_Iosb@H@std@@2W4_Openmode@12@B		; std::_Iosb<int>::trunc
PUBLIC	?digits@?$numeric_limits@F@std@@2HB		; std::numeric_limits<short>::digits
PUBLIC	?_Nocreate@?$_Iosb@H@std@@2W4_Openmode@12@B	; std::_Iosb<int>::_Nocreate
PUBLIC	?digits10@?$numeric_limits@F@std@@2HB		; std::numeric_limits<short>::digits10
PUBLIC	?_Noreplace@?$_Iosb@H@std@@2W4_Openmode@12@B	; std::_Iosb<int>::_Noreplace
PUBLIC	?binary@?$_Iosb@H@std@@2W4_Openmode@12@B	; std::_Iosb<int>::binary
PUBLIC	?beg@?$_Iosb@H@std@@2W4_Seekdir@12@B		; std::_Iosb<int>::beg
PUBLIC	?cur@?$_Iosb@H@std@@2W4_Seekdir@12@B		; std::_Iosb<int>::cur
PUBLIC	?end@?$_Iosb@H@std@@2W4_Seekdir@12@B		; std::_Iosb<int>::end
PUBLIC	?is_signed@?$numeric_limits@G@std@@2_NB		; std::numeric_limits<unsigned short>::is_signed
PUBLIC	?digits@?$numeric_limits@G@std@@2HB		; std::numeric_limits<unsigned short>::digits
PUBLIC	?digits10@?$numeric_limits@G@std@@2HB		; std::numeric_limits<unsigned short>::digits10
PUBLIC	?is_signed@?$numeric_limits@H@std@@2_NB		; std::numeric_limits<int>::is_signed
PUBLIC	?digits@?$numeric_limits@H@std@@2HB		; std::numeric_limits<int>::digits
PUBLIC	?digits10@?$numeric_limits@H@std@@2HB		; std::numeric_limits<int>::digits10
PUBLIC	?is_signed@?$numeric_limits@I@std@@2_NB		; std::numeric_limits<unsigned int>::is_signed
PUBLIC	?digits@?$numeric_limits@I@std@@2HB		; std::numeric_limits<unsigned int>::digits
PUBLIC	?digits10@?$numeric_limits@I@std@@2HB		; std::numeric_limits<unsigned int>::digits10
PUBLIC	?is_signed@?$numeric_limits@J@std@@2_NB		; std::numeric_limits<long>::is_signed
PUBLIC	?digits@?$numeric_limits@J@std@@2HB		; std::numeric_limits<long>::digits
PUBLIC	?digits10@?$numeric_limits@J@std@@2HB		; std::numeric_limits<long>::digits10
PUBLIC	?value@?$integral_constant@I$07@std@@2IB	; std::integral_constant<unsigned int,8>::value
PUBLIC	?is_signed@?$numeric_limits@K@std@@2_NB		; std::numeric_limits<unsigned long>::is_signed
PUBLIC	?digits@?$numeric_limits@K@std@@2HB		; std::numeric_limits<unsigned long>::digits
PUBLIC	?digits10@?$numeric_limits@K@std@@2HB		; std::numeric_limits<unsigned long>::digits10
PUBLIC	?value@?$integral_constant@I$03@std@@2IB	; std::integral_constant<unsigned int,4>::value
PUBLIC	?is_signed@?$numeric_limits@_J@std@@2_NB	; std::numeric_limits<__int64>::is_signed
PUBLIC	?digits@?$numeric_limits@_J@std@@2HB		; std::numeric_limits<__int64>::digits
PUBLIC	?digits10@?$numeric_limits@_J@std@@2HB		; std::numeric_limits<__int64>::digits10
PUBLIC	?is_signed@?$numeric_limits@_K@std@@2_NB	; std::numeric_limits<unsigned __int64>::is_signed
PUBLIC	?digits@?$numeric_limits@_K@std@@2HB		; std::numeric_limits<unsigned __int64>::digits
PUBLIC	?digits10@?$numeric_limits@_K@std@@2HB		; std::numeric_limits<unsigned __int64>::digits10
PUBLIC	?value@?$integral_constant@I$01@std@@2IB	; std::integral_constant<unsigned int,2>::value
PUBLIC	?digits@?$numeric_limits@M@std@@2HB		; std::numeric_limits<float>::digits
PUBLIC	?digits10@?$numeric_limits@M@std@@2HB		; std::numeric_limits<float>::digits10
PUBLIC	?max_digits10@?$numeric_limits@M@std@@2HB	; std::numeric_limits<float>::max_digits10
PUBLIC	?max_exponent@?$numeric_limits@M@std@@2HB	; std::numeric_limits<float>::max_exponent
PUBLIC	?max_exponent10@?$numeric_limits@M@std@@2HB	; std::numeric_limits<float>::max_exponent10
PUBLIC	?min_exponent@?$numeric_limits@M@std@@2HB	; std::numeric_limits<float>::min_exponent
PUBLIC	?min_exponent10@?$numeric_limits@M@std@@2HB	; std::numeric_limits<float>::min_exponent10
PUBLIC	?value@?$integral_constant@_N$0A@@std@@2_NB	; std::integral_constant<bool,0>::value
PUBLIC	?value@?$integral_constant@I$00@std@@2IB	; std::integral_constant<unsigned int,1>::value
PUBLIC	?value@?$integral_constant@_N$00@std@@2_NB	; std::integral_constant<bool,1>::value
PUBLIC	?digits@?$numeric_limits@N@std@@2HB		; std::numeric_limits<double>::digits
PUBLIC	?digits10@?$numeric_limits@N@std@@2HB		; std::numeric_limits<double>::digits10
PUBLIC	?max_digits10@?$numeric_limits@N@std@@2HB	; std::numeric_limits<double>::max_digits10
PUBLIC	?max_exponent@?$numeric_limits@N@std@@2HB	; std::numeric_limits<double>::max_exponent
PUBLIC	?max_exponent10@?$numeric_limits@N@std@@2HB	; std::numeric_limits<double>::max_exponent10
PUBLIC	?value@?$_Maximum@$S@std@@2IB			; std::_Maximum<>::value
PUBLIC	?min_exponent@?$numeric_limits@N@std@@2HB	; std::numeric_limits<double>::min_exponent
PUBLIC	?min_exponent10@?$numeric_limits@N@std@@2HB	; std::numeric_limits<double>::min_exponent10
PUBLIC	?value@?$integral_constant@I$0A@@std@@2IB	; std::integral_constant<unsigned int,0>::value
PUBLIC	?digits@?$numeric_limits@O@std@@2HB		; std::numeric_limits<long double>::digits
PUBLIC	?digits10@?$numeric_limits@O@std@@2HB		; std::numeric_limits<long double>::digits10
PUBLIC	?max_digits10@?$numeric_limits@O@std@@2HB	; std::numeric_limits<long double>::max_digits10
PUBLIC	?max_exponent@?$numeric_limits@O@std@@2HB	; std::numeric_limits<long double>::max_exponent
PUBLIC	?max_exponent10@?$numeric_limits@O@std@@2HB	; std::numeric_limits<long double>::max_exponent10
PUBLIC	?min_exponent@?$numeric_limits@O@std@@2HB	; std::numeric_limits<long double>::min_exponent
PUBLIC	?min_exponent10@?$numeric_limits@O@std@@2HB	; std::numeric_limits<long double>::min_exponent10
PUBLIC	?has_denorm@_Num_base@std@@2W4float_denorm_style@2@B ; std::_Num_base::has_denorm
PUBLIC	?has_denorm_loss@_Num_base@std@@2_NB		; std::_Num_base::has_denorm_loss
PUBLIC	?has_infinity@_Num_base@std@@2_NB		; std::_Num_base::has_infinity
PUBLIC	?has_quiet_NaN@_Num_base@std@@2_NB		; std::_Num_base::has_quiet_NaN
PUBLIC	?has_signaling_NaN@_Num_base@std@@2_NB		; std::_Num_base::has_signaling_NaN
PUBLIC	?is_bounded@_Num_base@std@@2_NB			; std::_Num_base::is_bounded
PUBLIC	?is_exact@_Num_base@std@@2_NB			; std::_Num_base::is_exact
PUBLIC	?is_iec559@_Num_base@std@@2_NB			; std::_Num_base::is_iec559
PUBLIC	?is_integer@_Num_base@std@@2_NB			; std::_Num_base::is_integer
PUBLIC	?is_modulo@_Num_base@std@@2_NB			; std::_Num_base::is_modulo
PUBLIC	?is_signed@_Num_base@std@@2_NB			; std::_Num_base::is_signed
PUBLIC	?is_specialized@_Num_base@std@@2_NB		; std::_Num_base::is_specialized
PUBLIC	?tinyness_before@_Num_base@std@@2_NB		; std::_Num_base::tinyness_before
PUBLIC	?traps@_Num_base@std@@2_NB			; std::_Num_base::traps
PUBLIC	?round_style@_Num_base@std@@2W4float_round_style@2@B ; std::_Num_base::round_style
PUBLIC	?digits@_Num_base@std@@2HB			; std::_Num_base::digits
PUBLIC	?digits10@_Num_base@std@@2HB			; std::_Num_base::digits10
PUBLIC	?max_digits10@_Num_base@std@@2HB		; std::_Num_base::max_digits10
PUBLIC	?max_exponent@_Num_base@std@@2HB		; std::_Num_base::max_exponent
PUBLIC	?max_exponent10@_Num_base@std@@2HB		; std::_Num_base::max_exponent10
PUBLIC	?min_exponent@_Num_base@std@@2HB		; std::_Num_base::min_exponent
PUBLIC	?min_exponent10@_Num_base@std@@2HB		; std::_Num_base::min_exponent10
PUBLIC	?radix@_Num_base@std@@2HB			; std::_Num_base::radix
PUBLIC	?is_bounded@_Num_int_base@std@@2_NB		; std::_Num_int_base::is_bounded
PUBLIC	?is_exact@_Num_int_base@std@@2_NB		; std::_Num_int_base::is_exact
PUBLIC	?is_integer@_Num_int_base@std@@2_NB		; std::_Num_int_base::is_integer
PUBLIC	?is_modulo@_Num_int_base@std@@2_NB		; std::_Num_int_base::is_modulo
PUBLIC	?is_specialized@_Num_int_base@std@@2_NB		; std::_Num_int_base::is_specialized
PUBLIC	?radix@_Num_int_base@std@@2HB			; std::_Num_int_base::radix
PUBLIC	?has_denorm@_Num_float_base@std@@2W4float_denorm_style@2@B ; std::_Num_float_base::has_denorm
PUBLIC	?has_denorm_loss@_Num_float_base@std@@2_NB	; std::_Num_float_base::has_denorm_loss
PUBLIC	?has_infinity@_Num_float_base@std@@2_NB		; std::_Num_float_base::has_infinity
PUBLIC	?has_quiet_NaN@_Num_float_base@std@@2_NB	; std::_Num_float_base::has_quiet_NaN
PUBLIC	?has_signaling_NaN@_Num_float_base@std@@2_NB	; std::_Num_float_base::has_signaling_NaN
PUBLIC	?is_bounded@_Num_float_base@std@@2_NB		; std::_Num_float_base::is_bounded
PUBLIC	?is_exact@_Num_float_base@std@@2_NB		; std::_Num_float_base::is_exact
PUBLIC	?is_iec559@_Num_float_base@std@@2_NB		; std::_Num_float_base::is_iec559
PUBLIC	?is_integer@_Num_float_base@std@@2_NB		; std::_Num_float_base::is_integer
PUBLIC	?is_modulo@_Num_float_base@std@@2_NB		; std::_Num_float_base::is_modulo
PUBLIC	?is_signed@_Num_float_base@std@@2_NB		; std::_Num_float_base::is_signed
PUBLIC	?is_specialized@_Num_float_base@std@@2_NB	; std::_Num_float_base::is_specialized
PUBLIC	?tinyness_before@_Num_float_base@std@@2_NB	; std::_Num_float_base::tinyness_before
PUBLIC	?traps@_Num_float_base@std@@2_NB		; std::_Num_float_base::traps
PUBLIC	?round_style@_Num_float_base@std@@2W4float_round_style@2@B ; std::_Num_float_base::round_style
PUBLIC	?radix@_Num_float_base@std@@2HB			; std::_Num_float_base::radix
PUBLIC	?is_signed@?$numeric_limits@D@std@@2_NB		; std::numeric_limits<char>::is_signed
PUBLIC	?digits@?$numeric_limits@D@std@@2HB		; std::numeric_limits<char>::digits
PUBLIC	?digits10@?$numeric_limits@D@std@@2HB		; std::numeric_limits<char>::digits10
PUBLIC	?is_signed@?$numeric_limits@_W@std@@2_NB	; std::numeric_limits<wchar_t>::is_signed
PUBLIC	?digits@?$numeric_limits@_W@std@@2HB		; std::numeric_limits<wchar_t>::digits
PUBLIC	?digits10@?$numeric_limits@_W@std@@2HB		; std::numeric_limits<wchar_t>::digits10
PUBLIC	?is_modulo@?$numeric_limits@_N@std@@2_NB	; std::numeric_limits<bool>::is_modulo
PUBLIC	?is_signed@?$numeric_limits@_N@std@@2_NB	; std::numeric_limits<bool>::is_signed
PUBLIC	?digits@?$numeric_limits@_N@std@@2HB		; std::numeric_limits<bool>::digits
PUBLIC	?digits10@?$numeric_limits@_N@std@@2HB		; std::numeric_limits<bool>::digits10
PUBLIC	?skipws@?$_Iosb@H@std@@2W4_Fmtflags@12@B	; std::_Iosb<int>::skipws
PUBLIC	?unitbuf@?$_Iosb@H@std@@2W4_Fmtflags@12@B	; std::_Iosb<int>::unitbuf
PUBLIC	?uppercase@?$_Iosb@H@std@@2W4_Fmtflags@12@B	; std::_Iosb<int>::uppercase
PUBLIC	?showbase@?$_Iosb@H@std@@2W4_Fmtflags@12@B	; std::_Iosb<int>::showbase
PUBLIC	?showpoint@?$_Iosb@H@std@@2W4_Fmtflags@12@B	; std::_Iosb<int>::showpoint
PUBLIC	?showpos@?$_Iosb@H@std@@2W4_Fmtflags@12@B	; std::_Iosb<int>::showpos
PUBLIC	?is_signed@?$numeric_limits@C@std@@2_NB		; std::numeric_limits<signed char>::is_signed
PUBLIC	?left@?$_Iosb@H@std@@2W4_Fmtflags@12@B		; std::_Iosb<int>::left
PUBLIC	?digits@?$numeric_limits@C@std@@2HB		; std::numeric_limits<signed char>::digits
PUBLIC	?right@?$_Iosb@H@std@@2W4_Fmtflags@12@B		; std::_Iosb<int>::right
PUBLIC	?digits10@?$numeric_limits@C@std@@2HB		; std::numeric_limits<signed char>::digits10
PUBLIC	?internal@?$_Iosb@H@std@@2W4_Fmtflags@12@B	; std::_Iosb<int>::internal
PUBLIC	?dec@?$_Iosb@H@std@@2W4_Fmtflags@12@B		; std::_Iosb<int>::dec
PUBLIC	?collate@?$_Locbase@H@std@@2HB			; std::_Locbase<int>::collate
PUBLIC	?ctype@?$_Locbase@H@std@@2HB			; std::_Locbase<int>::ctype
PUBLIC	?oct@?$_Iosb@H@std@@2W4_Fmtflags@12@B		; std::_Iosb<int>::oct
PUBLIC	?monetary@?$_Locbase@H@std@@2HB			; std::_Locbase<int>::monetary
;	COMDAT ?monetary@?$_Locbase@H@std@@2HB
CONST	SEGMENT
?monetary@?$_Locbase@H@std@@2HB DD 04H			; std::_Locbase<int>::monetary
CONST	ENDS
;	COMDAT ?oct@?$_Iosb@H@std@@2W4_Fmtflags@12@B
CONST	SEGMENT
?oct@?$_Iosb@H@std@@2W4_Fmtflags@12@B DD 0400H		; std::_Iosb<int>::oct
CONST	ENDS
;	COMDAT ?ctype@?$_Locbase@H@std@@2HB
CONST	SEGMENT
?ctype@?$_Locbase@H@std@@2HB DD 02H			; std::_Locbase<int>::ctype
CONST	ENDS
;	COMDAT ?collate@?$_Locbase@H@std@@2HB
CONST	SEGMENT
?collate@?$_Locbase@H@std@@2HB DD 01H			; std::_Locbase<int>::collate
CONST	ENDS
;	COMDAT ?dec@?$_Iosb@H@std@@2W4_Fmtflags@12@B
CONST	SEGMENT
?dec@?$_Iosb@H@std@@2W4_Fmtflags@12@B DD 0200H		; std::_Iosb<int>::dec
CONST	ENDS
;	COMDAT ?internal@?$_Iosb@H@std@@2W4_Fmtflags@12@B
CONST	SEGMENT
?internal@?$_Iosb@H@std@@2W4_Fmtflags@12@B DD 0100H	; std::_Iosb<int>::internal
CONST	ENDS
;	COMDAT ?digits10@?$numeric_limits@C@std@@2HB
CONST	SEGMENT
?digits10@?$numeric_limits@C@std@@2HB DD 02H		; std::numeric_limits<signed char>::digits10
CONST	ENDS
;	COMDAT ?right@?$_Iosb@H@std@@2W4_Fmtflags@12@B
CONST	SEGMENT
?right@?$_Iosb@H@std@@2W4_Fmtflags@12@B DD 080H		; std::_Iosb<int>::right
CONST	ENDS
;	COMDAT ?digits@?$numeric_limits@C@std@@2HB
CONST	SEGMENT
?digits@?$numeric_limits@C@std@@2HB DD 07H		; std::numeric_limits<signed char>::digits
CONST	ENDS
;	COMDAT ?left@?$_Iosb@H@std@@2W4_Fmtflags@12@B
CONST	SEGMENT
?left@?$_Iosb@H@std@@2W4_Fmtflags@12@B DD 040H		; std::_Iosb<int>::left
CONST	ENDS
;	COMDAT ?is_signed@?$numeric_limits@C@std@@2_NB
CONST	SEGMENT
?is_signed@?$numeric_limits@C@std@@2_NB DB 01H		; std::numeric_limits<signed char>::is_signed
CONST	ENDS
;	COMDAT ?showpos@?$_Iosb@H@std@@2W4_Fmtflags@12@B
CONST	SEGMENT
?showpos@?$_Iosb@H@std@@2W4_Fmtflags@12@B DD 020H	; std::_Iosb<int>::showpos
CONST	ENDS
;	COMDAT ?showpoint@?$_Iosb@H@std@@2W4_Fmtflags@12@B
CONST	SEGMENT
?showpoint@?$_Iosb@H@std@@2W4_Fmtflags@12@B DD 010H	; std::_Iosb<int>::showpoint
CONST	ENDS
;	COMDAT ?showbase@?$_Iosb@H@std@@2W4_Fmtflags@12@B
CONST	SEGMENT
?showbase@?$_Iosb@H@std@@2W4_Fmtflags@12@B DD 08H	; std::_Iosb<int>::showbase
CONST	ENDS
;	COMDAT ?uppercase@?$_Iosb@H@std@@2W4_Fmtflags@12@B
CONST	SEGMENT
?uppercase@?$_Iosb@H@std@@2W4_Fmtflags@12@B DD 04H	; std::_Iosb<int>::uppercase
CONST	ENDS
;	COMDAT ?unitbuf@?$_Iosb@H@std@@2W4_Fmtflags@12@B
CONST	SEGMENT
?unitbuf@?$_Iosb@H@std@@2W4_Fmtflags@12@B DD 02H	; std::_Iosb<int>::unitbuf
CONST	ENDS
;	COMDAT ?skipws@?$_Iosb@H@std@@2W4_Fmtflags@12@B
CONST	SEGMENT
?skipws@?$_Iosb@H@std@@2W4_Fmtflags@12@B DD 01H		; std::_Iosb<int>::skipws
CONST	ENDS
;	COMDAT ?digits10@?$numeric_limits@_N@std@@2HB
CONST	SEGMENT
?digits10@?$numeric_limits@_N@std@@2HB DD 00H		; std::numeric_limits<bool>::digits10
CONST	ENDS
;	COMDAT ?digits@?$numeric_limits@_N@std@@2HB
CONST	SEGMENT
?digits@?$numeric_limits@_N@std@@2HB DD 01H		; std::numeric_limits<bool>::digits
CONST	ENDS
;	COMDAT ?is_signed@?$numeric_limits@_N@std@@2_NB
CONST	SEGMENT
?is_signed@?$numeric_limits@_N@std@@2_NB DB 00H		; std::numeric_limits<bool>::is_signed
CONST	ENDS
;	COMDAT ?is_modulo@?$numeric_limits@_N@std@@2_NB
CONST	SEGMENT
?is_modulo@?$numeric_limits@_N@std@@2_NB DB 00H		; std::numeric_limits<bool>::is_modulo
CONST	ENDS
;	COMDAT ?digits10@?$numeric_limits@_W@std@@2HB
CONST	SEGMENT
?digits10@?$numeric_limits@_W@std@@2HB DD 04H		; std::numeric_limits<wchar_t>::digits10
CONST	ENDS
;	COMDAT ?digits@?$numeric_limits@_W@std@@2HB
CONST	SEGMENT
?digits@?$numeric_limits@_W@std@@2HB DD 010H		; std::numeric_limits<wchar_t>::digits
CONST	ENDS
;	COMDAT ?is_signed@?$numeric_limits@_W@std@@2_NB
CONST	SEGMENT
?is_signed@?$numeric_limits@_W@std@@2_NB DB 00H		; std::numeric_limits<wchar_t>::is_signed
CONST	ENDS
;	COMDAT ?digits10@?$numeric_limits@D@std@@2HB
CONST	SEGMENT
?digits10@?$numeric_limits@D@std@@2HB DD 02H		; std::numeric_limits<char>::digits10
CONST	ENDS
;	COMDAT ?digits@?$numeric_limits@D@std@@2HB
CONST	SEGMENT
?digits@?$numeric_limits@D@std@@2HB DD 07H		; std::numeric_limits<char>::digits
CONST	ENDS
;	COMDAT ?is_signed@?$numeric_limits@D@std@@2_NB
CONST	SEGMENT
?is_signed@?$numeric_limits@D@std@@2_NB DB 01H		; std::numeric_limits<char>::is_signed
CONST	ENDS
;	COMDAT ?radix@_Num_float_base@std@@2HB
CONST	SEGMENT
?radix@_Num_float_base@std@@2HB DD 02H			; std::_Num_float_base::radix
CONST	ENDS
;	COMDAT ?round_style@_Num_float_base@std@@2W4float_round_style@2@B
CONST	SEGMENT
?round_style@_Num_float_base@std@@2W4float_round_style@2@B DD 01H ; std::_Num_float_base::round_style
CONST	ENDS
;	COMDAT ?traps@_Num_float_base@std@@2_NB
CONST	SEGMENT
?traps@_Num_float_base@std@@2_NB DB 00H			; std::_Num_float_base::traps
CONST	ENDS
;	COMDAT ?tinyness_before@_Num_float_base@std@@2_NB
CONST	SEGMENT
?tinyness_before@_Num_float_base@std@@2_NB DB 01H	; std::_Num_float_base::tinyness_before
CONST	ENDS
;	COMDAT ?is_specialized@_Num_float_base@std@@2_NB
CONST	SEGMENT
?is_specialized@_Num_float_base@std@@2_NB DB 01H	; std::_Num_float_base::is_specialized
CONST	ENDS
;	COMDAT ?is_signed@_Num_float_base@std@@2_NB
CONST	SEGMENT
?is_signed@_Num_float_base@std@@2_NB DB 01H		; std::_Num_float_base::is_signed
CONST	ENDS
;	COMDAT ?is_modulo@_Num_float_base@std@@2_NB
CONST	SEGMENT
?is_modulo@_Num_float_base@std@@2_NB DB 00H		; std::_Num_float_base::is_modulo
CONST	ENDS
;	COMDAT ?is_integer@_Num_float_base@std@@2_NB
CONST	SEGMENT
?is_integer@_Num_float_base@std@@2_NB DB 00H		; std::_Num_float_base::is_integer
CONST	ENDS
;	COMDAT ?is_iec559@_Num_float_base@std@@2_NB
CONST	SEGMENT
?is_iec559@_Num_float_base@std@@2_NB DB 01H		; std::_Num_float_base::is_iec559
CONST	ENDS
;	COMDAT ?is_exact@_Num_float_base@std@@2_NB
CONST	SEGMENT
?is_exact@_Num_float_base@std@@2_NB DB 00H		; std::_Num_float_base::is_exact
CONST	ENDS
;	COMDAT ?is_bounded@_Num_float_base@std@@2_NB
CONST	SEGMENT
?is_bounded@_Num_float_base@std@@2_NB DB 01H		; std::_Num_float_base::is_bounded
CONST	ENDS
;	COMDAT ?has_signaling_NaN@_Num_float_base@std@@2_NB
CONST	SEGMENT
?has_signaling_NaN@_Num_float_base@std@@2_NB DB 01H	; std::_Num_float_base::has_signaling_NaN
CONST	ENDS
;	COMDAT ?has_quiet_NaN@_Num_float_base@std@@2_NB
CONST	SEGMENT
?has_quiet_NaN@_Num_float_base@std@@2_NB DB 01H		; std::_Num_float_base::has_quiet_NaN
CONST	ENDS
;	COMDAT ?has_infinity@_Num_float_base@std@@2_NB
CONST	SEGMENT
?has_infinity@_Num_float_base@std@@2_NB DB 01H		; std::_Num_float_base::has_infinity
CONST	ENDS
;	COMDAT ?has_denorm_loss@_Num_float_base@std@@2_NB
CONST	SEGMENT
?has_denorm_loss@_Num_float_base@std@@2_NB DB 01H	; std::_Num_float_base::has_denorm_loss
CONST	ENDS
;	COMDAT ?has_denorm@_Num_float_base@std@@2W4float_denorm_style@2@B
CONST	SEGMENT
?has_denorm@_Num_float_base@std@@2W4float_denorm_style@2@B DD 01H ; std::_Num_float_base::has_denorm
CONST	ENDS
;	COMDAT ?radix@_Num_int_base@std@@2HB
CONST	SEGMENT
?radix@_Num_int_base@std@@2HB DD 02H			; std::_Num_int_base::radix
CONST	ENDS
;	COMDAT ?is_specialized@_Num_int_base@std@@2_NB
CONST	SEGMENT
?is_specialized@_Num_int_base@std@@2_NB DB 01H		; std::_Num_int_base::is_specialized
CONST	ENDS
;	COMDAT ?is_modulo@_Num_int_base@std@@2_NB
CONST	SEGMENT
?is_modulo@_Num_int_base@std@@2_NB DB 01H		; std::_Num_int_base::is_modulo
CONST	ENDS
;	COMDAT ?is_integer@_Num_int_base@std@@2_NB
CONST	SEGMENT
?is_integer@_Num_int_base@std@@2_NB DB 01H		; std::_Num_int_base::is_integer
CONST	ENDS
;	COMDAT ?is_exact@_Num_int_base@std@@2_NB
CONST	SEGMENT
?is_exact@_Num_int_base@std@@2_NB DB 01H		; std::_Num_int_base::is_exact
CONST	ENDS
;	COMDAT ?is_bounded@_Num_int_base@std@@2_NB
CONST	SEGMENT
?is_bounded@_Num_int_base@std@@2_NB DB 01H		; std::_Num_int_base::is_bounded
CONST	ENDS
;	COMDAT ?radix@_Num_base@std@@2HB
CONST	SEGMENT
?radix@_Num_base@std@@2HB DD 00H			; std::_Num_base::radix
CONST	ENDS
;	COMDAT ?min_exponent10@_Num_base@std@@2HB
CONST	SEGMENT
?min_exponent10@_Num_base@std@@2HB DD 00H		; std::_Num_base::min_exponent10
CONST	ENDS
;	COMDAT ?min_exponent@_Num_base@std@@2HB
CONST	SEGMENT
?min_exponent@_Num_base@std@@2HB DD 00H			; std::_Num_base::min_exponent
CONST	ENDS
;	COMDAT ?max_exponent10@_Num_base@std@@2HB
CONST	SEGMENT
?max_exponent10@_Num_base@std@@2HB DD 00H		; std::_Num_base::max_exponent10
CONST	ENDS
;	COMDAT ?max_exponent@_Num_base@std@@2HB
CONST	SEGMENT
?max_exponent@_Num_base@std@@2HB DD 00H			; std::_Num_base::max_exponent
CONST	ENDS
;	COMDAT ?max_digits10@_Num_base@std@@2HB
CONST	SEGMENT
?max_digits10@_Num_base@std@@2HB DD 00H			; std::_Num_base::max_digits10
CONST	ENDS
;	COMDAT ?digits10@_Num_base@std@@2HB
CONST	SEGMENT
?digits10@_Num_base@std@@2HB DD 00H			; std::_Num_base::digits10
CONST	ENDS
;	COMDAT ?digits@_Num_base@std@@2HB
CONST	SEGMENT
?digits@_Num_base@std@@2HB DD 00H			; std::_Num_base::digits
CONST	ENDS
;	COMDAT ?round_style@_Num_base@std@@2W4float_round_style@2@B
CONST	SEGMENT
?round_style@_Num_base@std@@2W4float_round_style@2@B DD 00H ; std::_Num_base::round_style
CONST	ENDS
;	COMDAT ?traps@_Num_base@std@@2_NB
CONST	SEGMENT
?traps@_Num_base@std@@2_NB DB 00H			; std::_Num_base::traps
CONST	ENDS
;	COMDAT ?tinyness_before@_Num_base@std@@2_NB
CONST	SEGMENT
?tinyness_before@_Num_base@std@@2_NB DB 00H		; std::_Num_base::tinyness_before
CONST	ENDS
;	COMDAT ?is_specialized@_Num_base@std@@2_NB
CONST	SEGMENT
?is_specialized@_Num_base@std@@2_NB DB 00H		; std::_Num_base::is_specialized
CONST	ENDS
;	COMDAT ?is_signed@_Num_base@std@@2_NB
CONST	SEGMENT
?is_signed@_Num_base@std@@2_NB DB 00H			; std::_Num_base::is_signed
CONST	ENDS
;	COMDAT ?is_modulo@_Num_base@std@@2_NB
CONST	SEGMENT
?is_modulo@_Num_base@std@@2_NB DB 00H			; std::_Num_base::is_modulo
CONST	ENDS
;	COMDAT ?is_integer@_Num_base@std@@2_NB
CONST	SEGMENT
?is_integer@_Num_base@std@@2_NB DB 00H			; std::_Num_base::is_integer
CONST	ENDS
;	COMDAT ?is_iec559@_Num_base@std@@2_NB
CONST	SEGMENT
?is_iec559@_Num_base@std@@2_NB DB 00H			; std::_Num_base::is_iec559
CONST	ENDS
;	COMDAT ?is_exact@_Num_base@std@@2_NB
CONST	SEGMENT
?is_exact@_Num_base@std@@2_NB DB 00H			; std::_Num_base::is_exact
CONST	ENDS
;	COMDAT ?is_bounded@_Num_base@std@@2_NB
CONST	SEGMENT
?is_bounded@_Num_base@std@@2_NB DB 00H			; std::_Num_base::is_bounded
CONST	ENDS
;	COMDAT ?has_signaling_NaN@_Num_base@std@@2_NB
CONST	SEGMENT
?has_signaling_NaN@_Num_base@std@@2_NB DB 00H		; std::_Num_base::has_signaling_NaN
CONST	ENDS
;	COMDAT ?has_quiet_NaN@_Num_base@std@@2_NB
CONST	SEGMENT
?has_quiet_NaN@_Num_base@std@@2_NB DB 00H		; std::_Num_base::has_quiet_NaN
CONST	ENDS
;	COMDAT ?has_infinity@_Num_base@std@@2_NB
CONST	SEGMENT
?has_infinity@_Num_base@std@@2_NB DB 00H		; std::_Num_base::has_infinity
CONST	ENDS
;	COMDAT ?has_denorm_loss@_Num_base@std@@2_NB
CONST	SEGMENT
?has_denorm_loss@_Num_base@std@@2_NB DB 00H		; std::_Num_base::has_denorm_loss
CONST	ENDS
;	COMDAT ?has_denorm@_Num_base@std@@2W4float_denorm_style@2@B
CONST	SEGMENT
?has_denorm@_Num_base@std@@2W4float_denorm_style@2@B DD 00H ; std::_Num_base::has_denorm
CONST	ENDS
;	COMDAT ?min_exponent10@?$numeric_limits@O@std@@2HB
CONST	SEGMENT
?min_exponent10@?$numeric_limits@O@std@@2HB DD 0fffffecdH ; std::numeric_limits<long double>::min_exponent10
CONST	ENDS
;	COMDAT ?min_exponent@?$numeric_limits@O@std@@2HB
CONST	SEGMENT
?min_exponent@?$numeric_limits@O@std@@2HB DD 0fffffc03H	; std::numeric_limits<long double>::min_exponent
CONST	ENDS
;	COMDAT ?max_exponent10@?$numeric_limits@O@std@@2HB
CONST	SEGMENT
?max_exponent10@?$numeric_limits@O@std@@2HB DD 0134H	; std::numeric_limits<long double>::max_exponent10
CONST	ENDS
;	COMDAT ?max_exponent@?$numeric_limits@O@std@@2HB
CONST	SEGMENT
?max_exponent@?$numeric_limits@O@std@@2HB DD 0400H	; std::numeric_limits<long double>::max_exponent
CONST	ENDS
;	COMDAT ?max_digits10@?$numeric_limits@O@std@@2HB
CONST	SEGMENT
?max_digits10@?$numeric_limits@O@std@@2HB DD 011H	; std::numeric_limits<long double>::max_digits10
CONST	ENDS
;	COMDAT ?digits10@?$numeric_limits@O@std@@2HB
CONST	SEGMENT
?digits10@?$numeric_limits@O@std@@2HB DD 0fH		; std::numeric_limits<long double>::digits10
CONST	ENDS
;	COMDAT ?digits@?$numeric_limits@O@std@@2HB
CONST	SEGMENT
?digits@?$numeric_limits@O@std@@2HB DD 035H		; std::numeric_limits<long double>::digits
CONST	ENDS
;	COMDAT ?value@?$integral_constant@I$0A@@std@@2IB
CONST	SEGMENT
?value@?$integral_constant@I$0A@@std@@2IB DD 00H	; std::integral_constant<unsigned int,0>::value
CONST	ENDS
;	COMDAT ?min_exponent10@?$numeric_limits@N@std@@2HB
CONST	SEGMENT
?min_exponent10@?$numeric_limits@N@std@@2HB DD 0fffffecdH ; std::numeric_limits<double>::min_exponent10
CONST	ENDS
;	COMDAT ?min_exponent@?$numeric_limits@N@std@@2HB
CONST	SEGMENT
?min_exponent@?$numeric_limits@N@std@@2HB DD 0fffffc03H	; std::numeric_limits<double>::min_exponent
CONST	ENDS
;	COMDAT ?value@?$_Maximum@$S@std@@2IB
CONST	SEGMENT
?value@?$_Maximum@$S@std@@2IB DD 00H			; std::_Maximum<>::value
CONST	ENDS
;	COMDAT ?max_exponent10@?$numeric_limits@N@std@@2HB
CONST	SEGMENT
?max_exponent10@?$numeric_limits@N@std@@2HB DD 0134H	; std::numeric_limits<double>::max_exponent10
CONST	ENDS
;	COMDAT ?max_exponent@?$numeric_limits@N@std@@2HB
CONST	SEGMENT
?max_exponent@?$numeric_limits@N@std@@2HB DD 0400H	; std::numeric_limits<double>::max_exponent
CONST	ENDS
;	COMDAT ?max_digits10@?$numeric_limits@N@std@@2HB
CONST	SEGMENT
?max_digits10@?$numeric_limits@N@std@@2HB DD 011H	; std::numeric_limits<double>::max_digits10
CONST	ENDS
;	COMDAT ?digits10@?$numeric_limits@N@std@@2HB
CONST	SEGMENT
?digits10@?$numeric_limits@N@std@@2HB DD 0fH		; std::numeric_limits<double>::digits10
CONST	ENDS
;	COMDAT ?digits@?$numeric_limits@N@std@@2HB
CONST	SEGMENT
?digits@?$numeric_limits@N@std@@2HB DD 035H		; std::numeric_limits<double>::digits
CONST	ENDS
CONST	SEGMENT
_SPRITE_SCALE DD 040000000r			; 2
CONST	ENDS
;	COMDAT ?value@?$integral_constant@_N$00@std@@2_NB
CONST	SEGMENT
?value@?$integral_constant@_N$00@std@@2_NB DB 01H	; std::integral_constant<bool,1>::value
CONST	ENDS
;	COMDAT ?value@?$integral_constant@I$00@std@@2IB
CONST	SEGMENT
?value@?$integral_constant@I$00@std@@2IB DD 01H		; std::integral_constant<unsigned int,1>::value
CONST	ENDS
;	COMDAT ?value@?$integral_constant@_N$0A@@std@@2_NB
CONST	SEGMENT
?value@?$integral_constant@_N$0A@@std@@2_NB DB 00H	; std::integral_constant<bool,0>::value
CONST	ENDS
;	COMDAT ?min_exponent10@?$numeric_limits@M@std@@2HB
CONST	SEGMENT
?min_exponent10@?$numeric_limits@M@std@@2HB DD 0ffffffdbH ; std::numeric_limits<float>::min_exponent10
CONST	ENDS
;	COMDAT ?min_exponent@?$numeric_limits@M@std@@2HB
CONST	SEGMENT
?min_exponent@?$numeric_limits@M@std@@2HB DD 0ffffff83H	; std::numeric_limits<float>::min_exponent
CONST	ENDS
;	COMDAT ?max_exponent10@?$numeric_limits@M@std@@2HB
CONST	SEGMENT
?max_exponent10@?$numeric_limits@M@std@@2HB DD 026H	; std::numeric_limits<float>::max_exponent10
CONST	ENDS
;	COMDAT ?max_exponent@?$numeric_limits@M@std@@2HB
CONST	SEGMENT
?max_exponent@?$numeric_limits@M@std@@2HB DD 080H	; std::numeric_limits<float>::max_exponent
CONST	ENDS
;	COMDAT ?max_digits10@?$numeric_limits@M@std@@2HB
CONST	SEGMENT
?max_digits10@?$numeric_limits@M@std@@2HB DD 09H	; std::numeric_limits<float>::max_digits10
CONST	ENDS
;	COMDAT ?digits10@?$numeric_limits@M@std@@2HB
CONST	SEGMENT
?digits10@?$numeric_limits@M@std@@2HB DD 06H		; std::numeric_limits<float>::digits10
CONST	ENDS
;	COMDAT ?digits@?$numeric_limits@M@std@@2HB
CONST	SEGMENT
?digits@?$numeric_limits@M@std@@2HB DD 018H		; std::numeric_limits<float>::digits
CONST	ENDS
;	COMDAT ?value@?$integral_constant@I$01@std@@2IB
CONST	SEGMENT
?value@?$integral_constant@I$01@std@@2IB DD 02H		; std::integral_constant<unsigned int,2>::value
CONST	ENDS
;	COMDAT ?digits10@?$numeric_limits@_K@std@@2HB
CONST	SEGMENT
?digits10@?$numeric_limits@_K@std@@2HB DD 013H		; std::numeric_limits<unsigned __int64>::digits10
CONST	ENDS
;	COMDAT ?digits@?$numeric_limits@_K@std@@2HB
CONST	SEGMENT
?digits@?$numeric_limits@_K@std@@2HB DD 040H		; std::numeric_limits<unsigned __int64>::digits
CONST	ENDS
;	COMDAT ?is_signed@?$numeric_limits@_K@std@@2_NB
CONST	SEGMENT
?is_signed@?$numeric_limits@_K@std@@2_NB DB 00H		; std::numeric_limits<unsigned __int64>::is_signed
CONST	ENDS
;	COMDAT ?digits10@?$numeric_limits@_J@std@@2HB
CONST	SEGMENT
?digits10@?$numeric_limits@_J@std@@2HB DD 012H		; std::numeric_limits<__int64>::digits10
CONST	ENDS
;	COMDAT ?digits@?$numeric_limits@_J@std@@2HB
CONST	SEGMENT
?digits@?$numeric_limits@_J@std@@2HB DD 03fH		; std::numeric_limits<__int64>::digits
CONST	ENDS
;	COMDAT ?is_signed@?$numeric_limits@_J@std@@2_NB
CONST	SEGMENT
?is_signed@?$numeric_limits@_J@std@@2_NB DB 01H		; std::numeric_limits<__int64>::is_signed
CONST	ENDS
;	COMDAT ?value@?$integral_constant@I$03@std@@2IB
CONST	SEGMENT
?value@?$integral_constant@I$03@std@@2IB DD 04H		; std::integral_constant<unsigned int,4>::value
CONST	ENDS
;	COMDAT ?digits10@?$numeric_limits@K@std@@2HB
CONST	SEGMENT
?digits10@?$numeric_limits@K@std@@2HB DD 09H		; std::numeric_limits<unsigned long>::digits10
CONST	ENDS
;	COMDAT ?digits@?$numeric_limits@K@std@@2HB
CONST	SEGMENT
?digits@?$numeric_limits@K@std@@2HB DD 020H		; std::numeric_limits<unsigned long>::digits
CONST	ENDS
;	COMDAT ?is_signed@?$numeric_limits@K@std@@2_NB
CONST	SEGMENT
?is_signed@?$numeric_limits@K@std@@2_NB DB 00H		; std::numeric_limits<unsigned long>::is_signed
CONST	ENDS
;	COMDAT ?value@?$integral_constant@I$07@std@@2IB
CONST	SEGMENT
?value@?$integral_constant@I$07@std@@2IB DD 08H		; std::integral_constant<unsigned int,8>::value
CONST	ENDS
;	COMDAT ?digits10@?$numeric_limits@J@std@@2HB
CONST	SEGMENT
?digits10@?$numeric_limits@J@std@@2HB DD 09H		; std::numeric_limits<long>::digits10
CONST	ENDS
;	COMDAT ?digits@?$numeric_limits@J@std@@2HB
CONST	SEGMENT
?digits@?$numeric_limits@J@std@@2HB DD 01fH		; std::numeric_limits<long>::digits
CONST	ENDS
;	COMDAT ?is_signed@?$numeric_limits@J@std@@2_NB
CONST	SEGMENT
?is_signed@?$numeric_limits@J@std@@2_NB DB 01H		; std::numeric_limits<long>::is_signed
CONST	ENDS
;	COMDAT ?digits10@?$numeric_limits@I@std@@2HB
CONST	SEGMENT
?digits10@?$numeric_limits@I@std@@2HB DD 09H		; std::numeric_limits<unsigned int>::digits10
CONST	ENDS
;	COMDAT ?digits@?$numeric_limits@I@std@@2HB
CONST	SEGMENT
?digits@?$numeric_limits@I@std@@2HB DD 020H		; std::numeric_limits<unsigned int>::digits
CONST	ENDS
;	COMDAT ?is_signed@?$numeric_limits@I@std@@2_NB
CONST	SEGMENT
?is_signed@?$numeric_limits@I@std@@2_NB DB 00H		; std::numeric_limits<unsigned int>::is_signed
CONST	ENDS
;	COMDAT ?digits10@?$numeric_limits@H@std@@2HB
CONST	SEGMENT
?digits10@?$numeric_limits@H@std@@2HB DD 09H		; std::numeric_limits<int>::digits10
CONST	ENDS
;	COMDAT ?digits@?$numeric_limits@H@std@@2HB
CONST	SEGMENT
?digits@?$numeric_limits@H@std@@2HB DD 01fH		; std::numeric_limits<int>::digits
CONST	ENDS
;	COMDAT ?is_signed@?$numeric_limits@H@std@@2_NB
CONST	SEGMENT
?is_signed@?$numeric_limits@H@std@@2_NB DB 01H		; std::numeric_limits<int>::is_signed
CONST	ENDS
;	COMDAT ?digits10@?$numeric_limits@G@std@@2HB
CONST	SEGMENT
?digits10@?$numeric_limits@G@std@@2HB DD 04H		; std::numeric_limits<unsigned short>::digits10
CONST	ENDS
;	COMDAT ?digits@?$numeric_limits@G@std@@2HB
CONST	SEGMENT
?digits@?$numeric_limits@G@std@@2HB DD 010H		; std::numeric_limits<unsigned short>::digits
CONST	ENDS
;	COMDAT ?is_signed@?$numeric_limits@G@std@@2_NB
CONST	SEGMENT
?is_signed@?$numeric_limits@G@std@@2_NB DB 00H		; std::numeric_limits<unsigned short>::is_signed
CONST	ENDS
;	COMDAT ?end@?$_Iosb@H@std@@2W4_Seekdir@12@B
CONST	SEGMENT
?end@?$_Iosb@H@std@@2W4_Seekdir@12@B DD 02H		; std::_Iosb<int>::end
CONST	ENDS
;	COMDAT ?cur@?$_Iosb@H@std@@2W4_Seekdir@12@B
CONST	SEGMENT
?cur@?$_Iosb@H@std@@2W4_Seekdir@12@B DD 01H		; std::_Iosb<int>::cur
CONST	ENDS
;	COMDAT ?beg@?$_Iosb@H@std@@2W4_Seekdir@12@B
CONST	SEGMENT
?beg@?$_Iosb@H@std@@2W4_Seekdir@12@B DD 00H		; std::_Iosb<int>::beg
CONST	ENDS
;	COMDAT ?binary@?$_Iosb@H@std@@2W4_Openmode@12@B
CONST	SEGMENT
?binary@?$_Iosb@H@std@@2W4_Openmode@12@B DD 020H	; std::_Iosb<int>::binary
CONST	ENDS
;	COMDAT ?_Noreplace@?$_Iosb@H@std@@2W4_Openmode@12@B
CONST	SEGMENT
?_Noreplace@?$_Iosb@H@std@@2W4_Openmode@12@B DD 080H	; std::_Iosb<int>::_Noreplace
CONST	ENDS
;	COMDAT ?digits10@?$numeric_limits@F@std@@2HB
CONST	SEGMENT
?digits10@?$numeric_limits@F@std@@2HB DD 04H		; std::numeric_limits<short>::digits10
CONST	ENDS
;	COMDAT ?_Nocreate@?$_Iosb@H@std@@2W4_Openmode@12@B
CONST	SEGMENT
?_Nocreate@?$_Iosb@H@std@@2W4_Openmode@12@B DD 040H	; std::_Iosb<int>::_Nocreate
CONST	ENDS
;	COMDAT ?digits@?$numeric_limits@F@std@@2HB
CONST	SEGMENT
?digits@?$numeric_limits@F@std@@2HB DD 0fH		; std::numeric_limits<short>::digits
CONST	ENDS
;	COMDAT ?trunc@?$_Iosb@H@std@@2W4_Openmode@12@B
CONST	SEGMENT
?trunc@?$_Iosb@H@std@@2W4_Openmode@12@B DD 010H		; std::_Iosb<int>::trunc
CONST	ENDS
;	COMDAT ?app@?$_Iosb@H@std@@2W4_Openmode@12@B
CONST	SEGMENT
?app@?$_Iosb@H@std@@2W4_Openmode@12@B DD 08H		; std::_Iosb<int>::app
CONST	ENDS
;	COMDAT ?is_signed@?$numeric_limits@F@std@@2_NB
CONST	SEGMENT
?is_signed@?$numeric_limits@F@std@@2_NB DB 01H		; std::numeric_limits<short>::is_signed
CONST	ENDS
;	COMDAT ?ate@?$_Iosb@H@std@@2W4_Openmode@12@B
CONST	SEGMENT
?ate@?$_Iosb@H@std@@2W4_Openmode@12@B DD 04H		; std::_Iosb<int>::ate
CONST	ENDS
;	COMDAT ?out@?$_Iosb@H@std@@2W4_Openmode@12@B
CONST	SEGMENT
?out@?$_Iosb@H@std@@2W4_Openmode@12@B DD 02H		; std::_Iosb<int>::out
CONST	ENDS
;	COMDAT ?in@?$_Iosb@H@std@@2W4_Openmode@12@B
CONST	SEGMENT
?in@?$_Iosb@H@std@@2W4_Openmode@12@B DD 01H		; std::_Iosb<int>::in
CONST	ENDS
;	COMDAT ?_Hardfail@?$_Iosb@H@std@@2W4_Iostate@12@B
CONST	SEGMENT
?_Hardfail@?$_Iosb@H@std@@2W4_Iostate@12@B DD 010H	; std::_Iosb<int>::_Hardfail
CONST	ENDS
;	COMDAT ?badbit@?$_Iosb@H@std@@2W4_Iostate@12@B
CONST	SEGMENT
?badbit@?$_Iosb@H@std@@2W4_Iostate@12@B DD 04H		; std::_Iosb<int>::badbit
CONST	ENDS
;	COMDAT ?failbit@?$_Iosb@H@std@@2W4_Iostate@12@B
CONST	SEGMENT
?failbit@?$_Iosb@H@std@@2W4_Iostate@12@B DD 02H		; std::_Iosb<int>::failbit
CONST	ENDS
;	COMDAT ?eofbit@?$_Iosb@H@std@@2W4_Iostate@12@B
CONST	SEGMENT
?eofbit@?$_Iosb@H@std@@2W4_Iostate@12@B DD 01H		; std::_Iosb<int>::eofbit
CONST	ENDS
;	COMDAT ?goodbit@?$_Iosb@H@std@@2W4_Iostate@12@B
CONST	SEGMENT
?goodbit@?$_Iosb@H@std@@2W4_Iostate@12@B DD 00H		; std::_Iosb<int>::goodbit
CONST	ENDS
;	COMDAT ?digits10@?$numeric_limits@E@std@@2HB
CONST	SEGMENT
?digits10@?$numeric_limits@E@std@@2HB DD 02H		; std::numeric_limits<unsigned char>::digits10
CONST	ENDS
;	COMDAT ?floatfield@?$_Iosb@H@std@@2W4_Fmtflags@12@B
CONST	SEGMENT
?floatfield@?$_Iosb@H@std@@2W4_Fmtflags@12@B DD 03000H	; std::_Iosb<int>::floatfield
CONST	ENDS
;	COMDAT ?digits@?$numeric_limits@E@std@@2HB
CONST	SEGMENT
?digits@?$numeric_limits@E@std@@2HB DD 08H		; std::numeric_limits<unsigned char>::digits
CONST	ENDS
;	COMDAT ?basefield@?$_Iosb@H@std@@2W4_Fmtflags@12@B
CONST	SEGMENT
?basefield@?$_Iosb@H@std@@2W4_Fmtflags@12@B DD 0e00H	; std::_Iosb<int>::basefield
CONST	ENDS
;	COMDAT ?is_signed@?$numeric_limits@E@std@@2_NB
CONST	SEGMENT
?is_signed@?$numeric_limits@E@std@@2_NB DB 00H		; std::numeric_limits<unsigned char>::is_signed
CONST	ENDS
;	COMDAT ?adjustfield@?$_Iosb@H@std@@2W4_Fmtflags@12@B
CONST	SEGMENT
?adjustfield@?$_Iosb@H@std@@2W4_Fmtflags@12@B DD 01c0H	; std::_Iosb<int>::adjustfield
CONST	ENDS
;	COMDAT ?_Stdio@?$_Iosb@H@std@@2W4_Fmtflags@12@B
CONST	SEGMENT
?_Stdio@?$_Iosb@H@std@@2W4_Fmtflags@12@B DD 08000H	; std::_Iosb<int>::_Stdio
CONST	ENDS
;	COMDAT ?boolalpha@?$_Iosb@H@std@@2W4_Fmtflags@12@B
CONST	SEGMENT
?boolalpha@?$_Iosb@H@std@@2W4_Fmtflags@12@B DD 04000H	; std::_Iosb<int>::boolalpha
CONST	ENDS
;	COMDAT ?hexfloat@?$_Iosb@H@std@@2W4_Fmtflags@12@B
CONST	SEGMENT
?hexfloat@?$_Iosb@H@std@@2W4_Fmtflags@12@B DD 03000H	; std::_Iosb<int>::hexfloat
CONST	ENDS
;	COMDAT ?none@?$_Locbase@H@std@@2HB
CONST	SEGMENT
?none@?$_Locbase@H@std@@2HB DD 00H			; std::_Locbase<int>::none
CONST	ENDS
;	COMDAT ?all@?$_Locbase@H@std@@2HB
CONST	SEGMENT
?all@?$_Locbase@H@std@@2HB DD 03fH			; std::_Locbase<int>::all
CONST	ENDS
;	COMDAT ?fixed@?$_Iosb@H@std@@2W4_Fmtflags@12@B
CONST	SEGMENT
?fixed@?$_Iosb@H@std@@2W4_Fmtflags@12@B DD 02000H	; std::_Iosb<int>::fixed
CONST	ENDS
;	COMDAT ?messages@?$_Locbase@H@std@@2HB
CONST	SEGMENT
?messages@?$_Locbase@H@std@@2HB DD 020H			; std::_Locbase<int>::messages
CONST	ENDS
;	COMDAT ?scientific@?$_Iosb@H@std@@2W4_Fmtflags@12@B
CONST	SEGMENT
?scientific@?$_Iosb@H@std@@2W4_Fmtflags@12@B DD 01000H	; std::_Iosb<int>::scientific
CONST	ENDS
;	COMDAT ?time@?$_Locbase@H@std@@2HB
CONST	SEGMENT
?time@?$_Locbase@H@std@@2HB DD 010H			; std::_Locbase<int>::time
CONST	ENDS
;	COMDAT ?hex@?$_Iosb@H@std@@2W4_Fmtflags@12@B
CONST	SEGMENT
?hex@?$_Iosb@H@std@@2W4_Fmtflags@12@B DD 0800H		; std::_Iosb<int>::hex
CONST	ENDS
;	COMDAT ?numeric@?$_Locbase@H@std@@2HB
CONST	SEGMENT
?numeric@?$_Locbase@H@std@@2HB DD 08H			; std::_Locbase<int>::numeric
CONST	ENDS
PUBLIC	_hypot
PUBLIC	_ceilf
PUBLIC	_fabsf
PUBLIC	?ceil@@YAMM@Z					; ceil
PUBLIC	?fabs@@YAMM@Z					; fabs
PUBLIC	??2@YAPAXIPAX@Z					; operator new
PUBLIC	??3@YAXPAX0@Z					; operator delete
PUBLIC	?compare@?$char_traits@D@std@@SAHPBD0I@Z	; std::char_traits<char>::compare
PUBLIC	?length@?$char_traits@D@std@@SAIPBD@Z		; std::char_traits<char>::length
PUBLIC	?copy@?$char_traits@D@std@@SAPADPADPBDI@Z	; std::char_traits<char>::copy
PUBLIC	?find@?$char_traits@D@std@@SAPBDPBDIABD@Z	; std::char_traits<char>::find
PUBLIC	?move@?$char_traits@D@std@@SAPADPADPBDI@Z	; std::char_traits<char>::move
PUBLIC	?assign@?$char_traits@D@std@@SAXAADABD@Z	; std::char_traits<char>::assign
PUBLIC	?eq@?$char_traits@D@std@@SA_NABD0@Z		; std::char_traits<char>::eq
PUBLIC	?to_char_type@?$char_traits@D@std@@SADABH@Z	; std::char_traits<char>::to_char_type
PUBLIC	?to_int_type@?$char_traits@D@std@@SAHABD@Z	; std::char_traits<char>::to_int_type
PUBLIC	?eq_int_type@?$char_traits@D@std@@SA_NABH0@Z	; std::char_traits<char>::eq_int_type
PUBLIC	?not_eof@?$char_traits@D@std@@SAHABH@Z		; std::char_traits<char>::not_eof
PUBLIC	?eof@?$char_traits@D@std@@SAHXZ			; std::char_traits<char>::eof
PUBLIC	??0_Container_proxy@std@@QAE@XZ			; std::_Container_proxy::_Container_proxy
PUBLIC	?_Clrcont@_Iterator_base12@std@@QAEXXZ		; std::_Iterator_base12::_Clrcont
PUBLIC	?_Getpnext@_Iterator_base12@std@@QAEPAPAU12@XZ	; std::_Iterator_base12::_Getpnext
PUBLIC	?select_on_container_copy_construction@?$allocator@D@std@@QBE?AV12@XZ ; std::allocator<char>::select_on_container_copy_construction
PUBLIC	??0?$allocator@D@std@@QAE@XZ			; std::allocator<char>::allocator<char>
PUBLIC	??0?$allocator@D@std@@QAE@ABV01@@Z		; std::allocator<char>::allocator<char>
PUBLIC	?deallocate@?$allocator@D@std@@QAEXPADI@Z	; std::allocator<char>::deallocate
PUBLIC	?allocate@?$allocator@D@std@@QAEPADI@Z		; std::allocator<char>::allocate
PUBLIC	?max_size@?$allocator@D@std@@QBEIXZ		; std::allocator<char>::max_size
PUBLIC	?max_size@?$allocator_traits@V?$allocator@D@std@@@std@@SAIABV?$allocator@D@2@@Z ; std::allocator_traits<std::allocator<char> >::max_size
PUBLIC	?select_on_container_copy_construction@?$allocator_traits@V?$allocator@D@std@@@std@@SA?AV?$allocator@D@2@ABV32@@Z ; std::allocator_traits<std::allocator<char> >::select_on_container_copy_construction
PUBLIC	?select_on_container_copy_construction@?$_Wrap_alloc@V?$allocator@D@std@@@std@@QBE?AU12@XZ ; std::_Wrap_alloc<std::allocator<char> >::select_on_container_copy_construction
PUBLIC	??0?$_Wrap_alloc@V?$allocator@D@std@@@std@@QAE@XZ ; std::_Wrap_alloc<std::allocator<char> >::_Wrap_alloc<std::allocator<char> >
PUBLIC	??0?$_Wrap_alloc@V?$allocator@D@std@@@std@@QAE@ABV?$allocator@D@1@@Z ; std::_Wrap_alloc<std::allocator<char> >::_Wrap_alloc<std::allocator<char> >
PUBLIC	?allocate@?$_Wrap_alloc@V?$allocator@D@std@@@std@@QAEPADI@Z ; std::_Wrap_alloc<std::allocator<char> >::allocate
PUBLIC	?deallocate@?$_Wrap_alloc@V?$allocator@D@std@@@std@@QAEXPADI@Z ; std::_Wrap_alloc<std::allocator<char> >::deallocate
PUBLIC	?max_size@?$_Wrap_alloc@V?$allocator@D@std@@@std@@QBEIXZ ; std::_Wrap_alloc<std::allocator<char> >::max_size
PUBLIC	??0?$_String_val@U?$_Simple_types@D@std@@@std@@QAE@XZ ; std::_String_val<std::_Simple_types<char> >::_String_val<std::_Simple_types<char> >
PUBLIC	?_Myptr@?$_String_val@U?$_Simple_types@D@std@@@std@@QAEPADXZ ; std::_String_val<std::_Simple_types<char> >::_Myptr
PUBLIC	?_Myptr@?$_String_val@U?$_Simple_types@D@std@@@std@@QBEPBDXZ ; std::_String_val<std::_Simple_types<char> >::_Myptr
PUBLIC	??1?$_String_val@U?$_Simple_types@D@std@@@std@@QAE@XZ ; std::_String_val<std::_Simple_types<char> >::~_String_val<std::_Simple_types<char> >
PUBLIC	??0?$_String_alloc@$0A@U?$_String_base_types@DV?$allocator@D@std@@@std@@@std@@QAE@ABV?$allocator@D@1@@Z ; std::_String_alloc<0,std::_String_base_types<char,std::allocator<char> > >::_String_alloc<0,std::_String_base_types<char,std::allocator<char> > >
PUBLIC	??1?$_String_alloc@$0A@U?$_String_base_types@DV?$allocator@D@std@@@std@@@std@@QAE@XZ ; std::_String_alloc<0,std::_String_base_types<char,std::allocator<char> > >::~_String_alloc<0,std::_String_base_types<char,std::allocator<char> > >
PUBLIC	?_Alloc_proxy@?$_String_alloc@$0A@U?$_String_base_types@DV?$allocator@D@std@@@std@@@std@@QAEXXZ ; std::_String_alloc<0,std::_String_base_types<char,std::allocator<char> > >::_Alloc_proxy
PUBLIC	?_Free_proxy@?$_String_alloc@$0A@U?$_String_base_types@DV?$allocator@D@std@@@std@@@std@@QAEXXZ ; std::_String_alloc<0,std::_String_base_types<char,std::allocator<char> > >::_Free_proxy
PUBLIC	?_Getal@?$_String_alloc@$0A@U?$_String_base_types@DV?$allocator@D@std@@@std@@@std@@QBE?AU?$_Wrap_alloc@V?$allocator@D@std@@@2@XZ ; std::_String_alloc<0,std::_String_base_types<char,std::allocator<char> > >::_Getal
PUBLIC	??0?$basic_string@DU?$char_traits@D@std@@V?$allocator@D@2@@std@@QAE@ABV01@@Z ; std::basic_string<char,std::char_traits<char>,std::allocator<char> >::basic_string<char,std::char_traits<char>,std::allocator<char> >
PUBLIC	??0?$basic_string@DU?$char_traits@D@std@@V?$allocator@D@2@@std@@QAE@XZ ; std::basic_string<char,std::char_traits<char>,std::allocator<char> >::basic_string<char,std::char_traits<char>,std::allocator<char> >
PUBLIC	??0?$basic_string@DU?$char_traits@D@std@@V?$allocator@D@2@@std@@QAE@ABV01@IIABV?$allocator@D@1@@Z ; std::basic_string<char,std::char_traits<char>,std::allocator<char> >::basic_string<char,std::char_traits<char>,std::allocator<char> >
PUBLIC	??0?$basic_string@DU?$char_traits@D@std@@V?$allocator@D@2@@std@@QAE@PBDI@Z ; std::basic_string<char,std::char_traits<char>,std::allocator<char> >::basic_string<char,std::char_traits<char>,std::allocator<char> >
PUBLIC	??0?$basic_string@DU?$char_traits@D@std@@V?$allocator@D@2@@std@@QAE@PBD@Z ; std::basic_string<char,std::char_traits<char>,std::allocator<char> >::basic_string<char,std::char_traits<char>,std::allocator<char> >
PUBLIC	??0?$basic_string@DU?$char_traits@D@std@@V?$allocator@D@2@@std@@QAE@$$QAV01@@Z ; std::basic_string<char,std::char_traits<char>,std::allocator<char> >::basic_string<char,std::char_traits<char>,std::allocator<char> >
PUBLIC	?_Assign_rv@?$basic_string@DU?$char_traits@D@std@@V?$allocator@D@2@@std@@QAEX$$QAV12@@Z ; std::basic_string<char,std::char_traits<char>,std::allocator<char> >::_Assign_rv
PUBLIC	??1?$basic_string@DU?$char_traits@D@std@@V?$allocator@D@2@@std@@QAE@XZ ; std::basic_string<char,std::char_traits<char>,std::allocator<char> >::~basic_string<char,std::char_traits<char>,std::allocator<char> >
PUBLIC	?assign@?$basic_string@DU?$char_traits@D@std@@V?$allocator@D@2@@std@@QAEAAV12@ABV12@II@Z ; std::basic_string<char,std::char_traits<char>,std::allocator<char> >::assign
PUBLIC	?assign@?$basic_string@DU?$char_traits@D@std@@V?$allocator@D@2@@std@@QAEAAV12@PBDI@Z ; std::basic_string<char,std::char_traits<char>,std::allocator<char> >::assign
PUBLIC	?assign@?$basic_string@DU?$char_traits@D@std@@V?$allocator@D@2@@std@@QAEAAV12@PBD@Z ; std::basic_string<char,std::char_traits<char>,std::allocator<char> >::assign
PUBLIC	?erase@?$basic_string@DU?$char_traits@D@std@@V?$allocator@D@2@@std@@QAEAAV12@I@Z ; std::basic_string<char,std::char_traits<char>,std::allocator<char> >::erase
PUBLIC	?erase@?$basic_string@DU?$char_traits@D@std@@V?$allocator@D@2@@std@@QAEAAV12@II@Z ; std::basic_string<char,std::char_traits<char>,std::allocator<char> >::erase
PUBLIC	?c_str@?$basic_string@DU?$char_traits@D@std@@V?$allocator@D@2@@std@@QBEPBDXZ ; std::basic_string<char,std::char_traits<char>,std::allocator<char> >::c_str
PUBLIC	?size@?$basic_string@DU?$char_traits@D@std@@V?$allocator@D@2@@std@@QBEIXZ ; std::basic_string<char,std::char_traits<char>,std::allocator<char> >::size
PUBLIC	?max_size@?$basic_string@DU?$char_traits@D@std@@V?$allocator@D@2@@std@@QBEIXZ ; std::basic_string<char,std::char_traits<char>,std::allocator<char> >::max_size
PUBLIC	?find@?$basic_string@DU?$char_traits@D@std@@V?$allocator@D@2@@std@@QBEIPBDII@Z ; std::basic_string<char,std::char_traits<char>,std::allocator<char> >::find
PUBLIC	?find@?$basic_string@DU?$char_traits@D@std@@V?$allocator@D@2@@std@@QBEIDI@Z ; std::basic_string<char,std::char_traits<char>,std::allocator<char> >::find
PUBLIC	?substr@?$basic_string@DU?$char_traits@D@std@@V?$allocator@D@2@@std@@QBE?AV12@II@Z ; std::basic_string<char,std::char_traits<char>,std::allocator<char> >::substr
PUBLIC	?compare@?$basic_string@DU?$char_traits@D@std@@V?$allocator@D@2@@std@@QBEHPBD@Z ; std::basic_string<char,std::char_traits<char>,std::allocator<char> >::compare
PUBLIC	?compare@?$basic_string@DU?$char_traits@D@std@@V?$allocator@D@2@@std@@QBEHIIPBDI@Z ; std::basic_string<char,std::char_traits<char>,std::allocator<char> >::compare
PUBLIC	?get_allocator@?$basic_string@DU?$char_traits@D@std@@V?$allocator@D@2@@std@@QBE?AV?$allocator@D@2@XZ ; std::basic_string<char,std::char_traits<char>,std::allocator<char> >::get_allocator
PUBLIC	?_Copy@?$basic_string@DU?$char_traits@D@std@@V?$allocator@D@2@@std@@QAEXII@Z ; std::basic_string<char,std::char_traits<char>,std::allocator<char> >::_Copy
PUBLIC	?_Eos@?$basic_string@DU?$char_traits@D@std@@V?$allocator@D@2@@std@@QAEXI@Z ; std::basic_string<char,std::char_traits<char>,std::allocator<char> >::_Eos
PUBLIC	?_Grow@?$basic_string@DU?$char_traits@D@std@@V?$allocator@D@2@@std@@QAE_NI_N@Z ; std::basic_string<char,std::char_traits<char>,std::allocator<char> >::_Grow
PUBLIC	?_Inside@?$basic_string@DU?$char_traits@D@std@@V?$allocator@D@2@@std@@QAE_NPBD@Z ; std::basic_string<char,std::char_traits<char>,std::allocator<char> >::_Inside
PUBLIC	?_Tidy@?$basic_string@DU?$char_traits@D@std@@V?$allocator@D@2@@std@@QAEX_NI@Z ; std::basic_string<char,std::char_traits<char>,std::allocator<char> >::_Tidy
PUBLIC	?_Xlen@?$basic_string@DU?$char_traits@D@std@@V?$allocator@D@2@@std@@QBEXXZ ; std::basic_string<char,std::char_traits<char>,std::allocator<char> >::_Xlen
PUBLIC	?_Xran@?$basic_string@DU?$char_traits@D@std@@V?$allocator@D@2@@std@@QBEXXZ ; std::basic_string<char,std::char_traits<char>,std::allocator<char> >::_Xran
PUBLIC	??_G?$basic_string@DU?$char_traits@D@std@@V?$allocator@D@2@@std@@QAEPAXI@Z ; std::basic_string<char,std::char_traits<char>,std::allocator<char> >::`scalar deleting destructor'
PUBLIC	??$_Debug_pointer@D@std@@YAXPBDPB_WI@Z		; std::_Debug_pointer<char>
PUBLIC	?generic_category@std@@YAABVerror_category@1@XZ	; std::generic_category
PUBLIC	?system_category@std@@YAABVerror_category@1@XZ	; std::system_category
PUBLIC	??0error_category@std@@QAE@XZ			; std::error_category::error_category
PUBLIC	??1error_category@std@@UAE@XZ			; std::error_category::~error_category
PUBLIC	?default_error_condition@error_category@std@@UBE?AVerror_condition@2@H@Z ; std::error_category::default_error_condition
PUBLIC	?equivalent@error_category@std@@UBE_NHABVerror_condition@2@@Z ; std::error_category::equivalent
PUBLIC	?equivalent@error_category@std@@UBE_NABVerror_code@2@H@Z ; std::error_category::equivalent
PUBLIC	??8error_category@std@@QBE_NABV01@@Z		; std::error_category::operator==
PUBLIC	??_Gerror_category@std@@UAEPAXI@Z		; std::error_category::`scalar deleting destructor'
PUBLIC	?value@error_code@std@@QBEHXZ			; std::error_code::value
PUBLIC	?category@error_code@std@@QBEABVerror_category@2@XZ ; std::error_code::category
PUBLIC	??0error_condition@std@@QAE@HABVerror_category@1@@Z ; std::error_condition::error_condition
PUBLIC	?value@error_condition@std@@QBEHXZ		; std::error_condition::value
PUBLIC	?category@error_condition@std@@QBEABVerror_category@2@XZ ; std::error_condition::category
PUBLIC	??8error_condition@std@@QBE_NABV01@@Z		; std::error_condition::operator==
PUBLIC	??0_Generic_error_category@std@@QAE@XZ		; std::_Generic_error_category::_Generic_error_category
PUBLIC	?name@_Generic_error_category@std@@UBEPBDXZ	; std::_Generic_error_category::name
PUBLIC	?message@_Generic_error_category@std@@UBE?AV?$basic_string@DU?$char_traits@D@std@@V?$allocator@D@2@@2@H@Z ; std::_Generic_error_category::message
PUBLIC	??1_Generic_error_category@std@@UAE@XZ		; std::_Generic_error_category::~_Generic_error_category
PUBLIC	??_G_Generic_error_category@std@@UAEPAXI@Z	; std::_Generic_error_category::`scalar deleting destructor'
PUBLIC	??0_Iostream_error_category@std@@QAE@XZ		; std::_Iostream_error_category::_Iostream_error_category
PUBLIC	?name@_Iostream_error_category@std@@UBEPBDXZ	; std::_Iostream_error_category::name
PUBLIC	?message@_Iostream_error_category@std@@UBE?AV?$basic_string@DU?$char_traits@D@std@@V?$allocator@D@2@@2@H@Z ; std::_Iostream_error_category::message
PUBLIC	??1_Iostream_error_category@std@@UAE@XZ		; std::_Iostream_error_category::~_Iostream_error_category
PUBLIC	??_G_Iostream_error_category@std@@UAEPAXI@Z	; std::_Iostream_error_category::`scalar deleting destructor'
PUBLIC	??0_System_error_category@std@@QAE@XZ		; std::_System_error_category::_System_error_category
PUBLIC	?name@_System_error_category@std@@UBEPBDXZ	; std::_System_error_category::name
PUBLIC	?message@_System_error_category@std@@UBE?AV?$basic_string@DU?$char_traits@D@std@@V?$allocator@D@2@@2@H@Z ; std::_System_error_category::message
PUBLIC	?default_error_condition@_System_error_category@std@@UBE?AVerror_condition@2@H@Z ; std::_System_error_category::default_error_condition
PUBLIC	??1_System_error_category@std@@UAE@XZ		; std::_System_error_category::~_System_error_category
PUBLIC	??_G_System_error_category@std@@UAEPAXI@Z	; std::_System_error_category::`scalar deleting destructor'
PUBLIC	?stoi@std@@YAHABV?$basic_string@DU?$char_traits@D@std@@V?$allocator@D@2@@1@PAIH@Z ; std::stoi
PUBLIC	??0Vector2@@QAE@XZ				; Vector2::Vector2
PUBLIC	??0Vector2@@QAE@HH@Z				; Vector2::Vector2
PUBLIC	?Zero@Vector2@@SA?AU1@XZ			; Vector2::Zero
PUBLIC	??0_Ignore@std@@QAE@XZ				; std::_Ignore::_Ignore
PUBLIC	??0CaveRectangle@@QAE@HHHH@Z			; CaveRectangle::CaveRectangle
PUBLIC	??1CaveRectangle@@QAE@XZ			; CaveRectangle::~CaveRectangle
PUBLIC	?GetLeft@CaveRectangle@@QBEHXZ			; CaveRectangle::GetLeft
PUBLIC	?GetRight@CaveRectangle@@QBEHXZ			; CaveRectangle::GetRight
PUBLIC	?GetTop@CaveRectangle@@QBEHXZ			; CaveRectangle::GetTop
PUBLIC	?GetBottom@CaveRectangle@@QBEHXZ		; CaveRectangle::GetBottom
PUBLIC	?CollidesWith@CaveRectangle@@QBE_NABV1@@Z	; CaveRectangle::CollidesWith
PUBLIC	??_GCaveRectangle@@QAEPAXI@Z			; CaveRectangle::`scalar deleting destructor'
PUBLIC	?__autoclassinit2@Tile@@QAEXI@Z			; Tile::__autoclassinit2
PUBLIC	??0CaveSlope@@QAE@UVector2@@0@Z			; CaveSlope::CaveSlope
PUBLIC	?CollidesWith@CaveSlope@@QBE_NABVCaveRectangle@@@Z ; CaveSlope::CollidesWith
PUBLIC	??0TileSet@@QAE@XZ				; TileSet::TileSet
PUBLIC	??0TileSet@@QAE@PAUSDL_Texture@@H@Z		; TileSet::TileSet
PUBLIC	??0Level@@QAE@XZ				; Level::Level
PUBLIC	??0Level@@QAE@V?$basic_string@DU?$char_traits@D@std@@V?$allocator@D@2@@std@@UVector2@@AAVGraphics@@@Z ; Level::Level
PUBLIC	??1Level@@QAE@XZ				; Level::~Level
PUBLIC	?Tick@Level@@QAEXM@Z				; Level::Tick
PUBLIC	?Draw@Level@@QAEXAAVGraphics@@@Z		; Level::Draw
PUBLIC	?DrawCollision@Level@@QAEXAAVGraphics@@@Z	; Level::DrawCollision
PUBLIC	?CheckTileCollision@Level@@QAE?AV?$vector@VCaveRectangle@@V?$allocator@VCaveRectangle@@@std@@@std@@ABVCaveRectangle@@@Z ; Level::CheckTileCollision
PUBLIC	?CheckSlopeCollision@Level@@QAE?AV?$vector@VCaveSlope@@V?$allocator@VCaveSlope@@@std@@@std@@ABVCaveRectangle@@@Z ; Level::CheckSlopeCollision
PUBLIC	??0?$allocator@USDL_Rect@@@std@@QAE@XZ		; std::allocator<SDL_Rect>::allocator<SDL_Rect>
PUBLIC	?deallocate@?$allocator@USDL_Rect@@@std@@QAEXPAUSDL_Rect@@I@Z ; std::allocator<SDL_Rect>::deallocate
PUBLIC	?allocate@?$allocator@USDL_Rect@@@std@@QAEPAUSDL_Rect@@I@Z ; std::allocator<SDL_Rect>::allocate
PUBLIC	?construct@?$allocator@USDL_Rect@@@std@@QAEXPAUSDL_Rect@@ABU3@@Z ; std::allocator<SDL_Rect>::construct
PUBLIC	?max_size@?$allocator@USDL_Rect@@@std@@QBEIXZ	; std::allocator<SDL_Rect>::max_size
PUBLIC	?max_size@?$allocator_traits@V?$allocator@USDL_Rect@@@std@@@std@@SAIABV?$allocator@USDL_Rect@@@2@@Z ; std::allocator_traits<std::allocator<SDL_Rect> >::max_size
PUBLIC	??0?$_Wrap_alloc@V?$allocator@USDL_Rect@@@std@@@std@@QAE@XZ ; std::_Wrap_alloc<std::allocator<SDL_Rect> >::_Wrap_alloc<std::allocator<SDL_Rect> >
PUBLIC	?allocate@?$_Wrap_alloc@V?$allocator@USDL_Rect@@@std@@@std@@QAEPAUSDL_Rect@@I@Z ; std::_Wrap_alloc<std::allocator<SDL_Rect> >::allocate
PUBLIC	?deallocate@?$_Wrap_alloc@V?$allocator@USDL_Rect@@@std@@@std@@QAEXPAUSDL_Rect@@I@Z ; std::_Wrap_alloc<std::allocator<SDL_Rect> >::deallocate
PUBLIC	?max_size@?$_Wrap_alloc@V?$allocator@USDL_Rect@@@std@@@std@@QBEIXZ ; std::_Wrap_alloc<std::allocator<SDL_Rect> >::max_size
PUBLIC	??0?$_Vector_val@U?$_Simple_types@USDL_Rect@@@std@@@std@@QAE@XZ ; std::_Vector_val<std::_Simple_types<SDL_Rect> >::_Vector_val<std::_Simple_types<SDL_Rect> >
PUBLIC	??1?$_Vector_val@U?$_Simple_types@USDL_Rect@@@std@@@std@@QAE@XZ ; std::_Vector_val<std::_Simple_types<SDL_Rect> >::~_Vector_val<std::_Simple_types<SDL_Rect> >
PUBLIC	??0?$_Vector_alloc@$0A@U?$_Vec_base_types@USDL_Rect@@V?$allocator@USDL_Rect@@@std@@@std@@@std@@QAE@ABV?$allocator@USDL_Rect@@@1@@Z ; std::_Vector_alloc<0,std::_Vec_base_types<SDL_Rect,std::allocator<SDL_Rect> > >::_Vector_alloc<0,std::_Vec_base_types<SDL_Rect,std::allocator<SDL_Rect> > >
PUBLIC	??1?$_Vector_alloc@$0A@U?$_Vec_base_types@USDL_Rect@@V?$allocator@USDL_Rect@@@std@@@std@@@std@@QAE@XZ ; std::_Vector_alloc<0,std::_Vec_base_types<SDL_Rect,std::allocator<SDL_Rect> > >::~_Vector_alloc<0,std::_Vec_base_types<SDL_Rect,std::allocator<SDL_Rect> > >
PUBLIC	?_Alloc_proxy@?$_Vector_alloc@$0A@U?$_Vec_base_types@USDL_Rect@@V?$allocator@USDL_Rect@@@std@@@std@@@std@@QAEXXZ ; std::_Vector_alloc<0,std::_Vec_base_types<SDL_Rect,std::allocator<SDL_Rect> > >::_Alloc_proxy
PUBLIC	?_Free_proxy@?$_Vector_alloc@$0A@U?$_Vec_base_types@USDL_Rect@@V?$allocator@USDL_Rect@@@std@@@std@@@std@@QAEXXZ ; std::_Vector_alloc<0,std::_Vec_base_types<SDL_Rect,std::allocator<SDL_Rect> > >::_Free_proxy
PUBLIC	?_Getal@?$_Vector_alloc@$0A@U?$_Vec_base_types@USDL_Rect@@V?$allocator@USDL_Rect@@@std@@@std@@@std@@QBE?AU?$_Wrap_alloc@V?$allocator@USDL_Rect@@@std@@@2@XZ ; std::_Vector_alloc<0,std::_Vec_base_types<SDL_Rect,std::allocator<SDL_Rect> > >::_Getal
PUBLIC	??0?$vector@USDL_Rect@@V?$allocator@USDL_Rect@@@std@@@std@@QAE@XZ ; std::vector<SDL_Rect,std::allocator<SDL_Rect> >::vector<SDL_Rect,std::allocator<SDL_Rect> >
PUBLIC	??1?$vector@USDL_Rect@@V?$allocator@USDL_Rect@@@std@@@std@@QAE@XZ ; std::vector<SDL_Rect,std::allocator<SDL_Rect> >::~vector<SDL_Rect,std::allocator<SDL_Rect> >
PUBLIC	?capacity@?$vector@USDL_Rect@@V?$allocator@USDL_Rect@@@std@@@std@@QBEIXZ ; std::vector<SDL_Rect,std::allocator<SDL_Rect> >::capacity
PUBLIC	?_Unused_capacity@?$vector@USDL_Rect@@V?$allocator@USDL_Rect@@@std@@@std@@QBEIXZ ; std::vector<SDL_Rect,std::allocator<SDL_Rect> >::_Unused_capacity
PUBLIC	?size@?$vector@USDL_Rect@@V?$allocator@USDL_Rect@@@std@@@std@@QBEIXZ ; std::vector<SDL_Rect,std::allocator<SDL_Rect> >::size
PUBLIC	?max_size@?$vector@USDL_Rect@@V?$allocator@USDL_Rect@@@std@@@std@@QBEIXZ ; std::vector<SDL_Rect,std::allocator<SDL_Rect> >::max_size
PUBLIC	??A?$vector@USDL_Rect@@V?$allocator@USDL_Rect@@@std@@@std@@QAEAAUSDL_Rect@@I@Z ; std::vector<SDL_Rect,std::allocator<SDL_Rect> >::operator[]
PUBLIC	?push_back@?$vector@USDL_Rect@@V?$allocator@USDL_Rect@@@std@@@std@@QAEXABUSDL_Rect@@@Z ; std::vector<SDL_Rect,std::allocator<SDL_Rect> >::push_back
PUBLIC	?_Destroy@?$vector@USDL_Rect@@V?$allocator@USDL_Rect@@@std@@@std@@IAEXPAUSDL_Rect@@0@Z ; std::vector<SDL_Rect,std::allocator<SDL_Rect> >::_Destroy
PUBLIC	?_Grow_to@?$vector@USDL_Rect@@V?$allocator@USDL_Rect@@@std@@@std@@IBEII@Z ; std::vector<SDL_Rect,std::allocator<SDL_Rect> >::_Grow_to
PUBLIC	?_Inside@?$vector@USDL_Rect@@V?$allocator@USDL_Rect@@@std@@@std@@IBE_NPBUSDL_Rect@@@Z ; std::vector<SDL_Rect,std::allocator<SDL_Rect> >::_Inside
PUBLIC	?_Reallocate@?$vector@USDL_Rect@@V?$allocator@USDL_Rect@@@std@@@std@@IAEXI@Z ; std::vector<SDL_Rect,std::allocator<SDL_Rect> >::_Reallocate
PUBLIC	?_Reserve@?$vector@USDL_Rect@@V?$allocator@USDL_Rect@@@std@@@std@@IAEXI@Z ; std::vector<SDL_Rect,std::allocator<SDL_Rect> >::_Reserve
PUBLIC	?_Tidy@?$vector@USDL_Rect@@V?$allocator@USDL_Rect@@@std@@@std@@IAEXXZ ; std::vector<SDL_Rect,std::allocator<SDL_Rect> >::_Tidy
PUBLIC	?_Xlen@?$vector@USDL_Rect@@V?$allocator@USDL_Rect@@@std@@@std@@IBEXXZ ; std::vector<SDL_Rect,std::allocator<SDL_Rect> >::_Xlen
PUBLIC	?_Orphan_range@?$vector@USDL_Rect@@V?$allocator@USDL_Rect@@@std@@@std@@IBEXPAUSDL_Rect@@0@Z ; std::vector<SDL_Rect,std::allocator<SDL_Rect> >::_Orphan_range
PUBLIC	??0?$allocator@VTile@@@std@@QAE@XZ		; std::allocator<Tile>::allocator<Tile>
PUBLIC	?deallocate@?$allocator@VTile@@@std@@QAEXPAVTile@@I@Z ; std::allocator<Tile>::deallocate
PUBLIC	?allocate@?$allocator@VTile@@@std@@QAEPAVTile@@I@Z ; std::allocator<Tile>::allocate
PUBLIC	?construct@?$allocator@VTile@@@std@@QAEXPAVTile@@ABV3@@Z ; std::allocator<Tile>::construct
PUBLIC	?max_size@?$allocator@VTile@@@std@@QBEIXZ	; std::allocator<Tile>::max_size
PUBLIC	?max_size@?$allocator_traits@V?$allocator@VTile@@@std@@@std@@SAIABV?$allocator@VTile@@@2@@Z ; std::allocator_traits<std::allocator<Tile> >::max_size
PUBLIC	??0?$_Wrap_alloc@V?$allocator@VTile@@@std@@@std@@QAE@XZ ; std::_Wrap_alloc<std::allocator<Tile> >::_Wrap_alloc<std::allocator<Tile> >
PUBLIC	?allocate@?$_Wrap_alloc@V?$allocator@VTile@@@std@@@std@@QAEPAVTile@@I@Z ; std::_Wrap_alloc<std::allocator<Tile> >::allocate
PUBLIC	?deallocate@?$_Wrap_alloc@V?$allocator@VTile@@@std@@@std@@QAEXPAVTile@@I@Z ; std::_Wrap_alloc<std::allocator<Tile> >::deallocate
PUBLIC	?max_size@?$_Wrap_alloc@V?$allocator@VTile@@@std@@@std@@QBEIXZ ; std::_Wrap_alloc<std::allocator<Tile> >::max_size
PUBLIC	??0?$_Vector_val@U?$_Simple_types@VTile@@@std@@@std@@QAE@XZ ; std::_Vector_val<std::_Simple_types<Tile> >::_Vector_val<std::_Simple_types<Tile> >
PUBLIC	??1?$_Vector_val@U?$_Simple_types@VTile@@@std@@@std@@QAE@XZ ; std::_Vector_val<std::_Simple_types<Tile> >::~_Vector_val<std::_Simple_types<Tile> >
PUBLIC	??0?$_Vector_alloc@$0A@U?$_Vec_base_types@VTile@@V?$allocator@VTile@@@std@@@std@@@std@@QAE@ABV?$allocator@VTile@@@1@@Z ; std::_Vector_alloc<0,std::_Vec_base_types<Tile,std::allocator<Tile> > >::_Vector_alloc<0,std::_Vec_base_types<Tile,std::allocator<Tile> > >
PUBLIC	??1?$_Vector_alloc@$0A@U?$_Vec_base_types@VTile@@V?$allocator@VTile@@@std@@@std@@@std@@QAE@XZ ; std::_Vector_alloc<0,std::_Vec_base_types<Tile,std::allocator<Tile> > >::~_Vector_alloc<0,std::_Vec_base_types<Tile,std::allocator<Tile> > >
PUBLIC	?_Alloc_proxy@?$_Vector_alloc@$0A@U?$_Vec_base_types@VTile@@V?$allocator@VTile@@@std@@@std@@@std@@QAEXXZ ; std::_Vector_alloc<0,std::_Vec_base_types<Tile,std::allocator<Tile> > >::_Alloc_proxy
PUBLIC	?_Free_proxy@?$_Vector_alloc@$0A@U?$_Vec_base_types@VTile@@V?$allocator@VTile@@@std@@@std@@@std@@QAEXXZ ; std::_Vector_alloc<0,std::_Vec_base_types<Tile,std::allocator<Tile> > >::_Free_proxy
PUBLIC	?_Getal@?$_Vector_alloc@$0A@U?$_Vec_base_types@VTile@@V?$allocator@VTile@@@std@@@std@@@std@@QBE?AU?$_Wrap_alloc@V?$allocator@VTile@@@std@@@2@XZ ; std::_Vector_alloc<0,std::_Vec_base_types<Tile,std::allocator<Tile> > >::_Getal
PUBLIC	??0?$vector@VTile@@V?$allocator@VTile@@@std@@@std@@QAE@XZ ; std::vector<Tile,std::allocator<Tile> >::vector<Tile,std::allocator<Tile> >
PUBLIC	??1?$vector@VTile@@V?$allocator@VTile@@@std@@@std@@QAE@XZ ; std::vector<Tile,std::allocator<Tile> >::~vector<Tile,std::allocator<Tile> >
PUBLIC	?capacity@?$vector@VTile@@V?$allocator@VTile@@@std@@@std@@QBEIXZ ; std::vector<Tile,std::allocator<Tile> >::capacity
PUBLIC	?_Unused_capacity@?$vector@VTile@@V?$allocator@VTile@@@std@@@std@@QBEIXZ ; std::vector<Tile,std::allocator<Tile> >::_Unused_capacity
PUBLIC	?size@?$vector@VTile@@V?$allocator@VTile@@@std@@@std@@QBEIXZ ; std::vector<Tile,std::allocator<Tile> >::size
PUBLIC	?max_size@?$vector@VTile@@V?$allocator@VTile@@@std@@@std@@QBEIXZ ; std::vector<Tile,std::allocator<Tile> >::max_size
PUBLIC	?at@?$vector@VTile@@V?$allocator@VTile@@@std@@@std@@QAEAAVTile@@I@Z ; std::vector<Tile,std::allocator<Tile> >::at
PUBLIC	?push_back@?$vector@VTile@@V?$allocator@VTile@@@std@@@std@@QAEXABVTile@@@Z ; std::vector<Tile,std::allocator<Tile> >::push_back
PUBLIC	?_Destroy@?$vector@VTile@@V?$allocator@VTile@@@std@@@std@@IAEXPAVTile@@0@Z ; std::vector<Tile,std::allocator<Tile> >::_Destroy
PUBLIC	?_Grow_to@?$vector@VTile@@V?$allocator@VTile@@@std@@@std@@IBEII@Z ; std::vector<Tile,std::allocator<Tile> >::_Grow_to
PUBLIC	?_Inside@?$vector@VTile@@V?$allocator@VTile@@@std@@@std@@IBE_NPBVTile@@@Z ; std::vector<Tile,std::allocator<Tile> >::_Inside
PUBLIC	?_Reallocate@?$vector@VTile@@V?$allocator@VTile@@@std@@@std@@IAEXI@Z ; std::vector<Tile,std::allocator<Tile> >::_Reallocate
PUBLIC	?_Reserve@?$vector@VTile@@V?$allocator@VTile@@@std@@@std@@IAEXI@Z ; std::vector<Tile,std::allocator<Tile> >::_Reserve
PUBLIC	?_Tidy@?$vector@VTile@@V?$allocator@VTile@@@std@@@std@@IAEXXZ ; std::vector<Tile,std::allocator<Tile> >::_Tidy
PUBLIC	?_Xlen@?$vector@VTile@@V?$allocator@VTile@@@std@@@std@@IBEXXZ ; std::vector<Tile,std::allocator<Tile> >::_Xlen
PUBLIC	?_Xran@?$vector@VTile@@V?$allocator@VTile@@@std@@@std@@IBEXXZ ; std::vector<Tile,std::allocator<Tile> >::_Xran
PUBLIC	?_Orphan_range@?$vector@VTile@@V?$allocator@VTile@@@std@@@std@@IBEXPAVTile@@0@Z ; std::vector<Tile,std::allocator<Tile> >::_Orphan_range
PUBLIC	??0?$allocator@UTileSet@@@std@@QAE@XZ		; std::allocator<TileSet>::allocator<TileSet>
PUBLIC	?deallocate@?$allocator@UTileSet@@@std@@QAEXPAUTileSet@@I@Z ; std::allocator<TileSet>::deallocate
PUBLIC	?allocate@?$allocator@UTileSet@@@std@@QAEPAUTileSet@@I@Z ; std::allocator<TileSet>::allocate
PUBLIC	?max_size@?$allocator@UTileSet@@@std@@QBEIXZ	; std::allocator<TileSet>::max_size
PUBLIC	?max_size@?$allocator_traits@V?$allocator@UTileSet@@@std@@@std@@SAIABV?$allocator@UTileSet@@@2@@Z ; std::allocator_traits<std::allocator<TileSet> >::max_size
PUBLIC	??0?$_Wrap_alloc@V?$allocator@UTileSet@@@std@@@std@@QAE@XZ ; std::_Wrap_alloc<std::allocator<TileSet> >::_Wrap_alloc<std::allocator<TileSet> >
PUBLIC	?allocate@?$_Wrap_alloc@V?$allocator@UTileSet@@@std@@@std@@QAEPAUTileSet@@I@Z ; std::_Wrap_alloc<std::allocator<TileSet> >::allocate
PUBLIC	?deallocate@?$_Wrap_alloc@V?$allocator@UTileSet@@@std@@@std@@QAEXPAUTileSet@@I@Z ; std::_Wrap_alloc<std::allocator<TileSet> >::deallocate
PUBLIC	?max_size@?$_Wrap_alloc@V?$allocator@UTileSet@@@std@@@std@@QBEIXZ ; std::_Wrap_alloc<std::allocator<TileSet> >::max_size
PUBLIC	??0?$_Vector_val@U?$_Simple_types@UTileSet@@@std@@@std@@QAE@XZ ; std::_Vector_val<std::_Simple_types<TileSet> >::_Vector_val<std::_Simple_types<TileSet> >
PUBLIC	??1?$_Vector_val@U?$_Simple_types@UTileSet@@@std@@@std@@QAE@XZ ; std::_Vector_val<std::_Simple_types<TileSet> >::~_Vector_val<std::_Simple_types<TileSet> >
PUBLIC	??0?$_Vector_alloc@$0A@U?$_Vec_base_types@UTileSet@@V?$allocator@UTileSet@@@std@@@std@@@std@@QAE@ABV?$allocator@UTileSet@@@1@@Z ; std::_Vector_alloc<0,std::_Vec_base_types<TileSet,std::allocator<TileSet> > >::_Vector_alloc<0,std::_Vec_base_types<TileSet,std::allocator<TileSet> > >
PUBLIC	??1?$_Vector_alloc@$0A@U?$_Vec_base_types@UTileSet@@V?$allocator@UTileSet@@@std@@@std@@@std@@QAE@XZ ; std::_Vector_alloc<0,std::_Vec_base_types<TileSet,std::allocator<TileSet> > >::~_Vector_alloc<0,std::_Vec_base_types<TileSet,std::allocator<TileSet> > >
PUBLIC	?_Alloc_proxy@?$_Vector_alloc@$0A@U?$_Vec_base_types@UTileSet@@V?$allocator@UTileSet@@@std@@@std@@@std@@QAEXXZ ; std::_Vector_alloc<0,std::_Vec_base_types<TileSet,std::allocator<TileSet> > >::_Alloc_proxy
PUBLIC	?_Free_proxy@?$_Vector_alloc@$0A@U?$_Vec_base_types@UTileSet@@V?$allocator@UTileSet@@@std@@@std@@@std@@QAEXXZ ; std::_Vector_alloc<0,std::_Vec_base_types<TileSet,std::allocator<TileSet> > >::_Free_proxy
PUBLIC	?_Getal@?$_Vector_alloc@$0A@U?$_Vec_base_types@UTileSet@@V?$allocator@UTileSet@@@std@@@std@@@std@@QBE?AU?$_Wrap_alloc@V?$allocator@UTileSet@@@std@@@2@XZ ; std::_Vector_alloc<0,std::_Vec_base_types<TileSet,std::allocator<TileSet> > >::_Getal
PUBLIC	??0?$vector@UTileSet@@V?$allocator@UTileSet@@@std@@@std@@QAE@XZ ; std::vector<TileSet,std::allocator<TileSet> >::vector<TileSet,std::allocator<TileSet> >
PUBLIC	?push_back@?$vector@UTileSet@@V?$allocator@UTileSet@@@std@@@std@@QAEX$$QAUTileSet@@@Z ; std::vector<TileSet,std::allocator<TileSet> >::push_back
PUBLIC	??1?$vector@UTileSet@@V?$allocator@UTileSet@@@std@@@std@@QAE@XZ ; std::vector<TileSet,std::allocator<TileSet> >::~vector<TileSet,std::allocator<TileSet> >
PUBLIC	?capacity@?$vector@UTileSet@@V?$allocator@UTileSet@@@std@@@std@@QBEIXZ ; std::vector<TileSet,std::allocator<TileSet> >::capacity
PUBLIC	?_Unused_capacity@?$vector@UTileSet@@V?$allocator@UTileSet@@@std@@@std@@QBEIXZ ; std::vector<TileSet,std::allocator<TileSet> >::_Unused_capacity
PUBLIC	?size@?$vector@UTileSet@@V?$allocator@UTileSet@@@std@@@std@@QBEIXZ ; std::vector<TileSet,std::allocator<TileSet> >::size
PUBLIC	?max_size@?$vector@UTileSet@@V?$allocator@UTileSet@@@std@@@std@@QBEIXZ ; std::vector<TileSet,std::allocator<TileSet> >::max_size
PUBLIC	?at@?$vector@UTileSet@@V?$allocator@UTileSet@@@std@@@std@@QAEAAUTileSet@@I@Z ; std::vector<TileSet,std::allocator<TileSet> >::at
PUBLIC	??A?$vector@UTileSet@@V?$allocator@UTileSet@@@std@@@std@@QAEAAUTileSet@@I@Z ; std::vector<TileSet,std::allocator<TileSet> >::operator[]
PUBLIC	?_Destroy@?$vector@UTileSet@@V?$allocator@UTileSet@@@std@@@std@@IAEXPAUTileSet@@0@Z ; std::vector<TileSet,std::allocator<TileSet> >::_Destroy
PUBLIC	?_Grow_to@?$vector@UTileSet@@V?$allocator@UTileSet@@@std@@@std@@IBEII@Z ; std::vector<TileSet,std::allocator<TileSet> >::_Grow_to
PUBLIC	?_Inside@?$vector@UTileSet@@V?$allocator@UTileSet@@@std@@@std@@IBE_NPBUTileSet@@@Z ; std::vector<TileSet,std::allocator<TileSet> >::_Inside
PUBLIC	?_Reallocate@?$vector@UTileSet@@V?$allocator@UTileSet@@@std@@@std@@IAEXI@Z ; std::vector<TileSet,std::allocator<TileSet> >::_Reallocate
PUBLIC	?_Reserve@?$vector@UTileSet@@V?$allocator@UTileSet@@@std@@@std@@IAEXI@Z ; std::vector<TileSet,std::allocator<TileSet> >::_Reserve
PUBLIC	?_Tidy@?$vector@UTileSet@@V?$allocator@UTileSet@@@std@@@std@@IAEXXZ ; std::vector<TileSet,std::allocator<TileSet> >::_Tidy
PUBLIC	?_Xlen@?$vector@UTileSet@@V?$allocator@UTileSet@@@std@@@std@@IBEXXZ ; std::vector<TileSet,std::allocator<TileSet> >::_Xlen
PUBLIC	?_Xran@?$vector@UTileSet@@V?$allocator@UTileSet@@@std@@@std@@IBEXXZ ; std::vector<TileSet,std::allocator<TileSet> >::_Xran
PUBLIC	?_Orphan_range@?$vector@UTileSet@@V?$allocator@UTileSet@@@std@@@std@@IBEXPAUTileSet@@0@Z ; std::vector<TileSet,std::allocator<TileSet> >::_Orphan_range
PUBLIC	??0?$allocator@VCaveRectangle@@@std@@QAE@XZ	; std::allocator<CaveRectangle>::allocator<CaveRectangle>
PUBLIC	?deallocate@?$allocator@VCaveRectangle@@@std@@QAEXPAVCaveRectangle@@I@Z ; std::allocator<CaveRectangle>::deallocate
PUBLIC	?allocate@?$allocator@VCaveRectangle@@@std@@QAEPAVCaveRectangle@@I@Z ; std::allocator<CaveRectangle>::allocate
PUBLIC	?construct@?$allocator@VCaveRectangle@@@std@@QAEXPAVCaveRectangle@@ABV3@@Z ; std::allocator<CaveRectangle>::construct
PUBLIC	?max_size@?$allocator@VCaveRectangle@@@std@@QBEIXZ ; std::allocator<CaveRectangle>::max_size
PUBLIC	?max_size@?$allocator_traits@V?$allocator@VCaveRectangle@@@std@@@std@@SAIABV?$allocator@VCaveRectangle@@@2@@Z ; std::allocator_traits<std::allocator<CaveRectangle> >::max_size
PUBLIC	??0?$_Wrap_alloc@V?$allocator@VCaveRectangle@@@std@@@std@@QAE@XZ ; std::_Wrap_alloc<std::allocator<CaveRectangle> >::_Wrap_alloc<std::allocator<CaveRectangle> >
PUBLIC	?allocate@?$_Wrap_alloc@V?$allocator@VCaveRectangle@@@std@@@std@@QAEPAVCaveRectangle@@I@Z ; std::_Wrap_alloc<std::allocator<CaveRectangle> >::allocate
PUBLIC	?deallocate@?$_Wrap_alloc@V?$allocator@VCaveRectangle@@@std@@@std@@QAEXPAVCaveRectangle@@I@Z ; std::_Wrap_alloc<std::allocator<CaveRectangle> >::deallocate
PUBLIC	?max_size@?$_Wrap_alloc@V?$allocator@VCaveRectangle@@@std@@@std@@QBEIXZ ; std::_Wrap_alloc<std::allocator<CaveRectangle> >::max_size
PUBLIC	??0?$_Vector_val@U?$_Simple_types@VCaveRectangle@@@std@@@std@@QAE@XZ ; std::_Vector_val<std::_Simple_types<CaveRectangle> >::_Vector_val<std::_Simple_types<CaveRectangle> >
PUBLIC	??1?$_Vector_val@U?$_Simple_types@VCaveRectangle@@@std@@@std@@QAE@XZ ; std::_Vector_val<std::_Simple_types<CaveRectangle> >::~_Vector_val<std::_Simple_types<CaveRectangle> >
PUBLIC	??0?$_Vector_alloc@$0A@U?$_Vec_base_types@VCaveRectangle@@V?$allocator@VCaveRectangle@@@std@@@std@@@std@@QAE@ABV?$allocator@VCaveRectangle@@@1@@Z ; std::_Vector_alloc<0,std::_Vec_base_types<CaveRectangle,std::allocator<CaveRectangle> > >::_Vector_alloc<0,std::_Vec_base_types<CaveRectangle,std::allocator<CaveRectangle> > >
PUBLIC	??1?$_Vector_alloc@$0A@U?$_Vec_base_types@VCaveRectangle@@V?$allocator@VCaveRectangle@@@std@@@std@@@std@@QAE@XZ ; std::_Vector_alloc<0,std::_Vec_base_types<CaveRectangle,std::allocator<CaveRectangle> > >::~_Vector_alloc<0,std::_Vec_base_types<CaveRectangle,std::allocator<CaveRectangle> > >
PUBLIC	?_Alloc_proxy@?$_Vector_alloc@$0A@U?$_Vec_base_types@VCaveRectangle@@V?$allocator@VCaveRectangle@@@std@@@std@@@std@@QAEXXZ ; std::_Vector_alloc<0,std::_Vec_base_types<CaveRectangle,std::allocator<CaveRectangle> > >::_Alloc_proxy
PUBLIC	?_Free_proxy@?$_Vector_alloc@$0A@U?$_Vec_base_types@VCaveRectangle@@V?$allocator@VCaveRectangle@@@std@@@std@@@std@@QAEXXZ ; std::_Vector_alloc<0,std::_Vec_base_types<CaveRectangle,std::allocator<CaveRectangle> > >::_Free_proxy
PUBLIC	?_Getal@?$_Vector_alloc@$0A@U?$_Vec_base_types@VCaveRectangle@@V?$allocator@VCaveRectangle@@@std@@@std@@@std@@QBE?AU?$_Wrap_alloc@V?$allocator@VCaveRectangle@@@std@@@2@XZ ; std::_Vector_alloc<0,std::_Vec_base_types<CaveRectangle,std::allocator<CaveRectangle> > >::_Getal
PUBLIC	??0?$vector@VCaveRectangle@@V?$allocator@VCaveRectangle@@@std@@@std@@QAE@XZ ; std::vector<CaveRectangle,std::allocator<CaveRectangle> >::vector<CaveRectangle,std::allocator<CaveRectangle> >
PUBLIC	??0?$vector@VCaveRectangle@@V?$allocator@VCaveRectangle@@@std@@@std@@QAE@$$QAV01@@Z ; std::vector<CaveRectangle,std::allocator<CaveRectangle> >::vector<CaveRectangle,std::allocator<CaveRectangle> >
PUBLIC	?_Assign_rv@?$vector@VCaveRectangle@@V?$allocator@VCaveRectangle@@@std@@@std@@QAEX$$QAV12@U?$integral_constant@_N$00@2@@Z ; std::vector<CaveRectangle,std::allocator<CaveRectangle> >::_Assign_rv
PUBLIC	?push_back@?$vector@VCaveRectangle@@V?$allocator@VCaveRectangle@@@std@@@std@@QAEX$$QAVCaveRectangle@@@Z ; std::vector<CaveRectangle,std::allocator<CaveRectangle> >::push_back
PUBLIC	??1?$vector@VCaveRectangle@@V?$allocator@VCaveRectangle@@@std@@@std@@QAE@XZ ; std::vector<CaveRectangle,std::allocator<CaveRectangle> >::~vector<CaveRectangle,std::allocator<CaveRectangle> >
PUBLIC	?capacity@?$vector@VCaveRectangle@@V?$allocator@VCaveRectangle@@@std@@@std@@QBEIXZ ; std::vector<CaveRectangle,std::allocator<CaveRectangle> >::capacity
PUBLIC	?_Unused_capacity@?$vector@VCaveRectangle@@V?$allocator@VCaveRectangle@@@std@@@std@@QBEIXZ ; std::vector<CaveRectangle,std::allocator<CaveRectangle> >::_Unused_capacity
PUBLIC	?size@?$vector@VCaveRectangle@@V?$allocator@VCaveRectangle@@@std@@@std@@QBEIXZ ; std::vector<CaveRectangle,std::allocator<CaveRectangle> >::size
PUBLIC	?max_size@?$vector@VCaveRectangle@@V?$allocator@VCaveRectangle@@@std@@@std@@QBEIXZ ; std::vector<CaveRectangle,std::allocator<CaveRectangle> >::max_size
PUBLIC	?at@?$vector@VCaveRectangle@@V?$allocator@VCaveRectangle@@@std@@@std@@QAEAAVCaveRectangle@@I@Z ; std::vector<CaveRectangle,std::allocator<CaveRectangle> >::at
PUBLIC	??A?$vector@VCaveRectangle@@V?$allocator@VCaveRectangle@@@std@@@std@@QAEAAVCaveRectangle@@I@Z ; std::vector<CaveRectangle,std::allocator<CaveRectangle> >::operator[]
PUBLIC	?push_back@?$vector@VCaveRectangle@@V?$allocator@VCaveRectangle@@@std@@@std@@QAEXABVCaveRectangle@@@Z ; std::vector<CaveRectangle,std::allocator<CaveRectangle> >::push_back
PUBLIC	?_Destroy@?$vector@VCaveRectangle@@V?$allocator@VCaveRectangle@@@std@@@std@@IAEXPAVCaveRectangle@@0@Z ; std::vector<CaveRectangle,std::allocator<CaveRectangle> >::_Destroy
PUBLIC	?_Grow_to@?$vector@VCaveRectangle@@V?$allocator@VCaveRectangle@@@std@@@std@@IBEII@Z ; std::vector<CaveRectangle,std::allocator<CaveRectangle> >::_Grow_to
PUBLIC	?_Inside@?$vector@VCaveRectangle@@V?$allocator@VCaveRectangle@@@std@@@std@@IBE_NPBVCaveRectangle@@@Z ; std::vector<CaveRectangle,std::allocator<CaveRectangle> >::_Inside
PUBLIC	?_Reallocate@?$vector@VCaveRectangle@@V?$allocator@VCaveRectangle@@@std@@@std@@IAEXI@Z ; std::vector<CaveRectangle,std::allocator<CaveRectangle> >::_Reallocate
PUBLIC	?_Reserve@?$vector@VCaveRectangle@@V?$allocator@VCaveRectangle@@@std@@@std@@IAEXI@Z ; std::vector<CaveRectangle,std::allocator<CaveRectangle> >::_Reserve
PUBLIC	?_Tidy@?$vector@VCaveRectangle@@V?$allocator@VCaveRectangle@@@std@@@std@@IAEXXZ ; std::vector<CaveRectangle,std::allocator<CaveRectangle> >::_Tidy
PUBLIC	?_Xlen@?$vector@VCaveRectangle@@V?$allocator@VCaveRectangle@@@std@@@std@@IBEXXZ ; std::vector<CaveRectangle,std::allocator<CaveRectangle> >::_Xlen
PUBLIC	?_Xran@?$vector@VCaveRectangle@@V?$allocator@VCaveRectangle@@@std@@@std@@IBEXXZ ; std::vector<CaveRectangle,std::allocator<CaveRectangle> >::_Xran
PUBLIC	?_Orphan_range@?$vector@VCaveRectangle@@V?$allocator@VCaveRectangle@@@std@@@std@@IBEXPAVCaveRectangle@@0@Z ; std::vector<CaveRectangle,std::allocator<CaveRectangle> >::_Orphan_range
PUBLIC	?__autoclassinit2@?$vector@VCaveRectangle@@V?$allocator@VCaveRectangle@@@std@@@std@@QAEXI@Z ; std::vector<CaveRectangle,std::allocator<CaveRectangle> >::__autoclassinit2
PUBLIC	??0?$allocator@VCaveSlope@@@std@@QAE@XZ		; std::allocator<CaveSlope>::allocator<CaveSlope>
PUBLIC	?deallocate@?$allocator@VCaveSlope@@@std@@QAEXPAVCaveSlope@@I@Z ; std::allocator<CaveSlope>::deallocate
PUBLIC	?allocate@?$allocator@VCaveSlope@@@std@@QAEPAVCaveSlope@@I@Z ; std::allocator<CaveSlope>::allocate
PUBLIC	?construct@?$allocator@VCaveSlope@@@std@@QAEXPAVCaveSlope@@ABV3@@Z ; std::allocator<CaveSlope>::construct
PUBLIC	?max_size@?$allocator@VCaveSlope@@@std@@QBEIXZ	; std::allocator<CaveSlope>::max_size
PUBLIC	?max_size@?$allocator_traits@V?$allocator@VCaveSlope@@@std@@@std@@SAIABV?$allocator@VCaveSlope@@@2@@Z ; std::allocator_traits<std::allocator<CaveSlope> >::max_size
PUBLIC	??0?$_Wrap_alloc@V?$allocator@VCaveSlope@@@std@@@std@@QAE@XZ ; std::_Wrap_alloc<std::allocator<CaveSlope> >::_Wrap_alloc<std::allocator<CaveSlope> >
PUBLIC	?allocate@?$_Wrap_alloc@V?$allocator@VCaveSlope@@@std@@@std@@QAEPAVCaveSlope@@I@Z ; std::_Wrap_alloc<std::allocator<CaveSlope> >::allocate
PUBLIC	?deallocate@?$_Wrap_alloc@V?$allocator@VCaveSlope@@@std@@@std@@QAEXPAVCaveSlope@@I@Z ; std::_Wrap_alloc<std::allocator<CaveSlope> >::deallocate
PUBLIC	?max_size@?$_Wrap_alloc@V?$allocator@VCaveSlope@@@std@@@std@@QBEIXZ ; std::_Wrap_alloc<std::allocator<CaveSlope> >::max_size
PUBLIC	??0?$_Vector_val@U?$_Simple_types@VCaveSlope@@@std@@@std@@QAE@XZ ; std::_Vector_val<std::_Simple_types<CaveSlope> >::_Vector_val<std::_Simple_types<CaveSlope> >
PUBLIC	??1?$_Vector_val@U?$_Simple_types@VCaveSlope@@@std@@@std@@QAE@XZ ; std::_Vector_val<std::_Simple_types<CaveSlope> >::~_Vector_val<std::_Simple_types<CaveSlope> >
PUBLIC	??0?$_Vector_alloc@$0A@U?$_Vec_base_types@VCaveSlope@@V?$allocator@VCaveSlope@@@std@@@std@@@std@@QAE@ABV?$allocator@VCaveSlope@@@1@@Z ; std::_Vector_alloc<0,std::_Vec_base_types<CaveSlope,std::allocator<CaveSlope> > >::_Vector_alloc<0,std::_Vec_base_types<CaveSlope,std::allocator<CaveSlope> > >
PUBLIC	??1?$_Vector_alloc@$0A@U?$_Vec_base_types@VCaveSlope@@V?$allocator@VCaveSlope@@@std@@@std@@@std@@QAE@XZ ; std::_Vector_alloc<0,std::_Vec_base_types<CaveSlope,std::allocator<CaveSlope> > >::~_Vector_alloc<0,std::_Vec_base_types<CaveSlope,std::allocator<CaveSlope> > >
PUBLIC	?_Alloc_proxy@?$_Vector_alloc@$0A@U?$_Vec_base_types@VCaveSlope@@V?$allocator@VCaveSlope@@@std@@@std@@@std@@QAEXXZ ; std::_Vector_alloc<0,std::_Vec_base_types<CaveSlope,std::allocator<CaveSlope> > >::_Alloc_proxy
PUBLIC	?_Free_proxy@?$_Vector_alloc@$0A@U?$_Vec_base_types@VCaveSlope@@V?$allocator@VCaveSlope@@@std@@@std@@@std@@QAEXXZ ; std::_Vector_alloc<0,std::_Vec_base_types<CaveSlope,std::allocator<CaveSlope> > >::_Free_proxy
PUBLIC	?_Getal@?$_Vector_alloc@$0A@U?$_Vec_base_types@VCaveSlope@@V?$allocator@VCaveSlope@@@std@@@std@@@std@@QBE?AU?$_Wrap_alloc@V?$allocator@VCaveSlope@@@std@@@2@XZ ; std::_Vector_alloc<0,std::_Vec_base_types<CaveSlope,std::allocator<CaveSlope> > >::_Getal
PUBLIC	??0?$vector@VCaveSlope@@V?$allocator@VCaveSlope@@@std@@@std@@QAE@XZ ; std::vector<CaveSlope,std::allocator<CaveSlope> >::vector<CaveSlope,std::allocator<CaveSlope> >
PUBLIC	??0?$vector@VCaveSlope@@V?$allocator@VCaveSlope@@@std@@@std@@QAE@$$QAV01@@Z ; std::vector<CaveSlope,std::allocator<CaveSlope> >::vector<CaveSlope,std::allocator<CaveSlope> >
PUBLIC	?_Assign_rv@?$vector@VCaveSlope@@V?$allocator@VCaveSlope@@@std@@@std@@QAEX$$QAV12@U?$integral_constant@_N$00@2@@Z ; std::vector<CaveSlope,std::allocator<CaveSlope> >::_Assign_rv
PUBLIC	?push_back@?$vector@VCaveSlope@@V?$allocator@VCaveSlope@@@std@@@std@@QAEX$$QAVCaveSlope@@@Z ; std::vector<CaveSlope,std::allocator<CaveSlope> >::push_back
PUBLIC	??1?$vector@VCaveSlope@@V?$allocator@VCaveSlope@@@std@@@std@@QAE@XZ ; std::vector<CaveSlope,std::allocator<CaveSlope> >::~vector<CaveSlope,std::allocator<CaveSlope> >
PUBLIC	?capacity@?$vector@VCaveSlope@@V?$allocator@VCaveSlope@@@std@@@std@@QBEIXZ ; std::vector<CaveSlope,std::allocator<CaveSlope> >::capacity
PUBLIC	?_Unused_capacity@?$vector@VCaveSlope@@V?$allocator@VCaveSlope@@@std@@@std@@QBEIXZ ; std::vector<CaveSlope,std::allocator<CaveSlope> >::_Unused_capacity
PUBLIC	?size@?$vector@VCaveSlope@@V?$allocator@VCaveSlope@@@std@@@std@@QBEIXZ ; std::vector<CaveSlope,std::allocator<CaveSlope> >::size
PUBLIC	?max_size@?$vector@VCaveSlope@@V?$allocator@VCaveSlope@@@std@@@std@@QBEIXZ ; std::vector<CaveSlope,std::allocator<CaveSlope> >::max_size
PUBLIC	?at@?$vector@VCaveSlope@@V?$allocator@VCaveSlope@@@std@@@std@@QAEAAVCaveSlope@@I@Z ; std::vector<CaveSlope,std::allocator<CaveSlope> >::at
PUBLIC	?push_back@?$vector@VCaveSlope@@V?$allocator@VCaveSlope@@@std@@@std@@QAEXABVCaveSlope@@@Z ; std::vector<CaveSlope,std::allocator<CaveSlope> >::push_back
PUBLIC	?_Destroy@?$vector@VCaveSlope@@V?$allocator@VCaveSlope@@@std@@@std@@IAEXPAVCaveSlope@@0@Z ; std::vector<CaveSlope,std::allocator<CaveSlope> >::_Destroy
PUBLIC	?_Grow_to@?$vector@VCaveSlope@@V?$allocator@VCaveSlope@@@std@@@std@@IBEII@Z ; std::vector<CaveSlope,std::allocator<CaveSlope> >::_Grow_to
PUBLIC	?_Inside@?$vector@VCaveSlope@@V?$allocator@VCaveSlope@@@std@@@std@@IBE_NPBVCaveSlope@@@Z ; std::vector<CaveSlope,std::allocator<CaveSlope> >::_Inside
PUBLIC	?_Reallocate@?$vector@VCaveSlope@@V?$allocator@VCaveSlope@@@std@@@std@@IAEXI@Z ; std::vector<CaveSlope,std::allocator<CaveSlope> >::_Reallocate
PUBLIC	?_Reserve@?$vector@VCaveSlope@@V?$allocator@VCaveSlope@@@std@@@std@@IAEXI@Z ; std::vector<CaveSlope,std::allocator<CaveSlope> >::_Reserve
PUBLIC	?_Tidy@?$vector@VCaveSlope@@V?$allocator@VCaveSlope@@@std@@@std@@IAEXXZ ; std::vector<CaveSlope,std::allocator<CaveSlope> >::_Tidy
PUBLIC	?_Xlen@?$vector@VCaveSlope@@V?$allocator@VCaveSlope@@@std@@@std@@IBEXXZ ; std::vector<CaveSlope,std::allocator<CaveSlope> >::_Xlen
PUBLIC	?_Xran@?$vector@VCaveSlope@@V?$allocator@VCaveSlope@@@std@@@std@@IBEXXZ ; std::vector<CaveSlope,std::allocator<CaveSlope> >::_Xran
PUBLIC	?_Orphan_range@?$vector@VCaveSlope@@V?$allocator@VCaveSlope@@@std@@@std@@IBEXPAVCaveSlope@@0@Z ; std::vector<CaveSlope,std::allocator<CaveSlope> >::_Orphan_range
PUBLIC	?__autoclassinit2@?$vector@VCaveSlope@@V?$allocator@VCaveSlope@@@std@@@std@@QAEXI@Z ; std::vector<CaveSlope,std::allocator<CaveSlope> >::__autoclassinit2
PUBLIC	?LoadMap@Level@@AAEXV?$basic_string@DU?$char_traits@D@std@@V?$allocator@D@2@@std@@AAVGraphics@@@Z ; Level::LoadMap
PUBLIC	?StoreBackgroundLocations@Level@@AAEXXZ		; Level::StoreBackgroundLocations
PUBLIC	?GetTileSetPosition@Level@@AAE?AUVector2@@UTileSet@@H@Z ; Level::GetTileSetPosition
PUBLIC	?FirstChildElement@XMLNode@tinyxml2@@QAEPAVXMLElement@2@PBD@Z ; tinyxml2::XMLNode::FirstChildElement
PUBLIC	?NextSiblingElement@XMLNode@tinyxml2@@QAEPAVXMLElement@2@PBD@Z ; tinyxml2::XMLNode::NextSiblingElement
PUBLIC	?IntAttribute@XMLElement@tinyxml2@@QBEHPBD@Z	; tinyxml2::XMLElement::IntAttribute
PUBLIC	?FloatAttribute@XMLElement@tinyxml2@@QBEMPBD@Z	; tinyxml2::XMLElement::FloatAttribute
PUBLIC	?QueryIntAttribute@XMLElement@tinyxml2@@QBE?AW4XMLError@2@PBDPAH@Z ; tinyxml2::XMLElement::QueryIntAttribute
PUBLIC	?QueryFloatAttribute@XMLElement@tinyxml2@@QBE?AW4XMLError@2@PBDPAM@Z ; tinyxml2::XMLElement::QueryFloatAttribute
PUBLIC	?__autoclassinit2@XMLDocument@tinyxml2@@QAEXI@Z	; tinyxml2::XMLDocument::__autoclassinit2
PUBLIC	?Split@CaveUtiltity@@SAIABV?$basic_string@DU?$char_traits@D@std@@V?$allocator@D@2@@std@@AAV?$vector@V?$basic_string@DU?$char_traits@D@std@@V?$allocator@D@2@@std@@V?$allocator@V?$basic_string@DU?$char_traits@D@std@@V?$allocator@D@2@@std@@@2@@3@D@Z ; CaveUtiltity::Split
PUBLIC	??0?$allocator@V?$basic_string@DU?$char_traits@D@std@@V?$allocator@D@2@@std@@@std@@QAE@XZ ; std::allocator<std::basic_string<char,std::char_traits<char>,std::allocator<char> > >::allocator<std::basic_string<char,std::char_traits<char>,std::allocator<char> > >
PUBLIC	?deallocate@?$allocator@V?$basic_string@DU?$char_traits@D@std@@V?$allocator@D@2@@std@@@std@@QAEXPAV?$basic_string@DU?$char_traits@D@std@@V?$allocator@D@2@@2@I@Z ; std::allocator<std::basic_string<char,std::char_traits<char>,std::allocator<char> > >::deallocate
PUBLIC	?allocate@?$allocator@V?$basic_string@DU?$char_traits@D@std@@V?$allocator@D@2@@std@@@std@@QAEPAV?$basic_string@DU?$char_traits@D@std@@V?$allocator@D@2@@2@I@Z ; std::allocator<std::basic_string<char,std::char_traits<char>,std::allocator<char> > >::allocate
PUBLIC	?max_size@?$allocator@V?$basic_string@DU?$char_traits@D@std@@V?$allocator@D@2@@std@@@std@@QBEIXZ ; std::allocator<std::basic_string<char,std::char_traits<char>,std::allocator<char> > >::max_size
PUBLIC	?max_size@?$allocator_traits@V?$allocator@V?$basic_string@DU?$char_traits@D@std@@V?$allocator@D@2@@std@@@std@@@std@@SAIABV?$allocator@V?$basic_string@DU?$char_traits@D@std@@V?$allocator@D@2@@std@@@2@@Z ; std::allocator_traits<std::allocator<std::basic_string<char,std::char_traits<char>,std::allocator<char> > > >::max_size
PUBLIC	??0?$_Wrap_alloc@V?$allocator@V?$basic_string@DU?$char_traits@D@std@@V?$allocator@D@2@@std@@@std@@@std@@QAE@XZ ; std::_Wrap_alloc<std::allocator<std::basic_string<char,std::char_traits<char>,std::allocator<char> > > >::_Wrap_alloc<std::allocator<std::basic_string<char,std::char_traits<char>,std::allocator<char> > > >
PUBLIC	?allocate@?$_Wrap_alloc@V?$allocator@V?$basic_string@DU?$char_traits@D@std@@V?$allocator@D@2@@std@@@std@@@std@@QAEPAV?$basic_string@DU?$char_traits@D@std@@V?$allocator@D@2@@2@I@Z ; std::_Wrap_alloc<std::allocator<std::basic_string<char,std::char_traits<char>,std::allocator<char> > > >::allocate
PUBLIC	?deallocate@?$_Wrap_alloc@V?$allocator@V?$basic_string@DU?$char_traits@D@std@@V?$allocator@D@2@@std@@@std@@@std@@QAEXPAV?$basic_string@DU?$char_traits@D@std@@V?$allocator@D@2@@2@I@Z ; std::_Wrap_alloc<std::allocator<std::basic_string<char,std::char_traits<char>,std::allocator<char> > > >::deallocate
PUBLIC	?max_size@?$_Wrap_alloc@V?$allocator@V?$basic_string@DU?$char_traits@D@std@@V?$allocator@D@2@@std@@@std@@@std@@QBEIXZ ; std::_Wrap_alloc<std::allocator<std::basic_string<char,std::char_traits<char>,std::allocator<char> > > >::max_size
PUBLIC	??0?$_Vector_val@U?$_Simple_types@V?$basic_string@DU?$char_traits@D@std@@V?$allocator@D@2@@std@@@std@@@std@@QAE@XZ ; std::_Vector_val<std::_Simple_types<std::basic_string<char,std::char_traits<char>,std::allocator<char> > > >::_Vector_val<std::_Simple_types<std::basic_string<char,std::char_traits<char>,std::allocator<char> > > >
PUBLIC	??1?$_Vector_val@U?$_Simple_types@V?$basic_string@DU?$char_traits@D@std@@V?$allocator@D@2@@std@@@std@@@std@@QAE@XZ ; std::_Vector_val<std::_Simple_types<std::basic_string<char,std::char_traits<char>,std::allocator<char> > > >::~_Vector_val<std::_Simple_types<std::basic_string<char,std::char_traits<char>,std::allocator<char> > > >
PUBLIC	??0?$_Vector_alloc@$0A@U?$_Vec_base_types@V?$basic_string@DU?$char_traits@D@std@@V?$allocator@D@2@@std@@V?$allocator@V?$basic_string@DU?$char_traits@D@std@@V?$allocator@D@2@@std@@@2@@std@@@std@@QAE@ABV?$allocator@V?$basic_string@DU?$char_traits@D@std@@V?$allocator@D@2@@std@@@1@@Z ; std::_Vector_alloc<0,std::_Vec_base_types<std::basic_string<char,std::char_traits<char>,std::allocator<char> >,std::allocator<std::basic_string<char,std::char_traits<char>,std::allocator<char> > > > >::_Vector_alloc<0,std::_Vec_base_types<std::basic_string<char,std::char_traits<char>,std::allocator<char> >,std::allocator<std::basic_string<char,std::char_traits<char>,std::allocator<char> > > > >
PUBLIC	??1?$_Vector_alloc@$0A@U?$_Vec_base_types@V?$basic_string@DU?$char_traits@D@std@@V?$allocator@D@2@@std@@V?$allocator@V?$basic_string@DU?$char_traits@D@std@@V?$allocator@D@2@@std@@@2@@std@@@std@@QAE@XZ ; std::_Vector_alloc<0,std::_Vec_base_types<std::basic_string<char,std::char_traits<char>,std::allocator<char> >,std::allocator<std::basic_string<char,std::char_traits<char>,std::allocator<char> > > > >::~_Vector_alloc<0,std::_Vec_base_types<std::basic_string<char,std::char_traits<char>,std::allocator<char> >,std::allocator<std::basic_string<char,std::char_traits<char>,std::allocator<char> > > > >
PUBLIC	?_Alloc_proxy@?$_Vector_alloc@$0A@U?$_Vec_base_types@V?$basic_string@DU?$char_traits@D@std@@V?$allocator@D@2@@std@@V?$allocator@V?$basic_string@DU?$char_traits@D@std@@V?$allocator@D@2@@std@@@2@@std@@@std@@QAEXXZ ; std::_Vector_alloc<0,std::_Vec_base_types<std::basic_string<char,std::char_traits<char>,std::allocator<char> >,std::allocator<std::basic_string<char,std::char_traits<char>,std::allocator<char> > > > >::_Alloc_proxy
PUBLIC	?_Free_proxy@?$_Vector_alloc@$0A@U?$_Vec_base_types@V?$basic_string@DU?$char_traits@D@std@@V?$allocator@D@2@@std@@V?$allocator@V?$basic_string@DU?$char_traits@D@std@@V?$allocator@D@2@@std@@@2@@std@@@std@@QAEXXZ ; std::_Vector_alloc<0,std::_Vec_base_types<std::basic_string<char,std::char_traits<char>,std::allocator<char> >,std::allocator<std::basic_string<char,std::char_traits<char>,std::allocator<char> > > > >::_Free_proxy
PUBLIC	?_Getal@?$_Vector_alloc@$0A@U?$_Vec_base_types@V?$basic_string@DU?$char_traits@D@std@@V?$allocator@D@2@@std@@V?$allocator@V?$basic_string@DU?$char_traits@D@std@@V?$allocator@D@2@@std@@@2@@std@@@std@@QBE?AU?$_Wrap_alloc@V?$allocator@V?$basic_string@DU?$char_traits@D@std@@V?$allocator@D@2@@std@@@std@@@2@XZ ; std::_Vector_alloc<0,std::_Vec_base_types<std::basic_string<char,std::char_traits<char>,std::allocator<char> >,std::allocator<std::basic_string<char,std::char_traits<char>,std::allocator<char> > > > >::_Getal
PUBLIC	??0?$vector@V?$basic_string@DU?$char_traits@D@std@@V?$allocator@D@2@@std@@V?$allocator@V?$basic_string@DU?$char_traits@D@std@@V?$allocator@D@2@@std@@@2@@std@@QAE@XZ ; std::vector<std::basic_string<char,std::char_traits<char>,std::allocator<char> >,std::allocator<std::basic_string<char,std::char_traits<char>,std::allocator<char> > > >::vector<std::basic_string<char,std::char_traits<char>,std::allocator<char> >,std::allocator<std::basic_string<char,std::char_traits<char>,std::allocator<char> > > >
PUBLIC	?push_back@?$vector@V?$basic_string@DU?$char_traits@D@std@@V?$allocator@D@2@@std@@V?$allocator@V?$basic_string@DU?$char_traits@D@std@@V?$allocator@D@2@@std@@@2@@std@@QAEX$$QAV?$basic_string@DU?$char_traits@D@std@@V?$allocator@D@2@@2@@Z ; std::vector<std::basic_string<char,std::char_traits<char>,std::allocator<char> >,std::allocator<std::basic_string<char,std::char_traits<char>,std::allocator<char> > > >::push_back
PUBLIC	??1?$vector@V?$basic_string@DU?$char_traits@D@std@@V?$allocator@D@2@@std@@V?$allocator@V?$basic_string@DU?$char_traits@D@std@@V?$allocator@D@2@@std@@@2@@std@@QAE@XZ ; std::vector<std::basic_string<char,std::char_traits<char>,std::allocator<char> >,std::allocator<std::basic_string<char,std::char_traits<char>,std::allocator<char> > > >::~vector<std::basic_string<char,std::char_traits<char>,std::allocator<char> >,std::allocator<std::basic_string<char,std::char_traits<char>,std::allocator<char> > > >
PUBLIC	?capacity@?$vector@V?$basic_string@DU?$char_traits@D@std@@V?$allocator@D@2@@std@@V?$allocator@V?$basic_string@DU?$char_traits@D@std@@V?$allocator@D@2@@std@@@2@@std@@QBEIXZ ; std::vector<std::basic_string<char,std::char_traits<char>,std::allocator<char> >,std::allocator<std::basic_string<char,std::char_traits<char>,std::allocator<char> > > >::capacity
PUBLIC	?_Unused_capacity@?$vector@V?$basic_string@DU?$char_traits@D@std@@V?$allocator@D@2@@std@@V?$allocator@V?$basic_string@DU?$char_traits@D@std@@V?$allocator@D@2@@std@@@2@@std@@QBEIXZ ; std::vector<std::basic_string<char,std::char_traits<char>,std::allocator<char> >,std::allocator<std::basic_string<char,std::char_traits<char>,std::allocator<char> > > >::_Unused_capacity
PUBLIC	?size@?$vector@V?$basic_string@DU?$char_traits@D@std@@V?$allocator@D@2@@std@@V?$allocator@V?$basic_string@DU?$char_traits@D@std@@V?$allocator@D@2@@std@@@2@@std@@QBEIXZ ; std::vector<std::basic_string<char,std::char_traits<char>,std::allocator<char> >,std::allocator<std::basic_string<char,std::char_traits<char>,std::allocator<char> > > >::size
PUBLIC	?max_size@?$vector@V?$basic_string@DU?$char_traits@D@std@@V?$allocator@D@2@@std@@V?$allocator@V?$basic_string@DU?$char_traits@D@std@@V?$allocator@D@2@@std@@@2@@std@@QBEIXZ ; std::vector<std::basic_string<char,std::char_traits<char>,std::allocator<char> >,std::allocator<std::basic_string<char,std::char_traits<char>,std::allocator<char> > > >::max_size
PUBLIC	?at@?$vector@V?$basic_string@DU?$char_traits@D@std@@V?$allocator@D@2@@std@@V?$allocator@V?$basic_string@DU?$char_traits@D@std@@V?$allocator@D@2@@std@@@2@@std@@QAEAAV?$basic_string@DU?$char_traits@D@std@@V?$allocator@D@2@@2@I@Z ; std::vector<std::basic_string<char,std::char_traits<char>,std::allocator<char> >,std::allocator<std::basic_string<char,std::char_traits<char>,std::allocator<char> > > >::at
PUBLIC	?clear@?$vector@V?$basic_string@DU?$char_traits@D@std@@V?$allocator@D@2@@std@@V?$allocator@V?$basic_string@DU?$char_traits@D@std@@V?$allocator@D@2@@std@@@2@@std@@QAEXXZ ; std::vector<std::basic_string<char,std::char_traits<char>,std::allocator<char> >,std::allocator<std::basic_string<char,std::char_traits<char>,std::allocator<char> > > >::clear
PUBLIC	?_Destroy@?$vector@V?$basic_string@DU?$char_traits@D@std@@V?$allocator@D@2@@std@@V?$allocator@V?$basic_string@DU?$char_traits@D@std@@V?$allocator@D@2@@std@@@2@@std@@IAEXPAV?$basic_string@DU?$char_traits@D@std@@V?$allocator@D@2@@2@0@Z ; std::vector<std::basic_string<char,std::char_traits<char>,std::allocator<char> >,std::allocator<std::basic_string<char,std::char_traits<char>,std::allocator<char> > > >::_Destroy
PUBLIC	?_Grow_to@?$vector@V?$basic_string@DU?$char_traits@D@std@@V?$allocator@D@2@@std@@V?$allocator@V?$basic_string@DU?$char_traits@D@std@@V?$allocator@D@2@@std@@@2@@std@@IBEII@Z ; std::vector<std::basic_string<char,std::char_traits<char>,std::allocator<char> >,std::allocator<std::basic_string<char,std::char_traits<char>,std::allocator<char> > > >::_Grow_to
PUBLIC	?_Inside@?$vector@V?$basic_string@DU?$char_traits@D@std@@V?$allocator@D@2@@std@@V?$allocator@V?$basic_string@DU?$char_traits@D@std@@V?$allocator@D@2@@std@@@2@@std@@IBE_NPBV?$basic_string@DU?$char_traits@D@std@@V?$allocator@D@2@@2@@Z ; std::vector<std::basic_string<char,std::char_traits<char>,std::allocator<char> >,std::allocator<std::basic_string<char,std::char_traits<char>,std::allocator<char> > > >::_Inside
PUBLIC	?_Reallocate@?$vector@V?$basic_string@DU?$char_traits@D@std@@V?$allocator@D@2@@std@@V?$allocator@V?$basic_string@DU?$char_traits@D@std@@V?$allocator@D@2@@std@@@2@@std@@IAEXI@Z ; std::vector<std::basic_string<char,std::char_traits<char>,std::allocator<char> >,std::allocator<std::basic_string<char,std::char_traits<char>,std::allocator<char> > > >::_Reallocate
PUBLIC	?_Reserve@?$vector@V?$basic_string@DU?$char_traits@D@std@@V?$allocator@D@2@@std@@V?$allocator@V?$basic_string@DU?$char_traits@D@std@@V?$allocator@D@2@@std@@@2@@std@@IAEXI@Z ; std::vector<std::basic_string<char,std::char_traits<char>,std::allocator<char> >,std::allocator<std::basic_string<char,std::char_traits<char>,std::allocator<char> > > >::_Reserve
PUBLIC	?_Tidy@?$vector@V?$basic_string@DU?$char_traits@D@std@@V?$allocator@D@2@@std@@V?$allocator@V?$basic_string@DU?$char_traits@D@std@@V?$allocator@D@2@@std@@@2@@std@@IAEXXZ ; std::vector<std::basic_string<char,std::char_traits<char>,std::allocator<char> >,std::allocator<std::basic_string<char,std::char_traits<char>,std::allocator<char> > > >::_Tidy
PUBLIC	?_Xlen@?$vector@V?$basic_string@DU?$char_traits@D@std@@V?$allocator@D@2@@std@@V?$allocator@V?$basic_string@DU?$char_traits@D@std@@V?$allocator@D@2@@std@@@2@@std@@IBEXXZ ; std::vector<std::basic_string<char,std::char_traits<char>,std::allocator<char> >,std::allocator<std::basic_string<char,std::char_traits<char>,std::allocator<char> > > >::_Xlen
PUBLIC	?_Xran@?$vector@V?$basic_string@DU?$char_traits@D@std@@V?$allocator@D@2@@std@@V?$allocator@V?$basic_string@DU?$char_traits@D@std@@V?$allocator@D@2@@std@@@2@@std@@IBEXXZ ; std::vector<std::basic_string<char,std::char_traits<char>,std::allocator<char> >,std::allocator<std::basic_string<char,std::char_traits<char>,std::allocator<char> > > >::_Xran
PUBLIC	?_Orphan_range@?$vector@V?$basic_string@DU?$char_traits@D@std@@V?$allocator@D@2@@std@@V?$allocator@V?$basic_string@DU?$char_traits@D@std@@V?$allocator@D@2@@std@@@2@@std@@IBEXPAV?$basic_string@DU?$char_traits@D@std@@V?$allocator@D@2@@2@0@Z ; std::vector<std::basic_string<char,std::char_traits<char>,std::allocator<char> >,std::allocator<std::basic_string<char,std::char_traits<char>,std::allocator<char> > > >::_Orphan_range
PUBLIC	?__autoclassinit2@?$vector@V?$basic_string@DU?$char_traits@D@std@@V?$allocator@D@2@@std@@V?$allocator@V?$basic_string@DU?$char_traits@D@std@@V?$allocator@D@2@@std@@@2@@std@@QAEXI@Z ; std::vector<std::basic_string<char,std::char_traits<char>,std::allocator<char> >,std::allocator<std::basic_string<char,std::char_traits<char>,std::allocator<char> > > >::__autoclassinit2
PUBLIC	??$min@H@std@@YAABHABH0@Z			; std::min<int>
PUBLIC	??0?$basic_stringstream@DU?$char_traits@D@std@@V?$allocator@D@2@@std@@QAE@H@Z ; std::basic_stringstream<char,std::char_traits<char>,std::allocator<char> >::basic_stringstream<char,std::char_traits<char>,std::allocator<char> >
PUBLIC	??1?$basic_stringstream@DU?$char_traits@D@std@@V?$allocator@D@2@@std@@UAE@XZ ; std::basic_stringstream<char,std::char_traits<char>,std::allocator<char> >::~basic_stringstream<char,std::char_traits<char>,std::allocator<char> >
PUBLIC	?str@?$basic_stringstream@DU?$char_traits@D@std@@V?$allocator@D@2@@std@@QBE?AV?$basic_string@DU?$char_traits@D@std@@V?$allocator@D@2@@2@XZ ; std::basic_stringstream<char,std::char_traits<char>,std::allocator<char> >::str
PUBLIC	??0?$basic_stringbuf@DU?$char_traits@D@std@@V?$allocator@D@2@@std@@QAE@H@Z ; std::basic_stringbuf<char,std::char_traits<char>,std::allocator<char> >::basic_stringbuf<char,std::char_traits<char>,std::allocator<char> >
PUBLIC	??1?$basic_stringbuf@DU?$char_traits@D@std@@V?$allocator@D@2@@std@@UAE@XZ ; std::basic_stringbuf<char,std::char_traits<char>,std::allocator<char> >::~basic_stringbuf<char,std::char_traits<char>,std::allocator<char> >
PUBLIC	?str@?$basic_stringbuf@DU?$char_traits@D@std@@V?$allocator@D@2@@std@@QBE?AV?$basic_string@DU?$char_traits@D@std@@V?$allocator@D@2@@2@XZ ; std::basic_stringbuf<char,std::char_traits<char>,std::allocator<char> >::str
PUBLIC	?overflow@?$basic_stringbuf@DU?$char_traits@D@std@@V?$allocator@D@2@@std@@MAEHH@Z ; std::basic_stringbuf<char,std::char_traits<char>,std::allocator<char> >::overflow
PUBLIC	?pbackfail@?$basic_stringbuf@DU?$char_traits@D@std@@V?$allocator@D@2@@std@@MAEHH@Z ; std::basic_stringbuf<char,std::char_traits<char>,std::allocator<char> >::pbackfail
PUBLIC	?underflow@?$basic_stringbuf@DU?$char_traits@D@std@@V?$allocator@D@2@@std@@MAEHXZ ; std::basic_stringbuf<char,std::char_traits<char>,std::allocator<char> >::underflow
PUBLIC	?seekoff@?$basic_stringbuf@DU?$char_traits@D@std@@V?$allocator@D@2@@std@@MAE?AV?$fpos@H@2@_JHH@Z ; std::basic_stringbuf<char,std::char_traits<char>,std::allocator<char> >::seekoff
PUBLIC	?seekpos@?$basic_stringbuf@DU?$char_traits@D@std@@V?$allocator@D@2@@std@@MAE?AV?$fpos@H@2@V32@H@Z ; std::basic_stringbuf<char,std::char_traits<char>,std::allocator<char> >::seekpos
PUBLIC	?_Init@?$basic_stringbuf@DU?$char_traits@D@std@@V?$allocator@D@2@@std@@IAEXPBDIH@Z ; std::basic_stringbuf<char,std::char_traits<char>,std::allocator<char> >::_Init
PUBLIC	?_Tidy@?$basic_stringbuf@DU?$char_traits@D@std@@V?$allocator@D@2@@std@@IAEXXZ ; std::basic_stringbuf<char,std::char_traits<char>,std::allocator<char> >::_Tidy
PUBLIC	?_Getstate@?$basic_stringbuf@DU?$char_traits@D@std@@V?$allocator@D@2@@std@@AAEHH@Z ; std::basic_stringbuf<char,std::char_traits<char>,std::allocator<char> >::_Getstate
PUBLIC	??_G?$basic_stringbuf@DU?$char_traits@D@std@@V?$allocator@D@2@@std@@UAEPAXI@Z ; std::basic_stringbuf<char,std::char_traits<char>,std::allocator<char> >::`scalar deleting destructor'
PUBLIC	?__autoclassinit2@?$basic_stringstream@DU?$char_traits@D@std@@V?$allocator@D@2@@std@@QAEXI@Z ; std::basic_stringstream<char,std::char_traits<char>,std::allocator<char> >::__autoclassinit2
PUBLIC	??_G?$basic_stringstream@DU?$char_traits@D@std@@V?$allocator@D@2@@std@@UAEPAXI@Z ; std::basic_stringstream<char,std::char_traits<char>,std::allocator<char> >::`scalar deleting destructor'
PUBLIC	??_D?$basic_stringstream@DU?$char_traits@D@std@@V?$allocator@D@2@@std@@QAEXXZ ; std::basic_stringstream<char,std::char_traits<char>,std::allocator<char> >::`vbase destructor'
PUBLIC	??$?6U?$char_traits@D@std@@@std@@YAAAV?$basic_ostream@DU?$char_traits@D@std@@@0@AAV10@PBD@Z ; std::operator<<<std::char_traits<char> >
PUBLIC	??$?6DU?$char_traits@D@std@@V?$allocator@D@1@@std@@YAAAV?$basic_ostream@DU?$char_traits@D@std@@@0@AAV10@ABV?$basic_string@DU?$char_traits@D@std@@V?$allocator@D@2@@0@@Z ; std::operator<<<char,std::char_traits<char>,std::allocator<char> >
PUBLIC	??$?8DU?$char_traits@D@std@@V?$allocator@D@1@@std@@YA_NABV?$basic_string@DU?$char_traits@D@std@@V?$allocator@D@2@@0@PBD@Z ; std::operator==<char,std::char_traits<char>,std::allocator<char> >
PUBLIC	??0?$allocator@UVector2@@@std@@QAE@XZ		; std::allocator<Vector2>::allocator<Vector2>
PUBLIC	?deallocate@?$allocator@UVector2@@@std@@QAEXPAUVector2@@I@Z ; std::allocator<Vector2>::deallocate
PUBLIC	?allocate@?$allocator@UVector2@@@std@@QAEPAUVector2@@I@Z ; std::allocator<Vector2>::allocate
PUBLIC	?max_size@?$allocator@UVector2@@@std@@QBEIXZ	; std::allocator<Vector2>::max_size
PUBLIC	?max_size@?$allocator_traits@V?$allocator@UVector2@@@std@@@std@@SAIABV?$allocator@UVector2@@@2@@Z ; std::allocator_traits<std::allocator<Vector2> >::max_size
PUBLIC	??0?$_Wrap_alloc@V?$allocator@UVector2@@@std@@@std@@QAE@XZ ; std::_Wrap_alloc<std::allocator<Vector2> >::_Wrap_alloc<std::allocator<Vector2> >
PUBLIC	?allocate@?$_Wrap_alloc@V?$allocator@UVector2@@@std@@@std@@QAEPAUVector2@@I@Z ; std::_Wrap_alloc<std::allocator<Vector2> >::allocate
PUBLIC	?deallocate@?$_Wrap_alloc@V?$allocator@UVector2@@@std@@@std@@QAEXPAUVector2@@I@Z ; std::_Wrap_alloc<std::allocator<Vector2> >::deallocate
PUBLIC	?max_size@?$_Wrap_alloc@V?$allocator@UVector2@@@std@@@std@@QBEIXZ ; std::_Wrap_alloc<std::allocator<Vector2> >::max_size
PUBLIC	??0?$_Vector_val@U?$_Simple_types@UVector2@@@std@@@std@@QAE@XZ ; std::_Vector_val<std::_Simple_types<Vector2> >::_Vector_val<std::_Simple_types<Vector2> >
PUBLIC	??1?$_Vector_val@U?$_Simple_types@UVector2@@@std@@@std@@QAE@XZ ; std::_Vector_val<std::_Simple_types<Vector2> >::~_Vector_val<std::_Simple_types<Vector2> >
PUBLIC	??0?$_Vector_alloc@$0A@U?$_Vec_base_types@UVector2@@V?$allocator@UVector2@@@std@@@std@@@std@@QAE@ABV?$allocator@UVector2@@@1@@Z ; std::_Vector_alloc<0,std::_Vec_base_types<Vector2,std::allocator<Vector2> > >::_Vector_alloc<0,std::_Vec_base_types<Vector2,std::allocator<Vector2> > >
PUBLIC	??1?$_Vector_alloc@$0A@U?$_Vec_base_types@UVector2@@V?$allocator@UVector2@@@std@@@std@@@std@@QAE@XZ ; std::_Vector_alloc<0,std::_Vec_base_types<Vector2,std::allocator<Vector2> > >::~_Vector_alloc<0,std::_Vec_base_types<Vector2,std::allocator<Vector2> > >
PUBLIC	?_Alloc_proxy@?$_Vector_alloc@$0A@U?$_Vec_base_types@UVector2@@V?$allocator@UVector2@@@std@@@std@@@std@@QAEXXZ ; std::_Vector_alloc<0,std::_Vec_base_types<Vector2,std::allocator<Vector2> > >::_Alloc_proxy
PUBLIC	?_Free_proxy@?$_Vector_alloc@$0A@U?$_Vec_base_types@UVector2@@V?$allocator@UVector2@@@std@@@std@@@std@@QAEXXZ ; std::_Vector_alloc<0,std::_Vec_base_types<Vector2,std::allocator<Vector2> > >::_Free_proxy
PUBLIC	?_Getal@?$_Vector_alloc@$0A@U?$_Vec_base_types@UVector2@@V?$allocator@UVector2@@@std@@@std@@@std@@QBE?AU?$_Wrap_alloc@V?$allocator@UVector2@@@std@@@2@XZ ; std::_Vector_alloc<0,std::_Vec_base_types<Vector2,std::allocator<Vector2> > >::_Getal
PUBLIC	??0?$vector@UVector2@@V?$allocator@UVector2@@@std@@@std@@QAE@XZ ; std::vector<Vector2,std::allocator<Vector2> >::vector<Vector2,std::allocator<Vector2> >
PUBLIC	?push_back@?$vector@UVector2@@V?$allocator@UVector2@@@std@@@std@@QAEX$$QAUVector2@@@Z ; std::vector<Vector2,std::allocator<Vector2> >::push_back
PUBLIC	??1?$vector@UVector2@@V?$allocator@UVector2@@@std@@@std@@QAE@XZ ; std::vector<Vector2,std::allocator<Vector2> >::~vector<Vector2,std::allocator<Vector2> >
PUBLIC	?capacity@?$vector@UVector2@@V?$allocator@UVector2@@@std@@@std@@QBEIXZ ; std::vector<Vector2,std::allocator<Vector2> >::capacity
PUBLIC	?_Unused_capacity@?$vector@UVector2@@V?$allocator@UVector2@@@std@@@std@@QBEIXZ ; std::vector<Vector2,std::allocator<Vector2> >::_Unused_capacity
PUBLIC	?size@?$vector@UVector2@@V?$allocator@UVector2@@@std@@@std@@QBEIXZ ; std::vector<Vector2,std::allocator<Vector2> >::size
PUBLIC	?max_size@?$vector@UVector2@@V?$allocator@UVector2@@@std@@@std@@QBEIXZ ; std::vector<Vector2,std::allocator<Vector2> >::max_size
PUBLIC	?at@?$vector@UVector2@@V?$allocator@UVector2@@@std@@@std@@QAEAAUVector2@@I@Z ; std::vector<Vector2,std::allocator<Vector2> >::at
PUBLIC	?_Destroy@?$vector@UVector2@@V?$allocator@UVector2@@@std@@@std@@IAEXPAUVector2@@0@Z ; std::vector<Vector2,std::allocator<Vector2> >::_Destroy
PUBLIC	?_Grow_to@?$vector@UVector2@@V?$allocator@UVector2@@@std@@@std@@IBEII@Z ; std::vector<Vector2,std::allocator<Vector2> >::_Grow_to
PUBLIC	?_Inside@?$vector@UVector2@@V?$allocator@UVector2@@@std@@@std@@IBE_NPBUVector2@@@Z ; std::vector<Vector2,std::allocator<Vector2> >::_Inside
PUBLIC	?_Reallocate@?$vector@UVector2@@V?$allocator@UVector2@@@std@@@std@@IAEXI@Z ; std::vector<Vector2,std::allocator<Vector2> >::_Reallocate
PUBLIC	?_Reserve@?$vector@UVector2@@V?$allocator@UVector2@@@std@@@std@@IAEXI@Z ; std::vector<Vector2,std::allocator<Vector2> >::_Reserve
PUBLIC	?_Tidy@?$vector@UVector2@@V?$allocator@UVector2@@@std@@@std@@IAEXXZ ; std::vector<Vector2,std::allocator<Vector2> >::_Tidy
PUBLIC	?_Xlen@?$vector@UVector2@@V?$allocator@UVector2@@@std@@@std@@IBEXXZ ; std::vector<Vector2,std::allocator<Vector2> >::_Xlen
PUBLIC	?_Xran@?$vector@UVector2@@V?$allocator@UVector2@@@std@@@std@@IBEXXZ ; std::vector<Vector2,std::allocator<Vector2> >::_Xran
PUBLIC	?_Orphan_range@?$vector@UVector2@@V?$allocator@UVector2@@@std@@@std@@IBEXPAUVector2@@0@Z ; std::vector<Vector2,std::allocator<Vector2> >::_Orphan_range
PUBLIC	?__autoclassinit2@?$vector@UVector2@@V?$allocator@UVector2@@@std@@@std@@QAEXI@Z ; std::vector<Vector2,std::allocator<Vector2> >::__autoclassinit2
PUBLIC	??$forward@V?$basic_string@DU?$char_traits@D@std@@V?$allocator@D@2@@std@@@std@@YA$$QAV?$basic_string@DU?$char_traits@D@std@@V?$allocator@D@2@@0@AAV10@@Z ; std::forward<std::basic_string<char,std::char_traits<char>,std::allocator<char> > >
PUBLIC	??0?$fpos@H@std@@QAE@_J@Z			; std::fpos<int>::fpos<int>
PUBLIC	??B?$fpos@H@std@@QBE_JXZ			; std::fpos<int>::operator __int64
PUBLIC	??$addressof@V?$basic_string@DU?$char_traits@D@std@@V?$allocator@D@2@@std@@@std@@YAPAV?$basic_string@DU?$char_traits@D@std@@V?$allocator@D@2@@0@AAV10@@Z ; std::addressof<std::basic_string<char,std::char_traits<char>,std::allocator<char> > >
PUBLIC	??$addressof@$$CBUSDL_Rect@@@std@@YAPBUSDL_Rect@@ABU1@@Z ; std::addressof<SDL_Rect const >
PUBLIC	??$construct@USDL_Rect@@AAU1@@?$_Wrap_alloc@V?$allocator@USDL_Rect@@@std@@@std@@QAEXPAUSDL_Rect@@AAU2@@Z ; std::_Wrap_alloc<std::allocator<SDL_Rect> >::construct<SDL_Rect,SDL_Rect &>
PUBLIC	??$construct@USDL_Rect@@ABU1@@?$_Wrap_alloc@V?$allocator@USDL_Rect@@@std@@@std@@QAEXPAUSDL_Rect@@ABU2@@Z ; std::_Wrap_alloc<std::allocator<SDL_Rect> >::construct<SDL_Rect,SDL_Rect const &>
PUBLIC	??$addressof@$$CBVTile@@@std@@YAPBVTile@@ABV1@@Z ; std::addressof<Tile const >
PUBLIC	??$construct@VTile@@AAV1@@?$_Wrap_alloc@V?$allocator@VTile@@@std@@@std@@QAEXPAVTile@@AAV2@@Z ; std::_Wrap_alloc<std::allocator<Tile> >::construct<Tile,Tile &>
PUBLIC	??$construct@VTile@@ABV1@@?$_Wrap_alloc@V?$allocator@VTile@@@std@@@std@@QAEXPAVTile@@ABV2@@Z ; std::_Wrap_alloc<std::allocator<Tile> >::construct<Tile,Tile const &>
PUBLIC	??$addressof@UTileSet@@@std@@YAPAUTileSet@@AAU1@@Z ; std::addressof<TileSet>
PUBLIC	??$forward@UTileSet@@@std@@YA$$QAUTileSet@@AAU1@@Z ; std::forward<TileSet>
PUBLIC	??$construct@UTileSet@@U1@@?$_Wrap_alloc@V?$allocator@UTileSet@@@std@@@std@@QAEXPAUTileSet@@$$QAU2@@Z ; std::_Wrap_alloc<std::allocator<TileSet> >::construct<TileSet,TileSet>
PUBLIC	??$forward@V?$vector@VCaveRectangle@@V?$allocator@VCaveRectangle@@@std@@@std@@@std@@YA$$QAV?$vector@VCaveRectangle@@V?$allocator@VCaveRectangle@@@std@@@0@AAV10@@Z ; std::forward<std::vector<CaveRectangle,std::allocator<CaveRectangle> > >
PUBLIC	??$addressof@VCaveRectangle@@@std@@YAPAVCaveRectangle@@AAV1@@Z ; std::addressof<CaveRectangle>
PUBLIC	??$forward@VCaveRectangle@@@std@@YA$$QAVCaveRectangle@@AAV1@@Z ; std::forward<CaveRectangle>
PUBLIC	??$construct@VCaveRectangle@@V1@@?$_Wrap_alloc@V?$allocator@VCaveRectangle@@@std@@@std@@QAEXPAVCaveRectangle@@$$QAV2@@Z ; std::_Wrap_alloc<std::allocator<CaveRectangle> >::construct<CaveRectangle,CaveRectangle>
PUBLIC	??$addressof@$$CBVCaveRectangle@@@std@@YAPBVCaveRectangle@@ABV1@@Z ; std::addressof<CaveRectangle const >
PUBLIC	??$construct@VCaveRectangle@@AAV1@@?$_Wrap_alloc@V?$allocator@VCaveRectangle@@@std@@@std@@QAEXPAVCaveRectangle@@AAV2@@Z ; std::_Wrap_alloc<std::allocator<CaveRectangle> >::construct<CaveRectangle,CaveRectangle &>
PUBLIC	??$construct@VCaveRectangle@@ABV1@@?$_Wrap_alloc@V?$allocator@VCaveRectangle@@@std@@@std@@QAEXPAVCaveRectangle@@ABV2@@Z ; std::_Wrap_alloc<std::allocator<CaveRectangle> >::construct<CaveRectangle,CaveRectangle const &>
PUBLIC	??$forward@V?$vector@VCaveSlope@@V?$allocator@VCaveSlope@@@std@@@std@@@std@@YA$$QAV?$vector@VCaveSlope@@V?$allocator@VCaveSlope@@@std@@@0@AAV10@@Z ; std::forward<std::vector<CaveSlope,std::allocator<CaveSlope> > >
PUBLIC	??$addressof@VCaveSlope@@@std@@YAPAVCaveSlope@@AAV1@@Z ; std::addressof<CaveSlope>
PUBLIC	??$forward@VCaveSlope@@@std@@YA$$QAVCaveSlope@@AAV1@@Z ; std::forward<CaveSlope>
PUBLIC	??$construct@VCaveSlope@@V1@@?$_Wrap_alloc@V?$allocator@VCaveSlope@@@std@@@std@@QAEXPAVCaveSlope@@$$QAV2@@Z ; std::_Wrap_alloc<std::allocator<CaveSlope> >::construct<CaveSlope,CaveSlope>
PUBLIC	??$addressof@$$CBVCaveSlope@@@std@@YAPBVCaveSlope@@ABV1@@Z ; std::addressof<CaveSlope const >
PUBLIC	??$construct@VCaveSlope@@AAV1@@?$_Wrap_alloc@V?$allocator@VCaveSlope@@@std@@@std@@QAEXPAVCaveSlope@@AAV2@@Z ; std::_Wrap_alloc<std::allocator<CaveSlope> >::construct<CaveSlope,CaveSlope &>
PUBLIC	??$construct@VCaveSlope@@ABV1@@?$_Wrap_alloc@V?$allocator@VCaveSlope@@@std@@@std@@QAEXPAVCaveSlope@@ABV2@@Z ; std::_Wrap_alloc<std::allocator<CaveSlope> >::construct<CaveSlope,CaveSlope const &>
PUBLIC	??$construct@V?$basic_string@DU?$char_traits@D@std@@V?$allocator@D@2@@std@@V12@@?$_Wrap_alloc@V?$allocator@V?$basic_string@DU?$char_traits@D@std@@V?$allocator@D@2@@std@@@std@@@std@@QAEXPAV?$basic_string@DU?$char_traits@D@std@@V?$allocator@D@2@@1@$$QAV21@@Z ; std::_Wrap_alloc<std::allocator<std::basic_string<char,std::char_traits<char>,std::allocator<char> > > >::construct<std::basic_string<char,std::char_traits<char>,std::allocator<char> >,std::basic_string<char,std::char_traits<char>,std::allocator<char> > >
PUBLIC	??$addressof@UVector2@@@std@@YAPAUVector2@@AAU1@@Z ; std::addressof<Vector2>
PUBLIC	??$forward@UVector2@@@std@@YA$$QAUVector2@@AAU1@@Z ; std::forward<Vector2>
PUBLIC	??$construct@UVector2@@U1@@?$_Wrap_alloc@V?$allocator@UVector2@@@std@@@std@@QAEXPAUVector2@@$$QAU2@@Z ; std::_Wrap_alloc<std::allocator<Vector2> >::construct<Vector2,Vector2>
PUBLIC	??$construct@PADAAPAD@?$_Wrap_alloc@V?$allocator@D@std@@@std@@QAEXPAPADAAPAD@Z ; std::_Wrap_alloc<std::allocator<char> >::construct<char *,char * &>
PUBLIC	??$destroy@PAD@?$_Wrap_alloc@V?$allocator@D@std@@@std@@QAEXPAPAD@Z ; std::_Wrap_alloc<std::allocator<char> >::destroy<char *>
PUBLIC	??$addressof@D@std@@YAPADAAD@Z			; std::addressof<char>
PUBLIC	??$_Allocate@D@std@@YAPADIPAD@Z			; std::_Allocate<char>
PUBLIC	??$_Destroy_range@U?$_Wrap_alloc@V?$allocator@V?$basic_string@DU?$char_traits@D@std@@V?$allocator@D@2@@std@@@std@@@std@@@std@@YAXPAV?$basic_string@DU?$char_traits@D@std@@V?$allocator@D@2@@0@0AAU?$_Wrap_alloc@V?$allocator@V?$basic_string@DU?$char_traits@D@std@@V?$allocator@D@2@@std@@@std@@@0@@Z ; std::_Destroy_range<std::_Wrap_alloc<std::allocator<std::basic_string<char,std::char_traits<char>,std::allocator<char> > > > >
PUBLIC	??0?$allocator@U_Container_proxy@std@@@std@@QAE@XZ ; std::allocator<std::_Container_proxy>::allocator<std::_Container_proxy>
PUBLIC	?deallocate@?$allocator@U_Container_proxy@std@@@std@@QAEXPAU_Container_proxy@2@I@Z ; std::allocator<std::_Container_proxy>::deallocate
PUBLIC	?allocate@?$allocator@U_Container_proxy@std@@@std@@QAEPAU_Container_proxy@2@I@Z ; std::allocator<std::_Container_proxy>::allocate
PUBLIC	??$construct@U_Container_proxy@std@@U12@@?$allocator@U_Container_proxy@std@@@std@@QAEXPAU_Container_proxy@1@$$QAU21@@Z ; std::allocator<std::_Container_proxy>::construct<std::_Container_proxy,std::_Container_proxy>
PUBLIC	??$destroy@U_Container_proxy@std@@@?$allocator@U_Container_proxy@std@@@std@@QAEXPAU_Container_proxy@1@@Z ; std::allocator<std::_Container_proxy>::destroy<std::_Container_proxy>
PUBLIC	??0_Sentry_base@?$basic_ostream@DU?$char_traits@D@std@@@std@@QAE@AAV12@@Z ; std::basic_ostream<char,std::char_traits<char> >::_Sentry_base::_Sentry_base
PUBLIC	??1_Sentry_base@?$basic_ostream@DU?$char_traits@D@std@@@std@@QAE@XZ ; std::basic_ostream<char,std::char_traits<char> >::_Sentry_base::~_Sentry_base
PUBLIC	??0sentry@?$basic_ostream@DU?$char_traits@D@std@@@std@@QAE@AAV12@@Z ; std::basic_ostream<char,std::char_traits<char> >::sentry::sentry
PUBLIC	??1sentry@?$basic_ostream@DU?$char_traits@D@std@@@std@@QAE@XZ ; std::basic_ostream<char,std::char_traits<char> >::sentry::~sentry
PUBLIC	??Bsentry@?$basic_ostream@DU?$char_traits@D@std@@@std@@QBE_NXZ ; std::basic_ostream<char,std::char_traits<char> >::sentry::operator bool
PUBLIC	??$_Destroy_range@U?$_Wrap_alloc@V?$allocator@USDL_Rect@@@std@@@std@@@std@@YAXPAUSDL_Rect@@0AAU?$_Wrap_alloc@V?$allocator@USDL_Rect@@@std@@@0@@Z ; std::_Destroy_range<std::_Wrap_alloc<std::allocator<SDL_Rect> > >
PUBLIC	??$_Umove@PAUSDL_Rect@@@?$vector@USDL_Rect@@V?$allocator@USDL_Rect@@@std@@@std@@IAEPAUSDL_Rect@@PAU2@00@Z ; std::vector<SDL_Rect,std::allocator<SDL_Rect> >::_Umove<SDL_Rect *>
PUBLIC	??0?$_Wrap_alloc@V?$allocator@U_Container_proxy@std@@@std@@@std@@QAE@XZ ; std::_Wrap_alloc<std::allocator<std::_Container_proxy> >::_Wrap_alloc<std::allocator<std::_Container_proxy> >
PUBLIC	?allocate@?$_Wrap_alloc@V?$allocator@U_Container_proxy@std@@@std@@@std@@QAEPAU_Container_proxy@2@I@Z ; std::_Wrap_alloc<std::allocator<std::_Container_proxy> >::allocate
PUBLIC	?deallocate@?$_Wrap_alloc@V?$allocator@U_Container_proxy@std@@@std@@@std@@QAEXPAU_Container_proxy@2@I@Z ; std::_Wrap_alloc<std::allocator<std::_Container_proxy> >::deallocate
PUBLIC	??$construct@U_Container_proxy@std@@U12@@?$_Wrap_alloc@V?$allocator@U_Container_proxy@std@@@std@@@std@@QAEXPAU_Container_proxy@1@$$QAU21@@Z ; std::_Wrap_alloc<std::allocator<std::_Container_proxy> >::construct<std::_Container_proxy,std::_Container_proxy>
PUBLIC	??$destroy@U_Container_proxy@std@@@?$_Wrap_alloc@V?$allocator@U_Container_proxy@std@@@std@@@std@@QAEXPAU_Container_proxy@1@@Z ; std::_Wrap_alloc<std::allocator<std::_Container_proxy> >::destroy<std::_Container_proxy>
PUBLIC	??$_Destroy_range@U?$_Wrap_alloc@V?$allocator@VTile@@@std@@@std@@@std@@YAXPAVTile@@0AAU?$_Wrap_alloc@V?$allocator@VTile@@@std@@@0@@Z ; std::_Destroy_range<std::_Wrap_alloc<std::allocator<Tile> > >
PUBLIC	??$_Umove@PAVTile@@@?$vector@VTile@@V?$allocator@VTile@@@std@@@std@@IAEPAVTile@@PAV2@00@Z ; std::vector<Tile,std::allocator<Tile> >::_Umove<Tile *>
PUBLIC	??$_Destroy_range@U?$_Wrap_alloc@V?$allocator@UTileSet@@@std@@@std@@@std@@YAXPAUTileSet@@0AAU?$_Wrap_alloc@V?$allocator@UTileSet@@@std@@@0@@Z ; std::_Destroy_range<std::_Wrap_alloc<std::allocator<TileSet> > >
PUBLIC	??$_Umove@PAUTileSet@@@?$vector@UTileSet@@V?$allocator@UTileSet@@@std@@@std@@IAEPAUTileSet@@PAU2@00@Z ; std::vector<TileSet,std::allocator<TileSet> >::_Umove<TileSet *>
PUBLIC	??$_Destroy_range@U?$_Wrap_alloc@V?$allocator@VCaveRectangle@@@std@@@std@@@std@@YAXPAVCaveRectangle@@0AAU?$_Wrap_alloc@V?$allocator@VCaveRectangle@@@std@@@0@@Z ; std::_Destroy_range<std::_Wrap_alloc<std::allocator<CaveRectangle> > >
PUBLIC	??$_Umove@PAVCaveRectangle@@@?$vector@VCaveRectangle@@V?$allocator@VCaveRectangle@@@std@@@std@@IAEPAVCaveRectangle@@PAV2@00@Z ; std::vector<CaveRectangle,std::allocator<CaveRectangle> >::_Umove<CaveRectangle *>
PUBLIC	??$_Destroy_range@U?$_Wrap_alloc@V?$allocator@VCaveSlope@@@std@@@std@@@std@@YAXPAVCaveSlope@@0AAU?$_Wrap_alloc@V?$allocator@VCaveSlope@@@std@@@0@@Z ; std::_Destroy_range<std::_Wrap_alloc<std::allocator<CaveSlope> > >
PUBLIC	??$_Umove@PAVCaveSlope@@@?$vector@VCaveSlope@@V?$allocator@VCaveSlope@@@std@@@std@@IAEPAVCaveSlope@@PAV2@00@Z ; std::vector<CaveSlope,std::allocator<CaveSlope> >::_Umove<CaveSlope *>
PUBLIC	??$_Umove@PAV?$basic_string@DU?$char_traits@D@std@@V?$allocator@D@2@@std@@@?$vector@V?$basic_string@DU?$char_traits@D@std@@V?$allocator@D@2@@std@@V?$allocator@V?$basic_string@DU?$char_traits@D@std@@V?$allocator@D@2@@std@@@2@@std@@IAEPAV?$basic_string@DU?$char_traits@D@std@@V?$allocator@D@2@@1@PAV21@00@Z ; std::vector<std::basic_string<char,std::char_traits<char>,std::allocator<char> >,std::allocator<std::basic_string<char,std::char_traits<char>,std::allocator<char> > > >::_Umove<std::basic_string<char,std::char_traits<char>,std::allocator<char> > *>
PUBLIC	??$_Destroy_range@U?$_Wrap_alloc@V?$allocator@UVector2@@@std@@@std@@@std@@YAXPAUVector2@@0AAU?$_Wrap_alloc@V?$allocator@UVector2@@@std@@@0@@Z ; std::_Destroy_range<std::_Wrap_alloc<std::allocator<Vector2> > >
PUBLIC	??$_Umove@PAUVector2@@@?$vector@UVector2@@V?$allocator@UVector2@@@std@@@std@@IAEPAUVector2@@PAU2@00@Z ; std::vector<Vector2,std::allocator<Vector2> >::_Umove<Vector2 *>
PUBLIC	??$_Allocate@U_Container_proxy@std@@@std@@YAPAU_Container_proxy@0@IPAU10@@Z ; std::_Allocate<std::_Container_proxy>
PUBLIC	??$_Allocate@USDL_Rect@@@std@@YAPAUSDL_Rect@@IPAU1@@Z ; std::_Allocate<SDL_Rect>
PUBLIC	??$_Allocate@VTile@@@std@@YAPAVTile@@IPAV1@@Z	; std::_Allocate<Tile>
PUBLIC	??$_Allocate@UTileSet@@@std@@YAPAUTileSet@@IPAU1@@Z ; std::_Allocate<TileSet>
PUBLIC	??$_Allocate@VCaveRectangle@@@std@@YAPAVCaveRectangle@@IPAV1@@Z ; std::_Allocate<CaveRectangle>
PUBLIC	??$_Allocate@VCaveSlope@@@std@@YAPAVCaveSlope@@IPAV1@@Z ; std::_Allocate<CaveSlope>
PUBLIC	??$_Allocate@V?$basic_string@DU?$char_traits@D@std@@V?$allocator@D@2@@std@@@std@@YAPAV?$basic_string@DU?$char_traits@D@std@@V?$allocator@D@2@@0@IPAV10@@Z ; std::_Allocate<std::basic_string<char,std::char_traits<char>,std::allocator<char> > >
PUBLIC	??$_Allocate@UVector2@@@std@@YAPAUVector2@@IPAU1@@Z ; std::_Allocate<Vector2>
PUBLIC	??$_Debug_lt@ABHABH@std@@YA_NABH0PB_WI@Z	; std::_Debug_lt<int const &,int const &>
PUBLIC	??$forward@AAUSDL_Rect@@@std@@YAAAUSDL_Rect@@AAU1@@Z ; std::forward<SDL_Rect &>
PUBLIC	??$construct@USDL_Rect@@AAU1@@?$allocator_traits@V?$allocator@USDL_Rect@@@std@@@std@@SAXAAV?$allocator@USDL_Rect@@@1@PAUSDL_Rect@@AAU3@@Z ; std::allocator_traits<std::allocator<SDL_Rect> >::construct<SDL_Rect,SDL_Rect &>
PUBLIC	??$forward@ABUSDL_Rect@@@std@@YAABUSDL_Rect@@ABU1@@Z ; std::forward<SDL_Rect const &>
PUBLIC	??$construct@USDL_Rect@@ABU1@@?$allocator_traits@V?$allocator@USDL_Rect@@@std@@@std@@SAXAAV?$allocator@USDL_Rect@@@1@PAUSDL_Rect@@ABU3@@Z ; std::allocator_traits<std::allocator<SDL_Rect> >::construct<SDL_Rect,SDL_Rect const &>
PUBLIC	??$forward@AAVTile@@@std@@YAAAVTile@@AAV1@@Z	; std::forward<Tile &>
PUBLIC	??$construct@VTile@@AAV1@@?$allocator_traits@V?$allocator@VTile@@@std@@@std@@SAXAAV?$allocator@VTile@@@1@PAVTile@@AAV3@@Z ; std::allocator_traits<std::allocator<Tile> >::construct<Tile,Tile &>
PUBLIC	??$forward@ABVTile@@@std@@YAABVTile@@ABV1@@Z	; std::forward<Tile const &>
PUBLIC	??$construct@VTile@@ABV1@@?$allocator_traits@V?$allocator@VTile@@@std@@@std@@SAXAAV?$allocator@VTile@@@1@PAVTile@@ABV3@@Z ; std::allocator_traits<std::allocator<Tile> >::construct<Tile,Tile const &>
PUBLIC	??$construct@UTileSet@@U1@@?$allocator_traits@V?$allocator@UTileSet@@@std@@@std@@SAXAAV?$allocator@UTileSet@@@1@PAUTileSet@@$$QAU3@@Z ; std::allocator_traits<std::allocator<TileSet> >::construct<TileSet,TileSet>
PUBLIC	??$construct@VCaveRectangle@@V1@@?$allocator_traits@V?$allocator@VCaveRectangle@@@std@@@std@@SAXAAV?$allocator@VCaveRectangle@@@1@PAVCaveRectangle@@$$QAV3@@Z ; std::allocator_traits<std::allocator<CaveRectangle> >::construct<CaveRectangle,CaveRectangle>
PUBLIC	??$forward@AAVCaveRectangle@@@std@@YAAAVCaveRectangle@@AAV1@@Z ; std::forward<CaveRectangle &>
PUBLIC	??$construct@VCaveRectangle@@AAV1@@?$allocator_traits@V?$allocator@VCaveRectangle@@@std@@@std@@SAXAAV?$allocator@VCaveRectangle@@@1@PAVCaveRectangle@@AAV3@@Z ; std::allocator_traits<std::allocator<CaveRectangle> >::construct<CaveRectangle,CaveRectangle &>
PUBLIC	??$forward@ABVCaveRectangle@@@std@@YAABVCaveRectangle@@ABV1@@Z ; std::forward<CaveRectangle const &>
PUBLIC	??$construct@VCaveRectangle@@ABV1@@?$allocator_traits@V?$allocator@VCaveRectangle@@@std@@@std@@SAXAAV?$allocator@VCaveRectangle@@@1@PAVCaveRectangle@@ABV3@@Z ; std::allocator_traits<std::allocator<CaveRectangle> >::construct<CaveRectangle,CaveRectangle const &>
PUBLIC	??$construct@VCaveSlope@@V1@@?$allocator_traits@V?$allocator@VCaveSlope@@@std@@@std@@SAXAAV?$allocator@VCaveSlope@@@1@PAVCaveSlope@@$$QAV3@@Z ; std::allocator_traits<std::allocator<CaveSlope> >::construct<CaveSlope,CaveSlope>
PUBLIC	??$forward@AAVCaveSlope@@@std@@YAAAVCaveSlope@@AAV1@@Z ; std::forward<CaveSlope &>
PUBLIC	??$construct@VCaveSlope@@AAV1@@?$allocator_traits@V?$allocator@VCaveSlope@@@std@@@std@@SAXAAV?$allocator@VCaveSlope@@@1@PAVCaveSlope@@AAV3@@Z ; std::allocator_traits<std::allocator<CaveSlope> >::construct<CaveSlope,CaveSlope &>
PUBLIC	??$forward@ABVCaveSlope@@@std@@YAABVCaveSlope@@ABV1@@Z ; std::forward<CaveSlope const &>
PUBLIC	??$construct@VCaveSlope@@ABV1@@?$allocator_traits@V?$allocator@VCaveSlope@@@std@@@std@@SAXAAV?$allocator@VCaveSlope@@@1@PAVCaveSlope@@ABV3@@Z ; std::allocator_traits<std::allocator<CaveSlope> >::construct<CaveSlope,CaveSlope const &>
PUBLIC	??$construct@V?$basic_string@DU?$char_traits@D@std@@V?$allocator@D@2@@std@@V12@@?$allocator_traits@V?$allocator@V?$basic_string@DU?$char_traits@D@std@@V?$allocator@D@2@@std@@@std@@@std@@SAXAAV?$allocator@V?$basic_string@DU?$char_traits@D@std@@V?$allocator@D@2@@std@@@1@PAV?$basic_string@DU?$char_traits@D@std@@V?$allocator@D@2@@1@$$QAV31@@Z ; std::allocator_traits<std::allocator<std::basic_string<char,std::char_traits<char>,std::allocator<char> > > >::construct<std::basic_string<char,std::char_traits<char>,std::allocator<char> >,std::basic_string<char,std::char_traits<char>,std::allocator<char> > >
PUBLIC	??$construct@UVector2@@U1@@?$allocator_traits@V?$allocator@UVector2@@@std@@@std@@SAXAAV?$allocator@UVector2@@@1@PAUVector2@@$$QAU3@@Z ; std::allocator_traits<std::allocator<Vector2> >::construct<Vector2,Vector2>
PUBLIC	??$forward@AAPAD@std@@YAAAPADAAPAD@Z		; std::forward<char * &>
PUBLIC	??$construct@PADAAPAD@?$allocator_traits@V?$allocator@D@std@@@std@@SAXAAV?$allocator@D@1@PAPADAAPAD@Z ; std::allocator_traits<std::allocator<char> >::construct<char *,char * &>
PUBLIC	??$destroy@PAD@?$allocator_traits@V?$allocator@D@std@@@std@@SAXAAV?$allocator@D@1@PAPAD@Z ; std::allocator_traits<std::allocator<char> >::destroy<char *>
PUBLIC	??$_Ptr_cat@V?$basic_string@DU?$char_traits@D@std@@V?$allocator@D@2@@std@@V12@@std@@YA?AU_Nonscalar_ptr_iterator_tag@0@PAV?$basic_string@DU?$char_traits@D@std@@V?$allocator@D@2@@0@0@Z ; std::_Ptr_cat<std::basic_string<char,std::char_traits<char>,std::allocator<char> >,std::basic_string<char,std::char_traits<char>,std::allocator<char> > >
PUBLIC	??$_Destroy_range@U?$_Wrap_alloc@V?$allocator@V?$basic_string@DU?$char_traits@D@std@@V?$allocator@D@2@@std@@@std@@@std@@@std@@YAXPAV?$basic_string@DU?$char_traits@D@std@@V?$allocator@D@2@@0@0AAU?$_Wrap_alloc@V?$allocator@V?$basic_string@DU?$char_traits@D@std@@V?$allocator@D@2@@std@@@std@@@0@U_Nonscalar_ptr_iterator_tag@0@@Z ; std::_Destroy_range<std::_Wrap_alloc<std::allocator<std::basic_string<char,std::char_traits<char>,std::allocator<char> > > > >
PUBLIC	??$forward@U_Container_proxy@std@@@std@@YA$$QAU_Container_proxy@0@AAU10@@Z ; std::forward<std::_Container_proxy>
PUBLIC	??$_Ptr_cat@USDL_Rect@@U1@@std@@YA?AU_Nonscalar_ptr_iterator_tag@0@PAUSDL_Rect@@0@Z ; std::_Ptr_cat<SDL_Rect,SDL_Rect>
PUBLIC	??$_Destroy_range@U?$_Wrap_alloc@V?$allocator@USDL_Rect@@@std@@@std@@@std@@YAXPAUSDL_Rect@@0AAU?$_Wrap_alloc@V?$allocator@USDL_Rect@@@std@@@0@U_Nonscalar_ptr_iterator_tag@0@@Z ; std::_Destroy_range<std::_Wrap_alloc<std::allocator<SDL_Rect> > >
PUBLIC	??$_Uninitialized_move@PAUSDL_Rect@@PAU1@U?$_Wrap_alloc@V?$allocator@USDL_Rect@@@std@@@std@@@std@@YAPAUSDL_Rect@@PAU1@00AAU?$_Wrap_alloc@V?$allocator@USDL_Rect@@@std@@@0@@Z ; std::_Uninitialized_move<SDL_Rect *,SDL_Rect *,std::_Wrap_alloc<std::allocator<SDL_Rect> > >
PUBLIC	??$construct@U_Container_proxy@std@@U12@@?$allocator_traits@V?$allocator@U_Container_proxy@std@@@std@@@std@@SAXAAV?$allocator@U_Container_proxy@std@@@1@PAU_Container_proxy@1@$$QAU31@@Z ; std::allocator_traits<std::allocator<std::_Container_proxy> >::construct<std::_Container_proxy,std::_Container_proxy>
PUBLIC	??$destroy@U_Container_proxy@std@@@?$allocator_traits@V?$allocator@U_Container_proxy@std@@@std@@@std@@SAXAAV?$allocator@U_Container_proxy@std@@@1@PAU_Container_proxy@1@@Z ; std::allocator_traits<std::allocator<std::_Container_proxy> >::destroy<std::_Container_proxy>
PUBLIC	??$_Ptr_cat@VTile@@V1@@std@@YA?AU_Nonscalar_ptr_iterator_tag@0@PAVTile@@0@Z ; std::_Ptr_cat<Tile,Tile>
PUBLIC	??$_Destroy_range@U?$_Wrap_alloc@V?$allocator@VTile@@@std@@@std@@@std@@YAXPAVTile@@0AAU?$_Wrap_alloc@V?$allocator@VTile@@@std@@@0@U_Nonscalar_ptr_iterator_tag@0@@Z ; std::_Destroy_range<std::_Wrap_alloc<std::allocator<Tile> > >
PUBLIC	??$_Uninitialized_move@PAVTile@@PAV1@U?$_Wrap_alloc@V?$allocator@VTile@@@std@@@std@@@std@@YAPAVTile@@PAV1@00AAU?$_Wrap_alloc@V?$allocator@VTile@@@std@@@0@@Z ; std::_Uninitialized_move<Tile *,Tile *,std::_Wrap_alloc<std::allocator<Tile> > >
PUBLIC	??$_Ptr_cat@UTileSet@@U1@@std@@YA?AU_Nonscalar_ptr_iterator_tag@0@PAUTileSet@@0@Z ; std::_Ptr_cat<TileSet,TileSet>
PUBLIC	??$_Destroy_range@U?$_Wrap_alloc@V?$allocator@UTileSet@@@std@@@std@@@std@@YAXPAUTileSet@@0AAU?$_Wrap_alloc@V?$allocator@UTileSet@@@std@@@0@U_Nonscalar_ptr_iterator_tag@0@@Z ; std::_Destroy_range<std::_Wrap_alloc<std::allocator<TileSet> > >
PUBLIC	??$_Uninitialized_move@PAUTileSet@@PAU1@U?$_Wrap_alloc@V?$allocator@UTileSet@@@std@@@std@@@std@@YAPAUTileSet@@PAU1@00AAU?$_Wrap_alloc@V?$allocator@UTileSet@@@std@@@0@@Z ; std::_Uninitialized_move<TileSet *,TileSet *,std::_Wrap_alloc<std::allocator<TileSet> > >
PUBLIC	??$_Ptr_cat@VCaveRectangle@@V1@@std@@YA?AU_Nonscalar_ptr_iterator_tag@0@PAVCaveRectangle@@0@Z ; std::_Ptr_cat<CaveRectangle,CaveRectangle>
PUBLIC	??$_Destroy_range@U?$_Wrap_alloc@V?$allocator@VCaveRectangle@@@std@@@std@@@std@@YAXPAVCaveRectangle@@0AAU?$_Wrap_alloc@V?$allocator@VCaveRectangle@@@std@@@0@U_Nonscalar_ptr_iterator_tag@0@@Z ; std::_Destroy_range<std::_Wrap_alloc<std::allocator<CaveRectangle> > >
PUBLIC	??$_Uninitialized_move@PAVCaveRectangle@@PAV1@U?$_Wrap_alloc@V?$allocator@VCaveRectangle@@@std@@@std@@@std@@YAPAVCaveRectangle@@PAV1@00AAU?$_Wrap_alloc@V?$allocator@VCaveRectangle@@@std@@@0@@Z ; std::_Uninitialized_move<CaveRectangle *,CaveRectangle *,std::_Wrap_alloc<std::allocator<CaveRectangle> > >
PUBLIC	??$_Ptr_cat@VCaveSlope@@V1@@std@@YA?AU_Nonscalar_ptr_iterator_tag@0@PAVCaveSlope@@0@Z ; std::_Ptr_cat<CaveSlope,CaveSlope>
PUBLIC	??$_Destroy_range@U?$_Wrap_alloc@V?$allocator@VCaveSlope@@@std@@@std@@@std@@YAXPAVCaveSlope@@0AAU?$_Wrap_alloc@V?$allocator@VCaveSlope@@@std@@@0@U_Nonscalar_ptr_iterator_tag@0@@Z ; std::_Destroy_range<std::_Wrap_alloc<std::allocator<CaveSlope> > >
PUBLIC	??$_Uninitialized_move@PAVCaveSlope@@PAV1@U?$_Wrap_alloc@V?$allocator@VCaveSlope@@@std@@@std@@@std@@YAPAVCaveSlope@@PAV1@00AAU?$_Wrap_alloc@V?$allocator@VCaveSlope@@@std@@@0@@Z ; std::_Uninitialized_move<CaveSlope *,CaveSlope *,std::_Wrap_alloc<std::allocator<CaveSlope> > >
PUBLIC	??$_Uninitialized_move@PAV?$basic_string@DU?$char_traits@D@std@@V?$allocator@D@2@@std@@PAV12@U?$_Wrap_alloc@V?$allocator@V?$basic_string@DU?$char_traits@D@std@@V?$allocator@D@2@@std@@@std@@@2@@std@@YAPAV?$basic_string@DU?$char_traits@D@std@@V?$allocator@D@2@@0@PAV10@00AAU?$_Wrap_alloc@V?$allocator@V?$basic_string@DU?$char_traits@D@std@@V?$allocator@D@2@@std@@@std@@@0@@Z ; std::_Uninitialized_move<std::basic_string<char,std::char_traits<char>,std::allocator<char> > *,std::basic_string<char,std::char_traits<char>,std::allocator<char> > *,std::_Wrap_alloc<std::allocator<std::basic_string<char,std::char_traits<char>,std::allocator<char> > > > >
PUBLIC	??$_Ptr_cat@UVector2@@U1@@std@@YA?AU_Nonscalar_ptr_iterator_tag@0@PAUVector2@@0@Z ; std::_Ptr_cat<Vector2,Vector2>
PUBLIC	??$_Destroy_range@U?$_Wrap_alloc@V?$allocator@UVector2@@@std@@@std@@@std@@YAXPAUVector2@@0AAU?$_Wrap_alloc@V?$allocator@UVector2@@@std@@@0@U_Nonscalar_ptr_iterator_tag@0@@Z ; std::_Destroy_range<std::_Wrap_alloc<std::allocator<Vector2> > >
PUBLIC	??$_Uninitialized_move@PAUVector2@@PAU1@U?$_Wrap_alloc@V?$allocator@UVector2@@@std@@@std@@@std@@YAPAUVector2@@PAU1@00AAU?$_Wrap_alloc@V?$allocator@UVector2@@@std@@@0@@Z ; std::_Uninitialized_move<Vector2 *,Vector2 *,std::_Wrap_alloc<std::allocator<Vector2> > >
PUBLIC	??$forward@ABH@std@@YAABHABH@Z			; std::forward<int const &>
PUBLIC	??$_Debug_lt_pred@U?$less@X@std@@ABHABH@std@@YA_NU?$less@X@0@ABH1PB_WI@Z ; std::_Debug_lt_pred<std::less<void>,int const &,int const &>
PUBLIC	??$construct@USDL_Rect@@AAU1@@?$allocator@USDL_Rect@@@std@@QAEXPAUSDL_Rect@@AAU2@@Z ; std::allocator<SDL_Rect>::construct<SDL_Rect,SDL_Rect &>
PUBLIC	??$construct@VTile@@AAV1@@?$allocator@VTile@@@std@@QAEXPAVTile@@AAV2@@Z ; std::allocator<Tile>::construct<Tile,Tile &>
PUBLIC	??$construct@UTileSet@@U1@@?$allocator@UTileSet@@@std@@QAEXPAUTileSet@@$$QAU2@@Z ; std::allocator<TileSet>::construct<TileSet,TileSet>
PUBLIC	??$construct@VCaveRectangle@@V1@@?$allocator@VCaveRectangle@@@std@@QAEXPAVCaveRectangle@@$$QAV2@@Z ; std::allocator<CaveRectangle>::construct<CaveRectangle,CaveRectangle>
PUBLIC	??$construct@VCaveRectangle@@AAV1@@?$allocator@VCaveRectangle@@@std@@QAEXPAVCaveRectangle@@AAV2@@Z ; std::allocator<CaveRectangle>::construct<CaveRectangle,CaveRectangle &>
PUBLIC	??$construct@VCaveSlope@@V1@@?$allocator@VCaveSlope@@@std@@QAEXPAVCaveSlope@@$$QAV2@@Z ; std::allocator<CaveSlope>::construct<CaveSlope,CaveSlope>
PUBLIC	??$construct@VCaveSlope@@AAV1@@?$allocator@VCaveSlope@@@std@@QAEXPAVCaveSlope@@AAV2@@Z ; std::allocator<CaveSlope>::construct<CaveSlope,CaveSlope &>
PUBLIC	??$construct@V?$basic_string@DU?$char_traits@D@std@@V?$allocator@D@2@@std@@V12@@?$allocator@V?$basic_string@DU?$char_traits@D@std@@V?$allocator@D@2@@std@@@std@@QAEXPAV?$basic_string@DU?$char_traits@D@std@@V?$allocator@D@2@@1@$$QAV21@@Z ; std::allocator<std::basic_string<char,std::char_traits<char>,std::allocator<char> > >::construct<std::basic_string<char,std::char_traits<char>,std::allocator<char> >,std::basic_string<char,std::char_traits<char>,std::allocator<char> > >
PUBLIC	??$construct@UVector2@@U1@@?$allocator@UVector2@@@std@@QAEXPAUVector2@@$$QAU2@@Z ; std::allocator<Vector2>::construct<Vector2,Vector2>
PUBLIC	??$construct@PADAAPAD@?$allocator@D@std@@QAEXPAPADAAPAD@Z ; std::allocator<char>::construct<char *,char * &>
PUBLIC	??$destroy@PAD@?$allocator@D@std@@QAEXPAPAD@Z	; std::allocator<char>::destroy<char *>
PUBLIC	??$destroy@V?$basic_string@DU?$char_traits@D@std@@V?$allocator@D@2@@std@@@?$_Wrap_alloc@V?$allocator@V?$basic_string@DU?$char_traits@D@std@@V?$allocator@D@2@@std@@@std@@@std@@QAEXPAV?$basic_string@DU?$char_traits@D@std@@V?$allocator@D@2@@1@@Z ; std::_Wrap_alloc<std::allocator<std::basic_string<char,std::char_traits<char>,std::allocator<char> > > >::destroy<std::basic_string<char,std::char_traits<char>,std::allocator<char> > >
PUBLIC	??$destroy@USDL_Rect@@@?$_Wrap_alloc@V?$allocator@USDL_Rect@@@std@@@std@@QAEXPAUSDL_Rect@@@Z ; std::_Wrap_alloc<std::allocator<SDL_Rect> >::destroy<SDL_Rect>
PUBLIC	??$_Unchecked@PAUSDL_Rect@@@std@@YAPAUSDL_Rect@@PAU1@@Z ; std::_Unchecked<SDL_Rect *>
PUBLIC	??$_Uninit_move@PAUSDL_Rect@@PAU1@U?$_Wrap_alloc@V?$allocator@USDL_Rect@@@std@@@std@@@std@@YAPAUSDL_Rect@@PAU1@00AAU?$_Wrap_alloc@V?$allocator@USDL_Rect@@@std@@@0@@Z ; std::_Uninit_move<SDL_Rect *,SDL_Rect *,std::_Wrap_alloc<std::allocator<SDL_Rect> > >
PUBLIC	??$_Rechecked@PAUSDL_Rect@@PAU1@@std@@YAAAPAUSDL_Rect@@AAPAU1@PAU1@@Z ; std::_Rechecked<SDL_Rect *,SDL_Rect *>
PUBLIC	??$destroy@VTile@@@?$_Wrap_alloc@V?$allocator@VTile@@@std@@@std@@QAEXPAVTile@@@Z ; std::_Wrap_alloc<std::allocator<Tile> >::destroy<Tile>
PUBLIC	??$_Unchecked@PAVTile@@@std@@YAPAVTile@@PAV1@@Z	; std::_Unchecked<Tile *>
PUBLIC	??$_Uninit_move@PAVTile@@PAV1@U?$_Wrap_alloc@V?$allocator@VTile@@@std@@@std@@@std@@YAPAVTile@@PAV1@00AAU?$_Wrap_alloc@V?$allocator@VTile@@@std@@@0@@Z ; std::_Uninit_move<Tile *,Tile *,std::_Wrap_alloc<std::allocator<Tile> > >
PUBLIC	??$_Rechecked@PAVTile@@PAV1@@std@@YAAAPAVTile@@AAPAV1@PAV1@@Z ; std::_Rechecked<Tile *,Tile *>
PUBLIC	??$destroy@UTileSet@@@?$_Wrap_alloc@V?$allocator@UTileSet@@@std@@@std@@QAEXPAUTileSet@@@Z ; std::_Wrap_alloc<std::allocator<TileSet> >::destroy<TileSet>
PUBLIC	??$_Unchecked@PAUTileSet@@@std@@YAPAUTileSet@@PAU1@@Z ; std::_Unchecked<TileSet *>
PUBLIC	??$_Uninit_move@PAUTileSet@@PAU1@U?$_Wrap_alloc@V?$allocator@UTileSet@@@std@@@std@@@std@@YAPAUTileSet@@PAU1@00AAU?$_Wrap_alloc@V?$allocator@UTileSet@@@std@@@0@@Z ; std::_Uninit_move<TileSet *,TileSet *,std::_Wrap_alloc<std::allocator<TileSet> > >
PUBLIC	??$_Rechecked@PAUTileSet@@PAU1@@std@@YAAAPAUTileSet@@AAPAU1@PAU1@@Z ; std::_Rechecked<TileSet *,TileSet *>
PUBLIC	??$destroy@VCaveRectangle@@@?$_Wrap_alloc@V?$allocator@VCaveRectangle@@@std@@@std@@QAEXPAVCaveRectangle@@@Z ; std::_Wrap_alloc<std::allocator<CaveRectangle> >::destroy<CaveRectangle>
PUBLIC	??$_Unchecked@PAVCaveRectangle@@@std@@YAPAVCaveRectangle@@PAV1@@Z ; std::_Unchecked<CaveRectangle *>
PUBLIC	??$_Uninit_move@PAVCaveRectangle@@PAV1@U?$_Wrap_alloc@V?$allocator@VCaveRectangle@@@std@@@std@@@std@@YAPAVCaveRectangle@@PAV1@00AAU?$_Wrap_alloc@V?$allocator@VCaveRectangle@@@std@@@0@@Z ; std::_Uninit_move<CaveRectangle *,CaveRectangle *,std::_Wrap_alloc<std::allocator<CaveRectangle> > >
PUBLIC	??$_Rechecked@PAVCaveRectangle@@PAV1@@std@@YAAAPAVCaveRectangle@@AAPAV1@PAV1@@Z ; std::_Rechecked<CaveRectangle *,CaveRectangle *>
PUBLIC	??$destroy@VCaveSlope@@@?$_Wrap_alloc@V?$allocator@VCaveSlope@@@std@@@std@@QAEXPAVCaveSlope@@@Z ; std::_Wrap_alloc<std::allocator<CaveSlope> >::destroy<CaveSlope>
PUBLIC	??$_Unchecked@PAVCaveSlope@@@std@@YAPAVCaveSlope@@PAV1@@Z ; std::_Unchecked<CaveSlope *>
PUBLIC	??$_Uninit_move@PAVCaveSlope@@PAV1@U?$_Wrap_alloc@V?$allocator@VCaveSlope@@@std@@@std@@@std@@YAPAVCaveSlope@@PAV1@00AAU?$_Wrap_alloc@V?$allocator@VCaveSlope@@@std@@@0@@Z ; std::_Uninit_move<CaveSlope *,CaveSlope *,std::_Wrap_alloc<std::allocator<CaveSlope> > >
PUBLIC	??$_Rechecked@PAVCaveSlope@@PAV1@@std@@YAAAPAVCaveSlope@@AAPAV1@PAV1@@Z ; std::_Rechecked<CaveSlope *,CaveSlope *>
PUBLIC	??$_Unchecked@PAV?$basic_string@DU?$char_traits@D@std@@V?$allocator@D@2@@std@@@std@@YAPAV?$basic_string@DU?$char_traits@D@std@@V?$allocator@D@2@@0@PAV10@@Z ; std::_Unchecked<std::basic_string<char,std::char_traits<char>,std::allocator<char> > *>
PUBLIC	??$_Uninit_move@PAV?$basic_string@DU?$char_traits@D@std@@V?$allocator@D@2@@std@@PAV12@U?$_Wrap_alloc@V?$allocator@V?$basic_string@DU?$char_traits@D@std@@V?$allocator@D@2@@std@@@std@@@2@@std@@YAPAV?$basic_string@DU?$char_traits@D@std@@V?$allocator@D@2@@0@PAV10@00AAU?$_Wrap_alloc@V?$allocator@V?$basic_string@DU?$char_traits@D@std@@V?$allocator@D@2@@std@@@std@@@0@@Z ; std::_Uninit_move<std::basic_string<char,std::char_traits<char>,std::allocator<char> > *,std::basic_string<char,std::char_traits<char>,std::allocator<char> > *,std::_Wrap_alloc<std::allocator<std::basic_string<char,std::char_traits<char>,std::allocator<char> > > > >
PUBLIC	??$_Rechecked@PAV?$basic_string@DU?$char_traits@D@std@@V?$allocator@D@2@@std@@PAV12@@std@@YAAAPAV?$basic_string@DU?$char_traits@D@std@@V?$allocator@D@2@@0@AAPAV10@PAV10@@Z ; std::_Rechecked<std::basic_string<char,std::char_traits<char>,std::allocator<char> > *,std::basic_string<char,std::char_traits<char>,std::allocator<char> > *>
PUBLIC	??$destroy@UVector2@@@?$_Wrap_alloc@V?$allocator@UVector2@@@std@@@std@@QAEXPAUVector2@@@Z ; std::_Wrap_alloc<std::allocator<Vector2> >::destroy<Vector2>
PUBLIC	??$_Unchecked@PAUVector2@@@std@@YAPAUVector2@@PAU1@@Z ; std::_Unchecked<Vector2 *>
PUBLIC	??$_Uninit_move@PAUVector2@@PAU1@U?$_Wrap_alloc@V?$allocator@UVector2@@@std@@@std@@@std@@YAPAUVector2@@PAU1@00AAU?$_Wrap_alloc@V?$allocator@UVector2@@@std@@@0@@Z ; std::_Uninit_move<Vector2 *,Vector2 *,std::_Wrap_alloc<std::allocator<Vector2> > >
PUBLIC	??$_Rechecked@PAUVector2@@PAU1@@std@@YAAAPAUVector2@@AAPAU1@PAU1@@Z ; std::_Rechecked<Vector2 *,Vector2 *>
PUBLIC	??$?RABHABH@?$less@X@std@@QBE_NABH0@Z		; std::less<void>::operator()<int const &,int const &>
PUBLIC	??$destroy@V?$basic_string@DU?$char_traits@D@std@@V?$allocator@D@2@@std@@@?$allocator_traits@V?$allocator@V?$basic_string@DU?$char_traits@D@std@@V?$allocator@D@2@@std@@@std@@@std@@SAXAAV?$allocator@V?$basic_string@DU?$char_traits@D@std@@V?$allocator@D@2@@std@@@1@PAV?$basic_string@DU?$char_traits@D@std@@V?$allocator@D@2@@1@@Z ; std::allocator_traits<std::allocator<std::basic_string<char,std::char_traits<char>,std::allocator<char> > > >::destroy<std::basic_string<char,std::char_traits<char>,std::allocator<char> > >
PUBLIC	??$destroy@USDL_Rect@@@?$allocator_traits@V?$allocator@USDL_Rect@@@std@@@std@@SAXAAV?$allocator@USDL_Rect@@@1@PAUSDL_Rect@@@Z ; std::allocator_traits<std::allocator<SDL_Rect> >::destroy<SDL_Rect>
PUBLIC	??$_Val_type@PAUSDL_Rect@@@std@@YAPAUSDL_Rect@@PAU1@@Z ; std::_Val_type<SDL_Rect *>
PUBLIC	??$_Uninit_move@PAUSDL_Rect@@PAU1@V?$allocator@USDL_Rect@@@std@@U1@@std@@YAPAUSDL_Rect@@PAU1@00AAU?$_Wrap_alloc@V?$allocator@USDL_Rect@@@std@@@0@0U_Nonscalar_ptr_iterator_tag@0@@Z ; std::_Uninit_move<SDL_Rect *,SDL_Rect *,std::allocator<SDL_Rect>,SDL_Rect>
PUBLIC	??$destroy@VTile@@@?$allocator_traits@V?$allocator@VTile@@@std@@@std@@SAXAAV?$allocator@VTile@@@1@PAVTile@@@Z ; std::allocator_traits<std::allocator<Tile> >::destroy<Tile>
PUBLIC	??$_Val_type@PAVTile@@@std@@YAPAVTile@@PAV1@@Z	; std::_Val_type<Tile *>
PUBLIC	??$_Uninit_move@PAVTile@@PAV1@V?$allocator@VTile@@@std@@V1@@std@@YAPAVTile@@PAV1@00AAU?$_Wrap_alloc@V?$allocator@VTile@@@std@@@0@0U_Nonscalar_ptr_iterator_tag@0@@Z ; std::_Uninit_move<Tile *,Tile *,std::allocator<Tile>,Tile>
PUBLIC	??$destroy@UTileSet@@@?$allocator_traits@V?$allocator@UTileSet@@@std@@@std@@SAXAAV?$allocator@UTileSet@@@1@PAUTileSet@@@Z ; std::allocator_traits<std::allocator<TileSet> >::destroy<TileSet>
PUBLIC	??$_Val_type@PAUTileSet@@@std@@YAPAUTileSet@@PAU1@@Z ; std::_Val_type<TileSet *>
PUBLIC	??$_Uninit_move@PAUTileSet@@PAU1@V?$allocator@UTileSet@@@std@@U1@@std@@YAPAUTileSet@@PAU1@00AAU?$_Wrap_alloc@V?$allocator@UTileSet@@@std@@@0@0U_Nonscalar_ptr_iterator_tag@0@@Z ; std::_Uninit_move<TileSet *,TileSet *,std::allocator<TileSet>,TileSet>
PUBLIC	??$destroy@VCaveRectangle@@@?$allocator_traits@V?$allocator@VCaveRectangle@@@std@@@std@@SAXAAV?$allocator@VCaveRectangle@@@1@PAVCaveRectangle@@@Z ; std::allocator_traits<std::allocator<CaveRectangle> >::destroy<CaveRectangle>
PUBLIC	??$_Val_type@PAVCaveRectangle@@@std@@YAPAVCaveRectangle@@PAV1@@Z ; std::_Val_type<CaveRectangle *>
PUBLIC	??$_Uninit_move@PAVCaveRectangle@@PAV1@V?$allocator@VCaveRectangle@@@std@@V1@@std@@YAPAVCaveRectangle@@PAV1@00AAU?$_Wrap_alloc@V?$allocator@VCaveRectangle@@@std@@@0@0U_Nonscalar_ptr_iterator_tag@0@@Z ; std::_Uninit_move<CaveRectangle *,CaveRectangle *,std::allocator<CaveRectangle>,CaveRectangle>
PUBLIC	??$destroy@VCaveSlope@@@?$allocator_traits@V?$allocator@VCaveSlope@@@std@@@std@@SAXAAV?$allocator@VCaveSlope@@@1@PAVCaveSlope@@@Z ; std::allocator_traits<std::allocator<CaveSlope> >::destroy<CaveSlope>
PUBLIC	??$_Val_type@PAVCaveSlope@@@std@@YAPAVCaveSlope@@PAV1@@Z ; std::_Val_type<CaveSlope *>
PUBLIC	??$_Uninit_move@PAVCaveSlope@@PAV1@V?$allocator@VCaveSlope@@@std@@V1@@std@@YAPAVCaveSlope@@PAV1@00AAU?$_Wrap_alloc@V?$allocator@VCaveSlope@@@std@@@0@0U_Nonscalar_ptr_iterator_tag@0@@Z ; std::_Uninit_move<CaveSlope *,CaveSlope *,std::allocator<CaveSlope>,CaveSlope>
PUBLIC	??$_Val_type@PAV?$basic_string@DU?$char_traits@D@std@@V?$allocator@D@2@@std@@@std@@YAPAV?$basic_string@DU?$char_traits@D@std@@V?$allocator@D@2@@0@PAV10@@Z ; std::_Val_type<std::basic_string<char,std::char_traits<char>,std::allocator<char> > *>
PUBLIC	??$_Uninit_move@PAV?$basic_string@DU?$char_traits@D@std@@V?$allocator@D@2@@std@@PAV12@V?$allocator@V?$basic_string@DU?$char_traits@D@std@@V?$allocator@D@2@@std@@@2@V12@@std@@YAPAV?$basic_string@DU?$char_traits@D@std@@V?$allocator@D@2@@0@PAV10@00AAU?$_Wrap_alloc@V?$allocator@V?$basic_string@DU?$char_traits@D@std@@V?$allocator@D@2@@std@@@std@@@0@0U_Nonscalar_ptr_iterator_tag@0@@Z ; std::_Uninit_move<std::basic_string<char,std::char_traits<char>,std::allocator<char> > *,std::basic_string<char,std::char_traits<char>,std::allocator<char> > *,std::allocator<std::basic_string<char,std::char_traits<char>,std::allocator<char> > >,std::basic_string<char,std::char_traits<char>,std::allocator<char> > >
PUBLIC	??$destroy@UVector2@@@?$allocator_traits@V?$allocator@UVector2@@@std@@@std@@SAXAAV?$allocator@UVector2@@@1@PAUVector2@@@Z ; std::allocator_traits<std::allocator<Vector2> >::destroy<Vector2>
PUBLIC	??$_Val_type@PAUVector2@@@std@@YAPAUVector2@@PAU1@@Z ; std::_Val_type<Vector2 *>
PUBLIC	??$_Uninit_move@PAUVector2@@PAU1@V?$allocator@UVector2@@@std@@U1@@std@@YAPAUVector2@@PAU1@00AAU?$_Wrap_alloc@V?$allocator@UVector2@@@std@@@0@0U_Nonscalar_ptr_iterator_tag@0@@Z ; std::_Uninit_move<Vector2 *,Vector2 *,std::allocator<Vector2>,Vector2>
PUBLIC	??$destroy@V?$basic_string@DU?$char_traits@D@std@@V?$allocator@D@2@@std@@@?$allocator@V?$basic_string@DU?$char_traits@D@std@@V?$allocator@D@2@@std@@@std@@QAEXPAV?$basic_string@DU?$char_traits@D@std@@V?$allocator@D@2@@1@@Z ; std::allocator<std::basic_string<char,std::char_traits<char>,std::allocator<char> > >::destroy<std::basic_string<char,std::char_traits<char>,std::allocator<char> > >
PUBLIC	??$destroy@USDL_Rect@@@?$allocator@USDL_Rect@@@std@@QAEXPAUSDL_Rect@@@Z ; std::allocator<SDL_Rect>::destroy<SDL_Rect>
PUBLIC	??$_Debug_range@PAUSDL_Rect@@@std@@YAXPAUSDL_Rect@@0PB_WI@Z ; std::_Debug_range<SDL_Rect *>
PUBLIC	??$_Debug_pointer@USDL_Rect@@@std@@YAXPAUSDL_Rect@@PB_WI@Z ; std::_Debug_pointer<SDL_Rect>
PUBLIC	??$construct@USDL_Rect@@U1@@?$_Wrap_alloc@V?$allocator@USDL_Rect@@@std@@@std@@QAEXPAUSDL_Rect@@$$QAU2@@Z ; std::_Wrap_alloc<std::allocator<SDL_Rect> >::construct<SDL_Rect,SDL_Rect>
PUBLIC	??$destroy@VTile@@@?$allocator@VTile@@@std@@QAEXPAVTile@@@Z ; std::allocator<Tile>::destroy<Tile>
PUBLIC	??$_Debug_range@PAVTile@@@std@@YAXPAVTile@@0PB_WI@Z ; std::_Debug_range<Tile *>
PUBLIC	??$_Debug_pointer@VTile@@@std@@YAXPAVTile@@PB_WI@Z ; std::_Debug_pointer<Tile>
PUBLIC	??$construct@VTile@@V1@@?$_Wrap_alloc@V?$allocator@VTile@@@std@@@std@@QAEXPAVTile@@$$QAV2@@Z ; std::_Wrap_alloc<std::allocator<Tile> >::construct<Tile,Tile>
PUBLIC	??$destroy@UTileSet@@@?$allocator@UTileSet@@@std@@QAEXPAUTileSet@@@Z ; std::allocator<TileSet>::destroy<TileSet>
PUBLIC	??$_Debug_range@PAUTileSet@@@std@@YAXPAUTileSet@@0PB_WI@Z ; std::_Debug_range<TileSet *>
PUBLIC	??$_Debug_pointer@UTileSet@@@std@@YAXPAUTileSet@@PB_WI@Z ; std::_Debug_pointer<TileSet>
PUBLIC	??$destroy@VCaveRectangle@@@?$allocator@VCaveRectangle@@@std@@QAEXPAVCaveRectangle@@@Z ; std::allocator<CaveRectangle>::destroy<CaveRectangle>
PUBLIC	??$_Debug_range@PAVCaveRectangle@@@std@@YAXPAVCaveRectangle@@0PB_WI@Z ; std::_Debug_range<CaveRectangle *>
PUBLIC	??$_Debug_pointer@VCaveRectangle@@@std@@YAXPAVCaveRectangle@@PB_WI@Z ; std::_Debug_pointer<CaveRectangle>
PUBLIC	??$destroy@VCaveSlope@@@?$allocator@VCaveSlope@@@std@@QAEXPAVCaveSlope@@@Z ; std::allocator<CaveSlope>::destroy<CaveSlope>
PUBLIC	??$_Debug_range@PAVCaveSlope@@@std@@YAXPAVCaveSlope@@0PB_WI@Z ; std::_Debug_range<CaveSlope *>
PUBLIC	??$_Debug_pointer@VCaveSlope@@@std@@YAXPAVCaveSlope@@PB_WI@Z ; std::_Debug_pointer<CaveSlope>
PUBLIC	??$_Debug_range@PAV?$basic_string@DU?$char_traits@D@std@@V?$allocator@D@2@@std@@@std@@YAXPAV?$basic_string@DU?$char_traits@D@std@@V?$allocator@D@2@@0@0PB_WI@Z ; std::_Debug_range<std::basic_string<char,std::char_traits<char>,std::allocator<char> > *>
PUBLIC	??$_Debug_pointer@V?$basic_string@DU?$char_traits@D@std@@V?$allocator@D@2@@std@@@std@@YAXPAV?$basic_string@DU?$char_traits@D@std@@V?$allocator@D@2@@0@PB_WI@Z ; std::_Debug_pointer<std::basic_string<char,std::char_traits<char>,std::allocator<char> > >
PUBLIC	??$destroy@UVector2@@@?$allocator@UVector2@@@std@@QAEXPAUVector2@@@Z ; std::allocator<Vector2>::destroy<Vector2>
PUBLIC	??$_Debug_range@PAUVector2@@@std@@YAXPAUVector2@@0PB_WI@Z ; std::_Debug_range<Vector2 *>
PUBLIC	??$_Debug_pointer@UVector2@@@std@@YAXPAUVector2@@PB_WI@Z ; std::_Debug_pointer<Vector2>
PUBLIC	??$_Iter_cat@PAUSDL_Rect@@@std@@YA?AUrandom_access_iterator_tag@0@ABQAUSDL_Rect@@@Z ; std::_Iter_cat<SDL_Rect *>
PUBLIC	??$_Debug_range2@PAUSDL_Rect@@@std@@YAXPAUSDL_Rect@@0PB_WIUrandom_access_iterator_tag@0@@Z ; std::_Debug_range2<SDL_Rect *>
PUBLIC	??$forward@USDL_Rect@@@std@@YA$$QAUSDL_Rect@@AAU1@@Z ; std::forward<SDL_Rect>
PUBLIC	??$construct@USDL_Rect@@U1@@?$allocator_traits@V?$allocator@USDL_Rect@@@std@@@std@@SAXAAV?$allocator@USDL_Rect@@@1@PAUSDL_Rect@@$$QAU3@@Z ; std::allocator_traits<std::allocator<SDL_Rect> >::construct<SDL_Rect,SDL_Rect>
PUBLIC	??$_Iter_cat@PAVTile@@@std@@YA?AUrandom_access_iterator_tag@0@ABQAVTile@@@Z ; std::_Iter_cat<Tile *>
PUBLIC	??$_Debug_range2@PAVTile@@@std@@YAXPAVTile@@0PB_WIUrandom_access_iterator_tag@0@@Z ; std::_Debug_range2<Tile *>
PUBLIC	??$forward@VTile@@@std@@YA$$QAVTile@@AAV1@@Z	; std::forward<Tile>
PUBLIC	??$construct@VTile@@V1@@?$allocator_traits@V?$allocator@VTile@@@std@@@std@@SAXAAV?$allocator@VTile@@@1@PAVTile@@$$QAV3@@Z ; std::allocator_traits<std::allocator<Tile> >::construct<Tile,Tile>
PUBLIC	??$_Iter_cat@PAUTileSet@@@std@@YA?AUrandom_access_iterator_tag@0@ABQAUTileSet@@@Z ; std::_Iter_cat<TileSet *>
PUBLIC	??$_Debug_range2@PAUTileSet@@@std@@YAXPAUTileSet@@0PB_WIUrandom_access_iterator_tag@0@@Z ; std::_Debug_range2<TileSet *>
PUBLIC	??$_Iter_cat@PAVCaveRectangle@@@std@@YA?AUrandom_access_iterator_tag@0@ABQAVCaveRectangle@@@Z ; std::_Iter_cat<CaveRectangle *>
PUBLIC	??$_Debug_range2@PAVCaveRectangle@@@std@@YAXPAVCaveRectangle@@0PB_WIUrandom_access_iterator_tag@0@@Z ; std::_Debug_range2<CaveRectangle *>
PUBLIC	??$_Iter_cat@PAVCaveSlope@@@std@@YA?AUrandom_access_iterator_tag@0@ABQAVCaveSlope@@@Z ; std::_Iter_cat<CaveSlope *>
PUBLIC	??$_Debug_range2@PAVCaveSlope@@@std@@YAXPAVCaveSlope@@0PB_WIUrandom_access_iterator_tag@0@@Z ; std::_Debug_range2<CaveSlope *>
PUBLIC	??$_Iter_cat@PAV?$basic_string@DU?$char_traits@D@std@@V?$allocator@D@2@@std@@@std@@YA?AUrandom_access_iterator_tag@0@ABQAV?$basic_string@DU?$char_traits@D@std@@V?$allocator@D@2@@0@@Z ; std::_Iter_cat<std::basic_string<char,std::char_traits<char>,std::allocator<char> > *>
PUBLIC	??$_Debug_range2@PAV?$basic_string@DU?$char_traits@D@std@@V?$allocator@D@2@@std@@@std@@YAXPAV?$basic_string@DU?$char_traits@D@std@@V?$allocator@D@2@@0@0PB_WIUrandom_access_iterator_tag@0@@Z ; std::_Debug_range2<std::basic_string<char,std::char_traits<char>,std::allocator<char> > *>
PUBLIC	??$_Iter_cat@PAUVector2@@@std@@YA?AUrandom_access_iterator_tag@0@ABQAUVector2@@@Z ; std::_Iter_cat<Vector2 *>
PUBLIC	??$_Debug_range2@PAUVector2@@@std@@YAXPAUVector2@@0PB_WIUrandom_access_iterator_tag@0@@Z ; std::_Debug_range2<Vector2 *>
PUBLIC	??$construct@USDL_Rect@@U1@@?$allocator@USDL_Rect@@@std@@QAEXPAUSDL_Rect@@$$QAU2@@Z ; std::allocator<SDL_Rect>::construct<SDL_Rect,SDL_Rect>
PUBLIC	??$construct@VTile@@V1@@?$allocator@VTile@@@std@@QAEXPAVTile@@$$QAV2@@Z ; std::allocator<Tile>::construct<Tile,Tile>
PUBLIC	??_E?$basic_stringstream@DU?$char_traits@D@std@@V?$allocator@D@2@@std@@$4PPPPPPPM@A@AEPAXI@Z ; std::basic_stringstream<char,std::char_traits<char>,std::allocator<char> >::`vector deleting destructor'
PUBLIC	?npos@?$basic_string@DU?$char_traits@D@std@@V?$allocator@D@2@@std@@2IB ; std::basic_string<char,std::char_traits<char>,std::allocator<char> >::npos
PUBLIC	??_7error_category@std@@6B@			; std::error_category::`vftable'
PUBLIC	??_7_Generic_error_category@std@@6B@		; std::_Generic_error_category::`vftable'
PUBLIC	??_C@_07DCLBNMLN@generic?$AA@			; `string'
PUBLIC	??_C@_0O@BFJCFAAK@unknown?5error?$AA@		; `string'
PUBLIC	??_7_Iostream_error_category@std@@6B@		; std::_Iostream_error_category::`vftable'
PUBLIC	??_C@_08LLGCOLLL@iostream?$AA@			; `string'
PUBLIC	??_C@_0BG@PADBLCHM@iostream?5stream?5error?$AA@	; `string'
PUBLIC	??_7_System_error_category@std@@6B@		; std::_System_error_category::`vftable'
PUBLIC	??_C@_06FHFOAHML@system?$AA@			; `string'
PUBLIC	?_Generic_object@?$_Error_objects@H@std@@2V_Generic_error_category@2@A ; std::_Error_objects<int>::_Generic_object
PUBLIC	?_Iostream_object@?$_Error_objects@H@std@@2V_Iostream_error_category@2@A ; std::_Error_objects<int>::_Iostream_object
PUBLIC	?_System_object@?$_Error_objects@H@std@@2V_System_error_category@2@A ; std::_Error_objects<int>::_System_object
PUBLIC	??_C@_0BG@HGEDEDEC@invalid?5stoi?5argument?$AA@	; `string'
PUBLIC	??_C@_0BL@MFFNMGGC@stoi?5argument?5out?5of?5range?$AA@ ; `string'
PUBLIC	?id@?$num_put@DV?$back_insert_iterator@V?$basic_string@DU?$char_traits@D@std@@V?$allocator@D@2@@std@@@std@@@std@@2V0locale@2@A ; std::num_put<char,std::back_insert_iterator<std::basic_string<char,std::char_traits<char>,std::allocator<char> > > >::id
PUBLIC	?id@?$num_put@_WV?$back_insert_iterator@V?$basic_string@_WU?$char_traits@_W@std@@V?$allocator@_W@2@@std@@@std@@@std@@2V0locale@2@A ; std::num_put<wchar_t,std::back_insert_iterator<std::basic_string<wchar_t,std::char_traits<wchar_t>,std::allocator<wchar_t> > > >::id
PUBLIC	??_C@_0BP@HNOCAMCO@Content?1Backgrounds?1bkBlue?4png?$AA@ ; `string'
PUBLIC	??_7?$basic_stringbuf@DU?$char_traits@D@std@@V?$allocator@D@2@@std@@6B@ ; std::basic_stringbuf<char,std::char_traits<char>,std::allocator<char> >::`vftable'
PUBLIC	??_7?$basic_stringstream@DU?$char_traits@D@std@@V?$allocator@D@2@@std@@6B@ ; std::basic_stringstream<char,std::char_traits<char>,std::allocator<char> >::`vftable'
PUBLIC	??_8?$basic_stringstream@DU?$char_traits@D@std@@V?$allocator@D@2@@std@@7B?$basic_istream@DU?$char_traits@D@std@@@1@@ ; std::basic_stringstream<char,std::char_traits<char>,std::allocator<char> >::`vbtable'
PUBLIC	??_8?$basic_stringstream@DU?$char_traits@D@std@@V?$allocator@D@2@@std@@7B?$basic_ostream@DU?$char_traits@D@std@@@1@@ ; std::basic_stringstream<char,std::char_traits<char>,std::allocator<char> >::`vbtable'
PUBLIC	??_C@_04EJIAFMB@?4tmx?$AA@			; `string'
PUBLIC	??_C@_0BA@DBLIHGAP@Content?1Levels?1?$AA@	; `string'
PUBLIC	??_C@_03HBNNNHNM@map?$AA@			; `string'
PUBLIC	??_C@_05IGKADHGO@width?$AA@			; `string'
PUBLIC	??_C@_06LNLHEAAG@height?$AA@			; `string'
PUBLIC	??_C@_09IFEADKBA@tilewidth?$AA@			; `string'
PUBLIC	??_C@_0L@KAJPMDA@tileheight?$AA@		; `string'
PUBLIC	??_C@_07POMIDLJN@tileset?$AA@			; `string'
PUBLIC	??_C@_05NGOMGBBD@image?$AA@			; `string'
PUBLIC	??_C@_06OEKOLKIL@source?$AA@			; `string'
PUBLIC	??_C@_08ODFOMBDL@firstgid?$AA@			; `string'
PUBLIC	??_C@_05NAHLDCCJ@layer?$AA@			; `string'
PUBLIC	??_C@_04PJOLNDGD@data?$AA@			; `string'
PUBLIC	??_C@_04CKOGFLMC@tile?$AA@			; `string'
PUBLIC	??_C@_03DONNLBFF@gid?$AA@			; `string'
PUBLIC	??_C@_0M@MIIFFOHH@objectgroup?$AA@		; `string'
PUBLIC	??_C@_04MEMAJGDJ@name?$AA@			; `string'
PUBLIC	??_C@_09EOCCEAAK@Collision?$AA@			; `string'
PUBLIC	??_C@_06IEOJBDIK@object?$AA@			; `string'
PUBLIC	??_C@_01FJMABOPO@x?$AA@				; `string'
PUBLIC	??_C@_01EANLCPLP@y?$AA@				; `string'
PUBLIC	??_C@_05LHNLKOKO@Slope?$AA@			; `string'
PUBLIC	??_C@_08MAIKLLAG@polyline?$AA@			; `string'
PUBLIC	??_C@_06GPGIDCJA@points?$AA@			; `string'
PUBLIC	??_C@_1IO@JLPDPDPD@?$AAc?$AA?3?$AA?2?$AAp?$AAr?$AAo?$AAg?$AAr?$AAa?$AAm?$AA?5?$AAf?$AAi?$AAl?$AAe?$AAs?$AA?5?$AA?$CI?$AAx?$AA8?$AA6?$AA?$CJ?$AA?2?$AAm?$AAi?$AAc?$AAr?$AAo?$AAs?$AAo?$AAf?$AAt@ ; `string'
PUBLIC	??_C@_1IM@COBDDANL@?$AAc?$AA?3?$AA?2?$AAp?$AAr?$AAo?$AAg?$AAr?$AAa?$AAm?$AA?5?$AAf?$AAi?$AAl?$AAe?$AAs?$AA?5?$AA?$CI?$AAx?$AA8?$AA6?$AA?$CJ?$AA?2?$AAm?$AAi?$AAc?$AAr?$AAo?$AAs?$AAo?$AAf?$AAt@ ; `string'
PUBLIC	??_C@_1DM@LHGCHCBA@?$AAv?$AAe?$AAc?$AAt?$AAo?$AAr?$AA?5?$AAs?$AAu?$AAb?$AAs?$AAc?$AAr?$AAi?$AAp?$AAt?$AA?5?$AAo?$AAu?$AAt?$AA?5?$AAo?$AAf?$AA?5?$AAr?$AAa?$AAn?$AAg?$AAe?$AA?$AA@ ; `string'
PUBLIC	??_C@_0CE@OFMIGAMM@Standard?5C?$CL?$CL?5Libraries?5Out?5of?5Ra@ ; `string'
PUBLIC	??_C@_1FG@IBPIFFN@?$AA?$CC?$AAS?$AAt?$AAa?$AAn?$AAd?$AAa?$AAr?$AAd?$AA?5?$AAC?$AA?$CL?$AA?$CL?$AA?5?$AAL?$AAi?$AAb?$AAr?$AAa?$AAr?$AAi?$AAe?$AAs?$AA?5?$AAO?$AAu?$AAt?$AA?5?$AAo?$AAf?$AA?5?$AAR@ ; `string'
PUBLIC	??_C@_15GANGMFKL@?$AA?$CF?$AAs?$AA?$AA@		; `string'
PUBLIC	??_C@_1KC@FFCHHFHE@?$AAs?$AAt?$AAd?$AA?3?$AA?3?$AAv?$AAe?$AAc?$AAt?$AAo?$AAr?$AA?$DM?$AAs?$AAt?$AAr?$AAu?$AAc?$AAt?$AA?5?$AAS?$AAD?$AAL?$AA_?$AAR?$AAe?$AAc?$AAt?$AA?0?$AAc?$AAl?$AAa?$AAs@ ; `string'
PUBLIC	??_C@_1BO@MEPPHOO@?$AA?$CC?$AAo?$AAu?$AAt?$AA?5?$AAo?$AAf?$AA?5?$AAr?$AAa?$AAn?$AAg?$AAe?$AA?$CC?$AA?$AA@ ; `string'
PUBLIC	??_C@_1JO@IKNBIAPH@?$AAs?$AAt?$AAd?$AA?3?$AA?3?$AAv?$AAe?$AAc?$AAt?$AAo?$AAr?$AA?$DM?$AAs?$AAt?$AAr?$AAu?$AAc?$AAt?$AA?5?$AAT?$AAi?$AAl?$AAe?$AAS?$AAe?$AAt?$AA?0?$AAc?$AAl?$AAa?$AAs?$AAs@ ; `string'
PUBLIC	??_C@_1LC@DHGFLIFA@?$AAs?$AAt?$AAd?$AA?3?$AA?3?$AAv?$AAe?$AAc?$AAt?$AAo?$AAr?$AA?$DM?$AAc?$AAl?$AAa?$AAs?$AAs?$AA?5?$AAC?$AAa?$AAv?$AAe?$AAR?$AAe?$AAc?$AAt?$AAa?$AAn?$AAg?$AAl?$AAe?$AA?0@ ; `string'
PUBLIC	??_C@_0BM@NMJKDPPO@invalid?5vector?$DMT?$DO?5subscript?$AA@ ; `string'
PUBLIC	??_C@_0BA@JFNIOLAK@string?5too?5long?$AA@	; `string'
PUBLIC	??_C@_0BI@CFPLBAOH@invalid?5string?5position?$AA@ ; `string'
PUBLIC	??_C@_0BD@OLBABOEK@vector?$DMT?$DO?5too?5long?$AA@ ; `string'
PUBLIC	??_C@_1CK@EOPGIILJ@?$AAi?$AAn?$AAv?$AAa?$AAl?$AAi?$AAd?$AA?5?$AAn?$AAu?$AAl?$AAl?$AA?5?$AAp?$AAo?$AAi?$AAn?$AAt?$AAe?$AAr?$AA?$AA@ ; `string'
PUBLIC	??_C@_1JC@OFJFDCCC@?$AAc?$AA?3?$AA?2?$AAp?$AAr?$AAo?$AAg?$AAr?$AAa?$AAm?$AA?5?$AAf?$AAi?$AAl?$AAe?$AAs?$AA?5?$AA?$CI?$AAx?$AA8?$AA6?$AA?$CJ?$AA?2?$AAm?$AAi?$AAc?$AAr?$AAo?$AAs?$AAo?$AAf?$AAt@ ; `string'
PUBLIC	??_C@_1CO@DGLIKNHI@?$AAi?$AAn?$AAv?$AAa?$AAl?$AAi?$AAd?$AA?5?$AAi?$AAt?$AAe?$AAr?$AAa?$AAt?$AAo?$AAr?$AA?5?$AAr?$AAa?$AAn?$AAg?$AAe?$AA?$AA@ ; `string'
PUBLIC	??_C@_1CE@IGJMOCCK@?$AAi?$AAn?$AAv?$AAa?$AAl?$AAi?$AAd?$AA?5?$AAo?$AAp?$AAe?$AAr?$AAa?$AAt?$AAo?$AAr?$AA?$DM?$AA?$AA@ ; `string'
PUBLIC	??_C@_1IO@HFHPAKCC@?$AAc?$AA?3?$AA?2?$AAp?$AAr?$AAo?$AAg?$AAr?$AAa?$AAm?$AA?5?$AAf?$AAi?$AAl?$AAe?$AAs?$AA?5?$AA?$CI?$AAx?$AA8?$AA6?$AA?$CJ?$AA?2?$AAm?$AAi?$AAc?$AAr?$AAo?$AAs?$AAo?$AAf?$AAt@ ; `string'
PUBLIC	??_R4?$basic_stringbuf@DU?$char_traits@D@std@@V?$allocator@D@2@@std@@6B@ ; std::basic_stringbuf<char,std::char_traits<char>,std::allocator<char> >::`RTTI Complete Object Locator'
PUBLIC	??_R0?AV?$basic_stringbuf@DU?$char_traits@D@std@@V?$allocator@D@2@@std@@@8 ; std::basic_stringbuf<char,std::char_traits<char>,std::allocator<char> > `RTTI Type Descriptor'
PUBLIC	??_R3?$basic_stringbuf@DU?$char_traits@D@std@@V?$allocator@D@2@@std@@8 ; std::basic_stringbuf<char,std::char_traits<char>,std::allocator<char> >::`RTTI Class Hierarchy Descriptor'
PUBLIC	??_R2?$basic_stringbuf@DU?$char_traits@D@std@@V?$allocator@D@2@@std@@8 ; std::basic_stringbuf<char,std::char_traits<char>,std::allocator<char> >::`RTTI Base Class Array'
PUBLIC	??_R1A@?0A@EA@?$basic_stringbuf@DU?$char_traits@D@std@@V?$allocator@D@2@@std@@8 ; std::basic_stringbuf<char,std::char_traits<char>,std::allocator<char> >::`RTTI Base Class Descriptor at (0,-1,0,64)'
PUBLIC	??_R1A@?0A@EA@?$basic_streambuf@DU?$char_traits@D@std@@@std@@8 ; std::basic_streambuf<char,std::char_traits<char> >::`RTTI Base Class Descriptor at (0,-1,0,64)'
PUBLIC	??_R0?AV?$basic_streambuf@DU?$char_traits@D@std@@@std@@@8 ; std::basic_streambuf<char,std::char_traits<char> > `RTTI Type Descriptor'
PUBLIC	??_R3?$basic_streambuf@DU?$char_traits@D@std@@@std@@8 ; std::basic_streambuf<char,std::char_traits<char> >::`RTTI Class Hierarchy Descriptor'
PUBLIC	??_R2?$basic_streambuf@DU?$char_traits@D@std@@@std@@8 ; std::basic_streambuf<char,std::char_traits<char> >::`RTTI Base Class Array'
PUBLIC	??_R4?$basic_stringstream@DU?$char_traits@D@std@@V?$allocator@D@2@@std@@6B@ ; std::basic_stringstream<char,std::char_traits<char>,std::allocator<char> >::`RTTI Complete Object Locator'
PUBLIC	??_R0?AV?$basic_stringstream@DU?$char_traits@D@std@@V?$allocator@D@2@@std@@@8 ; std::basic_stringstream<char,std::char_traits<char>,std::allocator<char> > `RTTI Type Descriptor'
PUBLIC	??_R3?$basic_stringstream@DU?$char_traits@D@std@@V?$allocator@D@2@@std@@8 ; std::basic_stringstream<char,std::char_traits<char>,std::allocator<char> >::`RTTI Class Hierarchy Descriptor'
PUBLIC	??_R2?$basic_stringstream@DU?$char_traits@D@std@@V?$allocator@D@2@@std@@8 ; std::basic_stringstream<char,std::char_traits<char>,std::allocator<char> >::`RTTI Base Class Array'
PUBLIC	??_R1A@?0A@EA@?$basic_stringstream@DU?$char_traits@D@std@@V?$allocator@D@2@@std@@8 ; std::basic_stringstream<char,std::char_traits<char>,std::allocator<char> >::`RTTI Base Class Descriptor at (0,-1,0,64)'
PUBLIC	??_R1A@?0A@EA@?$basic_iostream@DU?$char_traits@D@std@@@std@@8 ; std::basic_iostream<char,std::char_traits<char> >::`RTTI Base Class Descriptor at (0,-1,0,64)'
PUBLIC	??_R0?AV?$basic_iostream@DU?$char_traits@D@std@@@std@@@8 ; std::basic_iostream<char,std::char_traits<char> > `RTTI Type Descriptor'
PUBLIC	??_R3?$basic_iostream@DU?$char_traits@D@std@@@std@@8 ; std::basic_iostream<char,std::char_traits<char> >::`RTTI Class Hierarchy Descriptor'
PUBLIC	??_R2?$basic_iostream@DU?$char_traits@D@std@@@std@@8 ; std::basic_iostream<char,std::char_traits<char> >::`RTTI Base Class Array'
PUBLIC	??_R1A@?0A@EA@?$basic_istream@DU?$char_traits@D@std@@@std@@8 ; std::basic_istream<char,std::char_traits<char> >::`RTTI Base Class Descriptor at (0,-1,0,64)'
PUBLIC	??_R0?AV?$basic_istream@DU?$char_traits@D@std@@@std@@@8 ; std::basic_istream<char,std::char_traits<char> > `RTTI Type Descriptor'
PUBLIC	??_R3?$basic_istream@DU?$char_traits@D@std@@@std@@8 ; std::basic_istream<char,std::char_traits<char> >::`RTTI Class Hierarchy Descriptor'
PUBLIC	??_R2?$basic_istream@DU?$char_traits@D@std@@@std@@8 ; std::basic_istream<char,std::char_traits<char> >::`RTTI Base Class Array'
PUBLIC	??_R1A@A@3FA@?$basic_ios@DU?$char_traits@D@std@@@std@@8 ; std::basic_ios<char,std::char_traits<char> >::`RTTI Base Class Descriptor at (0,0,4,80)'
PUBLIC	??_R0?AV?$basic_ios@DU?$char_traits@D@std@@@std@@@8 ; std::basic_ios<char,std::char_traits<char> > `RTTI Type Descriptor'
PUBLIC	??_R3?$basic_ios@DU?$char_traits@D@std@@@std@@8	; std::basic_ios<char,std::char_traits<char> >::`RTTI Class Hierarchy Descriptor'
PUBLIC	??_R2?$basic_ios@DU?$char_traits@D@std@@@std@@8	; std::basic_ios<char,std::char_traits<char> >::`RTTI Base Class Array'
PUBLIC	??_R1A@?0A@EA@?$basic_ios@DU?$char_traits@D@std@@@std@@8 ; std::basic_ios<char,std::char_traits<char> >::`RTTI Base Class Descriptor at (0,-1,0,64)'
PUBLIC	??_R1A@?0A@EA@ios_base@std@@8			; std::ios_base::`RTTI Base Class Descriptor at (0,-1,0,64)'
PUBLIC	??_R0?AVios_base@std@@@8			; std::ios_base `RTTI Type Descriptor'
PUBLIC	??_R3ios_base@std@@8				; std::ios_base::`RTTI Class Hierarchy Descriptor'
PUBLIC	??_R2ios_base@std@@8				; std::ios_base::`RTTI Base Class Array'
PUBLIC	??_R17?0A@EA@?$_Iosb@H@std@@8			; std::_Iosb<int>::`RTTI Base Class Descriptor at (8,-1,0,64)'
PUBLIC	??_R0?AV?$_Iosb@H@std@@@8			; std::_Iosb<int> `RTTI Type Descriptor'
PUBLIC	??_R3?$_Iosb@H@std@@8				; std::_Iosb<int>::`RTTI Class Hierarchy Descriptor'
PUBLIC	??_R2?$_Iosb@H@std@@8				; std::_Iosb<int>::`RTTI Base Class Array'
PUBLIC	??_R1A@?0A@EA@?$_Iosb@H@std@@8			; std::_Iosb<int>::`RTTI Base Class Descriptor at (0,-1,0,64)'
PUBLIC	??_R1A@A@3EA@ios_base@std@@8			; std::ios_base::`RTTI Base Class Descriptor at (0,0,4,64)'
PUBLIC	??_R17A@3EA@?$_Iosb@H@std@@8			; std::_Iosb<int>::`RTTI Base Class Descriptor at (8,0,4,64)'
PUBLIC	??_R1BA@?0A@EA@?$basic_ostream@DU?$char_traits@D@std@@@std@@8 ; std::basic_ostream<char,std::char_traits<char> >::`RTTI Base Class Descriptor at (16,-1,0,64)'
PUBLIC	??_R0?AV?$basic_ostream@DU?$char_traits@D@std@@@std@@@8 ; std::basic_ostream<char,std::char_traits<char> > `RTTI Type Descriptor'
PUBLIC	??_R3?$basic_ostream@DU?$char_traits@D@std@@@std@@8 ; std::basic_ostream<char,std::char_traits<char> >::`RTTI Class Hierarchy Descriptor'
PUBLIC	??_R2?$basic_ostream@DU?$char_traits@D@std@@@std@@8 ; std::basic_ostream<char,std::char_traits<char> >::`RTTI Base Class Array'
PUBLIC	??_R1A@?0A@EA@?$basic_ostream@DU?$char_traits@D@std@@@std@@8 ; std::basic_ostream<char,std::char_traits<char> >::`RTTI Base Class Descriptor at (0,-1,0,64)'
PUBLIC	??_R4error_category@std@@6B@			; std::error_category::`RTTI Complete Object Locator'
PUBLIC	??_R0?AVerror_category@std@@@8			; std::error_category `RTTI Type Descriptor'
PUBLIC	??_R3error_category@std@@8			; std::error_category::`RTTI Class Hierarchy Descriptor'
PUBLIC	??_R2error_category@std@@8			; std::error_category::`RTTI Base Class Array'
PUBLIC	??_R1A@?0A@EA@error_category@std@@8		; std::error_category::`RTTI Base Class Descriptor at (0,-1,0,64)'
PUBLIC	??_R4_Generic_error_category@std@@6B@		; std::_Generic_error_category::`RTTI Complete Object Locator'
PUBLIC	??_R0?AV_Generic_error_category@std@@@8		; std::_Generic_error_category `RTTI Type Descriptor'
PUBLIC	??_R3_Generic_error_category@std@@8		; std::_Generic_error_category::`RTTI Class Hierarchy Descriptor'
PUBLIC	??_R2_Generic_error_category@std@@8		; std::_Generic_error_category::`RTTI Base Class Array'
PUBLIC	??_R1A@?0A@EA@_Generic_error_category@std@@8	; std::_Generic_error_category::`RTTI Base Class Descriptor at (0,-1,0,64)'
PUBLIC	??_R4_Iostream_error_category@std@@6B@		; std::_Iostream_error_category::`RTTI Complete Object Locator'
PUBLIC	??_R0?AV_Iostream_error_category@std@@@8	; std::_Iostream_error_category `RTTI Type Descriptor'
PUBLIC	??_R3_Iostream_error_category@std@@8		; std::_Iostream_error_category::`RTTI Class Hierarchy Descriptor'
PUBLIC	??_R2_Iostream_error_category@std@@8		; std::_Iostream_error_category::`RTTI Base Class Array'
PUBLIC	??_R1A@?0A@EA@_Iostream_error_category@std@@8	; std::_Iostream_error_category::`RTTI Base Class Descriptor at (0,-1,0,64)'
PUBLIC	??_R4_System_error_category@std@@6B@		; std::_System_error_category::`RTTI Complete Object Locator'
PUBLIC	??_R0?AV_System_error_category@std@@@8		; std::_System_error_category `RTTI Type Descriptor'
PUBLIC	??_R3_System_error_category@std@@8		; std::_System_error_category::`RTTI Class Hierarchy Descriptor'
PUBLIC	??_R2_System_error_category@std@@8		; std::_System_error_category::`RTTI Base Class Array'
PUBLIC	??_R1A@?0A@EA@_System_error_category@std@@8	; std::_System_error_category::`RTTI Base Class Descriptor at (0,-1,0,64)'
PUBLIC	__real@00000000
PUBLIC	__real@42800000
EXTRN	__purecall:PROC
EXTRN	??2@YAPAXI@Z:PROC				; operator new
EXTRN	??3@YAXPAX@Z:PROC				; operator delete
EXTRN	_atexit:PROC
EXTRN	__imp___invalid_parameter:PROC
EXTRN	__imp___errno:PROC
EXTRN	_SDL_CreateTextureFromSurface:PROC
EXTRN	_SDL_QueryTexture:PROC
EXTRN	__imp_??0_Lockit@std@@QAE@H@Z:PROC
EXTRN	__imp_??1_Lockit@std@@QAE@XZ:PROC
EXTRN	_fabs:PROC
EXTRN	__imp__ceil:PROC
EXTRN	__imp___hypot:PROC
EXTRN	__imp__strtol:PROC
EXTRN	__imp__memchr:PROC
EXTRN	_memcmp:PROC
EXTRN	_memcpy:PROC
EXTRN	_strlen:PROC
EXTRN	__imp__memmove:PROC
EXTRN	__imp_?uncaught_exception@std@@YA_NXZ:PROC
EXTRN	__imp___CrtDbgReportW:PROC
EXTRN	__imp_?_Debug_message@std@@YAXPB_W0I@Z:PROC
EXTRN	__imp_??0_Container_base12@std@@QAE@XZ:PROC
EXTRN	__imp_??1_Container_base12@std@@QAE@XZ:PROC
EXTRN	__imp_?_Getpfirst@_Container_base12@std@@QBEPAPAU_Iterator_base12@2@XZ:PROC
EXTRN	__imp_?_Orphan_all@_Container_base12@std@@QAEXXZ:PROC
EXTRN	__imp_?_Swap_all@_Container_base12@std@@QAEXAAU12@@Z:PROC
EXTRN	__imp_?_Xbad_alloc@std@@YAXXZ:PROC
EXTRN	__imp_?_Xinvalid_argument@std@@YAXPBD@Z:PROC
EXTRN	__imp_?_Xlength_error@std@@YAXPBD@Z:PROC
EXTRN	__imp_?_Xout_of_range@std@@YAXPBD@Z:PROC
EXTRN	__imp_??0id@locale@std@@QAE@I@Z:PROC
EXTRN	??_Eerror_category@std@@UAEPAXI@Z:PROC		; std::error_category::`vector deleting destructor'
EXTRN	__imp_?_Syserror_map@std@@YAPBDH@Z:PROC
EXTRN	__imp_?_Winerror_map@std@@YAPBDH@Z:PROC
EXTRN	??_E_Generic_error_category@std@@UAEPAXI@Z:PROC	; std::_Generic_error_category::`vector deleting destructor'
EXTRN	??_E_Iostream_error_category@std@@UAEPAXI@Z:PROC ; std::_Iostream_error_category::`vector deleting destructor'
EXTRN	??_E_System_error_category@std@@UAEPAXI@Z:PROC	; std::_System_error_category::`vector deleting destructor'
EXTRN	__imp_?good@ios_base@std@@QBE_NXZ:PROC
EXTRN	__imp_?flags@ios_base@std@@QBEHXZ:PROC
EXTRN	__imp_?width@ios_base@std@@QBE_JXZ:PROC
EXTRN	__imp_?width@ios_base@std@@QAE_J_J@Z:PROC
EXTRN	__imp_??0?$basic_streambuf@DU?$char_traits@D@std@@@std@@IAE@XZ:PROC
EXTRN	__imp_??1?$basic_streambuf@DU?$char_traits@D@std@@@std@@UAE@XZ:PROC
EXTRN	__imp_?sputc@?$basic_streambuf@DU?$char_traits@D@std@@@std@@QAEHD@Z:PROC
EXTRN	__imp_?sputn@?$basic_streambuf@DU?$char_traits@D@std@@@std@@QAE_JPBD_J@Z:PROC
EXTRN	__imp_?eback@?$basic_streambuf@DU?$char_traits@D@std@@@std@@IBEPADXZ:PROC
EXTRN	__imp_?gptr@?$basic_streambuf@DU?$char_traits@D@std@@@std@@IBEPADXZ:PROC
EXTRN	__imp_?pbase@?$basic_streambuf@DU?$char_traits@D@std@@@std@@IBEPADXZ:PROC
EXTRN	__imp_?pptr@?$basic_streambuf@DU?$char_traits@D@std@@@std@@IBEPADXZ:PROC
EXTRN	__imp_?egptr@?$basic_streambuf@DU?$char_traits@D@std@@@std@@IBEPADXZ:PROC
EXTRN	__imp_?gbump@?$basic_streambuf@DU?$char_traits@D@std@@@std@@IAEXH@Z:PROC
EXTRN	__imp_?setg@?$basic_streambuf@DU?$char_traits@D@std@@@std@@IAEXPAD00@Z:PROC
EXTRN	__imp_?epptr@?$basic_streambuf@DU?$char_traits@D@std@@@std@@IBEPADXZ:PROC
EXTRN	__imp_?pbump@?$basic_streambuf@DU?$char_traits@D@std@@@std@@IAEXH@Z:PROC
EXTRN	__imp_?setp@?$basic_streambuf@DU?$char_traits@D@std@@@std@@IAEXPAD0@Z:PROC
EXTRN	__imp_?setp@?$basic_streambuf@DU?$char_traits@D@std@@@std@@IAEXPAD00@Z:PROC
EXTRN	__imp_?_Pninc@?$basic_streambuf@DU?$char_traits@D@std@@@std@@IAEPADXZ:PROC
EXTRN	__imp_??1?$basic_ios@DU?$char_traits@D@std@@@std@@UAE@XZ:PROC
EXTRN	__imp_?setstate@?$basic_ios@DU?$char_traits@D@std@@@std@@QAEXH_N@Z:PROC
EXTRN	__imp_?tie@?$basic_ios@DU?$char_traits@D@std@@@std@@QBEPAV?$basic_ostream@DU?$char_traits@D@std@@@2@XZ:PROC
EXTRN	__imp_?rdbuf@?$basic_ios@DU?$char_traits@D@std@@@std@@QBEPAV?$basic_streambuf@DU?$char_traits@D@std@@@2@XZ:PROC
EXTRN	__imp_?fill@?$basic_ios@DU?$char_traits@D@std@@@std@@QBEDXZ:PROC
EXTRN	__imp_??0?$basic_ios@DU?$char_traits@D@std@@@std@@IAE@XZ:PROC
EXTRN	__imp_?_Osfx@?$basic_ostream@DU?$char_traits@D@std@@@std@@QAEXXZ:PROC
EXTRN	__imp_?flush@?$basic_ostream@DU?$char_traits@D@std@@@std@@QAEAAV12@XZ:PROC
EXTRN	__imp_??0?$basic_iostream@DU?$char_traits@D@std@@@std@@QAE@PAV?$basic_streambuf@DU?$char_traits@D@std@@@1@@Z:PROC
EXTRN	__imp_??1?$basic_iostream@DU?$char_traits@D@std@@@std@@UAE@XZ:PROC
EXTRN	?LoadImage@Graphics@@QAEPAUSDL_Surface@@ABV?$basic_string@DU?$char_traits@D@std@@V?$allocator@D@2@@std@@@Z:PROC ; Graphics::LoadImage
EXTRN	?BlitSurface@Graphics@@QAEXPAUSDL_Texture@@PAUSDL_Rect@@1@Z:PROC ; Graphics::BlitSurface
EXTRN	?DrawTexture@Graphics@@QAEXAAVCaveRectangle@@@Z:PROC ; Graphics::DrawTexture
EXTRN	?GetRenderer@Graphics@@QBEPAUSDL_Renderer@@XZ:PROC ; Graphics::GetRenderer
EXTRN	??0Tile@@QAE@PAUSDL_Texture@@UVector2@@11@Z:PROC ; Tile::Tile
EXTRN	?Draw@Tile@@QAEXAAVGraphics@@@Z:PROC		; Tile::Draw
EXTRN	?FirstChildElement@XMLNode@tinyxml2@@QBEPBVXMLElement@2@PBD@Z:PROC ; tinyxml2::XMLNode::FirstChildElement
EXTRN	?NextSiblingElement@XMLNode@tinyxml2@@QBEPBVXMLElement@2@PBD@Z:PROC ; tinyxml2::XMLNode::NextSiblingElement
EXTRN	?QueryIntValue@XMLAttribute@tinyxml2@@QBE?AW4XMLError@2@PAH@Z:PROC ; tinyxml2::XMLAttribute::QueryIntValue
EXTRN	?QueryFloatValue@XMLAttribute@tinyxml2@@QBE?AW4XMLError@2@PAM@Z:PROC ; tinyxml2::XMLAttribute::QueryFloatValue
EXTRN	?Attribute@XMLElement@tinyxml2@@QBEPBDPBD0@Z:PROC ; tinyxml2::XMLElement::Attribute
EXTRN	?FindAttribute@XMLElement@tinyxml2@@QBEPBVXMLAttribute@2@PBD@Z:PROC ; tinyxml2::XMLElement::FindAttribute
EXTRN	??0XMLDocument@tinyxml2@@QAE@_NW4Whitespace@1@@Z:PROC ; tinyxml2::XMLDocument::XMLDocument
EXTRN	??1XMLDocument@tinyxml2@@UAE@XZ:PROC		; tinyxml2::XMLDocument::~XMLDocument
EXTRN	?LoadFile@XMLDocument@tinyxml2@@QAE?AW4XMLError@2@PBD@Z:PROC ; tinyxml2::XMLDocument::LoadFile
EXTRN	??_E?$basic_stringbuf@DU?$char_traits@D@std@@V?$allocator@D@2@@std@@UAEPAXI@Z:PROC ; std::basic_stringbuf<char,std::char_traits<char>,std::allocator<char> >::`vector deleting destructor'
EXTRN	??_E?$basic_stringstream@DU?$char_traits@D@std@@V?$allocator@D@2@@std@@UAEPAXI@Z:PROC ; std::basic_stringstream<char,std::char_traits<char>,std::allocator<char> >::`vector deleting destructor'
EXTRN	?_Lock@?$basic_streambuf@DU?$char_traits@D@std@@@std@@UAEXXZ:PROC ; std::basic_streambuf<char,std::char_traits<char> >::_Lock
EXTRN	?_Unlock@?$basic_streambuf@DU?$char_traits@D@std@@@std@@UAEXXZ:PROC ; std::basic_streambuf<char,std::char_traits<char> >::_Unlock
EXTRN	?imbue@?$basic_streambuf@DU?$char_traits@D@std@@@std@@MAEXABVlocale@2@@Z:PROC ; std::basic_streambuf<char,std::char_traits<char> >::imbue
EXTRN	?setbuf@?$basic_streambuf@DU?$char_traits@D@std@@@std@@MAEPAV12@PAD_J@Z:PROC ; std::basic_streambuf<char,std::char_traits<char> >::setbuf
EXTRN	?showmanyc@?$basic_streambuf@DU?$char_traits@D@std@@@std@@MAE_JXZ:PROC ; std::basic_streambuf<char,std::char_traits<char> >::showmanyc
EXTRN	?sync@?$basic_streambuf@DU?$char_traits@D@std@@@std@@MAEHXZ:PROC ; std::basic_streambuf<char,std::char_traits<char> >::sync
EXTRN	?uflow@?$basic_streambuf@DU?$char_traits@D@std@@@std@@MAEHXZ:PROC ; std::basic_streambuf<char,std::char_traits<char> >::uflow
EXTRN	?xsgetn@?$basic_streambuf@DU?$char_traits@D@std@@@std@@MAE_JPAD_J@Z:PROC ; std::basic_streambuf<char,std::char_traits<char> >::xsgetn
EXTRN	?xsputn@?$basic_streambuf@DU?$char_traits@D@std@@@std@@MAE_JPBD_J@Z:PROC ; std::basic_streambuf<char,std::char_traits<char> >::xsputn
EXTRN	@_RTC_CheckStackVars@8:PROC
EXTRN	@__security_check_cookie@4:PROC
EXTRN	__CxxThrowException@8:PROC
EXTRN	__RTC_CheckEsp:PROC
EXTRN	__RTC_InitBase:PROC
EXTRN	__RTC_Shutdown:PROC
EXTRN	___CxxFrameHandler3:PROC
EXTRN	__ftol2_sse:PROC
EXTRN	_memset:PROC
EXTRN	__imp_?_BADOFF@std@@3_JB:QWORD
EXTRN	??_7type_info@@6B@:QWORD			; type_info::`vftable'
EXTRN	___security_cookie:DWORD
EXTRN	__fltused:DWORD
_BSS	SEGMENT
_piecewise_construct DB 01H DUP (?)
_allocator_arg DB 01H DUP (?)
_BSS	ENDS
;	COMDAT ?_Generic_object@?$_Error_objects@H@std@@2V_Generic_error_category@2@A
_BSS	SEGMENT
?_Generic_object@?$_Error_objects@H@std@@2V_Generic_error_category@2@A DD 01H DUP (?) ; std::_Error_objects<int>::_Generic_object
_BSS	ENDS
;	COMDAT ?_Iostream_object@?$_Error_objects@H@std@@2V_Iostream_error_category@2@A
_BSS	SEGMENT
?_Iostream_object@?$_Error_objects@H@std@@2V_Iostream_error_category@2@A DD 01H DUP (?) ; std::_Error_objects<int>::_Iostream_object
_BSS	ENDS
;	COMDAT ?_System_object@?$_Error_objects@H@std@@2V_System_error_category@2@A
_BSS	SEGMENT
?_System_object@?$_Error_objects@H@std@@2V_System_error_category@2@A DD 01H DUP (?) ; std::_Error_objects<int>::_System_object
_BSS	ENDS
;	COMDAT ?id@?$num_put@DV?$back_insert_iterator@V?$basic_string@DU?$char_traits@D@std@@V?$allocator@D@2@@std@@@std@@@std@@2V0locale@2@A
_BSS	SEGMENT
?id@?$num_put@DV?$back_insert_iterator@V?$basic_string@DU?$char_traits@D@std@@V?$allocator@D@2@@std@@@std@@@std@@2V0locale@2@A DD 01H DUP (?) ; std::num_put<char,std::back_insert_iterator<std::basic_string<char,std::char_traits<char>,std::allocator<char> > > >::id
_BSS	ENDS
;	COMDAT ?id@?$num_put@_WV?$back_insert_iterator@V?$basic_string@_WU?$char_traits@_W@std@@V?$allocator@_W@2@@std@@@std@@@std@@2V0locale@2@A
_BSS	SEGMENT
?id@?$num_put@_WV?$back_insert_iterator@V?$basic_string@_WU?$char_traits@_W@std@@V?$allocator@_W@2@@std@@@std@@@std@@2V0locale@2@A DD 01H DUP (?) ; std::num_put<wchar_t,std::back_insert_iterator<std::basic_string<wchar_t,std::char_traits<wchar_t>,std::allocator<wchar_t> > > >::id
_BSS	ENDS
_BSS	SEGMENT
_ignore	DB	01H DUP (?)
__Tuple_alloc DB 01H DUP (?)
_BSS	ENDS
CRT$XCU	SEGMENT
_piecewise_construct$initializer$ DD FLAT:??__Epiecewise_construct@std@@YAXXZ
CRT$XCU	ENDS
;	COMDAT __real@42800000
CONST	SEGMENT
__real@42800000 DD 042800000r			; 64
CONST	ENDS
;	COMDAT __real@00000000
CONST	SEGMENT
__real@00000000 DD 000000000r			; 0
CONST	ENDS
;	COMDAT rtc$TMZ
rtc$TMZ	SEGMENT
__RTC_Shutdown.rtc$TMZ DD FLAT:__RTC_Shutdown
rtc$TMZ	ENDS
;	COMDAT rtc$IMZ
rtc$IMZ	SEGMENT
__RTC_InitBase.rtc$IMZ DD FLAT:__RTC_InitBase
rtc$IMZ	ENDS
;	COMDAT ??_R1A@?0A@EA@_System_error_category@std@@8
rdata$r	SEGMENT
??_R1A@?0A@EA@_System_error_category@std@@8 DD FLAT:??_R0?AV_System_error_category@std@@@8 ; std::_System_error_category::`RTTI Base Class Descriptor at (0,-1,0,64)'
	DD	02H
	DD	00H
	DD	0ffffffffH
	DD	00H
	DD	040H
	DD	FLAT:??_R3_System_error_category@std@@8
rdata$r	ENDS
;	COMDAT ??_R2_System_error_category@std@@8
rdata$r	SEGMENT
??_R2_System_error_category@std@@8 DD FLAT:??_R1A@?0A@EA@_System_error_category@std@@8 ; std::_System_error_category::`RTTI Base Class Array'
	DD	FLAT:??_R1A@?0A@EA@_Generic_error_category@std@@8
	DD	FLAT:??_R1A@?0A@EA@error_category@std@@8
rdata$r	ENDS
;	COMDAT ??_R3_System_error_category@std@@8
rdata$r	SEGMENT
??_R3_System_error_category@std@@8 DD 00H		; std::_System_error_category::`RTTI Class Hierarchy Descriptor'
	DD	00H
	DD	03H
	DD	FLAT:??_R2_System_error_category@std@@8
rdata$r	ENDS
;	COMDAT ??_R0?AV_System_error_category@std@@@8
data$r	SEGMENT
??_R0?AV_System_error_category@std@@@8 DD FLAT:??_7type_info@@6B@ ; std::_System_error_category `RTTI Type Descriptor'
	DD	00H
	DB	'.?AV_System_error_category@std@@', 00H
data$r	ENDS
;	COMDAT ??_R4_System_error_category@std@@6B@
rdata$r	SEGMENT
??_R4_System_error_category@std@@6B@ DD 00H		; std::_System_error_category::`RTTI Complete Object Locator'
	DD	00H
	DD	00H
	DD	FLAT:??_R0?AV_System_error_category@std@@@8
	DD	FLAT:??_R3_System_error_category@std@@8
rdata$r	ENDS
;	COMDAT ??_R1A@?0A@EA@_Iostream_error_category@std@@8
rdata$r	SEGMENT
??_R1A@?0A@EA@_Iostream_error_category@std@@8 DD FLAT:??_R0?AV_Iostream_error_category@std@@@8 ; std::_Iostream_error_category::`RTTI Base Class Descriptor at (0,-1,0,64)'
	DD	02H
	DD	00H
	DD	0ffffffffH
	DD	00H
	DD	040H
	DD	FLAT:??_R3_Iostream_error_category@std@@8
rdata$r	ENDS
;	COMDAT ??_R2_Iostream_error_category@std@@8
rdata$r	SEGMENT
??_R2_Iostream_error_category@std@@8 DD FLAT:??_R1A@?0A@EA@_Iostream_error_category@std@@8 ; std::_Iostream_error_category::`RTTI Base Class Array'
	DD	FLAT:??_R1A@?0A@EA@_Generic_error_category@std@@8
	DD	FLAT:??_R1A@?0A@EA@error_category@std@@8
rdata$r	ENDS
;	COMDAT ??_R3_Iostream_error_category@std@@8
rdata$r	SEGMENT
??_R3_Iostream_error_category@std@@8 DD 00H		; std::_Iostream_error_category::`RTTI Class Hierarchy Descriptor'
	DD	00H
	DD	03H
	DD	FLAT:??_R2_Iostream_error_category@std@@8
rdata$r	ENDS
;	COMDAT ??_R0?AV_Iostream_error_category@std@@@8
data$r	SEGMENT
??_R0?AV_Iostream_error_category@std@@@8 DD FLAT:??_7type_info@@6B@ ; std::_Iostream_error_category `RTTI Type Descriptor'
	DD	00H
	DB	'.?AV_Iostream_error_category@std@@', 00H
data$r	ENDS
;	COMDAT ??_R4_Iostream_error_category@std@@6B@
rdata$r	SEGMENT
??_R4_Iostream_error_category@std@@6B@ DD 00H		; std::_Iostream_error_category::`RTTI Complete Object Locator'
	DD	00H
	DD	00H
	DD	FLAT:??_R0?AV_Iostream_error_category@std@@@8
	DD	FLAT:??_R3_Iostream_error_category@std@@8
rdata$r	ENDS
;	COMDAT ??_R1A@?0A@EA@_Generic_error_category@std@@8
rdata$r	SEGMENT
??_R1A@?0A@EA@_Generic_error_category@std@@8 DD FLAT:??_R0?AV_Generic_error_category@std@@@8 ; std::_Generic_error_category::`RTTI Base Class Descriptor at (0,-1,0,64)'
	DD	01H
	DD	00H
	DD	0ffffffffH
	DD	00H
	DD	040H
	DD	FLAT:??_R3_Generic_error_category@std@@8
rdata$r	ENDS
;	COMDAT ??_R2_Generic_error_category@std@@8
rdata$r	SEGMENT
??_R2_Generic_error_category@std@@8 DD FLAT:??_R1A@?0A@EA@_Generic_error_category@std@@8 ; std::_Generic_error_category::`RTTI Base Class Array'
	DD	FLAT:??_R1A@?0A@EA@error_category@std@@8
rdata$r	ENDS
;	COMDAT ??_R3_Generic_error_category@std@@8
rdata$r	SEGMENT
??_R3_Generic_error_category@std@@8 DD 00H		; std::_Generic_error_category::`RTTI Class Hierarchy Descriptor'
	DD	00H
	DD	02H
	DD	FLAT:??_R2_Generic_error_category@std@@8
rdata$r	ENDS
;	COMDAT ??_R0?AV_Generic_error_category@std@@@8
data$r	SEGMENT
??_R0?AV_Generic_error_category@std@@@8 DD FLAT:??_7type_info@@6B@ ; std::_Generic_error_category `RTTI Type Descriptor'
	DD	00H
	DB	'.?AV_Generic_error_category@std@@', 00H
data$r	ENDS
;	COMDAT ??_R4_Generic_error_category@std@@6B@
rdata$r	SEGMENT
??_R4_Generic_error_category@std@@6B@ DD 00H		; std::_Generic_error_category::`RTTI Complete Object Locator'
	DD	00H
	DD	00H
	DD	FLAT:??_R0?AV_Generic_error_category@std@@@8
	DD	FLAT:??_R3_Generic_error_category@std@@8
rdata$r	ENDS
;	COMDAT ??_R1A@?0A@EA@error_category@std@@8
rdata$r	SEGMENT
??_R1A@?0A@EA@error_category@std@@8 DD FLAT:??_R0?AVerror_category@std@@@8 ; std::error_category::`RTTI Base Class Descriptor at (0,-1,0,64)'
	DD	00H
	DD	00H
	DD	0ffffffffH
	DD	00H
	DD	040H
	DD	FLAT:??_R3error_category@std@@8
rdata$r	ENDS
;	COMDAT ??_R2error_category@std@@8
rdata$r	SEGMENT
??_R2error_category@std@@8 DD FLAT:??_R1A@?0A@EA@error_category@std@@8 ; std::error_category::`RTTI Base Class Array'
rdata$r	ENDS
;	COMDAT ??_R3error_category@std@@8
rdata$r	SEGMENT
??_R3error_category@std@@8 DD 00H			; std::error_category::`RTTI Class Hierarchy Descriptor'
	DD	00H
	DD	01H
	DD	FLAT:??_R2error_category@std@@8
rdata$r	ENDS
;	COMDAT ??_R0?AVerror_category@std@@@8
data$r	SEGMENT
??_R0?AVerror_category@std@@@8 DD FLAT:??_7type_info@@6B@ ; std::error_category `RTTI Type Descriptor'
	DD	00H
	DB	'.?AVerror_category@std@@', 00H
data$r	ENDS
;	COMDAT ??_R4error_category@std@@6B@
rdata$r	SEGMENT
??_R4error_category@std@@6B@ DD 00H			; std::error_category::`RTTI Complete Object Locator'
	DD	00H
	DD	00H
	DD	FLAT:??_R0?AVerror_category@std@@@8
	DD	FLAT:??_R3error_category@std@@8
rdata$r	ENDS
;	COMDAT ??_R1A@?0A@EA@?$basic_ostream@DU?$char_traits@D@std@@@std@@8
rdata$r	SEGMENT
??_R1A@?0A@EA@?$basic_ostream@DU?$char_traits@D@std@@@std@@8 DD FLAT:??_R0?AV?$basic_ostream@DU?$char_traits@D@std@@@std@@@8 ; std::basic_ostream<char,std::char_traits<char> >::`RTTI Base Class Descriptor at (0,-1,0,64)'
	DD	03H
	DD	00H
	DD	0ffffffffH
	DD	00H
	DD	040H
	DD	FLAT:??_R3?$basic_ostream@DU?$char_traits@D@std@@@std@@8
rdata$r	ENDS
;	COMDAT ??_R2?$basic_ostream@DU?$char_traits@D@std@@@std@@8
rdata$r	SEGMENT
??_R2?$basic_ostream@DU?$char_traits@D@std@@@std@@8 DD FLAT:??_R1A@?0A@EA@?$basic_ostream@DU?$char_traits@D@std@@@std@@8 ; std::basic_ostream<char,std::char_traits<char> >::`RTTI Base Class Array'
	DD	FLAT:??_R1A@A@3FA@?$basic_ios@DU?$char_traits@D@std@@@std@@8
	DD	FLAT:??_R1A@A@3EA@ios_base@std@@8
	DD	FLAT:??_R17A@3EA@?$_Iosb@H@std@@8
rdata$r	ENDS
;	COMDAT ??_R3?$basic_ostream@DU?$char_traits@D@std@@@std@@8
rdata$r	SEGMENT
??_R3?$basic_ostream@DU?$char_traits@D@std@@@std@@8 DD 00H ; std::basic_ostream<char,std::char_traits<char> >::`RTTI Class Hierarchy Descriptor'
	DD	00H
	DD	04H
	DD	FLAT:??_R2?$basic_ostream@DU?$char_traits@D@std@@@std@@8
rdata$r	ENDS
;	COMDAT ??_R0?AV?$basic_ostream@DU?$char_traits@D@std@@@std@@@8
data$r	SEGMENT
??_R0?AV?$basic_ostream@DU?$char_traits@D@std@@@std@@@8 DD FLAT:??_7type_info@@6B@ ; std::basic_ostream<char,std::char_traits<char> > `RTTI Type Descriptor'
	DD	00H
	DB	'.?AV?$basic_ostream@DU?$char_traits@D@std@@@std@@', 00H
data$r	ENDS
;	COMDAT ??_R1BA@?0A@EA@?$basic_ostream@DU?$char_traits@D@std@@@std@@8
rdata$r	SEGMENT
??_R1BA@?0A@EA@?$basic_ostream@DU?$char_traits@D@std@@@std@@8 DD FLAT:??_R0?AV?$basic_ostream@DU?$char_traits@D@std@@@std@@@8 ; std::basic_ostream<char,std::char_traits<char> >::`RTTI Base Class Descriptor at (16,-1,0,64)'
	DD	03H
	DD	010H
	DD	0ffffffffH
	DD	00H
	DD	040H
	DD	FLAT:??_R3?$basic_ostream@DU?$char_traits@D@std@@@std@@8
rdata$r	ENDS
;	COMDAT ??_R17A@3EA@?$_Iosb@H@std@@8
rdata$r	SEGMENT
??_R17A@3EA@?$_Iosb@H@std@@8 DD FLAT:??_R0?AV?$_Iosb@H@std@@@8 ; std::_Iosb<int>::`RTTI Base Class Descriptor at (8,0,4,64)'
	DD	00H
	DD	08H
	DD	00H
	DD	04H
	DD	040H
	DD	FLAT:??_R3?$_Iosb@H@std@@8
rdata$r	ENDS
;	COMDAT ??_R1A@A@3EA@ios_base@std@@8
rdata$r	SEGMENT
??_R1A@A@3EA@ios_base@std@@8 DD FLAT:??_R0?AVios_base@std@@@8 ; std::ios_base::`RTTI Base Class Descriptor at (0,0,4,64)'
	DD	01H
	DD	00H
	DD	00H
	DD	04H
	DD	040H
	DD	FLAT:??_R3ios_base@std@@8
rdata$r	ENDS
;	COMDAT ??_R1A@?0A@EA@?$_Iosb@H@std@@8
rdata$r	SEGMENT
??_R1A@?0A@EA@?$_Iosb@H@std@@8 DD FLAT:??_R0?AV?$_Iosb@H@std@@@8 ; std::_Iosb<int>::`RTTI Base Class Descriptor at (0,-1,0,64)'
	DD	00H
	DD	00H
	DD	0ffffffffH
	DD	00H
	DD	040H
	DD	FLAT:??_R3?$_Iosb@H@std@@8
rdata$r	ENDS
;	COMDAT ??_R2?$_Iosb@H@std@@8
rdata$r	SEGMENT
??_R2?$_Iosb@H@std@@8 DD FLAT:??_R1A@?0A@EA@?$_Iosb@H@std@@8 ; std::_Iosb<int>::`RTTI Base Class Array'
rdata$r	ENDS
;	COMDAT ??_R3?$_Iosb@H@std@@8
rdata$r	SEGMENT
??_R3?$_Iosb@H@std@@8 DD 00H				; std::_Iosb<int>::`RTTI Class Hierarchy Descriptor'
	DD	00H
	DD	01H
	DD	FLAT:??_R2?$_Iosb@H@std@@8
rdata$r	ENDS
;	COMDAT ??_R0?AV?$_Iosb@H@std@@@8
data$r	SEGMENT
??_R0?AV?$_Iosb@H@std@@@8 DD FLAT:??_7type_info@@6B@	; std::_Iosb<int> `RTTI Type Descriptor'
	DD	00H
	DB	'.?AV?$_Iosb@H@std@@', 00H
data$r	ENDS
;	COMDAT ??_R17?0A@EA@?$_Iosb@H@std@@8
rdata$r	SEGMENT
??_R17?0A@EA@?$_Iosb@H@std@@8 DD FLAT:??_R0?AV?$_Iosb@H@std@@@8 ; std::_Iosb<int>::`RTTI Base Class Descriptor at (8,-1,0,64)'
	DD	00H
	DD	08H
	DD	0ffffffffH
	DD	00H
	DD	040H
	DD	FLAT:??_R3?$_Iosb@H@std@@8
rdata$r	ENDS
;	COMDAT ??_R2ios_base@std@@8
rdata$r	SEGMENT
??_R2ios_base@std@@8 DD FLAT:??_R1A@?0A@EA@ios_base@std@@8 ; std::ios_base::`RTTI Base Class Array'
	DD	FLAT:??_R17?0A@EA@?$_Iosb@H@std@@8
rdata$r	ENDS
;	COMDAT ??_R3ios_base@std@@8
rdata$r	SEGMENT
??_R3ios_base@std@@8 DD 00H				; std::ios_base::`RTTI Class Hierarchy Descriptor'
	DD	00H
	DD	02H
	DD	FLAT:??_R2ios_base@std@@8
rdata$r	ENDS
;	COMDAT ??_R0?AVios_base@std@@@8
data$r	SEGMENT
??_R0?AVios_base@std@@@8 DD FLAT:??_7type_info@@6B@	; std::ios_base `RTTI Type Descriptor'
	DD	00H
	DB	'.?AVios_base@std@@', 00H
data$r	ENDS
;	COMDAT ??_R1A@?0A@EA@ios_base@std@@8
rdata$r	SEGMENT
??_R1A@?0A@EA@ios_base@std@@8 DD FLAT:??_R0?AVios_base@std@@@8 ; std::ios_base::`RTTI Base Class Descriptor at (0,-1,0,64)'
	DD	01H
	DD	00H
	DD	0ffffffffH
	DD	00H
	DD	040H
	DD	FLAT:??_R3ios_base@std@@8
rdata$r	ENDS
;	COMDAT ??_R1A@?0A@EA@?$basic_ios@DU?$char_traits@D@std@@@std@@8
rdata$r	SEGMENT
??_R1A@?0A@EA@?$basic_ios@DU?$char_traits@D@std@@@std@@8 DD FLAT:??_R0?AV?$basic_ios@DU?$char_traits@D@std@@@std@@@8 ; std::basic_ios<char,std::char_traits<char> >::`RTTI Base Class Descriptor at (0,-1,0,64)'
	DD	02H
	DD	00H
	DD	0ffffffffH
	DD	00H
	DD	040H
	DD	FLAT:??_R3?$basic_ios@DU?$char_traits@D@std@@@std@@8
rdata$r	ENDS
;	COMDAT ??_R2?$basic_ios@DU?$char_traits@D@std@@@std@@8
rdata$r	SEGMENT
??_R2?$basic_ios@DU?$char_traits@D@std@@@std@@8 DD FLAT:??_R1A@?0A@EA@?$basic_ios@DU?$char_traits@D@std@@@std@@8 ; std::basic_ios<char,std::char_traits<char> >::`RTTI Base Class Array'
	DD	FLAT:??_R1A@?0A@EA@ios_base@std@@8
	DD	FLAT:??_R17?0A@EA@?$_Iosb@H@std@@8
rdata$r	ENDS
;	COMDAT ??_R3?$basic_ios@DU?$char_traits@D@std@@@std@@8
rdata$r	SEGMENT
??_R3?$basic_ios@DU?$char_traits@D@std@@@std@@8 DD 00H	; std::basic_ios<char,std::char_traits<char> >::`RTTI Class Hierarchy Descriptor'
	DD	00H
	DD	03H
	DD	FLAT:??_R2?$basic_ios@DU?$char_traits@D@std@@@std@@8
rdata$r	ENDS
;	COMDAT ??_R0?AV?$basic_ios@DU?$char_traits@D@std@@@std@@@8
data$r	SEGMENT
??_R0?AV?$basic_ios@DU?$char_traits@D@std@@@std@@@8 DD FLAT:??_7type_info@@6B@ ; std::basic_ios<char,std::char_traits<char> > `RTTI Type Descriptor'
	DD	00H
	DB	'.?AV?$basic_ios@DU?$char_traits@D@std@@@std@@', 00H
data$r	ENDS
;	COMDAT ??_R1A@A@3FA@?$basic_ios@DU?$char_traits@D@std@@@std@@8
rdata$r	SEGMENT
??_R1A@A@3FA@?$basic_ios@DU?$char_traits@D@std@@@std@@8 DD FLAT:??_R0?AV?$basic_ios@DU?$char_traits@D@std@@@std@@@8 ; std::basic_ios<char,std::char_traits<char> >::`RTTI Base Class Descriptor at (0,0,4,80)'
	DD	02H
	DD	00H
	DD	00H
	DD	04H
	DD	050H
	DD	FLAT:??_R3?$basic_ios@DU?$char_traits@D@std@@@std@@8
rdata$r	ENDS
;	COMDAT ??_R2?$basic_istream@DU?$char_traits@D@std@@@std@@8
rdata$r	SEGMENT
??_R2?$basic_istream@DU?$char_traits@D@std@@@std@@8 DD FLAT:??_R1A@?0A@EA@?$basic_istream@DU?$char_traits@D@std@@@std@@8 ; std::basic_istream<char,std::char_traits<char> >::`RTTI Base Class Array'
	DD	FLAT:??_R1A@A@3FA@?$basic_ios@DU?$char_traits@D@std@@@std@@8
	DD	FLAT:??_R1A@A@3EA@ios_base@std@@8
	DD	FLAT:??_R17A@3EA@?$_Iosb@H@std@@8
rdata$r	ENDS
;	COMDAT ??_R3?$basic_istream@DU?$char_traits@D@std@@@std@@8
rdata$r	SEGMENT
??_R3?$basic_istream@DU?$char_traits@D@std@@@std@@8 DD 00H ; std::basic_istream<char,std::char_traits<char> >::`RTTI Class Hierarchy Descriptor'
	DD	00H
	DD	04H
	DD	FLAT:??_R2?$basic_istream@DU?$char_traits@D@std@@@std@@8
rdata$r	ENDS
;	COMDAT ??_R0?AV?$basic_istream@DU?$char_traits@D@std@@@std@@@8
data$r	SEGMENT
??_R0?AV?$basic_istream@DU?$char_traits@D@std@@@std@@@8 DD FLAT:??_7type_info@@6B@ ; std::basic_istream<char,std::char_traits<char> > `RTTI Type Descriptor'
	DD	00H
	DB	'.?AV?$basic_istream@DU?$char_traits@D@std@@@std@@', 00H
data$r	ENDS
;	COMDAT ??_R1A@?0A@EA@?$basic_istream@DU?$char_traits@D@std@@@std@@8
rdata$r	SEGMENT
??_R1A@?0A@EA@?$basic_istream@DU?$char_traits@D@std@@@std@@8 DD FLAT:??_R0?AV?$basic_istream@DU?$char_traits@D@std@@@std@@@8 ; std::basic_istream<char,std::char_traits<char> >::`RTTI Base Class Descriptor at (0,-1,0,64)'
	DD	03H
	DD	00H
	DD	0ffffffffH
	DD	00H
	DD	040H
	DD	FLAT:??_R3?$basic_istream@DU?$char_traits@D@std@@@std@@8
rdata$r	ENDS
;	COMDAT ??_R2?$basic_iostream@DU?$char_traits@D@std@@@std@@8
rdata$r	SEGMENT
??_R2?$basic_iostream@DU?$char_traits@D@std@@@std@@8 DD FLAT:??_R1A@?0A@EA@?$basic_iostream@DU?$char_traits@D@std@@@std@@8 ; std::basic_iostream<char,std::char_traits<char> >::`RTTI Base Class Array'
	DD	FLAT:??_R1A@?0A@EA@?$basic_istream@DU?$char_traits@D@std@@@std@@8
	DD	FLAT:??_R1A@A@3FA@?$basic_ios@DU?$char_traits@D@std@@@std@@8
	DD	FLAT:??_R1A@A@3EA@ios_base@std@@8
	DD	FLAT:??_R17A@3EA@?$_Iosb@H@std@@8
	DD	FLAT:??_R1BA@?0A@EA@?$basic_ostream@DU?$char_traits@D@std@@@std@@8
	DD	FLAT:??_R1A@A@3FA@?$basic_ios@DU?$char_traits@D@std@@@std@@8
	DD	FLAT:??_R1A@A@3EA@ios_base@std@@8
	DD	FLAT:??_R17A@3EA@?$_Iosb@H@std@@8
rdata$r	ENDS
;	COMDAT ??_R3?$basic_iostream@DU?$char_traits@D@std@@@std@@8
rdata$r	SEGMENT
??_R3?$basic_iostream@DU?$char_traits@D@std@@@std@@8 DD 00H ; std::basic_iostream<char,std::char_traits<char> >::`RTTI Class Hierarchy Descriptor'
	DD	03H
	DD	09H
	DD	FLAT:??_R2?$basic_iostream@DU?$char_traits@D@std@@@std@@8
rdata$r	ENDS
;	COMDAT ??_R0?AV?$basic_iostream@DU?$char_traits@D@std@@@std@@@8
data$r	SEGMENT
??_R0?AV?$basic_iostream@DU?$char_traits@D@std@@@std@@@8 DD FLAT:??_7type_info@@6B@ ; std::basic_iostream<char,std::char_traits<char> > `RTTI Type Descriptor'
	DD	00H
	DB	'.?AV?$basic_iostream@DU?$char_traits@D@std@@@std@@', 00H
data$r	ENDS
;	COMDAT ??_R1A@?0A@EA@?$basic_iostream@DU?$char_traits@D@std@@@std@@8
rdata$r	SEGMENT
??_R1A@?0A@EA@?$basic_iostream@DU?$char_traits@D@std@@@std@@8 DD FLAT:??_R0?AV?$basic_iostream@DU?$char_traits@D@std@@@std@@@8 ; std::basic_iostream<char,std::char_traits<char> >::`RTTI Base Class Descriptor at (0,-1,0,64)'
	DD	08H
	DD	00H
	DD	0ffffffffH
	DD	00H
	DD	040H
	DD	FLAT:??_R3?$basic_iostream@DU?$char_traits@D@std@@@std@@8
rdata$r	ENDS
;	COMDAT ??_R1A@?0A@EA@?$basic_stringstream@DU?$char_traits@D@std@@V?$allocator@D@2@@std@@8
rdata$r	SEGMENT
??_R1A@?0A@EA@?$basic_stringstream@DU?$char_traits@D@std@@V?$allocator@D@2@@std@@8 DD FLAT:??_R0?AV?$basic_stringstream@DU?$char_traits@D@std@@V?$allocator@D@2@@std@@@8 ; std::basic_stringstream<char,std::char_traits<char>,std::allocator<char> >::`RTTI Base Class Descriptor at (0,-1,0,64)'
	DD	09H
	DD	00H
	DD	0ffffffffH
	DD	00H
	DD	040H
	DD	FLAT:??_R3?$basic_stringstream@DU?$char_traits@D@std@@V?$allocator@D@2@@std@@8
rdata$r	ENDS
;	COMDAT ??_R2?$basic_stringstream@DU?$char_traits@D@std@@V?$allocator@D@2@@std@@8
rdata$r	SEGMENT
??_R2?$basic_stringstream@DU?$char_traits@D@std@@V?$allocator@D@2@@std@@8 DD FLAT:??_R1A@?0A@EA@?$basic_stringstream@DU?$char_traits@D@std@@V?$allocator@D@2@@std@@8 ; std::basic_stringstream<char,std::char_traits<char>,std::allocator<char> >::`RTTI Base Class Array'
	DD	FLAT:??_R1A@?0A@EA@?$basic_iostream@DU?$char_traits@D@std@@@std@@8
	DD	FLAT:??_R1A@?0A@EA@?$basic_istream@DU?$char_traits@D@std@@@std@@8
	DD	FLAT:??_R1A@A@3FA@?$basic_ios@DU?$char_traits@D@std@@@std@@8
	DD	FLAT:??_R1A@A@3EA@ios_base@std@@8
	DD	FLAT:??_R17A@3EA@?$_Iosb@H@std@@8
	DD	FLAT:??_R1BA@?0A@EA@?$basic_ostream@DU?$char_traits@D@std@@@std@@8
	DD	FLAT:??_R1A@A@3FA@?$basic_ios@DU?$char_traits@D@std@@@std@@8
	DD	FLAT:??_R1A@A@3EA@ios_base@std@@8
	DD	FLAT:??_R17A@3EA@?$_Iosb@H@std@@8
rdata$r	ENDS
;	COMDAT ??_R3?$basic_stringstream@DU?$char_traits@D@std@@V?$allocator@D@2@@std@@8
rdata$r	SEGMENT
??_R3?$basic_stringstream@DU?$char_traits@D@std@@V?$allocator@D@2@@std@@8 DD 00H ; std::basic_stringstream<char,std::char_traits<char>,std::allocator<char> >::`RTTI Class Hierarchy Descriptor'
	DD	03H
	DD	0aH
	DD	FLAT:??_R2?$basic_stringstream@DU?$char_traits@D@std@@V?$allocator@D@2@@std@@8
rdata$r	ENDS
;	COMDAT ??_R0?AV?$basic_stringstream@DU?$char_traits@D@std@@V?$allocator@D@2@@std@@@8
data$r	SEGMENT
??_R0?AV?$basic_stringstream@DU?$char_traits@D@std@@V?$allocator@D@2@@std@@@8 DD FLAT:??_7type_info@@6B@ ; std::basic_stringstream<char,std::char_traits<char>,std::allocator<char> > `RTTI Type Descriptor'
	DD	00H
	DB	'.?AV?$basic_stringstream@DU?$char_traits@D@std@@V?$alloc'
	DB	'ator@D@2@@std@@', 00H
data$r	ENDS
;	COMDAT ??_R4?$basic_stringstream@DU?$char_traits@D@std@@V?$allocator@D@2@@std@@6B@
rdata$r	SEGMENT
??_R4?$basic_stringstream@DU?$char_traits@D@std@@V?$allocator@D@2@@std@@6B@ DD 00H ; std::basic_stringstream<char,std::char_traits<char>,std::allocator<char> >::`RTTI Complete Object Locator'
	DD	068H
	DD	04H
	DD	FLAT:??_R0?AV?$basic_stringstream@DU?$char_traits@D@std@@V?$allocator@D@2@@std@@@8
	DD	FLAT:??_R3?$basic_stringstream@DU?$char_traits@D@std@@V?$allocator@D@2@@std@@8
rdata$r	ENDS
;	COMDAT ??_R2?$basic_streambuf@DU?$char_traits@D@std@@@std@@8
rdata$r	SEGMENT
??_R2?$basic_streambuf@DU?$char_traits@D@std@@@std@@8 DD FLAT:??_R1A@?0A@EA@?$basic_streambuf@DU?$char_traits@D@std@@@std@@8 ; std::basic_streambuf<char,std::char_traits<char> >::`RTTI Base Class Array'
rdata$r	ENDS
;	COMDAT ??_R3?$basic_streambuf@DU?$char_traits@D@std@@@std@@8
rdata$r	SEGMENT
??_R3?$basic_streambuf@DU?$char_traits@D@std@@@std@@8 DD 00H ; std::basic_streambuf<char,std::char_traits<char> >::`RTTI Class Hierarchy Descriptor'
	DD	00H
	DD	01H
	DD	FLAT:??_R2?$basic_streambuf@DU?$char_traits@D@std@@@std@@8
rdata$r	ENDS
;	COMDAT ??_R0?AV?$basic_streambuf@DU?$char_traits@D@std@@@std@@@8
data$r	SEGMENT
??_R0?AV?$basic_streambuf@DU?$char_traits@D@std@@@std@@@8 DD FLAT:??_7type_info@@6B@ ; std::basic_streambuf<char,std::char_traits<char> > `RTTI Type Descriptor'
	DD	00H
	DB	'.?AV?$basic_streambuf@DU?$char_traits@D@std@@@std@@', 00H
data$r	ENDS
;	COMDAT ??_R1A@?0A@EA@?$basic_streambuf@DU?$char_traits@D@std@@@std@@8
rdata$r	SEGMENT
??_R1A@?0A@EA@?$basic_streambuf@DU?$char_traits@D@std@@@std@@8 DD FLAT:??_R0?AV?$basic_streambuf@DU?$char_traits@D@std@@@std@@@8 ; std::basic_streambuf<char,std::char_traits<char> >::`RTTI Base Class Descriptor at (0,-1,0,64)'
	DD	00H
	DD	00H
	DD	0ffffffffH
	DD	00H
	DD	040H
	DD	FLAT:??_R3?$basic_streambuf@DU?$char_traits@D@std@@@std@@8
rdata$r	ENDS
;	COMDAT ??_R1A@?0A@EA@?$basic_stringbuf@DU?$char_traits@D@std@@V?$allocator@D@2@@std@@8
rdata$r	SEGMENT
??_R1A@?0A@EA@?$basic_stringbuf@DU?$char_traits@D@std@@V?$allocator@D@2@@std@@8 DD FLAT:??_R0?AV?$basic_stringbuf@DU?$char_traits@D@std@@V?$allocator@D@2@@std@@@8 ; std::basic_stringbuf<char,std::char_traits<char>,std::allocator<char> >::`RTTI Base Class Descriptor at (0,-1,0,64)'
	DD	01H
	DD	00H
	DD	0ffffffffH
	DD	00H
	DD	040H
	DD	FLAT:??_R3?$basic_stringbuf@DU?$char_traits@D@std@@V?$allocator@D@2@@std@@8
rdata$r	ENDS
;	COMDAT ??_R2?$basic_stringbuf@DU?$char_traits@D@std@@V?$allocator@D@2@@std@@8
rdata$r	SEGMENT
??_R2?$basic_stringbuf@DU?$char_traits@D@std@@V?$allocator@D@2@@std@@8 DD FLAT:??_R1A@?0A@EA@?$basic_stringbuf@DU?$char_traits@D@std@@V?$allocator@D@2@@std@@8 ; std::basic_stringbuf<char,std::char_traits<char>,std::allocator<char> >::`RTTI Base Class Array'
	DD	FLAT:??_R1A@?0A@EA@?$basic_streambuf@DU?$char_traits@D@std@@@std@@8
rdata$r	ENDS
;	COMDAT ??_R3?$basic_stringbuf@DU?$char_traits@D@std@@V?$allocator@D@2@@std@@8
rdata$r	SEGMENT
??_R3?$basic_stringbuf@DU?$char_traits@D@std@@V?$allocator@D@2@@std@@8 DD 00H ; std::basic_stringbuf<char,std::char_traits<char>,std::allocator<char> >::`RTTI Class Hierarchy Descriptor'
	DD	00H
	DD	02H
	DD	FLAT:??_R2?$basic_stringbuf@DU?$char_traits@D@std@@V?$allocator@D@2@@std@@8
rdata$r	ENDS
;	COMDAT ??_R0?AV?$basic_stringbuf@DU?$char_traits@D@std@@V?$allocator@D@2@@std@@@8
data$r	SEGMENT
??_R0?AV?$basic_stringbuf@DU?$char_traits@D@std@@V?$allocator@D@2@@std@@@8 DD FLAT:??_7type_info@@6B@ ; std::basic_stringbuf<char,std::char_traits<char>,std::allocator<char> > `RTTI Type Descriptor'
	DD	00H
	DB	'.?AV?$basic_stringbuf@DU?$char_traits@D@std@@V?$allocato'
	DB	'r@D@2@@std@@', 00H
data$r	ENDS
;	COMDAT ??_R4?$basic_stringbuf@DU?$char_traits@D@std@@V?$allocator@D@2@@std@@6B@
rdata$r	SEGMENT
??_R4?$basic_stringbuf@DU?$char_traits@D@std@@V?$allocator@D@2@@std@@6B@ DD 00H ; std::basic_stringbuf<char,std::char_traits<char>,std::allocator<char> >::`RTTI Complete Object Locator'
	DD	00H
	DD	00H
	DD	FLAT:??_R0?AV?$basic_stringbuf@DU?$char_traits@D@std@@V?$allocator@D@2@@std@@@8
	DD	FLAT:??_R3?$basic_stringbuf@DU?$char_traits@D@std@@V?$allocator@D@2@@std@@8
rdata$r	ENDS
;	COMDAT ??_C@_1IO@HFHPAKCC@?$AAc?$AA?3?$AA?2?$AAp?$AAr?$AAo?$AAg?$AAr?$AAa?$AAm?$AA?5?$AAf?$AAi?$AAl?$AAe?$AAs?$AA?5?$AA?$CI?$AAx?$AA8?$AA6?$AA?$CJ?$AA?2?$AAm?$AAi?$AAc?$AAr?$AAo?$AAs?$AAo?$AAf?$AAt@
CONST	SEGMENT
??_C@_1IO@HFHPAKCC@?$AAc?$AA?3?$AA?2?$AAp?$AAr?$AAo?$AAg?$AAr?$AAa?$AAm?$AA?5?$AAf?$AAi?$AAl?$AAe?$AAs?$AA?5?$AA?$CI?$AAx?$AA8?$AA6?$AA?$CJ?$AA?2?$AAm?$AAi?$AAc?$AAr?$AAo?$AAs?$AAo?$AAf?$AAt@ DB 'c'
	DB	00H, ':', 00H, '\', 00H, 'p', 00H, 'r', 00H, 'o', 00H, 'g', 00H
	DB	'r', 00H, 'a', 00H, 'm', 00H, ' ', 00H, 'f', 00H, 'i', 00H, 'l'
	DB	00H, 'e', 00H, 's', 00H, ' ', 00H, '(', 00H, 'x', 00H, '8', 00H
	DB	'6', 00H, ')', 00H, '\', 00H, 'm', 00H, 'i', 00H, 'c', 00H, 'r'
	DB	00H, 'o', 00H, 's', 00H, 'o', 00H, 'f', 00H, 't', 00H, ' ', 00H
	DB	'v', 00H, 'i', 00H, 's', 00H, 'u', 00H, 'a', 00H, 'l', 00H, ' '
	DB	00H, 's', 00H, 't', 00H, 'u', 00H, 'd', 00H, 'i', 00H, 'o', 00H
	DB	' ', 00H, '1', 00H, '2', 00H, '.', 00H, '0', 00H, '\', 00H, 'v'
	DB	00H, 'c', 00H, '\', 00H, 'i', 00H, 'n', 00H, 'c', 00H, 'l', 00H
	DB	'u', 00H, 'd', 00H, 'e', 00H, '\', 00H, 'x', 00H, 'm', 00H, 'e'
	DB	00H, 'm', 00H, 'o', 00H, 'r', 00H, 'y', 00H, 00H, 00H ; `string'
CONST	ENDS
;	COMDAT ??_C@_1CE@IGJMOCCK@?$AAi?$AAn?$AAv?$AAa?$AAl?$AAi?$AAd?$AA?5?$AAo?$AAp?$AAe?$AAr?$AAa?$AAt?$AAo?$AAr?$AA?$DM?$AA?$AA@
CONST	SEGMENT
??_C@_1CE@IGJMOCCK@?$AAi?$AAn?$AAv?$AAa?$AAl?$AAi?$AAd?$AA?5?$AAo?$AAp?$AAe?$AAr?$AAa?$AAt?$AAo?$AAr?$AA?$DM?$AA?$AA@ DB 'i'
	DB	00H, 'n', 00H, 'v', 00H, 'a', 00H, 'l', 00H, 'i', 00H, 'd', 00H
	DB	' ', 00H, 'o', 00H, 'p', 00H, 'e', 00H, 'r', 00H, 'a', 00H, 't'
	DB	00H, 'o', 00H, 'r', 00H, '<', 00H, 00H, 00H	; `string'
CONST	ENDS
;	COMDAT ??_C@_1CO@DGLIKNHI@?$AAi?$AAn?$AAv?$AAa?$AAl?$AAi?$AAd?$AA?5?$AAi?$AAt?$AAe?$AAr?$AAa?$AAt?$AAo?$AAr?$AA?5?$AAr?$AAa?$AAn?$AAg?$AAe?$AA?$AA@
CONST	SEGMENT
??_C@_1CO@DGLIKNHI@?$AAi?$AAn?$AAv?$AAa?$AAl?$AAi?$AAd?$AA?5?$AAi?$AAt?$AAe?$AAr?$AAa?$AAt?$AAo?$AAr?$AA?5?$AAr?$AAa?$AAn?$AAg?$AAe?$AA?$AA@ DB 'i'
	DB	00H, 'n', 00H, 'v', 00H, 'a', 00H, 'l', 00H, 'i', 00H, 'd', 00H
	DB	' ', 00H, 'i', 00H, 't', 00H, 'e', 00H, 'r', 00H, 'a', 00H, 't'
	DB	00H, 'o', 00H, 'r', 00H, ' ', 00H, 'r', 00H, 'a', 00H, 'n', 00H
	DB	'g', 00H, 'e', 00H, 00H, 00H			; `string'
CONST	ENDS
;	COMDAT ??_C@_1JC@OFJFDCCC@?$AAc?$AA?3?$AA?2?$AAp?$AAr?$AAo?$AAg?$AAr?$AAa?$AAm?$AA?5?$AAf?$AAi?$AAl?$AAe?$AAs?$AA?5?$AA?$CI?$AAx?$AA8?$AA6?$AA?$CJ?$AA?2?$AAm?$AAi?$AAc?$AAr?$AAo?$AAs?$AAo?$AAf?$AAt@
CONST	SEGMENT
??_C@_1JC@OFJFDCCC@?$AAc?$AA?3?$AA?2?$AAp?$AAr?$AAo?$AAg?$AAr?$AAa?$AAm?$AA?5?$AAf?$AAi?$AAl?$AAe?$AAs?$AA?5?$AA?$CI?$AAx?$AA8?$AA6?$AA?$CJ?$AA?2?$AAm?$AAi?$AAc?$AAr?$AAo?$AAs?$AAo?$AAf?$AAt@ DB 'c'
	DB	00H, ':', 00H, '\', 00H, 'p', 00H, 'r', 00H, 'o', 00H, 'g', 00H
	DB	'r', 00H, 'a', 00H, 'm', 00H, ' ', 00H, 'f', 00H, 'i', 00H, 'l'
	DB	00H, 'e', 00H, 's', 00H, ' ', 00H, '(', 00H, 'x', 00H, '8', 00H
	DB	'6', 00H, ')', 00H, '\', 00H, 'm', 00H, 'i', 00H, 'c', 00H, 'r'
	DB	00H, 'o', 00H, 's', 00H, 'o', 00H, 'f', 00H, 't', 00H, ' ', 00H
	DB	'v', 00H, 'i', 00H, 's', 00H, 'u', 00H, 'a', 00H, 'l', 00H, ' '
	DB	00H, 's', 00H, 't', 00H, 'u', 00H, 'd', 00H, 'i', 00H, 'o', 00H
	DB	' ', 00H, '1', 00H, '2', 00H, '.', 00H, '0', 00H, '\', 00H, 'v'
	DB	00H, 'c', 00H, '\', 00H, 'i', 00H, 'n', 00H, 'c', 00H, 'l', 00H
	DB	'u', 00H, 'd', 00H, 'e', 00H, '\', 00H, 'a', 00H, 'l', 00H, 'g'
	DB	00H, 'o', 00H, 'r', 00H, 'i', 00H, 't', 00H, 'h', 00H, 'm', 00H
	DB	00H, 00H					; `string'
CONST	ENDS
;	COMDAT ??_C@_1CK@EOPGIILJ@?$AAi?$AAn?$AAv?$AAa?$AAl?$AAi?$AAd?$AA?5?$AAn?$AAu?$AAl?$AAl?$AA?5?$AAp?$AAo?$AAi?$AAn?$AAt?$AAe?$AAr?$AA?$AA@
CONST	SEGMENT
??_C@_1CK@EOPGIILJ@?$AAi?$AAn?$AAv?$AAa?$AAl?$AAi?$AAd?$AA?5?$AAn?$AAu?$AAl?$AAl?$AA?5?$AAp?$AAo?$AAi?$AAn?$AAt?$AAe?$AAr?$AA?$AA@ DB 'i'
	DB	00H, 'n', 00H, 'v', 00H, 'a', 00H, 'l', 00H, 'i', 00H, 'd', 00H
	DB	' ', 00H, 'n', 00H, 'u', 00H, 'l', 00H, 'l', 00H, ' ', 00H, 'p'
	DB	00H, 'o', 00H, 'i', 00H, 'n', 00H, 't', 00H, 'e', 00H, 'r', 00H
	DB	00H, 00H					; `string'
CONST	ENDS
;	COMDAT ??_C@_0BD@OLBABOEK@vector?$DMT?$DO?5too?5long?$AA@
CONST	SEGMENT
??_C@_0BD@OLBABOEK@vector?$DMT?$DO?5too?5long?$AA@ DB 'vector<T> too long'
	DB	00H						; `string'
CONST	ENDS
;	COMDAT ??_C@_0BI@CFPLBAOH@invalid?5string?5position?$AA@
CONST	SEGMENT
??_C@_0BI@CFPLBAOH@invalid?5string?5position?$AA@ DB 'invalid string posi'
	DB	'tion', 00H					; `string'
CONST	ENDS
;	COMDAT ??_C@_0BA@JFNIOLAK@string?5too?5long?$AA@
CONST	SEGMENT
??_C@_0BA@JFNIOLAK@string?5too?5long?$AA@ DB 'string too long', 00H ; `string'
CONST	ENDS
;	COMDAT ??_C@_0BM@NMJKDPPO@invalid?5vector?$DMT?$DO?5subscript?$AA@
CONST	SEGMENT
??_C@_0BM@NMJKDPPO@invalid?5vector?$DMT?$DO?5subscript?$AA@ DB 'invalid v'
	DB	'ector<T> subscript', 00H			; `string'
CONST	ENDS
;	COMDAT ??_C@_1LC@DHGFLIFA@?$AAs?$AAt?$AAd?$AA?3?$AA?3?$AAv?$AAe?$AAc?$AAt?$AAo?$AAr?$AA?$DM?$AAc?$AAl?$AAa?$AAs?$AAs?$AA?5?$AAC?$AAa?$AAv?$AAe?$AAR?$AAe?$AAc?$AAt?$AAa?$AAn?$AAg?$AAl?$AAe?$AA?0@
CONST	SEGMENT
??_C@_1LC@DHGFLIFA@?$AAs?$AAt?$AAd?$AA?3?$AA?3?$AAv?$AAe?$AAc?$AAt?$AAo?$AAr?$AA?$DM?$AAc?$AAl?$AAa?$AAs?$AAs?$AA?5?$AAC?$AAa?$AAv?$AAe?$AAR?$AAe?$AAc?$AAt?$AAa?$AAn?$AAg?$AAl?$AAe?$AA?0@ DB 's'
	DB	00H, 't', 00H, 'd', 00H, ':', 00H, ':', 00H, 'v', 00H, 'e', 00H
	DB	'c', 00H, 't', 00H, 'o', 00H, 'r', 00H, '<', 00H, 'c', 00H, 'l'
	DB	00H, 'a', 00H, 's', 00H, 's', 00H, ' ', 00H, 'C', 00H, 'a', 00H
	DB	'v', 00H, 'e', 00H, 'R', 00H, 'e', 00H, 'c', 00H, 't', 00H, 'a'
	DB	00H, 'n', 00H, 'g', 00H, 'l', 00H, 'e', 00H, ',', 00H, 'c', 00H
	DB	'l', 00H, 'a', 00H, 's', 00H, 's', 00H, ' ', 00H, 's', 00H, 't'
	DB	00H, 'd', 00H, ':', 00H, ':', 00H, 'a', 00H, 'l', 00H, 'l', 00H
	DB	'o', 00H, 'c', 00H, 'a', 00H, 't', 00H, 'o', 00H, 'r', 00H, '<'
	DB	00H, 'c', 00H, 'l', 00H, 'a', 00H, 's', 00H, 's', 00H, ' ', 00H
	DB	'C', 00H, 'a', 00H, 'v', 00H, 'e', 00H, 'R', 00H, 'e', 00H, 'c'
	DB	00H, 't', 00H, 'a', 00H, 'n', 00H, 'g', 00H, 'l', 00H, 'e', 00H
	DB	'>', 00H, ' ', 00H, '>', 00H, ':', 00H, ':', 00H, 'o', 00H, 'p'
	DB	00H, 'e', 00H, 'r', 00H, 'a', 00H, 't', 00H, 'o', 00H, 'r', 00H
	DB	' ', 00H, '[', 00H, ']', 00H, 00H, 00H	; `string'
CONST	ENDS
;	COMDAT ??_C@_1JO@IKNBIAPH@?$AAs?$AAt?$AAd?$AA?3?$AA?3?$AAv?$AAe?$AAc?$AAt?$AAo?$AAr?$AA?$DM?$AAs?$AAt?$AAr?$AAu?$AAc?$AAt?$AA?5?$AAT?$AAi?$AAl?$AAe?$AAS?$AAe?$AAt?$AA?0?$AAc?$AAl?$AAa?$AAs?$AAs@
CONST	SEGMENT
??_C@_1JO@IKNBIAPH@?$AAs?$AAt?$AAd?$AA?3?$AA?3?$AAv?$AAe?$AAc?$AAt?$AAo?$AAr?$AA?$DM?$AAs?$AAt?$AAr?$AAu?$AAc?$AAt?$AA?5?$AAT?$AAi?$AAl?$AAe?$AAS?$AAe?$AAt?$AA?0?$AAc?$AAl?$AAa?$AAs?$AAs@ DB 's'
	DB	00H, 't', 00H, 'd', 00H, ':', 00H, ':', 00H, 'v', 00H, 'e', 00H
	DB	'c', 00H, 't', 00H, 'o', 00H, 'r', 00H, '<', 00H, 's', 00H, 't'
	DB	00H, 'r', 00H, 'u', 00H, 'c', 00H, 't', 00H, ' ', 00H, 'T', 00H
	DB	'i', 00H, 'l', 00H, 'e', 00H, 'S', 00H, 'e', 00H, 't', 00H, ','
	DB	00H, 'c', 00H, 'l', 00H, 'a', 00H, 's', 00H, 's', 00H, ' ', 00H
	DB	's', 00H, 't', 00H, 'd', 00H, ':', 00H, ':', 00H, 'a', 00H, 'l'
	DB	00H, 'l', 00H, 'o', 00H, 'c', 00H, 'a', 00H, 't', 00H, 'o', 00H
	DB	'r', 00H, '<', 00H, 's', 00H, 't', 00H, 'r', 00H, 'u', 00H, 'c'
	DB	00H, 't', 00H, ' ', 00H, 'T', 00H, 'i', 00H, 'l', 00H, 'e', 00H
	DB	'S', 00H, 'e', 00H, 't', 00H, '>', 00H, ' ', 00H, '>', 00H, ':'
	DB	00H, ':', 00H, 'o', 00H, 'p', 00H, 'e', 00H, 'r', 00H, 'a', 00H
	DB	't', 00H, 'o', 00H, 'r', 00H, ' ', 00H, '[', 00H, ']', 00H, 00H
	DB	00H						; `string'
CONST	ENDS
;	COMDAT ??_C@_1BO@MEPPHOO@?$AA?$CC?$AAo?$AAu?$AAt?$AA?5?$AAo?$AAf?$AA?5?$AAr?$AAa?$AAn?$AAg?$AAe?$AA?$CC?$AA?$AA@
CONST	SEGMENT
??_C@_1BO@MEPPHOO@?$AA?$CC?$AAo?$AAu?$AAt?$AA?5?$AAo?$AAf?$AA?5?$AAr?$AAa?$AAn?$AAg?$AAe?$AA?$CC?$AA?$AA@ DB '"'
	DB	00H, 'o', 00H, 'u', 00H, 't', 00H, ' ', 00H, 'o', 00H, 'f', 00H
	DB	' ', 00H, 'r', 00H, 'a', 00H, 'n', 00H, 'g', 00H, 'e', 00H, '"'
	DB	00H, 00H, 00H				; `string'
CONST	ENDS
;	COMDAT ??_C@_1KC@FFCHHFHE@?$AAs?$AAt?$AAd?$AA?3?$AA?3?$AAv?$AAe?$AAc?$AAt?$AAo?$AAr?$AA?$DM?$AAs?$AAt?$AAr?$AAu?$AAc?$AAt?$AA?5?$AAS?$AAD?$AAL?$AA_?$AAR?$AAe?$AAc?$AAt?$AA?0?$AAc?$AAl?$AAa?$AAs@
CONST	SEGMENT
??_C@_1KC@FFCHHFHE@?$AAs?$AAt?$AAd?$AA?3?$AA?3?$AAv?$AAe?$AAc?$AAt?$AAo?$AAr?$AA?$DM?$AAs?$AAt?$AAr?$AAu?$AAc?$AAt?$AA?5?$AAS?$AAD?$AAL?$AA_?$AAR?$AAe?$AAc?$AAt?$AA?0?$AAc?$AAl?$AAa?$AAs@ DB 's'
	DB	00H, 't', 00H, 'd', 00H, ':', 00H, ':', 00H, 'v', 00H, 'e', 00H
	DB	'c', 00H, 't', 00H, 'o', 00H, 'r', 00H, '<', 00H, 's', 00H, 't'
	DB	00H, 'r', 00H, 'u', 00H, 'c', 00H, 't', 00H, ' ', 00H, 'S', 00H
	DB	'D', 00H, 'L', 00H, '_', 00H, 'R', 00H, 'e', 00H, 'c', 00H, 't'
	DB	00H, ',', 00H, 'c', 00H, 'l', 00H, 'a', 00H, 's', 00H, 's', 00H
	DB	' ', 00H, 's', 00H, 't', 00H, 'd', 00H, ':', 00H, ':', 00H, 'a'
	DB	00H, 'l', 00H, 'l', 00H, 'o', 00H, 'c', 00H, 'a', 00H, 't', 00H
	DB	'o', 00H, 'r', 00H, '<', 00H, 's', 00H, 't', 00H, 'r', 00H, 'u'
	DB	00H, 'c', 00H, 't', 00H, ' ', 00H, 'S', 00H, 'D', 00H, 'L', 00H
	DB	'_', 00H, 'R', 00H, 'e', 00H, 'c', 00H, 't', 00H, '>', 00H, ' '
	DB	00H, '>', 00H, ':', 00H, ':', 00H, 'o', 00H, 'p', 00H, 'e', 00H
	DB	'r', 00H, 'a', 00H, 't', 00H, 'o', 00H, 'r', 00H, ' ', 00H, '['
	DB	00H, ']', 00H, 00H, 00H			; `string'
CONST	ENDS
;	COMDAT ??_C@_15GANGMFKL@?$AA?$CF?$AAs?$AA?$AA@
CONST	SEGMENT
??_C@_15GANGMFKL@?$AA?$CF?$AAs?$AA?$AA@ DB '%', 00H, 's', 00H, 00H, 00H ; `string'
CONST	ENDS
;	COMDAT ??_C@_1FG@IBPIFFN@?$AA?$CC?$AAS?$AAt?$AAa?$AAn?$AAd?$AAa?$AAr?$AAd?$AA?5?$AAC?$AA?$CL?$AA?$CL?$AA?5?$AAL?$AAi?$AAb?$AAr?$AAa?$AAr?$AAi?$AAe?$AAs?$AA?5?$AAO?$AAu?$AAt?$AA?5?$AAo?$AAf?$AA?5?$AAR@
CONST	SEGMENT
??_C@_1FG@IBPIFFN@?$AA?$CC?$AAS?$AAt?$AAa?$AAn?$AAd?$AAa?$AAr?$AAd?$AA?5?$AAC?$AA?$CL?$AA?$CL?$AA?5?$AAL?$AAi?$AAb?$AAr?$AAa?$AAr?$AAi?$AAe?$AAs?$AA?5?$AAO?$AAu?$AAt?$AA?5?$AAo?$AAf?$AA?5?$AAR@ DB '"'
	DB	00H, 'S', 00H, 't', 00H, 'a', 00H, 'n', 00H, 'd', 00H, 'a', 00H
	DB	'r', 00H, 'd', 00H, ' ', 00H, 'C', 00H, '+', 00H, '+', 00H, ' '
	DB	00H, 'L', 00H, 'i', 00H, 'b', 00H, 'r', 00H, 'a', 00H, 'r', 00H
	DB	'i', 00H, 'e', 00H, 's', 00H, ' ', 00H, 'O', 00H, 'u', 00H, 't'
	DB	00H, ' ', 00H, 'o', 00H, 'f', 00H, ' ', 00H, 'R', 00H, 'a', 00H
	DB	'n', 00H, 'g', 00H, 'e', 00H, '"', 00H, ' ', 00H, '&', 00H, '&'
	DB	00H, ' ', 00H, '0', 00H, 00H, 00H		; `string'
CONST	ENDS
;	COMDAT ??_C@_0CE@OFMIGAMM@Standard?5C?$CL?$CL?5Libraries?5Out?5of?5Ra@
CONST	SEGMENT
??_C@_0CE@OFMIGAMM@Standard?5C?$CL?$CL?5Libraries?5Out?5of?5Ra@ DB 'Stand'
	DB	'ard C++ Libraries Out of Range', 00H	; `string'
CONST	ENDS
;	COMDAT ??_C@_1DM@LHGCHCBA@?$AAv?$AAe?$AAc?$AAt?$AAo?$AAr?$AA?5?$AAs?$AAu?$AAb?$AAs?$AAc?$AAr?$AAi?$AAp?$AAt?$AA?5?$AAo?$AAu?$AAt?$AA?5?$AAo?$AAf?$AA?5?$AAr?$AAa?$AAn?$AAg?$AAe?$AA?$AA@
CONST	SEGMENT
??_C@_1DM@LHGCHCBA@?$AAv?$AAe?$AAc?$AAt?$AAo?$AAr?$AA?5?$AAs?$AAu?$AAb?$AAs?$AAc?$AAr?$AAi?$AAp?$AAt?$AA?5?$AAo?$AAu?$AAt?$AA?5?$AAo?$AAf?$AA?5?$AAr?$AAa?$AAn?$AAg?$AAe?$AA?$AA@ DB 'v'
	DB	00H, 'e', 00H, 'c', 00H, 't', 00H, 'o', 00H, 'r', 00H, ' ', 00H
	DB	's', 00H, 'u', 00H, 'b', 00H, 's', 00H, 'c', 00H, 'r', 00H, 'i'
	DB	00H, 'p', 00H, 't', 00H, ' ', 00H, 'o', 00H, 'u', 00H, 't', 00H
	DB	' ', 00H, 'o', 00H, 'f', 00H, ' ', 00H, 'r', 00H, 'a', 00H, 'n'
	DB	00H, 'g', 00H, 'e', 00H, 00H, 00H		; `string'
CONST	ENDS
;	COMDAT ??_C@_1IM@COBDDANL@?$AAc?$AA?3?$AA?2?$AAp?$AAr?$AAo?$AAg?$AAr?$AAa?$AAm?$AA?5?$AAf?$AAi?$AAl?$AAe?$AAs?$AA?5?$AA?$CI?$AAx?$AA8?$AA6?$AA?$CJ?$AA?2?$AAm?$AAi?$AAc?$AAr?$AAo?$AAs?$AAo?$AAf?$AAt@
CONST	SEGMENT
??_C@_1IM@COBDDANL@?$AAc?$AA?3?$AA?2?$AAp?$AAr?$AAo?$AAg?$AAr?$AAa?$AAm?$AA?5?$AAf?$AAi?$AAl?$AAe?$AAs?$AA?5?$AA?$CI?$AAx?$AA8?$AA6?$AA?$CJ?$AA?2?$AAm?$AAi?$AAc?$AAr?$AAo?$AAs?$AAo?$AAf?$AAt@ DB 'c'
	DB	00H, ':', 00H, '\', 00H, 'p', 00H, 'r', 00H, 'o', 00H, 'g', 00H
	DB	'r', 00H, 'a', 00H, 'm', 00H, ' ', 00H, 'f', 00H, 'i', 00H, 'l'
	DB	00H, 'e', 00H, 's', 00H, ' ', 00H, '(', 00H, 'x', 00H, '8', 00H
	DB	'6', 00H, ')', 00H, '\', 00H, 'm', 00H, 'i', 00H, 'c', 00H, 'r'
	DB	00H, 'o', 00H, 's', 00H, 'o', 00H, 'f', 00H, 't', 00H, ' ', 00H
	DB	'v', 00H, 'i', 00H, 's', 00H, 'u', 00H, 'a', 00H, 'l', 00H, ' '
	DB	00H, 's', 00H, 't', 00H, 'u', 00H, 'd', 00H, 'i', 00H, 'o', 00H
	DB	' ', 00H, '1', 00H, '2', 00H, '.', 00H, '0', 00H, '\', 00H, 'v'
	DB	00H, 'c', 00H, '\', 00H, 'i', 00H, 'n', 00H, 'c', 00H, 'l', 00H
	DB	'u', 00H, 'd', 00H, 'e', 00H, '\', 00H, 'v', 00H, 'e', 00H, 'c'
	DB	00H, 't', 00H, 'o', 00H, 'r', 00H, 00H, 00H	; `string'
CONST	ENDS
;	COMDAT ??_C@_1IO@JLPDPDPD@?$AAc?$AA?3?$AA?2?$AAp?$AAr?$AAo?$AAg?$AAr?$AAa?$AAm?$AA?5?$AAf?$AAi?$AAl?$AAe?$AAs?$AA?5?$AA?$CI?$AAx?$AA8?$AA6?$AA?$CJ?$AA?2?$AAm?$AAi?$AAc?$AAr?$AAo?$AAs?$AAo?$AAf?$AAt@
CONST	SEGMENT
??_C@_1IO@JLPDPDPD@?$AAc?$AA?3?$AA?2?$AAp?$AAr?$AAo?$AAg?$AAr?$AAa?$AAm?$AA?5?$AAf?$AAi?$AAl?$AAe?$AAs?$AA?5?$AA?$CI?$AAx?$AA8?$AA6?$AA?$CJ?$AA?2?$AAm?$AAi?$AAc?$AAr?$AAo?$AAs?$AAo?$AAf?$AAt@ DB 'c'
	DB	00H, ':', 00H, '\', 00H, 'p', 00H, 'r', 00H, 'o', 00H, 'g', 00H
	DB	'r', 00H, 'a', 00H, 'm', 00H, ' ', 00H, 'f', 00H, 'i', 00H, 'l'
	DB	00H, 'e', 00H, 's', 00H, ' ', 00H, '(', 00H, 'x', 00H, '8', 00H
	DB	'6', 00H, ')', 00H, '\', 00H, 'm', 00H, 'i', 00H, 'c', 00H, 'r'
	DB	00H, 'o', 00H, 's', 00H, 'o', 00H, 'f', 00H, 't', 00H, ' ', 00H
	DB	'v', 00H, 'i', 00H, 's', 00H, 'u', 00H, 'a', 00H, 'l', 00H, ' '
	DB	00H, 's', 00H, 't', 00H, 'u', 00H, 'd', 00H, 'i', 00H, 'o', 00H
	DB	' ', 00H, '1', 00H, '2', 00H, '.', 00H, '0', 00H, '\', 00H, 'v'
	DB	00H, 'c', 00H, '\', 00H, 'i', 00H, 'n', 00H, 'c', 00H, 'l', 00H
	DB	'u', 00H, 'd', 00H, 'e', 00H, '\', 00H, 'x', 00H, 's', 00H, 't'
	DB	00H, 'r', 00H, 'i', 00H, 'n', 00H, 'g', 00H, 00H, 00H ; `string'
CONST	ENDS
;	COMDAT ??_C@_06GPGIDCJA@points?$AA@
CONST	SEGMENT
??_C@_06GPGIDCJA@points?$AA@ DB 'points', 00H		; `string'
CONST	ENDS
;	COMDAT ??_C@_08MAIKLLAG@polyline?$AA@
CONST	SEGMENT
??_C@_08MAIKLLAG@polyline?$AA@ DB 'polyline', 00H	; `string'
CONST	ENDS
;	COMDAT ??_C@_05LHNLKOKO@Slope?$AA@
CONST	SEGMENT
??_C@_05LHNLKOKO@Slope?$AA@ DB 'Slope', 00H		; `string'
CONST	ENDS
;	COMDAT ??_C@_01EANLCPLP@y?$AA@
CONST	SEGMENT
??_C@_01EANLCPLP@y?$AA@ DB 'y', 00H			; `string'
CONST	ENDS
;	COMDAT ??_C@_01FJMABOPO@x?$AA@
CONST	SEGMENT
??_C@_01FJMABOPO@x?$AA@ DB 'x', 00H			; `string'
CONST	ENDS
;	COMDAT ??_C@_06IEOJBDIK@object?$AA@
CONST	SEGMENT
??_C@_06IEOJBDIK@object?$AA@ DB 'object', 00H		; `string'
CONST	ENDS
;	COMDAT ??_C@_09EOCCEAAK@Collision?$AA@
CONST	SEGMENT
??_C@_09EOCCEAAK@Collision?$AA@ DB 'Collision', 00H	; `string'
CONST	ENDS
;	COMDAT ??_C@_04MEMAJGDJ@name?$AA@
CONST	SEGMENT
??_C@_04MEMAJGDJ@name?$AA@ DB 'name', 00H		; `string'
CONST	ENDS
;	COMDAT ??_C@_0M@MIIFFOHH@objectgroup?$AA@
CONST	SEGMENT
??_C@_0M@MIIFFOHH@objectgroup?$AA@ DB 'objectgroup', 00H ; `string'
CONST	ENDS
;	COMDAT ??_C@_03DONNLBFF@gid?$AA@
CONST	SEGMENT
??_C@_03DONNLBFF@gid?$AA@ DB 'gid', 00H			; `string'
CONST	ENDS
;	COMDAT ??_C@_04CKOGFLMC@tile?$AA@
CONST	SEGMENT
??_C@_04CKOGFLMC@tile?$AA@ DB 'tile', 00H		; `string'
CONST	ENDS
;	COMDAT ??_C@_04PJOLNDGD@data?$AA@
CONST	SEGMENT
??_C@_04PJOLNDGD@data?$AA@ DB 'data', 00H		; `string'
CONST	ENDS
;	COMDAT ??_C@_05NAHLDCCJ@layer?$AA@
CONST	SEGMENT
??_C@_05NAHLDCCJ@layer?$AA@ DB 'layer', 00H		; `string'
CONST	ENDS
;	COMDAT ??_C@_08ODFOMBDL@firstgid?$AA@
CONST	SEGMENT
??_C@_08ODFOMBDL@firstgid?$AA@ DB 'firstgid', 00H	; `string'
CONST	ENDS
;	COMDAT ??_C@_06OEKOLKIL@source?$AA@
CONST	SEGMENT
??_C@_06OEKOLKIL@source?$AA@ DB 'source', 00H		; `string'
CONST	ENDS
;	COMDAT ??_C@_05NGOMGBBD@image?$AA@
CONST	SEGMENT
??_C@_05NGOMGBBD@image?$AA@ DB 'image', 00H		; `string'
CONST	ENDS
;	COMDAT ??_C@_07POMIDLJN@tileset?$AA@
CONST	SEGMENT
??_C@_07POMIDLJN@tileset?$AA@ DB 'tileset', 00H		; `string'
CONST	ENDS
;	COMDAT ??_C@_0L@KAJPMDA@tileheight?$AA@
CONST	SEGMENT
??_C@_0L@KAJPMDA@tileheight?$AA@ DB 'tileheight', 00H	; `string'
CONST	ENDS
;	COMDAT ??_C@_09IFEADKBA@tilewidth?$AA@
CONST	SEGMENT
??_C@_09IFEADKBA@tilewidth?$AA@ DB 'tilewidth', 00H	; `string'
CONST	ENDS
;	COMDAT ??_C@_06LNLHEAAG@height?$AA@
CONST	SEGMENT
??_C@_06LNLHEAAG@height?$AA@ DB 'height', 00H		; `string'
CONST	ENDS
;	COMDAT ??_C@_05IGKADHGO@width?$AA@
CONST	SEGMENT
??_C@_05IGKADHGO@width?$AA@ DB 'width', 00H		; `string'
CONST	ENDS
;	COMDAT ??_C@_03HBNNNHNM@map?$AA@
CONST	SEGMENT
??_C@_03HBNNNHNM@map?$AA@ DB 'map', 00H			; `string'
CONST	ENDS
;	COMDAT ??_C@_0BA@DBLIHGAP@Content?1Levels?1?$AA@
CONST	SEGMENT
??_C@_0BA@DBLIHGAP@Content?1Levels?1?$AA@ DB 'Content/Levels/', 00H ; `string'
CONST	ENDS
;	COMDAT ??_C@_04EJIAFMB@?4tmx?$AA@
CONST	SEGMENT
??_C@_04EJIAFMB@?4tmx?$AA@ DB '.tmx', 00H		; `string'
CONST	ENDS
;	COMDAT ??_8?$basic_stringstream@DU?$char_traits@D@std@@V?$allocator@D@2@@std@@7B?$basic_ostream@DU?$char_traits@D@std@@@1@@
CONST	SEGMENT
??_8?$basic_stringstream@DU?$char_traits@D@std@@V?$allocator@D@2@@std@@7B?$basic_ostream@DU?$char_traits@D@std@@@1@@ DD 00H ; std::basic_stringstream<char,std::char_traits<char>,std::allocator<char> >::`vbtable'
	DD	058H
CONST	ENDS
;	COMDAT ??_8?$basic_stringstream@DU?$char_traits@D@std@@V?$allocator@D@2@@std@@7B?$basic_istream@DU?$char_traits@D@std@@@1@@
CONST	SEGMENT
??_8?$basic_stringstream@DU?$char_traits@D@std@@V?$allocator@D@2@@std@@7B?$basic_istream@DU?$char_traits@D@std@@@1@@ DD 00H ; std::basic_stringstream<char,std::char_traits<char>,std::allocator<char> >::`vbtable'
	DD	068H
CONST	ENDS
;	COMDAT ??_7?$basic_stringstream@DU?$char_traits@D@std@@V?$allocator@D@2@@std@@6B@
CONST	SEGMENT
??_7?$basic_stringstream@DU?$char_traits@D@std@@V?$allocator@D@2@@std@@6B@ DD FLAT:??_R4?$basic_stringstream@DU?$char_traits@D@std@@V?$allocator@D@2@@std@@6B@ ; std::basic_stringstream<char,std::char_traits<char>,std::allocator<char> >::`vftable'
	DD	FLAT:??_E?$basic_stringstream@DU?$char_traits@D@std@@V?$allocator@D@2@@std@@$4PPPPPPPM@A@AEPAXI@Z
CONST	ENDS
;	COMDAT ??_7?$basic_stringbuf@DU?$char_traits@D@std@@V?$allocator@D@2@@std@@6B@
CONST	SEGMENT
??_7?$basic_stringbuf@DU?$char_traits@D@std@@V?$allocator@D@2@@std@@6B@ DD FLAT:??_R4?$basic_stringbuf@DU?$char_traits@D@std@@V?$allocator@D@2@@std@@6B@ ; std::basic_stringbuf<char,std::char_traits<char>,std::allocator<char> >::`vftable'
	DD	FLAT:??_E?$basic_stringbuf@DU?$char_traits@D@std@@V?$allocator@D@2@@std@@UAEPAXI@Z
	DD	FLAT:?_Lock@?$basic_streambuf@DU?$char_traits@D@std@@@std@@UAEXXZ
	DD	FLAT:?_Unlock@?$basic_streambuf@DU?$char_traits@D@std@@@std@@UAEXXZ
	DD	FLAT:?overflow@?$basic_stringbuf@DU?$char_traits@D@std@@V?$allocator@D@2@@std@@MAEHH@Z
	DD	FLAT:?pbackfail@?$basic_stringbuf@DU?$char_traits@D@std@@V?$allocator@D@2@@std@@MAEHH@Z
	DD	FLAT:?showmanyc@?$basic_streambuf@DU?$char_traits@D@std@@@std@@MAE_JXZ
	DD	FLAT:?underflow@?$basic_stringbuf@DU?$char_traits@D@std@@V?$allocator@D@2@@std@@MAEHXZ
	DD	FLAT:?uflow@?$basic_streambuf@DU?$char_traits@D@std@@@std@@MAEHXZ
	DD	FLAT:?xsgetn@?$basic_streambuf@DU?$char_traits@D@std@@@std@@MAE_JPAD_J@Z
	DD	FLAT:?xsputn@?$basic_streambuf@DU?$char_traits@D@std@@@std@@MAE_JPBD_J@Z
	DD	FLAT:?seekoff@?$basic_stringbuf@DU?$char_traits@D@std@@V?$allocator@D@2@@std@@MAE?AV?$fpos@H@2@_JHH@Z
	DD	FLAT:?seekpos@?$basic_stringbuf@DU?$char_traits@D@std@@V?$allocator@D@2@@std@@MAE?AV?$fpos@H@2@V32@H@Z
	DD	FLAT:?setbuf@?$basic_streambuf@DU?$char_traits@D@std@@@std@@MAEPAV12@PAD_J@Z
	DD	FLAT:?sync@?$basic_streambuf@DU?$char_traits@D@std@@@std@@MAEHXZ
	DD	FLAT:?imbue@?$basic_streambuf@DU?$char_traits@D@std@@@std@@MAEXABVlocale@2@@Z
CONST	ENDS
;	COMDAT ??_C@_0BP@HNOCAMCO@Content?1Backgrounds?1bkBlue?4png?$AA@
CONST	SEGMENT
??_C@_0BP@HNOCAMCO@Content?1Backgrounds?1bkBlue?4png?$AA@ DB 'Content/Bac'
	DB	'kgrounds/bkBlue.png', 00H			; `string'
CONST	ENDS
;	COMDAT ??_C@_0BL@MFFNMGGC@stoi?5argument?5out?5of?5range?$AA@
CONST	SEGMENT
??_C@_0BL@MFFNMGGC@stoi?5argument?5out?5of?5range?$AA@ DB 'stoi argument '
	DB	'out of range', 00H				; `string'
CONST	ENDS
;	COMDAT ??_C@_0BG@HGEDEDEC@invalid?5stoi?5argument?$AA@
CONST	SEGMENT
??_C@_0BG@HGEDEDEC@invalid?5stoi?5argument?$AA@ DB 'invalid stoi argument'
	DB	00H						; `string'
CONST	ENDS
;	COMDAT ??_C@_06FHFOAHML@system?$AA@
CONST	SEGMENT
??_C@_06FHFOAHML@system?$AA@ DB 'system', 00H		; `string'
CONST	ENDS
;	COMDAT ??_7_System_error_category@std@@6B@
CONST	SEGMENT
??_7_System_error_category@std@@6B@ DD FLAT:??_R4_System_error_category@std@@6B@ ; std::_System_error_category::`vftable'
	DD	FLAT:??_E_System_error_category@std@@UAEPAXI@Z
	DD	FLAT:?name@_System_error_category@std@@UBEPBDXZ
	DD	FLAT:?message@_System_error_category@std@@UBE?AV?$basic_string@DU?$char_traits@D@std@@V?$allocator@D@2@@2@H@Z
	DD	FLAT:?default_error_condition@_System_error_category@std@@UBE?AVerror_condition@2@H@Z
	DD	FLAT:?equivalent@error_category@std@@UBE_NABVerror_code@2@H@Z
	DD	FLAT:?equivalent@error_category@std@@UBE_NHABVerror_condition@2@@Z
CONST	ENDS
;	COMDAT ??_C@_0BG@PADBLCHM@iostream?5stream?5error?$AA@
CONST	SEGMENT
??_C@_0BG@PADBLCHM@iostream?5stream?5error?$AA@ DB 'iostream stream error'
	DB	00H						; `string'
CONST	ENDS
;	COMDAT ??_C@_08LLGCOLLL@iostream?$AA@
CONST	SEGMENT
??_C@_08LLGCOLLL@iostream?$AA@ DB 'iostream', 00H	; `string'
CONST	ENDS
;	COMDAT ??_7_Iostream_error_category@std@@6B@
CONST	SEGMENT
??_7_Iostream_error_category@std@@6B@ DD FLAT:??_R4_Iostream_error_category@std@@6B@ ; std::_Iostream_error_category::`vftable'
	DD	FLAT:??_E_Iostream_error_category@std@@UAEPAXI@Z
	DD	FLAT:?name@_Iostream_error_category@std@@UBEPBDXZ
	DD	FLAT:?message@_Iostream_error_category@std@@UBE?AV?$basic_string@DU?$char_traits@D@std@@V?$allocator@D@2@@2@H@Z
	DD	FLAT:?default_error_condition@error_category@std@@UBE?AVerror_condition@2@H@Z
	DD	FLAT:?equivalent@error_category@std@@UBE_NABVerror_code@2@H@Z
	DD	FLAT:?equivalent@error_category@std@@UBE_NHABVerror_condition@2@@Z
CONST	ENDS
;	COMDAT ??_C@_0O@BFJCFAAK@unknown?5error?$AA@
CONST	SEGMENT
??_C@_0O@BFJCFAAK@unknown?5error?$AA@ DB 'unknown error', 00H ; `string'
CONST	ENDS
;	COMDAT ??_C@_07DCLBNMLN@generic?$AA@
CONST	SEGMENT
??_C@_07DCLBNMLN@generic?$AA@ DB 'generic', 00H		; `string'
CONST	ENDS
;	COMDAT ??_7_Generic_error_category@std@@6B@
CONST	SEGMENT
??_7_Generic_error_category@std@@6B@ DD FLAT:??_R4_Generic_error_category@std@@6B@ ; std::_Generic_error_category::`vftable'
	DD	FLAT:??_E_Generic_error_category@std@@UAEPAXI@Z
	DD	FLAT:?name@_Generic_error_category@std@@UBEPBDXZ
	DD	FLAT:?message@_Generic_error_category@std@@UBE?AV?$basic_string@DU?$char_traits@D@std@@V?$allocator@D@2@@2@H@Z
	DD	FLAT:?default_error_condition@error_category@std@@UBE?AVerror_condition@2@H@Z
	DD	FLAT:?equivalent@error_category@std@@UBE_NABVerror_code@2@H@Z
	DD	FLAT:?equivalent@error_category@std@@UBE_NHABVerror_condition@2@@Z
CONST	ENDS
;	COMDAT ??_7error_category@std@@6B@
CONST	SEGMENT
??_7error_category@std@@6B@ DD FLAT:??_R4error_category@std@@6B@ ; std::error_category::`vftable'
	DD	FLAT:??_Eerror_category@std@@UAEPAXI@Z
	DD	FLAT:__purecall
	DD	FLAT:__purecall
	DD	FLAT:?default_error_condition@error_category@std@@UBE?AVerror_condition@2@H@Z
	DD	FLAT:?equivalent@error_category@std@@UBE_NABVerror_code@2@H@Z
	DD	FLAT:?equivalent@error_category@std@@UBE_NHABVerror_condition@2@@Z
CONST	ENDS
;	COMDAT ?npos@?$basic_string@DU?$char_traits@D@std@@V?$allocator@D@2@@std@@2IB
CONST	SEGMENT
?npos@?$basic_string@DU?$char_traits@D@std@@V?$allocator@D@2@@std@@2IB DD 0ffffffffH ; std::basic_string<char,std::char_traits<char>,std::allocator<char> >::npos
CONST	ENDS
;	COMDAT xdata$x
xdata$x	SEGMENT
__unwindtable$??$construct@VTile@@V1@@?$allocator@VTile@@@std@@QAEXPAVTile@@$$QAV2@@Z DD 0ffffffffH
	DD	FLAT:__unwindfunclet$??$construct@VTile@@V1@@?$allocator@VTile@@@std@@QAEXPAVTile@@$$QAV2@@Z$0
__ehfuncinfo$??$construct@VTile@@V1@@?$allocator@VTile@@@std@@QAEXPAVTile@@$$QAV2@@Z DD 019930522H
	DD	01H
	DD	FLAT:__unwindtable$??$construct@VTile@@V1@@?$allocator@VTile@@@std@@QAEXPAVTile@@$$QAV2@@Z
	DD	2 DUP(00H)
	DD	2 DUP(00H)
	DD	00H
	DD	01H
xdata$x	ENDS
;	COMDAT xdata$x
xdata$x	SEGMENT
__unwindtable$??$construct@USDL_Rect@@U1@@?$allocator@USDL_Rect@@@std@@QAEXPAUSDL_Rect@@$$QAU2@@Z DD 0ffffffffH
	DD	FLAT:__unwindfunclet$??$construct@USDL_Rect@@U1@@?$allocator@USDL_Rect@@@std@@QAEXPAUSDL_Rect@@$$QAU2@@Z$0
__ehfuncinfo$??$construct@USDL_Rect@@U1@@?$allocator@USDL_Rect@@@std@@QAEXPAUSDL_Rect@@$$QAU2@@Z DD 019930522H
	DD	01H
	DD	FLAT:__unwindtable$??$construct@USDL_Rect@@U1@@?$allocator@USDL_Rect@@@std@@QAEXPAUSDL_Rect@@$$QAU2@@Z
	DD	2 DUP(00H)
	DD	2 DUP(00H)
	DD	00H
	DD	01H
xdata$x	ENDS
;	COMDAT xdata$x
xdata$x	SEGMENT
__catchsym$??$_Uninit_move@PAUVector2@@PAU1@V?$allocator@UVector2@@@std@@U1@@std@@YAPAUVector2@@PAU1@00AAU?$_Wrap_alloc@V?$allocator@UVector2@@@std@@@0@0U_Nonscalar_ptr_iterator_tag@0@@Z$2 DD 040H
	DD	00H
	DD	00H
	DD	FLAT:__catch$??$_Uninit_move@PAUVector2@@PAU1@V?$allocator@UVector2@@@std@@U1@@std@@YAPAUVector2@@PAU1@00AAU?$_Wrap_alloc@V?$allocator@UVector2@@@std@@@0@0U_Nonscalar_ptr_iterator_tag@0@@Z$0
__unwindtable$??$_Uninit_move@PAUVector2@@PAU1@V?$allocator@UVector2@@@std@@U1@@std@@YAPAUVector2@@PAU1@00AAU?$_Wrap_alloc@V?$allocator@UVector2@@@std@@@0@0U_Nonscalar_ptr_iterator_tag@0@@Z DD 0ffffffffH
	DD	00H
	DD	0ffffffffH
	DD	00H
__tryblocktable$??$_Uninit_move@PAUVector2@@PAU1@V?$allocator@UVector2@@@std@@U1@@std@@YAPAUVector2@@PAU1@00AAU?$_Wrap_alloc@V?$allocator@UVector2@@@std@@@0@0U_Nonscalar_ptr_iterator_tag@0@@Z DD 00H
	DD	00H
	DD	01H
	DD	01H
	DD	FLAT:__catchsym$??$_Uninit_move@PAUVector2@@PAU1@V?$allocator@UVector2@@@std@@U1@@std@@YAPAUVector2@@PAU1@00AAU?$_Wrap_alloc@V?$allocator@UVector2@@@std@@@0@0U_Nonscalar_ptr_iterator_tag@0@@Z$2
__ehfuncinfo$??$_Uninit_move@PAUVector2@@PAU1@V?$allocator@UVector2@@@std@@U1@@std@@YAPAUVector2@@PAU1@00AAU?$_Wrap_alloc@V?$allocator@UVector2@@@std@@@0@0U_Nonscalar_ptr_iterator_tag@0@@Z DD 019930522H
	DD	02H
	DD	FLAT:__unwindtable$??$_Uninit_move@PAUVector2@@PAU1@V?$allocator@UVector2@@@std@@U1@@std@@YAPAUVector2@@PAU1@00AAU?$_Wrap_alloc@V?$allocator@UVector2@@@std@@@0@0U_Nonscalar_ptr_iterator_tag@0@@Z
	DD	01H
	DD	FLAT:__tryblocktable$??$_Uninit_move@PAUVector2@@PAU1@V?$allocator@UVector2@@@std@@U1@@std@@YAPAUVector2@@PAU1@00AAU?$_Wrap_alloc@V?$allocator@UVector2@@@std@@@0@0U_Nonscalar_ptr_iterator_tag@0@@Z
	DD	2 DUP(00H)
	DD	00H
	DD	01H
xdata$x	ENDS
;	COMDAT xdata$x
xdata$x	SEGMENT
__catchsym$??$_Uninit_move@PAV?$basic_string@DU?$char_traits@D@std@@V?$allocator@D@2@@std@@PAV12@V?$allocator@V?$basic_string@DU?$char_traits@D@std@@V?$allocator@D@2@@std@@@2@V12@@std@@YAPAV?$basic_string@DU?$char_traits@D@std@@V?$allocator@D@2@@0@PAV10@00AAU?$_Wrap_alloc@V?$allocator@V?$basic_string@DU?$char_traits@D@std@@V?$allocator@D@2@@std@@@std@@@0@0U_Nonscalar_ptr_iterator_tag@0@@Z$2 DD 040H
	DD	00H
	DD	00H
	DD	FLAT:__catch$??$_Uninit_move@PAV?$basic_string@DU?$char_traits@D@std@@V?$allocator@D@2@@std@@PAV12@V?$allocator@V?$basic_string@DU?$char_traits@D@std@@V?$allocator@D@2@@std@@@2@V12@@std@@YAPAV?$basic_string@DU?$char_traits@D@std@@V?$allocator@D@2@@0@PAV10@00AAU?$_Wrap_alloc@V?$allocator@V?$basic_string@DU?$char_traits@D@std@@V?$allocator@D@2@@std@@@std@@@0@0U_Nonscalar_ptr_iterator_tag@0@@Z$0
__unwindtable$??$_Uninit_move@PAV?$basic_string@DU?$char_traits@D@std@@V?$allocator@D@2@@std@@PAV12@V?$allocator@V?$basic_string@DU?$char_traits@D@std@@V?$allocator@D@2@@std@@@2@V12@@std@@YAPAV?$basic_string@DU?$char_traits@D@std@@V?$allocator@D@2@@0@PAV10@00AAU?$_Wrap_alloc@V?$allocator@V?$basic_string@DU?$char_traits@D@std@@V?$allocator@D@2@@std@@@std@@@0@0U_Nonscalar_ptr_iterator_tag@0@@Z DD 0ffffffffH
	DD	00H
	DD	0ffffffffH
	DD	00H
__tryblocktable$??$_Uninit_move@PAV?$basic_string@DU?$char_traits@D@std@@V?$allocator@D@2@@std@@PAV12@V?$allocator@V?$basic_string@DU?$char_traits@D@std@@V?$allocator@D@2@@std@@@2@V12@@std@@YAPAV?$basic_string@DU?$char_traits@D@std@@V?$allocator@D@2@@0@PAV10@00AAU?$_Wrap_alloc@V?$allocator@V?$basic_string@DU?$char_traits@D@std@@V?$allocator@D@2@@std@@@std@@@0@0U_Nonscalar_ptr_iterator_tag@0@@Z DD 00H
	DD	00H
	DD	01H
	DD	01H
	DD	FLAT:__catchsym$??$_Uninit_move@PAV?$basic_string@DU?$char_traits@D@std@@V?$allocator@D@2@@std@@PAV12@V?$allocator@V?$basic_string@DU?$char_traits@D@std@@V?$allocator@D@2@@std@@@2@V12@@std@@YAPAV?$basic_string@DU?$char_traits@D@std@@V?$allocator@D@2@@0@PAV10@00AAU?$_Wrap_alloc@V?$allocator@V?$basic_string@DU?$char_traits@D@std@@V?$allocator@D@2@@std@@@std@@@0@0U_Nonscalar_ptr_iterator_tag@0@@Z$2
__ehfuncinfo$??$_Uninit_move@PAV?$basic_string@DU?$char_traits@D@std@@V?$allocator@D@2@@std@@PAV12@V?$allocator@V?$basic_string@DU?$char_traits@D@std@@V?$allocator@D@2@@std@@@2@V12@@std@@YAPAV?$basic_string@DU?$char_traits@D@std@@V?$allocator@D@2@@0@PAV10@00AAU?$_Wrap_alloc@V?$allocator@V?$basic_string@DU?$char_traits@D@std@@V?$allocator@D@2@@std@@@std@@@0@0U_Nonscalar_ptr_iterator_tag@0@@Z DD 019930522H
	DD	02H
	DD	FLAT:__unwindtable$??$_Uninit_move@PAV?$basic_string@DU?$char_traits@D@std@@V?$allocator@D@2@@std@@PAV12@V?$allocator@V?$basic_string@DU?$char_traits@D@std@@V?$allocator@D@2@@std@@@2@V12@@std@@YAPAV?$basic_string@DU?$char_traits@D@std@@V?$allocator@D@2@@0@PAV10@00AAU?$_Wrap_alloc@V?$allocator@V?$basic_string@DU?$char_traits@D@std@@V?$allocator@D@2@@std@@@std@@@0@0U_Nonscalar_ptr_iterator_tag@0@@Z
	DD	01H
	DD	FLAT:__tryblocktable$??$_Uninit_move@PAV?$basic_string@DU?$char_traits@D@std@@V?$allocator@D@2@@std@@PAV12@V?$allocator@V?$basic_string@DU?$char_traits@D@std@@V?$allocator@D@2@@std@@@2@V12@@std@@YAPAV?$basic_string@DU?$char_traits@D@std@@V?$allocator@D@2@@0@PAV10@00AAU?$_Wrap_alloc@V?$allocator@V?$basic_string@DU?$char_traits@D@std@@V?$allocator@D@2@@std@@@std@@@0@0U_Nonscalar_ptr_iterator_tag@0@@Z
	DD	2 DUP(00H)
	DD	00H
	DD	01H
xdata$x	ENDS
;	COMDAT xdata$x
xdata$x	SEGMENT
__catchsym$??$_Uninit_move@PAVCaveSlope@@PAV1@V?$allocator@VCaveSlope@@@std@@V1@@std@@YAPAVCaveSlope@@PAV1@00AAU?$_Wrap_alloc@V?$allocator@VCaveSlope@@@std@@@0@0U_Nonscalar_ptr_iterator_tag@0@@Z$2 DD 040H
	DD	00H
	DD	00H
	DD	FLAT:__catch$??$_Uninit_move@PAVCaveSlope@@PAV1@V?$allocator@VCaveSlope@@@std@@V1@@std@@YAPAVCaveSlope@@PAV1@00AAU?$_Wrap_alloc@V?$allocator@VCaveSlope@@@std@@@0@0U_Nonscalar_ptr_iterator_tag@0@@Z$0
__unwindtable$??$_Uninit_move@PAVCaveSlope@@PAV1@V?$allocator@VCaveSlope@@@std@@V1@@std@@YAPAVCaveSlope@@PAV1@00AAU?$_Wrap_alloc@V?$allocator@VCaveSlope@@@std@@@0@0U_Nonscalar_ptr_iterator_tag@0@@Z DD 0ffffffffH
	DD	00H
	DD	0ffffffffH
	DD	00H
__tryblocktable$??$_Uninit_move@PAVCaveSlope@@PAV1@V?$allocator@VCaveSlope@@@std@@V1@@std@@YAPAVCaveSlope@@PAV1@00AAU?$_Wrap_alloc@V?$allocator@VCaveSlope@@@std@@@0@0U_Nonscalar_ptr_iterator_tag@0@@Z DD 00H
	DD	00H
	DD	01H
	DD	01H
	DD	FLAT:__catchsym$??$_Uninit_move@PAVCaveSlope@@PAV1@V?$allocator@VCaveSlope@@@std@@V1@@std@@YAPAVCaveSlope@@PAV1@00AAU?$_Wrap_alloc@V?$allocator@VCaveSlope@@@std@@@0@0U_Nonscalar_ptr_iterator_tag@0@@Z$2
__ehfuncinfo$??$_Uninit_move@PAVCaveSlope@@PAV1@V?$allocator@VCaveSlope@@@std@@V1@@std@@YAPAVCaveSlope@@PAV1@00AAU?$_Wrap_alloc@V?$allocator@VCaveSlope@@@std@@@0@0U_Nonscalar_ptr_iterator_tag@0@@Z DD 019930522H
	DD	02H
	DD	FLAT:__unwindtable$??$_Uninit_move@PAVCaveSlope@@PAV1@V?$allocator@VCaveSlope@@@std@@V1@@std@@YAPAVCaveSlope@@PAV1@00AAU?$_Wrap_alloc@V?$allocator@VCaveSlope@@@std@@@0@0U_Nonscalar_ptr_iterator_tag@0@@Z
	DD	01H
	DD	FLAT:__tryblocktable$??$_Uninit_move@PAVCaveSlope@@PAV1@V?$allocator@VCaveSlope@@@std@@V1@@std@@YAPAVCaveSlope@@PAV1@00AAU?$_Wrap_alloc@V?$allocator@VCaveSlope@@@std@@@0@0U_Nonscalar_ptr_iterator_tag@0@@Z
	DD	2 DUP(00H)
	DD	00H
	DD	01H
xdata$x	ENDS
;	COMDAT xdata$x
xdata$x	SEGMENT
__catchsym$??$_Uninit_move@PAVCaveRectangle@@PAV1@V?$allocator@VCaveRectangle@@@std@@V1@@std@@YAPAVCaveRectangle@@PAV1@00AAU?$_Wrap_alloc@V?$allocator@VCaveRectangle@@@std@@@0@0U_Nonscalar_ptr_iterator_tag@0@@Z$2 DD 040H
	DD	00H
	DD	00H
	DD	FLAT:__catch$??$_Uninit_move@PAVCaveRectangle@@PAV1@V?$allocator@VCaveRectangle@@@std@@V1@@std@@YAPAVCaveRectangle@@PAV1@00AAU?$_Wrap_alloc@V?$allocator@VCaveRectangle@@@std@@@0@0U_Nonscalar_ptr_iterator_tag@0@@Z$0
__unwindtable$??$_Uninit_move@PAVCaveRectangle@@PAV1@V?$allocator@VCaveRectangle@@@std@@V1@@std@@YAPAVCaveRectangle@@PAV1@00AAU?$_Wrap_alloc@V?$allocator@VCaveRectangle@@@std@@@0@0U_Nonscalar_ptr_iterator_tag@0@@Z DD 0ffffffffH
	DD	00H
	DD	0ffffffffH
	DD	00H
__tryblocktable$??$_Uninit_move@PAVCaveRectangle@@PAV1@V?$allocator@VCaveRectangle@@@std@@V1@@std@@YAPAVCaveRectangle@@PAV1@00AAU?$_Wrap_alloc@V?$allocator@VCaveRectangle@@@std@@@0@0U_Nonscalar_ptr_iterator_tag@0@@Z DD 00H
	DD	00H
	DD	01H
	DD	01H
	DD	FLAT:__catchsym$??$_Uninit_move@PAVCaveRectangle@@PAV1@V?$allocator@VCaveRectangle@@@std@@V1@@std@@YAPAVCaveRectangle@@PAV1@00AAU?$_Wrap_alloc@V?$allocator@VCaveRectangle@@@std@@@0@0U_Nonscalar_ptr_iterator_tag@0@@Z$2
__ehfuncinfo$??$_Uninit_move@PAVCaveRectangle@@PAV1@V?$allocator@VCaveRectangle@@@std@@V1@@std@@YAPAVCaveRectangle@@PAV1@00AAU?$_Wrap_alloc@V?$allocator@VCaveRectangle@@@std@@@0@0U_Nonscalar_ptr_iterator_tag@0@@Z DD 019930522H
	DD	02H
	DD	FLAT:__unwindtable$??$_Uninit_move@PAVCaveRectangle@@PAV1@V?$allocator@VCaveRectangle@@@std@@V1@@std@@YAPAVCaveRectangle@@PAV1@00AAU?$_Wrap_alloc@V?$allocator@VCaveRectangle@@@std@@@0@0U_Nonscalar_ptr_iterator_tag@0@@Z
	DD	01H
	DD	FLAT:__tryblocktable$??$_Uninit_move@PAVCaveRectangle@@PAV1@V?$allocator@VCaveRectangle@@@std@@V1@@std@@YAPAVCaveRectangle@@PAV1@00AAU?$_Wrap_alloc@V?$allocator@VCaveRectangle@@@std@@@0@0U_Nonscalar_ptr_iterator_tag@0@@Z
	DD	2 DUP(00H)
	DD	00H
	DD	01H
xdata$x	ENDS
;	COMDAT xdata$x
xdata$x	SEGMENT
__catchsym$??$_Uninit_move@PAUTileSet@@PAU1@V?$allocator@UTileSet@@@std@@U1@@std@@YAPAUTileSet@@PAU1@00AAU?$_Wrap_alloc@V?$allocator@UTileSet@@@std@@@0@0U_Nonscalar_ptr_iterator_tag@0@@Z$2 DD 040H
	DD	00H
	DD	00H
	DD	FLAT:__catch$??$_Uninit_move@PAUTileSet@@PAU1@V?$allocator@UTileSet@@@std@@U1@@std@@YAPAUTileSet@@PAU1@00AAU?$_Wrap_alloc@V?$allocator@UTileSet@@@std@@@0@0U_Nonscalar_ptr_iterator_tag@0@@Z$0
__unwindtable$??$_Uninit_move@PAUTileSet@@PAU1@V?$allocator@UTileSet@@@std@@U1@@std@@YAPAUTileSet@@PAU1@00AAU?$_Wrap_alloc@V?$allocator@UTileSet@@@std@@@0@0U_Nonscalar_ptr_iterator_tag@0@@Z DD 0ffffffffH
	DD	00H
	DD	0ffffffffH
	DD	00H
__tryblocktable$??$_Uninit_move@PAUTileSet@@PAU1@V?$allocator@UTileSet@@@std@@U1@@std@@YAPAUTileSet@@PAU1@00AAU?$_Wrap_alloc@V?$allocator@UTileSet@@@std@@@0@0U_Nonscalar_ptr_iterator_tag@0@@Z DD 00H
	DD	00H
	DD	01H
	DD	01H
	DD	FLAT:__catchsym$??$_Uninit_move@PAUTileSet@@PAU1@V?$allocator@UTileSet@@@std@@U1@@std@@YAPAUTileSet@@PAU1@00AAU?$_Wrap_alloc@V?$allocator@UTileSet@@@std@@@0@0U_Nonscalar_ptr_iterator_tag@0@@Z$2
__ehfuncinfo$??$_Uninit_move@PAUTileSet@@PAU1@V?$allocator@UTileSet@@@std@@U1@@std@@YAPAUTileSet@@PAU1@00AAU?$_Wrap_alloc@V?$allocator@UTileSet@@@std@@@0@0U_Nonscalar_ptr_iterator_tag@0@@Z DD 019930522H
	DD	02H
	DD	FLAT:__unwindtable$??$_Uninit_move@PAUTileSet@@PAU1@V?$allocator@UTileSet@@@std@@U1@@std@@YAPAUTileSet@@PAU1@00AAU?$_Wrap_alloc@V?$allocator@UTileSet@@@std@@@0@0U_Nonscalar_ptr_iterator_tag@0@@Z
	DD	01H
	DD	FLAT:__tryblocktable$??$_Uninit_move@PAUTileSet@@PAU1@V?$allocator@UTileSet@@@std@@U1@@std@@YAPAUTileSet@@PAU1@00AAU?$_Wrap_alloc@V?$allocator@UTileSet@@@std@@@0@0U_Nonscalar_ptr_iterator_tag@0@@Z
	DD	2 DUP(00H)
	DD	00H
	DD	01H
xdata$x	ENDS
;	COMDAT xdata$x
xdata$x	SEGMENT
__catchsym$??$_Uninit_move@PAVTile@@PAV1@V?$allocator@VTile@@@std@@V1@@std@@YAPAVTile@@PAV1@00AAU?$_Wrap_alloc@V?$allocator@VTile@@@std@@@0@0U_Nonscalar_ptr_iterator_tag@0@@Z$2 DD 040H
	DD	00H
	DD	00H
	DD	FLAT:__catch$??$_Uninit_move@PAVTile@@PAV1@V?$allocator@VTile@@@std@@V1@@std@@YAPAVTile@@PAV1@00AAU?$_Wrap_alloc@V?$allocator@VTile@@@std@@@0@0U_Nonscalar_ptr_iterator_tag@0@@Z$0
__unwindtable$??$_Uninit_move@PAVTile@@PAV1@V?$allocator@VTile@@@std@@V1@@std@@YAPAVTile@@PAV1@00AAU?$_Wrap_alloc@V?$allocator@VTile@@@std@@@0@0U_Nonscalar_ptr_iterator_tag@0@@Z DD 0ffffffffH
	DD	00H
	DD	0ffffffffH
	DD	00H
__tryblocktable$??$_Uninit_move@PAVTile@@PAV1@V?$allocator@VTile@@@std@@V1@@std@@YAPAVTile@@PAV1@00AAU?$_Wrap_alloc@V?$allocator@VTile@@@std@@@0@0U_Nonscalar_ptr_iterator_tag@0@@Z DD 00H
	DD	00H
	DD	01H
	DD	01H
	DD	FLAT:__catchsym$??$_Uninit_move@PAVTile@@PAV1@V?$allocator@VTile@@@std@@V1@@std@@YAPAVTile@@PAV1@00AAU?$_Wrap_alloc@V?$allocator@VTile@@@std@@@0@0U_Nonscalar_ptr_iterator_tag@0@@Z$2
__ehfuncinfo$??$_Uninit_move@PAVTile@@PAV1@V?$allocator@VTile@@@std@@V1@@std@@YAPAVTile@@PAV1@00AAU?$_Wrap_alloc@V?$allocator@VTile@@@std@@@0@0U_Nonscalar_ptr_iterator_tag@0@@Z DD 019930522H
	DD	02H
	DD	FLAT:__unwindtable$??$_Uninit_move@PAVTile@@PAV1@V?$allocator@VTile@@@std@@V1@@std@@YAPAVTile@@PAV1@00AAU?$_Wrap_alloc@V?$allocator@VTile@@@std@@@0@0U_Nonscalar_ptr_iterator_tag@0@@Z
	DD	01H
	DD	FLAT:__tryblocktable$??$_Uninit_move@PAVTile@@PAV1@V?$allocator@VTile@@@std@@V1@@std@@YAPAVTile@@PAV1@00AAU?$_Wrap_alloc@V?$allocator@VTile@@@std@@@0@0U_Nonscalar_ptr_iterator_tag@0@@Z
	DD	2 DUP(00H)
	DD	00H
	DD	01H
xdata$x	ENDS
;	COMDAT xdata$x
xdata$x	SEGMENT
__catchsym$??$_Uninit_move@PAUSDL_Rect@@PAU1@V?$allocator@USDL_Rect@@@std@@U1@@std@@YAPAUSDL_Rect@@PAU1@00AAU?$_Wrap_alloc@V?$allocator@USDL_Rect@@@std@@@0@0U_Nonscalar_ptr_iterator_tag@0@@Z$2 DD 040H
	DD	00H
	DD	00H
	DD	FLAT:__catch$??$_Uninit_move@PAUSDL_Rect@@PAU1@V?$allocator@USDL_Rect@@@std@@U1@@std@@YAPAUSDL_Rect@@PAU1@00AAU?$_Wrap_alloc@V?$allocator@USDL_Rect@@@std@@@0@0U_Nonscalar_ptr_iterator_tag@0@@Z$0
__unwindtable$??$_Uninit_move@PAUSDL_Rect@@PAU1@V?$allocator@USDL_Rect@@@std@@U1@@std@@YAPAUSDL_Rect@@PAU1@00AAU?$_Wrap_alloc@V?$allocator@USDL_Rect@@@std@@@0@0U_Nonscalar_ptr_iterator_tag@0@@Z DD 0ffffffffH
	DD	00H
	DD	0ffffffffH
	DD	00H
__tryblocktable$??$_Uninit_move@PAUSDL_Rect@@PAU1@V?$allocator@USDL_Rect@@@std@@U1@@std@@YAPAUSDL_Rect@@PAU1@00AAU?$_Wrap_alloc@V?$allocator@USDL_Rect@@@std@@@0@0U_Nonscalar_ptr_iterator_tag@0@@Z DD 00H
	DD	00H
	DD	01H
	DD	01H
	DD	FLAT:__catchsym$??$_Uninit_move@PAUSDL_Rect@@PAU1@V?$allocator@USDL_Rect@@@std@@U1@@std@@YAPAUSDL_Rect@@PAU1@00AAU?$_Wrap_alloc@V?$allocator@USDL_Rect@@@std@@@0@0U_Nonscalar_ptr_iterator_tag@0@@Z$2
__ehfuncinfo$??$_Uninit_move@PAUSDL_Rect@@PAU1@V?$allocator@USDL_Rect@@@std@@U1@@std@@YAPAUSDL_Rect@@PAU1@00AAU?$_Wrap_alloc@V?$allocator@USDL_Rect@@@std@@@0@0U_Nonscalar_ptr_iterator_tag@0@@Z DD 019930522H
	DD	02H
	DD	FLAT:__unwindtable$??$_Uninit_move@PAUSDL_Rect@@PAU1@V?$allocator@USDL_Rect@@@std@@U1@@std@@YAPAUSDL_Rect@@PAU1@00AAU?$_Wrap_alloc@V?$allocator@USDL_Rect@@@std@@@0@0U_Nonscalar_ptr_iterator_tag@0@@Z
	DD	01H
	DD	FLAT:__tryblocktable$??$_Uninit_move@PAUSDL_Rect@@PAU1@V?$allocator@USDL_Rect@@@std@@U1@@std@@YAPAUSDL_Rect@@PAU1@00AAU?$_Wrap_alloc@V?$allocator@USDL_Rect@@@std@@@0@0U_Nonscalar_ptr_iterator_tag@0@@Z
	DD	2 DUP(00H)
	DD	00H
	DD	01H
xdata$x	ENDS
;	COMDAT xdata$x
xdata$x	SEGMENT
__unwindtable$??$construct@PADAAPAD@?$allocator@D@std@@QAEXPAPADAAPAD@Z DD 0ffffffffH
	DD	FLAT:__unwindfunclet$??$construct@PADAAPAD@?$allocator@D@std@@QAEXPAPADAAPAD@Z$0
__ehfuncinfo$??$construct@PADAAPAD@?$allocator@D@std@@QAEXPAPADAAPAD@Z DD 019930522H
	DD	01H
	DD	FLAT:__unwindtable$??$construct@PADAAPAD@?$allocator@D@std@@QAEXPAPADAAPAD@Z
	DD	2 DUP(00H)
	DD	2 DUP(00H)
	DD	00H
	DD	01H
xdata$x	ENDS
;	COMDAT xdata$x
xdata$x	SEGMENT
__unwindtable$??$construct@UVector2@@U1@@?$allocator@UVector2@@@std@@QAEXPAUVector2@@$$QAU2@@Z DD 0ffffffffH
	DD	FLAT:__unwindfunclet$??$construct@UVector2@@U1@@?$allocator@UVector2@@@std@@QAEXPAUVector2@@$$QAU2@@Z$0
__ehfuncinfo$??$construct@UVector2@@U1@@?$allocator@UVector2@@@std@@QAEXPAUVector2@@$$QAU2@@Z DD 019930522H
	DD	01H
	DD	FLAT:__unwindtable$??$construct@UVector2@@U1@@?$allocator@UVector2@@@std@@QAEXPAUVector2@@$$QAU2@@Z
	DD	2 DUP(00H)
	DD	2 DUP(00H)
	DD	00H
	DD	01H
xdata$x	ENDS
;	COMDAT xdata$x
xdata$x	SEGMENT
__unwindtable$??$construct@V?$basic_string@DU?$char_traits@D@std@@V?$allocator@D@2@@std@@V12@@?$allocator@V?$basic_string@DU?$char_traits@D@std@@V?$allocator@D@2@@std@@@std@@QAEXPAV?$basic_string@DU?$char_traits@D@std@@V?$allocator@D@2@@1@$$QAV21@@Z DD 0ffffffffH
	DD	FLAT:__unwindfunclet$??$construct@V?$basic_string@DU?$char_traits@D@std@@V?$allocator@D@2@@std@@V12@@?$allocator@V?$basic_string@DU?$char_traits@D@std@@V?$allocator@D@2@@std@@@std@@QAEXPAV?$basic_string@DU?$char_traits@D@std@@V?$allocator@D@2@@1@$$QAV21@@Z$0
__ehfuncinfo$??$construct@V?$basic_string@DU?$char_traits@D@std@@V?$allocator@D@2@@std@@V12@@?$allocator@V?$basic_string@DU?$char_traits@D@std@@V?$allocator@D@2@@std@@@std@@QAEXPAV?$basic_string@DU?$char_traits@D@std@@V?$allocator@D@2@@1@$$QAV21@@Z DD 019930522H
	DD	01H
	DD	FLAT:__unwindtable$??$construct@V?$basic_string@DU?$char_traits@D@std@@V?$allocator@D@2@@std@@V12@@?$allocator@V?$basic_string@DU?$char_traits@D@std@@V?$allocator@D@2@@std@@@std@@QAEXPAV?$basic_string@DU?$char_traits@D@std@@V?$allocator@D@2@@1@$$QAV21@@Z
	DD	2 DUP(00H)
	DD	2 DUP(00H)
	DD	00H
	DD	01H
xdata$x	ENDS
;	COMDAT xdata$x
xdata$x	SEGMENT
__unwindtable$??$construct@VCaveSlope@@AAV1@@?$allocator@VCaveSlope@@@std@@QAEXPAVCaveSlope@@AAV2@@Z DD 0ffffffffH
	DD	FLAT:__unwindfunclet$??$construct@VCaveSlope@@AAV1@@?$allocator@VCaveSlope@@@std@@QAEXPAVCaveSlope@@AAV2@@Z$0
__ehfuncinfo$??$construct@VCaveSlope@@AAV1@@?$allocator@VCaveSlope@@@std@@QAEXPAVCaveSlope@@AAV2@@Z DD 019930522H
	DD	01H
	DD	FLAT:__unwindtable$??$construct@VCaveSlope@@AAV1@@?$allocator@VCaveSlope@@@std@@QAEXPAVCaveSlope@@AAV2@@Z
	DD	2 DUP(00H)
	DD	2 DUP(00H)
	DD	00H
	DD	01H
xdata$x	ENDS
;	COMDAT xdata$x
xdata$x	SEGMENT
__unwindtable$??$construct@VCaveSlope@@V1@@?$allocator@VCaveSlope@@@std@@QAEXPAVCaveSlope@@$$QAV2@@Z DD 0ffffffffH
	DD	FLAT:__unwindfunclet$??$construct@VCaveSlope@@V1@@?$allocator@VCaveSlope@@@std@@QAEXPAVCaveSlope@@$$QAV2@@Z$0
__ehfuncinfo$??$construct@VCaveSlope@@V1@@?$allocator@VCaveSlope@@@std@@QAEXPAVCaveSlope@@$$QAV2@@Z DD 019930522H
	DD	01H
	DD	FLAT:__unwindtable$??$construct@VCaveSlope@@V1@@?$allocator@VCaveSlope@@@std@@QAEXPAVCaveSlope@@$$QAV2@@Z
	DD	2 DUP(00H)
	DD	2 DUP(00H)
	DD	00H
	DD	01H
xdata$x	ENDS
;	COMDAT xdata$x
xdata$x	SEGMENT
__unwindtable$??$construct@VCaveRectangle@@AAV1@@?$allocator@VCaveRectangle@@@std@@QAEXPAVCaveRectangle@@AAV2@@Z DD 0ffffffffH
	DD	FLAT:__unwindfunclet$??$construct@VCaveRectangle@@AAV1@@?$allocator@VCaveRectangle@@@std@@QAEXPAVCaveRectangle@@AAV2@@Z$0
__ehfuncinfo$??$construct@VCaveRectangle@@AAV1@@?$allocator@VCaveRectangle@@@std@@QAEXPAVCaveRectangle@@AAV2@@Z DD 019930522H
	DD	01H
	DD	FLAT:__unwindtable$??$construct@VCaveRectangle@@AAV1@@?$allocator@VCaveRectangle@@@std@@QAEXPAVCaveRectangle@@AAV2@@Z
	DD	2 DUP(00H)
	DD	2 DUP(00H)
	DD	00H
	DD	01H
xdata$x	ENDS
;	COMDAT xdata$x
xdata$x	SEGMENT
__unwindtable$??$construct@VCaveRectangle@@V1@@?$allocator@VCaveRectangle@@@std@@QAEXPAVCaveRectangle@@$$QAV2@@Z DD 0ffffffffH
	DD	FLAT:__unwindfunclet$??$construct@VCaveRectangle@@V1@@?$allocator@VCaveRectangle@@@std@@QAEXPAVCaveRectangle@@$$QAV2@@Z$0
__ehfuncinfo$??$construct@VCaveRectangle@@V1@@?$allocator@VCaveRectangle@@@std@@QAEXPAVCaveRectangle@@$$QAV2@@Z DD 019930522H
	DD	01H
	DD	FLAT:__unwindtable$??$construct@VCaveRectangle@@V1@@?$allocator@VCaveRectangle@@@std@@QAEXPAVCaveRectangle@@$$QAV2@@Z
	DD	2 DUP(00H)
	DD	2 DUP(00H)
	DD	00H
	DD	01H
xdata$x	ENDS
;	COMDAT xdata$x
xdata$x	SEGMENT
__unwindtable$??$construct@UTileSet@@U1@@?$allocator@UTileSet@@@std@@QAEXPAUTileSet@@$$QAU2@@Z DD 0ffffffffH
	DD	FLAT:__unwindfunclet$??$construct@UTileSet@@U1@@?$allocator@UTileSet@@@std@@QAEXPAUTileSet@@$$QAU2@@Z$0
__ehfuncinfo$??$construct@UTileSet@@U1@@?$allocator@UTileSet@@@std@@QAEXPAUTileSet@@$$QAU2@@Z DD 019930522H
	DD	01H
	DD	FLAT:__unwindtable$??$construct@UTileSet@@U1@@?$allocator@UTileSet@@@std@@QAEXPAUTileSet@@$$QAU2@@Z
	DD	2 DUP(00H)
	DD	2 DUP(00H)
	DD	00H
	DD	01H
xdata$x	ENDS
;	COMDAT xdata$x
xdata$x	SEGMENT
__unwindtable$??$construct@VTile@@AAV1@@?$allocator@VTile@@@std@@QAEXPAVTile@@AAV2@@Z DD 0ffffffffH
	DD	FLAT:__unwindfunclet$??$construct@VTile@@AAV1@@?$allocator@VTile@@@std@@QAEXPAVTile@@AAV2@@Z$0
__ehfuncinfo$??$construct@VTile@@AAV1@@?$allocator@VTile@@@std@@QAEXPAVTile@@AAV2@@Z DD 019930522H
	DD	01H
	DD	FLAT:__unwindtable$??$construct@VTile@@AAV1@@?$allocator@VTile@@@std@@QAEXPAVTile@@AAV2@@Z
	DD	2 DUP(00H)
	DD	2 DUP(00H)
	DD	00H
	DD	01H
xdata$x	ENDS
;	COMDAT xdata$x
xdata$x	SEGMENT
__unwindtable$??$construct@USDL_Rect@@AAU1@@?$allocator@USDL_Rect@@@std@@QAEXPAUSDL_Rect@@AAU2@@Z DD 0ffffffffH
	DD	FLAT:__unwindfunclet$??$construct@USDL_Rect@@AAU1@@?$allocator@USDL_Rect@@@std@@QAEXPAUSDL_Rect@@AAU2@@Z$0
__ehfuncinfo$??$construct@USDL_Rect@@AAU1@@?$allocator@USDL_Rect@@@std@@QAEXPAUSDL_Rect@@AAU2@@Z DD 019930522H
	DD	01H
	DD	FLAT:__unwindtable$??$construct@USDL_Rect@@AAU1@@?$allocator@USDL_Rect@@@std@@QAEXPAUSDL_Rect@@AAU2@@Z
	DD	2 DUP(00H)
	DD	2 DUP(00H)
	DD	00H
	DD	01H
xdata$x	ENDS
;	COMDAT xdata$x
xdata$x	SEGMENT
__unwindtable$??0sentry@?$basic_ostream@DU?$char_traits@D@std@@@std@@QAE@AAV12@@Z DD 0ffffffffH
	DD	FLAT:__unwindfunclet$??0sentry@?$basic_ostream@DU?$char_traits@D@std@@@std@@QAE@AAV12@@Z$0
__ehfuncinfo$??0sentry@?$basic_ostream@DU?$char_traits@D@std@@@std@@QAE@AAV12@@Z DD 019930522H
	DD	01H
	DD	FLAT:__unwindtable$??0sentry@?$basic_ostream@DU?$char_traits@D@std@@@std@@QAE@AAV12@@Z
	DD	2 DUP(00H)
	DD	2 DUP(00H)
	DD	00H
	DD	01H
xdata$x	ENDS
;	COMDAT xdata$x
xdata$x	SEGMENT
__unwindtable$??$construct@U_Container_proxy@std@@U12@@?$allocator@U_Container_proxy@std@@@std@@QAEXPAU_Container_proxy@1@$$QAU21@@Z DD 0ffffffffH
	DD	FLAT:__unwindfunclet$??$construct@U_Container_proxy@std@@U12@@?$allocator@U_Container_proxy@std@@@std@@QAEXPAU_Container_proxy@1@$$QAU21@@Z$0
__ehfuncinfo$??$construct@U_Container_proxy@std@@U12@@?$allocator@U_Container_proxy@std@@@std@@QAEXPAU_Container_proxy@1@$$QAU21@@Z DD 019930522H
	DD	01H
	DD	FLAT:__unwindtable$??$construct@U_Container_proxy@std@@U12@@?$allocator@U_Container_proxy@std@@@std@@QAEXPAU_Container_proxy@1@$$QAU21@@Z
	DD	2 DUP(00H)
	DD	2 DUP(00H)
	DD	00H
	DD	01H
xdata$x	ENDS
;	COMDAT xdata$x
xdata$x	SEGMENT
__unwindtable$?_Orphan_range@?$vector@UVector2@@V?$allocator@UVector2@@@std@@@std@@IBEXPAUVector2@@0@Z DD 0ffffffffH
	DD	FLAT:__unwindfunclet$?_Orphan_range@?$vector@UVector2@@V?$allocator@UVector2@@@std@@@std@@IBEXPAUVector2@@0@Z$0
__ehfuncinfo$?_Orphan_range@?$vector@UVector2@@V?$allocator@UVector2@@@std@@@std@@IBEXPAUVector2@@0@Z DD 019930522H
	DD	01H
	DD	FLAT:__unwindtable$?_Orphan_range@?$vector@UVector2@@V?$allocator@UVector2@@@std@@@std@@IBEXPAUVector2@@0@Z
	DD	2 DUP(00H)
	DD	2 DUP(00H)
	DD	00H
	DD	01H
xdata$x	ENDS
;	COMDAT xdata$x
xdata$x	SEGMENT
__catchsym$?_Reallocate@?$vector@UVector2@@V?$allocator@UVector2@@@std@@@std@@IAEXI@Z$2 DD 040H
	DD	00H
	DD	00H
	DD	FLAT:__catch$?_Reallocate@?$vector@UVector2@@V?$allocator@UVector2@@@std@@@std@@IAEXI@Z$0
__unwindtable$?_Reallocate@?$vector@UVector2@@V?$allocator@UVector2@@@std@@@std@@IAEXI@Z DD 0ffffffffH
	DD	00H
	DD	0ffffffffH
	DD	00H
__tryblocktable$?_Reallocate@?$vector@UVector2@@V?$allocator@UVector2@@@std@@@std@@IAEXI@Z DD 00H
	DD	00H
	DD	01H
	DD	01H
	DD	FLAT:__catchsym$?_Reallocate@?$vector@UVector2@@V?$allocator@UVector2@@@std@@@std@@IAEXI@Z$2
__ehfuncinfo$?_Reallocate@?$vector@UVector2@@V?$allocator@UVector2@@@std@@@std@@IAEXI@Z DD 019930522H
	DD	02H
	DD	FLAT:__unwindtable$?_Reallocate@?$vector@UVector2@@V?$allocator@UVector2@@@std@@@std@@IAEXI@Z
	DD	01H
	DD	FLAT:__tryblocktable$?_Reallocate@?$vector@UVector2@@V?$allocator@UVector2@@@std@@@std@@IAEXI@Z
	DD	2 DUP(00H)
	DD	00H
	DD	01H
xdata$x	ENDS
;	COMDAT xdata$x
xdata$x	SEGMENT
__unwindtable$??0?$_Vector_alloc@$0A@U?$_Vec_base_types@UVector2@@V?$allocator@UVector2@@@std@@@std@@@std@@QAE@ABV?$allocator@UVector2@@@1@@Z DD 0ffffffffH
	DD	FLAT:__unwindfunclet$??0?$_Vector_alloc@$0A@U?$_Vec_base_types@UVector2@@V?$allocator@UVector2@@@std@@@std@@@std@@QAE@ABV?$allocator@UVector2@@@1@@Z$0
__ehfuncinfo$??0?$_Vector_alloc@$0A@U?$_Vec_base_types@UVector2@@V?$allocator@UVector2@@@std@@@std@@@std@@QAE@ABV?$allocator@UVector2@@@1@@Z DD 019930522H
	DD	01H
	DD	FLAT:__unwindtable$??0?$_Vector_alloc@$0A@U?$_Vec_base_types@UVector2@@V?$allocator@UVector2@@@std@@@std@@@std@@QAE@ABV?$allocator@UVector2@@@1@@Z
	DD	2 DUP(00H)
	DD	2 DUP(00H)
	DD	00H
	DD	01H
xdata$x	ENDS
;	COMDAT xdata$x
xdata$x	SEGMENT
__catchsym$??$?6DU?$char_traits@D@std@@V?$allocator@D@1@@std@@YAAAV?$basic_ostream@DU?$char_traits@D@std@@@0@AAV10@ABV?$basic_string@DU?$char_traits@D@std@@V?$allocator@D@2@@0@@Z$3 DD 040H
	DD	00H
	DD	00H
	DD	FLAT:__catch$??$?6DU?$char_traits@D@std@@V?$allocator@D@1@@std@@YAAAV?$basic_ostream@DU?$char_traits@D@std@@@0@AAV10@ABV?$basic_string@DU?$char_traits@D@std@@V?$allocator@D@2@@0@@Z$0
__tryblocktable$??$?6DU?$char_traits@D@std@@V?$allocator@D@1@@std@@YAAAV?$basic_ostream@DU?$char_traits@D@std@@@0@AAV10@ABV?$basic_string@DU?$char_traits@D@std@@V?$allocator@D@2@@0@@Z DD 01H
	DD	01H
	DD	02H
	DD	01H
	DD	FLAT:__catchsym$??$?6DU?$char_traits@D@std@@V?$allocator@D@1@@std@@YAAAV?$basic_ostream@DU?$char_traits@D@std@@@0@AAV10@ABV?$basic_string@DU?$char_traits@D@std@@V?$allocator@D@2@@0@@Z$3
__unwindtable$??$?6DU?$char_traits@D@std@@V?$allocator@D@1@@std@@YAAAV?$basic_ostream@DU?$char_traits@D@std@@@0@AAV10@ABV?$basic_string@DU?$char_traits@D@std@@V?$allocator@D@2@@0@@Z DD 0ffffffffH
	DD	FLAT:__unwindfunclet$??$?6DU?$char_traits@D@std@@V?$allocator@D@1@@std@@YAAAV?$basic_ostream@DU?$char_traits@D@std@@@0@AAV10@ABV?$basic_string@DU?$char_traits@D@std@@V?$allocator@D@2@@0@@Z$2
	DD	00H
	DD	00H
	DD	00H
	DD	00H
__ehfuncinfo$??$?6DU?$char_traits@D@std@@V?$allocator@D@1@@std@@YAAAV?$basic_ostream@DU?$char_traits@D@std@@@0@AAV10@ABV?$basic_string@DU?$char_traits@D@std@@V?$allocator@D@2@@0@@Z DD 019930522H
	DD	03H
	DD	FLAT:__unwindtable$??$?6DU?$char_traits@D@std@@V?$allocator@D@1@@std@@YAAAV?$basic_ostream@DU?$char_traits@D@std@@@0@AAV10@ABV?$basic_string@DU?$char_traits@D@std@@V?$allocator@D@2@@0@@Z
	DD	01H
	DD	FLAT:__tryblocktable$??$?6DU?$char_traits@D@std@@V?$allocator@D@1@@std@@YAAAV?$basic_ostream@DU?$char_traits@D@std@@@0@AAV10@ABV?$basic_string@DU?$char_traits@D@std@@V?$allocator@D@2@@0@@Z
	DD	2 DUP(00H)
	DD	00H
	DD	01H
xdata$x	ENDS
;	COMDAT xdata$x
xdata$x	SEGMENT
__catchsym$??$?6U?$char_traits@D@std@@@std@@YAAAV?$basic_ostream@DU?$char_traits@D@std@@@0@AAV10@PBD@Z$3 DD 040H
	DD	00H
	DD	00H
	DD	FLAT:__catch$??$?6U?$char_traits@D@std@@@std@@YAAAV?$basic_ostream@DU?$char_traits@D@std@@@0@AAV10@PBD@Z$0
__tryblocktable$??$?6U?$char_traits@D@std@@@std@@YAAAV?$basic_ostream@DU?$char_traits@D@std@@@0@AAV10@PBD@Z DD 01H
	DD	01H
	DD	02H
	DD	01H
	DD	FLAT:__catchsym$??$?6U?$char_traits@D@std@@@std@@YAAAV?$basic_ostream@DU?$char_traits@D@std@@@0@AAV10@PBD@Z$3
__unwindtable$??$?6U?$char_traits@D@std@@@std@@YAAAV?$basic_ostream@DU?$char_traits@D@std@@@0@AAV10@PBD@Z DD 0ffffffffH
	DD	FLAT:__unwindfunclet$??$?6U?$char_traits@D@std@@@std@@YAAAV?$basic_ostream@DU?$char_traits@D@std@@@0@AAV10@PBD@Z$2
	DD	00H
	DD	00H
	DD	00H
	DD	00H
__ehfuncinfo$??$?6U?$char_traits@D@std@@@std@@YAAAV?$basic_ostream@DU?$char_traits@D@std@@@0@AAV10@PBD@Z DD 019930522H
	DD	03H
	DD	FLAT:__unwindtable$??$?6U?$char_traits@D@std@@@std@@YAAAV?$basic_ostream@DU?$char_traits@D@std@@@0@AAV10@PBD@Z
	DD	01H
	DD	FLAT:__tryblocktable$??$?6U?$char_traits@D@std@@@std@@YAAAV?$basic_ostream@DU?$char_traits@D@std@@@0@AAV10@PBD@Z
	DD	2 DUP(00H)
	DD	00H
	DD	01H
xdata$x	ENDS
;	COMDAT xdata$x
xdata$x	SEGMENT
__unwindtable$??0?$basic_stringbuf@DU?$char_traits@D@std@@V?$allocator@D@2@@std@@QAE@H@Z DD 0ffffffffH
	DD	FLAT:__unwindfunclet$??0?$basic_stringbuf@DU?$char_traits@D@std@@V?$allocator@D@2@@std@@QAE@H@Z$0
__ehfuncinfo$??0?$basic_stringbuf@DU?$char_traits@D@std@@V?$allocator@D@2@@std@@QAE@H@Z DD 019930522H
	DD	01H
	DD	FLAT:__unwindtable$??0?$basic_stringbuf@DU?$char_traits@D@std@@V?$allocator@D@2@@std@@QAE@H@Z
	DD	2 DUP(00H)
	DD	2 DUP(00H)
	DD	00H
	DD	01H
xdata$x	ENDS
;	COMDAT xdata$x
xdata$x	SEGMENT
__unwindtable$??0?$basic_stringstream@DU?$char_traits@D@std@@V?$allocator@D@2@@std@@QAE@H@Z DD 0ffffffffH
	DD	FLAT:__unwindfunclet$??0?$basic_stringstream@DU?$char_traits@D@std@@V?$allocator@D@2@@std@@QAE@H@Z$0
	DD	00H
	DD	FLAT:__unwindfunclet$??0?$basic_stringstream@DU?$char_traits@D@std@@V?$allocator@D@2@@std@@QAE@H@Z$1
__ehfuncinfo$??0?$basic_stringstream@DU?$char_traits@D@std@@V?$allocator@D@2@@std@@QAE@H@Z DD 019930522H
	DD	02H
	DD	FLAT:__unwindtable$??0?$basic_stringstream@DU?$char_traits@D@std@@V?$allocator@D@2@@std@@QAE@H@Z
	DD	2 DUP(00H)
	DD	2 DUP(00H)
	DD	00H
	DD	01H
xdata$x	ENDS
;	COMDAT xdata$x
xdata$x	SEGMENT
__unwindtable$?_Orphan_range@?$vector@V?$basic_string@DU?$char_traits@D@std@@V?$allocator@D@2@@std@@V?$allocator@V?$basic_string@DU?$char_traits@D@std@@V?$allocator@D@2@@std@@@2@@std@@IBEXPAV?$basic_string@DU?$char_traits@D@std@@V?$allocator@D@2@@2@0@Z DD 0ffffffffH
	DD	FLAT:__unwindfunclet$?_Orphan_range@?$vector@V?$basic_string@DU?$char_traits@D@std@@V?$allocator@D@2@@std@@V?$allocator@V?$basic_string@DU?$char_traits@D@std@@V?$allocator@D@2@@std@@@2@@std@@IBEXPAV?$basic_string@DU?$char_traits@D@std@@V?$allocator@D@2@@2@0@Z$0
__ehfuncinfo$?_Orphan_range@?$vector@V?$basic_string@DU?$char_traits@D@std@@V?$allocator@D@2@@std@@V?$allocator@V?$basic_string@DU?$char_traits@D@std@@V?$allocator@D@2@@std@@@2@@std@@IBEXPAV?$basic_string@DU?$char_traits@D@std@@V?$allocator@D@2@@2@0@Z DD 019930522H
	DD	01H
	DD	FLAT:__unwindtable$?_Orphan_range@?$vector@V?$basic_string@DU?$char_traits@D@std@@V?$allocator@D@2@@std@@V?$allocator@V?$basic_string@DU?$char_traits@D@std@@V?$allocator@D@2@@std@@@2@@std@@IBEXPAV?$basic_string@DU?$char_traits@D@std@@V?$allocator@D@2@@2@0@Z
	DD	2 DUP(00H)
	DD	2 DUP(00H)
	DD	00H
	DD	01H
xdata$x	ENDS
;	COMDAT xdata$x
xdata$x	SEGMENT
__catchsym$?_Reallocate@?$vector@V?$basic_string@DU?$char_traits@D@std@@V?$allocator@D@2@@std@@V?$allocator@V?$basic_string@DU?$char_traits@D@std@@V?$allocator@D@2@@std@@@2@@std@@IAEXI@Z$2 DD 040H
	DD	00H
	DD	00H
	DD	FLAT:__catch$?_Reallocate@?$vector@V?$basic_string@DU?$char_traits@D@std@@V?$allocator@D@2@@std@@V?$allocator@V?$basic_string@DU?$char_traits@D@std@@V?$allocator@D@2@@std@@@2@@std@@IAEXI@Z$0
__unwindtable$?_Reallocate@?$vector@V?$basic_string@DU?$char_traits@D@std@@V?$allocator@D@2@@std@@V?$allocator@V?$basic_string@DU?$char_traits@D@std@@V?$allocator@D@2@@std@@@2@@std@@IAEXI@Z DD 0ffffffffH
	DD	00H
	DD	0ffffffffH
	DD	00H
__tryblocktable$?_Reallocate@?$vector@V?$basic_string@DU?$char_traits@D@std@@V?$allocator@D@2@@std@@V?$allocator@V?$basic_string@DU?$char_traits@D@std@@V?$allocator@D@2@@std@@@2@@std@@IAEXI@Z DD 00H
	DD	00H
	DD	01H
	DD	01H
	DD	FLAT:__catchsym$?_Reallocate@?$vector@V?$basic_string@DU?$char_traits@D@std@@V?$allocator@D@2@@std@@V?$allocator@V?$basic_string@DU?$char_traits@D@std@@V?$allocator@D@2@@std@@@2@@std@@IAEXI@Z$2
__ehfuncinfo$?_Reallocate@?$vector@V?$basic_string@DU?$char_traits@D@std@@V?$allocator@D@2@@std@@V?$allocator@V?$basic_string@DU?$char_traits@D@std@@V?$allocator@D@2@@std@@@2@@std@@IAEXI@Z DD 019930522H
	DD	02H
	DD	FLAT:__unwindtable$?_Reallocate@?$vector@V?$basic_string@DU?$char_traits@D@std@@V?$allocator@D@2@@std@@V?$allocator@V?$basic_string@DU?$char_traits@D@std@@V?$allocator@D@2@@std@@@2@@std@@IAEXI@Z
	DD	01H
	DD	FLAT:__tryblocktable$?_Reallocate@?$vector@V?$basic_string@DU?$char_traits@D@std@@V?$allocator@D@2@@std@@V?$allocator@V?$basic_string@DU?$char_traits@D@std@@V?$allocator@D@2@@std@@@2@@std@@IAEXI@Z
	DD	2 DUP(00H)
	DD	00H
	DD	01H
xdata$x	ENDS
;	COMDAT xdata$x
xdata$x	SEGMENT
__unwindtable$??0?$_Vector_alloc@$0A@U?$_Vec_base_types@V?$basic_string@DU?$char_traits@D@std@@V?$allocator@D@2@@std@@V?$allocator@V?$basic_string@DU?$char_traits@D@std@@V?$allocator@D@2@@std@@@2@@std@@@std@@QAE@ABV?$allocator@V?$basic_string@DU?$char_traits@D@std@@V?$allocator@D@2@@std@@@1@@Z DD 0ffffffffH
	DD	FLAT:__unwindfunclet$??0?$_Vector_alloc@$0A@U?$_Vec_base_types@V?$basic_string@DU?$char_traits@D@std@@V?$allocator@D@2@@std@@V?$allocator@V?$basic_string@DU?$char_traits@D@std@@V?$allocator@D@2@@std@@@2@@std@@@std@@QAE@ABV?$allocator@V?$basic_string@DU?$char_traits@D@std@@V?$allocator@D@2@@std@@@1@@Z$0
__ehfuncinfo$??0?$_Vector_alloc@$0A@U?$_Vec_base_types@V?$basic_string@DU?$char_traits@D@std@@V?$allocator@D@2@@std@@V?$allocator@V?$basic_string@DU?$char_traits@D@std@@V?$allocator@D@2@@std@@@2@@std@@@std@@QAE@ABV?$allocator@V?$basic_string@DU?$char_traits@D@std@@V?$allocator@D@2@@std@@@1@@Z DD 019930522H
	DD	01H
	DD	FLAT:__unwindtable$??0?$_Vector_alloc@$0A@U?$_Vec_base_types@V?$basic_string@DU?$char_traits@D@std@@V?$allocator@D@2@@std@@V?$allocator@V?$basic_string@DU?$char_traits@D@std@@V?$allocator@D@2@@std@@@2@@std@@@std@@QAE@ABV?$allocator@V?$basic_string@DU?$char_traits@D@std@@V?$allocator@D@2@@std@@@1@@Z
	DD	2 DUP(00H)
	DD	2 DUP(00H)
	DD	00H
	DD	01H
xdata$x	ENDS
;	COMDAT xdata$x
xdata$x	SEGMENT
__unwindtable$?Split@CaveUtiltity@@SAIABV?$basic_string@DU?$char_traits@D@std@@V?$allocator@D@2@@std@@AAV?$vector@V?$basic_string@DU?$char_traits@D@std@@V?$allocator@D@2@@std@@V?$allocator@V?$basic_string@DU?$char_traits@D@std@@V?$allocator@D@2@@std@@@2@@3@D@Z DD 0ffffffffH
	DD	FLAT:__unwindfunclet$?Split@CaveUtiltity@@SAIABV?$basic_string@DU?$char_traits@D@std@@V?$allocator@D@2@@std@@AAV?$vector@V?$basic_string@DU?$char_traits@D@std@@V?$allocator@D@2@@std@@V?$allocator@V?$basic_string@DU?$char_traits@D@std@@V?$allocator@D@2@@std@@@2@@3@D@Z$0
	DD	0ffffffffH
