; Listing generated by Microsoft (R) Optimizing Compiler Version 18.00.21005.1 

	TITLE	F:\Cavestory\Cavestory\Cavestory\tinyxml2.cpp
	.686P
	.XMM
	include listing.inc
	.model	flat

INCLUDELIB MSVCRTD
INCLUDELIB OLDNAMES

PUBLIC	??_C@_02HFBBBACF@?$DM?$DP?$AA@			; `string'
PUBLIC	??_C@_04FFDNBKGC@?$DM?$CB?9?9?$AA@		; `string'
PUBLIC	??_C@_09BLLNCBLF@?$DM?$CB?$FLCDATA?$FL?$AA@	; `string'
PUBLIC	??_C@_02KBFACPPK@?$DM?$CB?$AA@			; `string'
PUBLIC	??_C@_01MNNFJEPP@?$DM?$AA@			; `string'
PUBLIC	?value@?$integral_constant@_N$0A@@std@@2_NB	; std::integral_constant<bool,0>::value
PUBLIC	?value@?$integral_constant@_N$00@std@@2_NB	; std::integral_constant<bool,1>::value
PUBLIC	??_C@_04KJFGKBNM@quot?$AA@			; `string'
PUBLIC	??_C@_03DCBBJBAA@amp?$AA@			; `string'
PUBLIC	??_C@_04LBCJFAKL@apos?$AA@			; `string'
PUBLIC	??_C@_02KCAKIFL@lt?$AA@				; `string'
PUBLIC	??_C@_02GHFEHLK@gt?$AA@				; `string'
PUBLIC	??_C@_0M@OFJBHGBM@XML_SUCCESS?$AA@		; `string'
PUBLIC	??_C@_0BB@IGIENDAL@XML_NO_ATTRIBUTE?$AA@	; `string'
PUBLIC	??_C@_0BJ@NLEFELMO@XML_WRONG_ATTRIBUTE_TYPE?$AA@ ; `string'
PUBLIC	??_C@_0BJ@FAMPBCLJ@XML_ERROR_FILE_NOT_FOUND?$AA@ ; `string'
PUBLIC	??_C@_0CD@IINDOEGO@XML_ERROR_FILE_COULD_NOT_BE_OPEN@ ; `string'
PUBLIC	??_C@_0BK@LJEPDGMH@XML_ERROR_FILE_READ_ERROR?$AA@ ; `string'
PUBLIC	??_C@_0BL@NNOBPLPE@XML_ERROR_ELEMENT_MISMATCH?$AA@ ; `string'
PUBLIC	??_C@_0BK@LPPPMOBG@XML_ERROR_PARSING_ELEMENT?$AA@ ; `string'
PUBLIC	??_C@_0BM@LDAFAPCN@XML_ERROR_PARSING_ATTRIBUTE?$AA@ ; `string'
PUBLIC	??_C@_0BK@HFOKKMCK@XML_ERROR_IDENTIFYING_TAG?$AA@ ; `string'
PUBLIC	??_C@_0BH@GPBIBIKN@XML_ERROR_PARSING_TEXT?$AA@	; `string'
PUBLIC	??_C@_0BI@EPMILKIP@XML_ERROR_PARSING_CDATA?$AA@	; `string'
PUBLIC	??_C@_0BK@KECLFPGB@XML_ERROR_PARSING_COMMENT?$AA@ ; `string'
PUBLIC	??_C@_0BO@JFKIELCK@XML_ERROR_PARSING_DECLARATION?$AA@ ; `string'
PUBLIC	??_C@_0BK@OFBGHHPE@XML_ERROR_PARSING_UNKNOWN?$AA@ ; `string'
PUBLIC	??_C@_0BJ@CHGEEKHN@XML_ERROR_EMPTY_DOCUMENT?$AA@ ; `string'
PUBLIC	??_C@_0BN@LCLEMLDC@XML_ERROR_MISMATCHED_ELEMENT?$AA@ ; `string'
PUBLIC	??_C@_0BC@IEJHGDCA@XML_ERROR_PARSING?$AA@	; `string'
PUBLIC	??_C@_0BJ@NENGEPDP@XML_CAN_NOT_CONVERT_TEXT?$AA@ ; `string'
PUBLIC	??_C@_0BB@PLDKPHOM@XML_NO_TEXT_NODE?$AA@	; `string'
PUBLIC	?_errorNames@XMLDocument@tinyxml2@@0PAPBDA	; tinyxml2::XMLDocument::_errorNames
;	COMDAT ??_C@_0BB@PLDKPHOM@XML_NO_TEXT_NODE?$AA@
CONST	SEGMENT
??_C@_0BB@PLDKPHOM@XML_NO_TEXT_NODE?$AA@ DB 'XML_NO_TEXT_NODE', 00H ; `string'
CONST	ENDS
;	COMDAT ??_C@_0BJ@NENGEPDP@XML_CAN_NOT_CONVERT_TEXT?$AA@
CONST	SEGMENT
??_C@_0BJ@NENGEPDP@XML_CAN_NOT_CONVERT_TEXT?$AA@ DB 'XML_CAN_NOT_CONVERT_'
	DB	'TEXT', 00H					; `string'
CONST	ENDS
;	COMDAT ??_C@_0BC@IEJHGDCA@XML_ERROR_PARSING?$AA@
CONST	SEGMENT
??_C@_0BC@IEJHGDCA@XML_ERROR_PARSING?$AA@ DB 'XML_ERROR_PARSING', 00H ; `string'
CONST	ENDS
;	COMDAT ??_C@_0BN@LCLEMLDC@XML_ERROR_MISMATCHED_ELEMENT?$AA@
CONST	SEGMENT
??_C@_0BN@LCLEMLDC@XML_ERROR_MISMATCHED_ELEMENT?$AA@ DB 'XML_ERROR_MISMAT'
	DB	'CHED_ELEMENT', 00H				; `string'
CONST	ENDS
;	COMDAT ??_C@_0BJ@CHGEEKHN@XML_ERROR_EMPTY_DOCUMENT?$AA@
CONST	SEGMENT
??_C@_0BJ@CHGEEKHN@XML_ERROR_EMPTY_DOCUMENT?$AA@ DB 'XML_ERROR_EMPTY_DOCU'
	DB	'MENT', 00H					; `string'
CONST	ENDS
;	COMDAT ??_C@_0BK@OFBGHHPE@XML_ERROR_PARSING_UNKNOWN?$AA@
CONST	SEGMENT
??_C@_0BK@OFBGHHPE@XML_ERROR_PARSING_UNKNOWN?$AA@ DB 'XML_ERROR_PARSING_U'
	DB	'NKNOWN', 00H				; `string'
CONST	ENDS
;	COMDAT ??_C@_0BO@JFKIELCK@XML_ERROR_PARSING_DECLARATION?$AA@
CONST	SEGMENT
??_C@_0BO@JFKIELCK@XML_ERROR_PARSING_DECLARATION?$AA@ DB 'XML_ERROR_PARSI'
	DB	'NG_DECLARATION', 00H			; `string'
CONST	ENDS
;	COMDAT ??_C@_0BK@KECLFPGB@XML_ERROR_PARSING_COMMENT?$AA@
CONST	SEGMENT
??_C@_0BK@KECLFPGB@XML_ERROR_PARSING_COMMENT?$AA@ DB 'XML_ERROR_PARSING_C'
	DB	'OMMENT', 00H				; `string'
CONST	ENDS
;	COMDAT ??_C@_0BI@EPMILKIP@XML_ERROR_PARSING_CDATA?$AA@
CONST	SEGMENT
??_C@_0BI@EPMILKIP@XML_ERROR_PARSING_CDATA?$AA@ DB 'XML_ERROR_PARSING_CDA'
	DB	'TA', 00H					; `string'
CONST	ENDS
;	COMDAT ??_C@_0BH@GPBIBIKN@XML_ERROR_PARSING_TEXT?$AA@
CONST	SEGMENT
??_C@_0BH@GPBIBIKN@XML_ERROR_PARSING_TEXT?$AA@ DB 'XML_ERROR_PARSING_TEXT'
	DB	00H						; `string'
CONST	ENDS
;	COMDAT ??_C@_0BK@HFOKKMCK@XML_ERROR_IDENTIFYING_TAG?$AA@
CONST	SEGMENT
??_C@_0BK@HFOKKMCK@XML_ERROR_IDENTIFYING_TAG?$AA@ DB 'XML_ERROR_IDENTIFYI'
	DB	'NG_TAG', 00H				; `string'
CONST	ENDS
;	COMDAT ??_C@_0BM@LDAFAPCN@XML_ERROR_PARSING_ATTRIBUTE?$AA@
CONST	SEGMENT
??_C@_0BM@LDAFAPCN@XML_ERROR_PARSING_ATTRIBUTE?$AA@ DB 'XML_ERROR_PARSING'
	DB	'_ATTRIBUTE', 00H				; `string'
CONST	ENDS
;	COMDAT ??_C@_0BK@LPPPMOBG@XML_ERROR_PARSING_ELEMENT?$AA@
CONST	SEGMENT
??_C@_0BK@LPPPMOBG@XML_ERROR_PARSING_ELEMENT?$AA@ DB 'XML_ERROR_PARSING_E'
	DB	'LEMENT', 00H				; `string'
CONST	ENDS
;	COMDAT ??_C@_0BL@NNOBPLPE@XML_ERROR_ELEMENT_MISMATCH?$AA@
CONST	SEGMENT
??_C@_0BL@NNOBPLPE@XML_ERROR_ELEMENT_MISMATCH?$AA@ DB 'XML_ERROR_ELEMENT_'
	DB	'MISMATCH', 00H				; `string'
CONST	ENDS
;	COMDAT ??_C@_0BK@LJEPDGMH@XML_ERROR_FILE_READ_ERROR?$AA@
CONST	SEGMENT
??_C@_0BK@LJEPDGMH@XML_ERROR_FILE_READ_ERROR?$AA@ DB 'XML_ERROR_FILE_READ'
	DB	'_ERROR', 00H				; `string'
CONST	ENDS
;	COMDAT ??_C@_0CD@IINDOEGO@XML_ERROR_FILE_COULD_NOT_BE_OPEN@
CONST	SEGMENT
??_C@_0CD@IINDOEGO@XML_ERROR_FILE_COULD_NOT_BE_OPEN@ DB 'XML_ERROR_FILE_C'
	DB	'OULD_NOT_BE_OPENED', 00H			; `string'
CONST	ENDS
;	COMDAT ??_C@_0BJ@FAMPBCLJ@XML_ERROR_FILE_NOT_FOUND?$AA@
CONST	SEGMENT
??_C@_0BJ@FAMPBCLJ@XML_ERROR_FILE_NOT_FOUND?$AA@ DB 'XML_ERROR_FILE_NOT_F'
	DB	'OUND', 00H					; `string'
CONST	ENDS
;	COMDAT ??_C@_0BJ@NLEFELMO@XML_WRONG_ATTRIBUTE_TYPE?$AA@
CONST	SEGMENT
??_C@_0BJ@NLEFELMO@XML_WRONG_ATTRIBUTE_TYPE?$AA@ DB 'XML_WRONG_ATTRIBUTE_'
	DB	'TYPE', 00H					; `string'
CONST	ENDS
;	COMDAT ??_C@_0BB@IGIENDAL@XML_NO_ATTRIBUTE?$AA@
CONST	SEGMENT
??_C@_0BB@IGIENDAL@XML_NO_ATTRIBUTE?$AA@ DB 'XML_NO_ATTRIBUTE', 00H ; `string'
CONST	ENDS
;	COMDAT ??_C@_0M@OFJBHGBM@XML_SUCCESS?$AA@
CONST	SEGMENT
??_C@_0M@OFJBHGBM@XML_SUCCESS?$AA@ DB 'XML_SUCCESS', 00H ; `string'
CONST	ENDS
;	COMDAT ??_C@_02GHFEHLK@gt?$AA@
CONST	SEGMENT
??_C@_02GHFEHLK@gt?$AA@ DB 'gt', 00H			; `string'
CONST	ENDS
;	COMDAT ??_C@_02KCAKIFL@lt?$AA@
CONST	SEGMENT
??_C@_02KCAKIFL@lt?$AA@ DB 'lt', 00H			; `string'
CONST	ENDS
;	COMDAT ??_C@_04LBCJFAKL@apos?$AA@
CONST	SEGMENT
??_C@_04LBCJFAKL@apos?$AA@ DB 'apos', 00H		; `string'
CONST	ENDS
;	COMDAT ??_C@_03DCBBJBAA@amp?$AA@
CONST	SEGMENT
??_C@_03DCBBJBAA@amp?$AA@ DB 'amp', 00H			; `string'
CONST	ENDS
;	COMDAT ??_C@_04KJFGKBNM@quot?$AA@
CONST	SEGMENT
??_C@_04KJFGKBNM@quot?$AA@ DB 'quot', 00H		; `string'
CONST	ENDS
;	COMDAT ?value@?$integral_constant@_N$00@std@@2_NB
CONST	SEGMENT
?value@?$integral_constant@_N$00@std@@2_NB DB 01H	; std::integral_constant<bool,1>::value
CONST	ENDS
;	COMDAT ?value@?$integral_constant@_N$0A@@std@@2_NB
CONST	SEGMENT
?value@?$integral_constant@_N$0A@@std@@2_NB DB 00H	; std::integral_constant<bool,0>::value
CONST	ENDS
;	COMDAT ??_C@_01MNNFJEPP@?$DM?$AA@
CONST	SEGMENT
??_C@_01MNNFJEPP@?$DM?$AA@ DB '<', 00H			; `string'
CONST	ENDS
;	COMDAT ??_C@_02KBFACPPK@?$DM?$CB?$AA@
CONST	SEGMENT
??_C@_02KBFACPPK@?$DM?$CB?$AA@ DB '<!', 00H		; `string'
CONST	ENDS
;	COMDAT ??_C@_09BLLNCBLF@?$DM?$CB?$FLCDATA?$FL?$AA@
CONST	SEGMENT
??_C@_09BLLNCBLF@?$DM?$CB?$FLCDATA?$FL?$AA@ DB '<![CDATA[', 00H ; `string'
CONST	ENDS
;	COMDAT ??_C@_04FFDNBKGC@?$DM?$CB?9?9?$AA@
CONST	SEGMENT
??_C@_04FFDNBKGC@?$DM?$CB?9?9?$AA@ DB '<!--', 00H	; `string'
CONST	ENDS
;	COMDAT ??_C@_02HFBBBACF@?$DM?$DP?$AA@
CONST	SEGMENT
??_C@_02HFBBBACF@?$DM?$DP?$AA@ DB '<?', 00H		; `string'
CONST	ENDS
_DATA	SEGMENT
?xmlHeader@?O@??Identify@XMLDocument@tinyxml2@@QAEPADPADPAPAVXMLNode@3@@Z@4PBDB DD FLAT:??_C@_02HFBBBACF@?$DM?$DP?$AA@ ; `tinyxml2::XMLDocument::Identify'::`14'::xmlHeader
?commentHeader@?O@??Identify@XMLDocument@tinyxml2@@QAEPADPADPAPAVXMLNode@3@@Z@4PBDB DD FLAT:??_C@_04FFDNBKGC@?$DM?$CB?9?9?$AA@ ; `tinyxml2::XMLDocument::Identify'::`14'::commentHeader
?cdataHeader@?O@??Identify@XMLDocument@tinyxml2@@QAEPADPADPAPAVXMLNode@3@@Z@4PBDB DD FLAT:??_C@_09BLLNCBLF@?$DM?$CB?$FLCDATA?$FL?$AA@ ; `tinyxml2::XMLDocument::Identify'::`14'::cdataHeader
?dtdHeader@?O@??Identify@XMLDocument@tinyxml2@@QAEPADPADPAPAVXMLNode@3@@Z@4PBDB DD FLAT:??_C@_02KBFACPPK@?$DM?$CB?$AA@ ; `tinyxml2::XMLDocument::Identify'::`14'::dtdHeader
?elementHeader@?O@??Identify@XMLDocument@tinyxml2@@QAEPADPADPAPAVXMLNode@3@@Z@4PBDB DD FLAT:??_C@_01MNNFJEPP@?$DM?$AA@ ; `tinyxml2::XMLDocument::Identify'::`14'::elementHeader
	ORG $+4
?_errorNames@XMLDocument@tinyxml2@@0PAPBDA DD FLAT:??_C@_0M@OFJBHGBM@XML_SUCCESS?$AA@ ; tinyxml2::XMLDocument::_errorNames
	DD	FLAT:??_C@_0BB@IGIENDAL@XML_NO_ATTRIBUTE?$AA@
	DD	FLAT:??_C@_0BJ@NLEFELMO@XML_WRONG_ATTRIBUTE_TYPE?$AA@
	DD	FLAT:??_C@_0BJ@FAMPBCLJ@XML_ERROR_FILE_NOT_FOUND?$AA@
	DD	FLAT:??_C@_0CD@IINDOEGO@XML_ERROR_FILE_COULD_NOT_BE_OPEN@
	DD	FLAT:??_C@_0BK@LJEPDGMH@XML_ERROR_FILE_READ_ERROR?$AA@
	DD	FLAT:??_C@_0BL@NNOBPLPE@XML_ERROR_ELEMENT_MISMATCH?$AA@
	DD	FLAT:??_C@_0BK@LPPPMOBG@XML_ERROR_PARSING_ELEMENT?$AA@
	DD	FLAT:??_C@_0BM@LDAFAPCN@XML_ERROR_PARSING_ATTRIBUTE?$AA@
	DD	FLAT:??_C@_0BK@HFOKKMCK@XML_ERROR_IDENTIFYING_TAG?$AA@
	DD	FLAT:??_C@_0BH@GPBIBIKN@XML_ERROR_PARSING_TEXT?$AA@
	DD	FLAT:??_C@_0BI@EPMILKIP@XML_ERROR_PARSING_CDATA?$AA@
	DD	FLAT:??_C@_0BK@KECLFPGB@XML_ERROR_PARSING_COMMENT?$AA@
	DD	FLAT:??_C@_0BO@JFKIELCK@XML_ERROR_PARSING_DECLARATION?$AA@
	DD	FLAT:??_C@_0BK@OFBGHHPE@XML_ERROR_PARSING_UNKNOWN?$AA@
	DD	FLAT:??_C@_0BJ@CHGEEKHN@XML_ERROR_EMPTY_DOCUMENT?$AA@
	DD	FLAT:??_C@_0BN@LCLEMLDC@XML_ERROR_MISMATCHED_ELEMENT?$AA@
	DD	FLAT:??_C@_0BC@IEJHGDCA@XML_ERROR_PARSING?$AA@
	DD	FLAT:??_C@_0BJ@NENGEPDP@XML_CAN_NOT_CONVERT_TEXT?$AA@
	DD	FLAT:??_C@_0BB@PLDKPHOM@XML_NO_TEXT_NODE?$AA@
_DATA	ENDS
CONST	SEGMENT
?LEN@?4??PrintError@XMLDocument@tinyxml2@@QBEXXZ@4HB DD 014H ; `tinyxml2::XMLDocument::PrintError'::`5'::LEN
?xmlHeaderLen@?O@??Identify@XMLDocument@tinyxml2@@QAEPADPADPAPAVXMLNode@3@@Z@4HB DD 02H ; `tinyxml2::XMLDocument::Identify'::`14'::xmlHeaderLen
?commentHeaderLen@?O@??Identify@XMLDocument@tinyxml2@@QAEPADPADPAPAVXMLNode@3@@Z@4HB DD 04H ; `tinyxml2::XMLDocument::Identify'::`14'::commentHeaderLen
?cdataHeaderLen@?O@??Identify@XMLDocument@tinyxml2@@QAEPADPADPAPAVXMLNode@3@@Z@4HB DD 09H ; `tinyxml2::XMLDocument::Identify'::`14'::cdataHeaderLen
?dtdHeaderLen@?O@??Identify@XMLDocument@tinyxml2@@QAEPADPADPAPAVXMLNode@3@@Z@4HB DD 02H ; `tinyxml2::XMLDocument::Identify'::`14'::dtdHeaderLen
?elementHeaderLen@?O@??Identify@XMLDocument@tinyxml2@@QAEPADPADPAPAVXMLNode@3@@Z@4HB DD 01H ; `tinyxml2::XMLDocument::Identify'::`14'::elementHeaderLen
?bom@?4??PushHeader@XMLPrinter@tinyxml2@@QAEX_N0@Z@4QBEB DB 0efH ; `tinyxml2::XMLPrinter::PushHeader'::`5'::bom
	DB	0bbH
	DB	0bfH
	DB	00H
_entities DD	FLAT:??_C@_04KJFGKBNM@quot?$AA@
	DD	04H
	DB	022H
	ORG $+3
	DD	FLAT:??_C@_03DCBBJBAA@amp?$AA@
	DD	03H
	DB	026H
	ORG $+3
	DD	FLAT:??_C@_04LBCJFAKL@apos?$AA@
	DD	04H
	DB	027H
	ORG $+3
	DD	FLAT:??_C@_02KCAKIFL@lt?$AA@
	DD	02H
	DB	03cH
	ORG $+3
	DD	FLAT:??_C@_02GHFEHLK@gt?$AA@
	DD	02H
	DB	03eH
	ORG $+3
?SEMICOLON@?7??GetCharacterRef@XMLUtil@tinyxml2@@SAPBDPBDPADPAH@Z@4DB DB 03bH ; `tinyxml2::XMLUtil::GetCharacterRef'::`8'::SEMICOLON
CONST	ENDS
PUBLIC	??0StrPair@tinyxml2@@QAE@XZ			; tinyxml2::StrPair::StrPair
PUBLIC	??1StrPair@tinyxml2@@QAE@XZ			; tinyxml2::StrPair::~StrPair
PUBLIC	?Set@StrPair@tinyxml2@@QAEXPAD0H@Z		; tinyxml2::StrPair::Set
PUBLIC	?GetStr@StrPair@tinyxml2@@QAEPBDXZ		; tinyxml2::StrPair::GetStr
PUBLIC	?Empty@StrPair@tinyxml2@@QBE_NXZ		; tinyxml2::StrPair::Empty
PUBLIC	?SetInternedStr@StrPair@tinyxml2@@QAEXPBD@Z	; tinyxml2::StrPair::SetInternedStr
PUBLIC	?SetStr@StrPair@tinyxml2@@QAEXPBDH@Z		; tinyxml2::StrPair::SetStr
PUBLIC	?ParseText@StrPair@tinyxml2@@QAEPADPADPBDH@Z	; tinyxml2::StrPair::ParseText
PUBLIC	?ParseName@StrPair@tinyxml2@@QAEPADPAD@Z	; tinyxml2::StrPair::ParseName
PUBLIC	?TransferTo@StrPair@tinyxml2@@QAEXPAV12@@Z	; tinyxml2::StrPair::TransferTo
PUBLIC	?Reset@StrPair@tinyxml2@@AAEXXZ			; tinyxml2::StrPair::Reset
PUBLIC	?CollapseWhitespace@StrPair@tinyxml2@@AAEXXZ	; tinyxml2::StrPair::CollapseWhitespace
PUBLIC	?__autoclassinit2@StrPair@tinyxml2@@QAEXI@Z	; tinyxml2::StrPair::__autoclassinit2
PUBLIC	??0MemPool@tinyxml2@@QAE@XZ			; tinyxml2::MemPool::MemPool
PUBLIC	??1MemPool@tinyxml2@@UAE@XZ			; tinyxml2::MemPool::~MemPool
PUBLIC	??_GMemPool@tinyxml2@@UAEPAXI@Z			; tinyxml2::MemPool::`scalar deleting destructor'
PUBLIC	??1XMLVisitor@tinyxml2@@UAE@XZ			; tinyxml2::XMLVisitor::~XMLVisitor
PUBLIC	?VisitEnter@XMLVisitor@tinyxml2@@UAE_NABVXMLDocument@2@@Z ; tinyxml2::XMLVisitor::VisitEnter
PUBLIC	?VisitExit@XMLVisitor@tinyxml2@@UAE_NABVXMLDocument@2@@Z ; tinyxml2::XMLVisitor::VisitExit
PUBLIC	?VisitEnter@XMLVisitor@tinyxml2@@UAE_NABVXMLElement@2@PBVXMLAttribute@2@@Z ; tinyxml2::XMLVisitor::VisitEnter
PUBLIC	?VisitExit@XMLVisitor@tinyxml2@@UAE_NABVXMLElement@2@@Z ; tinyxml2::XMLVisitor::VisitExit
PUBLIC	?Visit@XMLVisitor@tinyxml2@@UAE_NABVXMLDeclaration@2@@Z ; tinyxml2::XMLVisitor::Visit
PUBLIC	?Visit@XMLVisitor@tinyxml2@@UAE_NABVXMLText@2@@Z ; tinyxml2::XMLVisitor::Visit
PUBLIC	?Visit@XMLVisitor@tinyxml2@@UAE_NABVXMLComment@2@@Z ; tinyxml2::XMLVisitor::Visit
PUBLIC	?Visit@XMLVisitor@tinyxml2@@UAE_NABVXMLUnknown@2@@Z ; tinyxml2::XMLVisitor::Visit
PUBLIC	??0XMLVisitor@tinyxml2@@QAE@XZ			; tinyxml2::XMLVisitor::XMLVisitor
PUBLIC	??_GXMLVisitor@tinyxml2@@UAEPAXI@Z		; tinyxml2::XMLVisitor::`scalar deleting destructor'
PUBLIC	?SkipWhiteSpace@XMLUtil@tinyxml2@@SAPBDPBD@Z	; tinyxml2::XMLUtil::SkipWhiteSpace
PUBLIC	?SkipWhiteSpace@XMLUtil@tinyxml2@@SAPADPAD@Z	; tinyxml2::XMLUtil::SkipWhiteSpace
PUBLIC	?IsWhiteSpace@XMLUtil@tinyxml2@@SA_ND@Z		; tinyxml2::XMLUtil::IsWhiteSpace
PUBLIC	?IsNameStartChar@XMLUtil@tinyxml2@@SA_NE@Z	; tinyxml2::XMLUtil::IsNameStartChar
PUBLIC	?IsNameChar@XMLUtil@tinyxml2@@SA_NE@Z		; tinyxml2::XMLUtil::IsNameChar
PUBLIC	?StringEqual@XMLUtil@tinyxml2@@SA_NPBD0H@Z	; tinyxml2::XMLUtil::StringEqual
PUBLIC	?IsUTF8Continuation@XMLUtil@tinyxml2@@SA_ND@Z	; tinyxml2::XMLUtil::IsUTF8Continuation
PUBLIC	?ReadBOM@XMLUtil@tinyxml2@@SAPBDPBDPA_N@Z	; tinyxml2::XMLUtil::ReadBOM
PUBLIC	?GetCharacterRef@XMLUtil@tinyxml2@@SAPBDPBDPADPAH@Z ; tinyxml2::XMLUtil::GetCharacterRef
PUBLIC	?ConvertUTF32ToUTF8@XMLUtil@tinyxml2@@SAXKPADPAH@Z ; tinyxml2::XMLUtil::ConvertUTF32ToUTF8
PUBLIC	?ToStr@XMLUtil@tinyxml2@@SAXHPADH@Z		; tinyxml2::XMLUtil::ToStr
PUBLIC	?ToStr@XMLUtil@tinyxml2@@SAXIPADH@Z		; tinyxml2::XMLUtil::ToStr
PUBLIC	?ToStr@XMLUtil@tinyxml2@@SAX_NPADH@Z		; tinyxml2::XMLUtil::ToStr
PUBLIC	?ToStr@XMLUtil@tinyxml2@@SAXMPADH@Z		; tinyxml2::XMLUtil::ToStr
PUBLIC	?ToStr@XMLUtil@tinyxml2@@SAXNPADH@Z		; tinyxml2::XMLUtil::ToStr
PUBLIC	?ToInt@XMLUtil@tinyxml2@@SA_NPBDPAH@Z		; tinyxml2::XMLUtil::ToInt
PUBLIC	?ToUnsigned@XMLUtil@tinyxml2@@SA_NPBDPAI@Z	; tinyxml2::XMLUtil::ToUnsigned
PUBLIC	?ToBool@XMLUtil@tinyxml2@@SA_NPBDPA_N@Z		; tinyxml2::XMLUtil::ToBool
PUBLIC	?ToFloat@XMLUtil@tinyxml2@@SA_NPBDPAM@Z		; tinyxml2::XMLUtil::ToFloat
PUBLIC	?ToDouble@XMLUtil@tinyxml2@@SA_NPBDPAN@Z	; tinyxml2::XMLUtil::ToDouble
PUBLIC	?GetDocument@XMLNode@tinyxml2@@QAEPAVXMLDocument@2@XZ ; tinyxml2::XMLNode::GetDocument
PUBLIC	?ToElement@XMLNode@tinyxml2@@UAEPAVXMLElement@2@XZ ; tinyxml2::XMLNode::ToElement
PUBLIC	?ToText@XMLNode@tinyxml2@@UAEPAVXMLText@2@XZ	; tinyxml2::XMLNode::ToText
PUBLIC	?ToComment@XMLNode@tinyxml2@@UAEPAVXMLComment@2@XZ ; tinyxml2::XMLNode::ToComment
PUBLIC	?ToDocument@XMLNode@tinyxml2@@UAEPAVXMLDocument@2@XZ ; tinyxml2::XMLNode::ToDocument
PUBLIC	?ToDeclaration@XMLNode@tinyxml2@@UAEPAVXMLDeclaration@2@XZ ; tinyxml2::XMLNode::ToDeclaration
PUBLIC	?ToUnknown@XMLNode@tinyxml2@@UAEPAVXMLUnknown@2@XZ ; tinyxml2::XMLNode::ToUnknown
PUBLIC	?ToElement@XMLNode@tinyxml2@@UBEPBVXMLElement@2@XZ ; tinyxml2::XMLNode::ToElement
PUBLIC	?ToText@XMLNode@tinyxml2@@UBEPBVXMLText@2@XZ	; tinyxml2::XMLNode::ToText
PUBLIC	?ToComment@XMLNode@tinyxml2@@UBEPBVXMLComment@2@XZ ; tinyxml2::XMLNode::ToComment
PUBLIC	?ToDocument@XMLNode@tinyxml2@@UBEPBVXMLDocument@2@XZ ; tinyxml2::XMLNode::ToDocument
PUBLIC	?ToDeclaration@XMLNode@tinyxml2@@UBEPBVXMLDeclaration@2@XZ ; tinyxml2::XMLNode::ToDeclaration
PUBLIC	?ToUnknown@XMLNode@tinyxml2@@UBEPBVXMLUnknown@2@XZ ; tinyxml2::XMLNode::ToUnknown
PUBLIC	?Value@XMLNode@tinyxml2@@QBEPBDXZ		; tinyxml2::XMLNode::Value
PUBLIC	?SetValue@XMLNode@tinyxml2@@QAEXPBD_N@Z		; tinyxml2::XMLNode::SetValue
PUBLIC	?Parent@XMLNode@tinyxml2@@QBEPBV12@XZ		; tinyxml2::XMLNode::Parent
PUBLIC	?NoChildren@XMLNode@tinyxml2@@QBE_NXZ		; tinyxml2::XMLNode::NoChildren
PUBLIC	?FirstChild@XMLNode@tinyxml2@@QBEPBV12@XZ	; tinyxml2::XMLNode::FirstChild
PUBLIC	?FirstChild@XMLNode@tinyxml2@@QAEPAV12@XZ	; tinyxml2::XMLNode::FirstChild
PUBLIC	?FirstChildElement@XMLNode@tinyxml2@@QBEPBVXMLElement@2@PBD@Z ; tinyxml2::XMLNode::FirstChildElement
PUBLIC	?LastChildElement@XMLNode@tinyxml2@@QBEPBVXMLElement@2@PBD@Z ; tinyxml2::XMLNode::LastChildElement
PUBLIC	?PreviousSiblingElement@XMLNode@tinyxml2@@QBEPBVXMLElement@2@PBD@Z ; tinyxml2::XMLNode::PreviousSiblingElement
PUBLIC	?NextSibling@XMLNode@tinyxml2@@QBEPBV12@XZ	; tinyxml2::XMLNode::NextSibling
PUBLIC	?NextSiblingElement@XMLNode@tinyxml2@@QBEPBVXMLElement@2@PBD@Z ; tinyxml2::XMLNode::NextSiblingElement
PUBLIC	?InsertEndChild@XMLNode@tinyxml2@@QAEPAV12@PAV12@@Z ; tinyxml2::XMLNode::InsertEndChild
PUBLIC	?InsertFirstChild@XMLNode@tinyxml2@@QAEPAV12@PAV12@@Z ; tinyxml2::XMLNode::InsertFirstChild
PUBLIC	?InsertAfterChild@XMLNode@tinyxml2@@QAEPAV12@PAV12@0@Z ; tinyxml2::XMLNode::InsertAfterChild
PUBLIC	?DeleteChildren@XMLNode@tinyxml2@@QAEXXZ	; tinyxml2::XMLNode::DeleteChildren
PUBLIC	?DeleteChild@XMLNode@tinyxml2@@QAEXPAV12@@Z	; tinyxml2::XMLNode::DeleteChild
PUBLIC	??0XMLNode@tinyxml2@@IAE@PAVXMLDocument@1@@Z	; tinyxml2::XMLNode::XMLNode
PUBLIC	??1XMLNode@tinyxml2@@MAE@XZ			; tinyxml2::XMLNode::~XMLNode
PUBLIC	?ParseDeep@XMLNode@tinyxml2@@MAEPADPADPAVStrPair@2@@Z ; tinyxml2::XMLNode::ParseDeep
PUBLIC	?Unlink@XMLNode@tinyxml2@@AAEXPAV12@@Z		; tinyxml2::XMLNode::Unlink
PUBLIC	?DeleteNode@XMLNode@tinyxml2@@CAXPAV12@@Z	; tinyxml2::XMLNode::DeleteNode
PUBLIC	?InsertChildPreamble@XMLNode@tinyxml2@@ABEXPAV12@@Z ; tinyxml2::XMLNode::InsertChildPreamble
PUBLIC	??_GXMLNode@tinyxml2@@MAEPAXI@Z			; tinyxml2::XMLNode::`scalar deleting destructor'
PUBLIC	?Accept@XMLText@tinyxml2@@UBE_NPAVXMLVisitor@2@@Z ; tinyxml2::XMLText::Accept
PUBLIC	?ToText@XMLText@tinyxml2@@UAEPAV12@XZ		; tinyxml2::XMLText::ToText
PUBLIC	?ToText@XMLText@tinyxml2@@UBEPBV12@XZ		; tinyxml2::XMLText::ToText
PUBLIC	?SetCData@XMLText@tinyxml2@@QAEX_N@Z		; tinyxml2::XMLText::SetCData
PUBLIC	?CData@XMLText@tinyxml2@@QBE_NXZ		; tinyxml2::XMLText::CData
PUBLIC	?ShallowClone@XMLText@tinyxml2@@UBEPAVXMLNode@2@PAVXMLDocument@2@@Z ; tinyxml2::XMLText::ShallowClone
PUBLIC	?ShallowEqual@XMLText@tinyxml2@@UBE_NPBVXMLNode@2@@Z ; tinyxml2::XMLText::ShallowEqual
PUBLIC	??0XMLText@tinyxml2@@IAE@PAVXMLDocument@1@@Z	; tinyxml2::XMLText::XMLText
PUBLIC	??1XMLText@tinyxml2@@MAE@XZ			; tinyxml2::XMLText::~XMLText
PUBLIC	?ParseDeep@XMLText@tinyxml2@@MAEPADPADPAVStrPair@2@@Z ; tinyxml2::XMLText::ParseDeep
PUBLIC	??_GXMLText@tinyxml2@@MAEPAXI@Z			; tinyxml2::XMLText::`scalar deleting destructor'
PUBLIC	?ToComment@XMLComment@tinyxml2@@UAEPAV12@XZ	; tinyxml2::XMLComment::ToComment
PUBLIC	?ToComment@XMLComment@tinyxml2@@UBEPBV12@XZ	; tinyxml2::XMLComment::ToComment
PUBLIC	?Accept@XMLComment@tinyxml2@@UBE_NPAVXMLVisitor@2@@Z ; tinyxml2::XMLComment::Accept
PUBLIC	?ShallowClone@XMLComment@tinyxml2@@UBEPAVXMLNode@2@PAVXMLDocument@2@@Z ; tinyxml2::XMLComment::ShallowClone
PUBLIC	?ShallowEqual@XMLComment@tinyxml2@@UBE_NPBVXMLNode@2@@Z ; tinyxml2::XMLComment::ShallowEqual
PUBLIC	??0XMLComment@tinyxml2@@IAE@PAVXMLDocument@1@@Z	; tinyxml2::XMLComment::XMLComment
PUBLIC	??1XMLComment@tinyxml2@@MAE@XZ			; tinyxml2::XMLComment::~XMLComment
PUBLIC	?ParseDeep@XMLComment@tinyxml2@@MAEPADPADPAVStrPair@2@@Z ; tinyxml2::XMLComment::ParseDeep
PUBLIC	??_GXMLComment@tinyxml2@@MAEPAXI@Z		; tinyxml2::XMLComment::`scalar deleting destructor'
PUBLIC	?ToDeclaration@XMLDeclaration@tinyxml2@@UAEPAV12@XZ ; tinyxml2::XMLDeclaration::ToDeclaration
PUBLIC	?ToDeclaration@XMLDeclaration@tinyxml2@@UBEPBV12@XZ ; tinyxml2::XMLDeclaration::ToDeclaration
PUBLIC	?Accept@XMLDeclaration@tinyxml2@@UBE_NPAVXMLVisitor@2@@Z ; tinyxml2::XMLDeclaration::Accept
PUBLIC	?ShallowClone@XMLDeclaration@tinyxml2@@UBEPAVXMLNode@2@PAVXMLDocument@2@@Z ; tinyxml2::XMLDeclaration::ShallowClone
PUBLIC	?ShallowEqual@XMLDeclaration@tinyxml2@@UBE_NPBVXMLNode@2@@Z ; tinyxml2::XMLDeclaration::ShallowEqual
PUBLIC	??0XMLDeclaration@tinyxml2@@IAE@PAVXMLDocument@1@@Z ; tinyxml2::XMLDeclaration::XMLDeclaration
PUBLIC	??1XMLDeclaration@tinyxml2@@MAE@XZ		; tinyxml2::XMLDeclaration::~XMLDeclaration
PUBLIC	?ParseDeep@XMLDeclaration@tinyxml2@@MAEPADPADPAVStrPair@2@@Z ; tinyxml2::XMLDeclaration::ParseDeep
PUBLIC	??_GXMLDeclaration@tinyxml2@@MAEPAXI@Z		; tinyxml2::XMLDeclaration::`scalar deleting destructor'
PUBLIC	?ToUnknown@XMLUnknown@tinyxml2@@UAEPAV12@XZ	; tinyxml2::XMLUnknown::ToUnknown
PUBLIC	?ToUnknown@XMLUnknown@tinyxml2@@UBEPBV12@XZ	; tinyxml2::XMLUnknown::ToUnknown
PUBLIC	?Accept@XMLUnknown@tinyxml2@@UBE_NPAVXMLVisitor@2@@Z ; tinyxml2::XMLUnknown::Accept
PUBLIC	?ShallowClone@XMLUnknown@tinyxml2@@UBEPAVXMLNode@2@PAVXMLDocument@2@@Z ; tinyxml2::XMLUnknown::ShallowClone
PUBLIC	?ShallowEqual@XMLUnknown@tinyxml2@@UBE_NPBVXMLNode@2@@Z ; tinyxml2::XMLUnknown::ShallowEqual
PUBLIC	??0XMLUnknown@tinyxml2@@IAE@PAVXMLDocument@1@@Z	; tinyxml2::XMLUnknown::XMLUnknown
PUBLIC	??1XMLUnknown@tinyxml2@@MAE@XZ			; tinyxml2::XMLUnknown::~XMLUnknown
PUBLIC	?ParseDeep@XMLUnknown@tinyxml2@@MAEPADPADPAVStrPair@2@@Z ; tinyxml2::XMLUnknown::ParseDeep
PUBLIC	??_GXMLUnknown@tinyxml2@@MAEPAXI@Z		; tinyxml2::XMLUnknown::`scalar deleting destructor'
PUBLIC	?Name@XMLAttribute@tinyxml2@@QBEPBDXZ		; tinyxml2::XMLAttribute::Name
PUBLIC	?Value@XMLAttribute@tinyxml2@@QBEPBDXZ		; tinyxml2::XMLAttribute::Value
PUBLIC	?Next@XMLAttribute@tinyxml2@@QBEPBV12@XZ	; tinyxml2::XMLAttribute::Next
PUBLIC	?QueryIntValue@XMLAttribute@tinyxml2@@QBE?AW4XMLError@2@PAH@Z ; tinyxml2::XMLAttribute::QueryIntValue
PUBLIC	?QueryUnsignedValue@XMLAttribute@tinyxml2@@QBE?AW4XMLError@2@PAI@Z ; tinyxml2::XMLAttribute::QueryUnsignedValue
PUBLIC	?QueryBoolValue@XMLAttribute@tinyxml2@@QBE?AW4XMLError@2@PA_N@Z ; tinyxml2::XMLAttribute::QueryBoolValue
PUBLIC	?QueryDoubleValue@XMLAttribute@tinyxml2@@QBE?AW4XMLError@2@PAN@Z ; tinyxml2::XMLAttribute::QueryDoubleValue
PUBLIC	?QueryFloatValue@XMLAttribute@tinyxml2@@QBE?AW4XMLError@2@PAM@Z ; tinyxml2::XMLAttribute::QueryFloatValue
PUBLIC	?SetAttribute@XMLAttribute@tinyxml2@@QAEXPBD@Z	; tinyxml2::XMLAttribute::SetAttribute
PUBLIC	?SetAttribute@XMLAttribute@tinyxml2@@QAEXH@Z	; tinyxml2::XMLAttribute::SetAttribute
PUBLIC	?SetAttribute@XMLAttribute@tinyxml2@@QAEXI@Z	; tinyxml2::XMLAttribute::SetAttribute
PUBLIC	?SetAttribute@XMLAttribute@tinyxml2@@QAEX_N@Z	; tinyxml2::XMLAttribute::SetAttribute
PUBLIC	?SetAttribute@XMLAttribute@tinyxml2@@QAEXN@Z	; tinyxml2::XMLAttribute::SetAttribute
PUBLIC	?SetAttribute@XMLAttribute@tinyxml2@@QAEXM@Z	; tinyxml2::XMLAttribute::SetAttribute
PUBLIC	??0XMLAttribute@tinyxml2@@AAE@XZ		; tinyxml2::XMLAttribute::XMLAttribute
PUBLIC	??1XMLAttribute@tinyxml2@@EAE@XZ		; tinyxml2::XMLAttribute::~XMLAttribute
PUBLIC	?SetName@XMLAttribute@tinyxml2@@AAEXPBD@Z	; tinyxml2::XMLAttribute::SetName
PUBLIC	?ParseDeep@XMLAttribute@tinyxml2@@AAEPADPAD_N@Z	; tinyxml2::XMLAttribute::ParseDeep
PUBLIC	??_GXMLAttribute@tinyxml2@@EAEPAXI@Z		; tinyxml2::XMLAttribute::`scalar deleting destructor'
PUBLIC	?Name@XMLElement@tinyxml2@@QBEPBDXZ		; tinyxml2::XMLElement::Name
PUBLIC	?SetName@XMLElement@tinyxml2@@QAEXPBD_N@Z	; tinyxml2::XMLElement::SetName
PUBLIC	?ToElement@XMLElement@tinyxml2@@UAEPAV12@XZ	; tinyxml2::XMLElement::ToElement
PUBLIC	?ToElement@XMLElement@tinyxml2@@UBEPBV12@XZ	; tinyxml2::XMLElement::ToElement
PUBLIC	?Accept@XMLElement@tinyxml2@@UBE_NPAVXMLVisitor@2@@Z ; tinyxml2::XMLElement::Accept
PUBLIC	?Attribute@XMLElement@tinyxml2@@QBEPBDPBD0@Z	; tinyxml2::XMLElement::Attribute
PUBLIC	?SetAttribute@XMLElement@tinyxml2@@QAEXPBD0@Z	; tinyxml2::XMLElement::SetAttribute
PUBLIC	?DeleteAttribute@XMLElement@tinyxml2@@QAEXPBD@Z	; tinyxml2::XMLElement::DeleteAttribute
PUBLIC	?FirstAttribute@XMLElement@tinyxml2@@QBEPBVXMLAttribute@2@XZ ; tinyxml2::XMLElement::FirstAttribute
PUBLIC	?FindAttribute@XMLElement@tinyxml2@@QBEPBVXMLAttribute@2@PBD@Z ; tinyxml2::XMLElement::FindAttribute
PUBLIC	?GetText@XMLElement@tinyxml2@@QBEPBDXZ		; tinyxml2::XMLElement::GetText
PUBLIC	?SetText@XMLElement@tinyxml2@@QAEXPBD@Z		; tinyxml2::XMLElement::SetText
PUBLIC	?SetText@XMLElement@tinyxml2@@QAEXH@Z		; tinyxml2::XMLElement::SetText
PUBLIC	?SetText@XMLElement@tinyxml2@@QAEXI@Z		; tinyxml2::XMLElement::SetText
PUBLIC	?SetText@XMLElement@tinyxml2@@QAEX_N@Z		; tinyxml2::XMLElement::SetText
PUBLIC	?SetText@XMLElement@tinyxml2@@QAEXN@Z		; tinyxml2::XMLElement::SetText
PUBLIC	?SetText@XMLElement@tinyxml2@@QAEXM@Z		; tinyxml2::XMLElement::SetText
PUBLIC	?QueryIntText@XMLElement@tinyxml2@@QBE?AW4XMLError@2@PAH@Z ; tinyxml2::XMLElement::QueryIntText
PUBLIC	?QueryUnsignedText@XMLElement@tinyxml2@@QBE?AW4XMLError@2@PAI@Z ; tinyxml2::XMLElement::QueryUnsignedText
PUBLIC	?QueryBoolText@XMLElement@tinyxml2@@QBE?AW4XMLError@2@PA_N@Z ; tinyxml2::XMLElement::QueryBoolText
PUBLIC	?QueryDoubleText@XMLElement@tinyxml2@@QBE?AW4XMLError@2@PAN@Z ; tinyxml2::XMLElement::QueryDoubleText
PUBLIC	?QueryFloatText@XMLElement@tinyxml2@@QBE?AW4XMLError@2@PAM@Z ; tinyxml2::XMLElement::QueryFloatText
PUBLIC	?ClosingType@XMLElement@tinyxml2@@QBEHXZ	; tinyxml2::XMLElement::ClosingType
PUBLIC	?ShallowClone@XMLElement@tinyxml2@@UBEPAVXMLNode@2@PAVXMLDocument@2@@Z ; tinyxml2::XMLElement::ShallowClone
PUBLIC	?ShallowEqual@XMLElement@tinyxml2@@UBE_NPBVXMLNode@2@@Z ; tinyxml2::XMLElement::ShallowEqual
PUBLIC	?ParseDeep@XMLElement@tinyxml2@@MAEPADPADPAVStrPair@2@@Z ; tinyxml2::XMLElement::ParseDeep
PUBLIC	??0XMLElement@tinyxml2@@AAE@PAVXMLDocument@1@@Z	; tinyxml2::XMLElement::XMLElement
PUBLIC	??1XMLElement@tinyxml2@@EAE@XZ			; tinyxml2::XMLElement::~XMLElement
PUBLIC	?FindOrCreateAttribute@XMLElement@tinyxml2@@AAEPAVXMLAttribute@2@PBD@Z ; tinyxml2::XMLElement::FindOrCreateAttribute
PUBLIC	?ParseAttributes@XMLElement@tinyxml2@@AAEPADPAD@Z ; tinyxml2::XMLElement::ParseAttributes
PUBLIC	?DeleteAttribute@XMLElement@tinyxml2@@CAXPAVXMLAttribute@2@@Z ; tinyxml2::XMLElement::DeleteAttribute
PUBLIC	??_GXMLElement@tinyxml2@@EAEPAXI@Z		; tinyxml2::XMLElement::`scalar deleting destructor'
PUBLIC	??0XMLDocument@tinyxml2@@QAE@_NW4Whitespace@1@@Z ; tinyxml2::XMLDocument::XMLDocument
PUBLIC	??1XMLDocument@tinyxml2@@UAE@XZ			; tinyxml2::XMLDocument::~XMLDocument
PUBLIC	?ToDocument@XMLDocument@tinyxml2@@UAEPAV12@XZ	; tinyxml2::XMLDocument::ToDocument
PUBLIC	?ToDocument@XMLDocument@tinyxml2@@UBEPBV12@XZ	; tinyxml2::XMLDocument::ToDocument
PUBLIC	?Parse@XMLDocument@tinyxml2@@QAE?AW4XMLError@2@PBDI@Z ; tinyxml2::XMLDocument::Parse
PUBLIC	?LoadFile@XMLDocument@tinyxml2@@QAE?AW4XMLError@2@PBD@Z ; tinyxml2::XMLDocument::LoadFile
PUBLIC	?LoadFile@XMLDocument@tinyxml2@@QAE?AW4XMLError@2@PAU_iobuf@@@Z ; tinyxml2::XMLDocument::LoadFile
PUBLIC	?SaveFile@XMLDocument@tinyxml2@@QAE?AW4XMLError@2@PBD_N@Z ; tinyxml2::XMLDocument::SaveFile
PUBLIC	?SaveFile@XMLDocument@tinyxml2@@QAE?AW4XMLError@2@PAU_iobuf@@_N@Z ; tinyxml2::XMLDocument::SaveFile
PUBLIC	?ProcessEntities@XMLDocument@tinyxml2@@QBE_NXZ	; tinyxml2::XMLDocument::ProcessEntities
PUBLIC	?WhitespaceMode@XMLDocument@tinyxml2@@QBE?AW4Whitespace@2@XZ ; tinyxml2::XMLDocument::WhitespaceMode
PUBLIC	?HasBOM@XMLDocument@tinyxml2@@QBE_NXZ		; tinyxml2::XMLDocument::HasBOM
PUBLIC	?Print@XMLDocument@tinyxml2@@QBEXPAVXMLPrinter@2@@Z ; tinyxml2::XMLDocument::Print
PUBLIC	?Accept@XMLDocument@tinyxml2@@UBE_NPAVXMLVisitor@2@@Z ; tinyxml2::XMLDocument::Accept
PUBLIC	?NewElement@XMLDocument@tinyxml2@@QAEPAVXMLElement@2@PBD@Z ; tinyxml2::XMLDocument::NewElement
PUBLIC	?NewComment@XMLDocument@tinyxml2@@QAEPAVXMLComment@2@PBD@Z ; tinyxml2::XMLDocument::NewComment
PUBLIC	?NewText@XMLDocument@tinyxml2@@QAEPAVXMLText@2@PBD@Z ; tinyxml2::XMLDocument::NewText
PUBLIC	?NewDeclaration@XMLDocument@tinyxml2@@QAEPAVXMLDeclaration@2@PBD@Z ; tinyxml2::XMLDocument::NewDeclaration
PUBLIC	?NewUnknown@XMLDocument@tinyxml2@@QAEPAVXMLUnknown@2@PBD@Z ; tinyxml2::XMLDocument::NewUnknown
PUBLIC	?DeleteNode@XMLDocument@tinyxml2@@QAEXPAVXMLNode@2@@Z ; tinyxml2::XMLDocument::DeleteNode
PUBLIC	?SetError@XMLDocument@tinyxml2@@QAEXW4XMLError@2@PBD1@Z ; tinyxml2::XMLDocument::SetError
PUBLIC	?Error@XMLDocument@tinyxml2@@QBE_NXZ		; tinyxml2::XMLDocument::Error
PUBLIC	?ErrorName@XMLDocument@tinyxml2@@QBEPBDXZ	; tinyxml2::XMLDocument::ErrorName
PUBLIC	?PrintError@XMLDocument@tinyxml2@@QBEXXZ	; tinyxml2::XMLDocument::PrintError
PUBLIC	?Clear@XMLDocument@tinyxml2@@QAEXXZ		; tinyxml2::XMLDocument::Clear
PUBLIC	?Identify@XMLDocument@tinyxml2@@QAEPADPADPAPAVXMLNode@2@@Z ; tinyxml2::XMLDocument::Identify
PUBLIC	?ShallowClone@XMLDocument@tinyxml2@@UBEPAVXMLNode@2@PAV12@@Z ; tinyxml2::XMLDocument::ShallowClone
PUBLIC	?ShallowEqual@XMLDocument@tinyxml2@@UBE_NPBVXMLNode@2@@Z ; tinyxml2::XMLDocument::ShallowEqual
PUBLIC	??0?$MemPoolT@$0DE@@tinyxml2@@QAE@XZ		; tinyxml2::MemPoolT<52>::MemPoolT<52>
PUBLIC	??1?$MemPoolT@$0DE@@tinyxml2@@UAE@XZ		; tinyxml2::MemPoolT<52>::~MemPoolT<52>
PUBLIC	?Clear@?$MemPoolT@$0DE@@tinyxml2@@UAEXXZ	; tinyxml2::MemPoolT<52>::Clear
PUBLIC	?ItemSize@?$MemPoolT@$0DE@@tinyxml2@@UBEHXZ	; tinyxml2::MemPoolT<52>::ItemSize
PUBLIC	?CurrentAllocs@?$MemPoolT@$0DE@@tinyxml2@@QBEHXZ ; tinyxml2::MemPoolT<52>::CurrentAllocs
PUBLIC	?Alloc@?$MemPoolT@$0DE@@tinyxml2@@UAEPAXXZ	; tinyxml2::MemPoolT<52>::Alloc
PUBLIC	?Free@?$MemPoolT@$0DE@@tinyxml2@@UAEXPAX@Z	; tinyxml2::MemPoolT<52>::Free
PUBLIC	?SetTracked@?$MemPoolT@$0DE@@tinyxml2@@UAEXXZ	; tinyxml2::MemPoolT<52>::SetTracked
PUBLIC	?Untracked@?$MemPoolT@$0DE@@tinyxml2@@QBEHXZ	; tinyxml2::MemPoolT<52>::Untracked
PUBLIC	??0?$DynArray@PAUBlock@?$MemPoolT@$0DE@@tinyxml2@@$09@tinyxml2@@QAE@XZ ; tinyxml2::DynArray<tinyxml2::MemPoolT<52>::Block *,10>::DynArray<tinyxml2::MemPoolT<52>::Block *,10>
PUBLIC	??1?$DynArray@PAUBlock@?$MemPoolT@$0DE@@tinyxml2@@$09@tinyxml2@@QAE@XZ ; tinyxml2::DynArray<tinyxml2::MemPoolT<52>::Block *,10>::~DynArray<tinyxml2::MemPoolT<52>::Block *,10>
PUBLIC	?Push@?$DynArray@PAUBlock@?$MemPoolT@$0DE@@tinyxml2@@$09@tinyxml2@@QAEXPAUBlock@?$MemPoolT@$0DE@@2@@Z ; tinyxml2::DynArray<tinyxml2::MemPoolT<52>::Block *,10>::Push
PUBLIC	?Pop@?$DynArray@PAUBlock@?$MemPoolT@$0DE@@tinyxml2@@$09@tinyxml2@@QAEPAUBlock@?$MemPoolT@$0DE@@2@XZ ; tinyxml2::DynArray<tinyxml2::MemPoolT<52>::Block *,10>::Pop
PUBLIC	?Empty@?$DynArray@PAUBlock@?$MemPoolT@$0DE@@tinyxml2@@$09@tinyxml2@@QBE_NXZ ; tinyxml2::DynArray<tinyxml2::MemPoolT<52>::Block *,10>::Empty
PUBLIC	?EnsureCapacity@?$DynArray@PAUBlock@?$MemPoolT@$0DE@@tinyxml2@@$09@tinyxml2@@AAEXH@Z ; tinyxml2::DynArray<tinyxml2::MemPoolT<52>::Block *,10>::EnsureCapacity
PUBLIC	??_G?$MemPoolT@$0DE@@tinyxml2@@UAEPAXI@Z	; tinyxml2::MemPoolT<52>::`scalar deleting destructor'
PUBLIC	??0?$MemPoolT@$0CE@@tinyxml2@@QAE@XZ		; tinyxml2::MemPoolT<36>::MemPoolT<36>
PUBLIC	??1?$MemPoolT@$0CE@@tinyxml2@@UAE@XZ		; tinyxml2::MemPoolT<36>::~MemPoolT<36>
PUBLIC	?Clear@?$MemPoolT@$0CE@@tinyxml2@@UAEXXZ	; tinyxml2::MemPoolT<36>::Clear
PUBLIC	?ItemSize@?$MemPoolT@$0CE@@tinyxml2@@UBEHXZ	; tinyxml2::MemPoolT<36>::ItemSize
PUBLIC	?CurrentAllocs@?$MemPoolT@$0CE@@tinyxml2@@QBEHXZ ; tinyxml2::MemPoolT<36>::CurrentAllocs
PUBLIC	?Alloc@?$MemPoolT@$0CE@@tinyxml2@@UAEPAXXZ	; tinyxml2::MemPoolT<36>::Alloc
PUBLIC	?Free@?$MemPoolT@$0CE@@tinyxml2@@UAEXPAX@Z	; tinyxml2::MemPoolT<36>::Free
PUBLIC	?SetTracked@?$MemPoolT@$0CE@@tinyxml2@@UAEXXZ	; tinyxml2::MemPoolT<36>::SetTracked
PUBLIC	?Untracked@?$MemPoolT@$0CE@@tinyxml2@@QBEHXZ	; tinyxml2::MemPoolT<36>::Untracked
PUBLIC	??0?$DynArray@PAUBlock@?$MemPoolT@$0CE@@tinyxml2@@$09@tinyxml2@@QAE@XZ ; tinyxml2::DynArray<tinyxml2::MemPoolT<36>::Block *,10>::DynArray<tinyxml2::MemPoolT<36>::Block *,10>
PUBLIC	??1?$DynArray@PAUBlock@?$MemPoolT@$0CE@@tinyxml2@@$09@tinyxml2@@QAE@XZ ; tinyxml2::DynArray<tinyxml2::MemPoolT<36>::Block *,10>::~DynArray<tinyxml2::MemPoolT<36>::Block *,10>
PUBLIC	?Push@?$DynArray@PAUBlock@?$MemPoolT@$0CE@@tinyxml2@@$09@tinyxml2@@QAEXPAUBlock@?$MemPoolT@$0CE@@2@@Z ; tinyxml2::DynArray<tinyxml2::MemPoolT<36>::Block *,10>::Push
PUBLIC	?Pop@?$DynArray@PAUBlock@?$MemPoolT@$0CE@@tinyxml2@@$09@tinyxml2@@QAEPAUBlock@?$MemPoolT@$0CE@@2@XZ ; tinyxml2::DynArray<tinyxml2::MemPoolT<36>::Block *,10>::Pop
PUBLIC	?Empty@?$DynArray@PAUBlock@?$MemPoolT@$0CE@@tinyxml2@@$09@tinyxml2@@QBE_NXZ ; tinyxml2::DynArray<tinyxml2::MemPoolT<36>::Block *,10>::Empty
PUBLIC	?EnsureCapacity@?$DynArray@PAUBlock@?$MemPoolT@$0CE@@tinyxml2@@$09@tinyxml2@@AAEXH@Z ; tinyxml2::DynArray<tinyxml2::MemPoolT<36>::Block *,10>::EnsureCapacity
PUBLIC	??_G?$MemPoolT@$0CE@@tinyxml2@@UAEPAXI@Z	; tinyxml2::MemPoolT<36>::`scalar deleting destructor'
PUBLIC	??0?$MemPoolT@$0DA@@tinyxml2@@QAE@XZ		; tinyxml2::MemPoolT<48>::MemPoolT<48>
PUBLIC	??1?$MemPoolT@$0DA@@tinyxml2@@UAE@XZ		; tinyxml2::MemPoolT<48>::~MemPoolT<48>
PUBLIC	?Clear@?$MemPoolT@$0DA@@tinyxml2@@UAEXXZ	; tinyxml2::MemPoolT<48>::Clear
PUBLIC	?ItemSize@?$MemPoolT@$0DA@@tinyxml2@@UBEHXZ	; tinyxml2::MemPoolT<48>::ItemSize
PUBLIC	?CurrentAllocs@?$MemPoolT@$0DA@@tinyxml2@@QBEHXZ ; tinyxml2::MemPoolT<48>::CurrentAllocs
PUBLIC	?Alloc@?$MemPoolT@$0DA@@tinyxml2@@UAEPAXXZ	; tinyxml2::MemPoolT<48>::Alloc
PUBLIC	?Free@?$MemPoolT@$0DA@@tinyxml2@@UAEXPAX@Z	; tinyxml2::MemPoolT<48>::Free
PUBLIC	?SetTracked@?$MemPoolT@$0DA@@tinyxml2@@UAEXXZ	; tinyxml2::MemPoolT<48>::SetTracked
PUBLIC	?Untracked@?$MemPoolT@$0DA@@tinyxml2@@QBEHXZ	; tinyxml2::MemPoolT<48>::Untracked
PUBLIC	??0?$DynArray@PAUBlock@?$MemPoolT@$0DA@@tinyxml2@@$09@tinyxml2@@QAE@XZ ; tinyxml2::DynArray<tinyxml2::MemPoolT<48>::Block *,10>::DynArray<tinyxml2::MemPoolT<48>::Block *,10>
PUBLIC	??1?$DynArray@PAUBlock@?$MemPoolT@$0DA@@tinyxml2@@$09@tinyxml2@@QAE@XZ ; tinyxml2::DynArray<tinyxml2::MemPoolT<48>::Block *,10>::~DynArray<tinyxml2::MemPoolT<48>::Block *,10>
PUBLIC	?Push@?$DynArray@PAUBlock@?$MemPoolT@$0DA@@tinyxml2@@$09@tinyxml2@@QAEXPAUBlock@?$MemPoolT@$0DA@@2@@Z ; tinyxml2::DynArray<tinyxml2::MemPoolT<48>::Block *,10>::Push
PUBLIC	?Pop@?$DynArray@PAUBlock@?$MemPoolT@$0DA@@tinyxml2@@$09@tinyxml2@@QAEPAUBlock@?$MemPoolT@$0DA@@2@XZ ; tinyxml2::DynArray<tinyxml2::MemPoolT<48>::Block *,10>::Pop
PUBLIC	?Empty@?$DynArray@PAUBlock@?$MemPoolT@$0DA@@tinyxml2@@$09@tinyxml2@@QBE_NXZ ; tinyxml2::DynArray<tinyxml2::MemPoolT<48>::Block *,10>::Empty
PUBLIC	?EnsureCapacity@?$DynArray@PAUBlock@?$MemPoolT@$0DA@@tinyxml2@@$09@tinyxml2@@AAEXH@Z ; tinyxml2::DynArray<tinyxml2::MemPoolT<48>::Block *,10>::EnsureCapacity
PUBLIC	??_G?$MemPoolT@$0DA@@tinyxml2@@UAEPAXI@Z	; tinyxml2::MemPoolT<48>::`scalar deleting destructor'
PUBLIC	??0?$MemPoolT@$0CM@@tinyxml2@@QAE@XZ		; tinyxml2::MemPoolT<44>::MemPoolT<44>
PUBLIC	??1?$MemPoolT@$0CM@@tinyxml2@@UAE@XZ		; tinyxml2::MemPoolT<44>::~MemPoolT<44>
PUBLIC	?Clear@?$MemPoolT@$0CM@@tinyxml2@@UAEXXZ	; tinyxml2::MemPoolT<44>::Clear
PUBLIC	?ItemSize@?$MemPoolT@$0CM@@tinyxml2@@UBEHXZ	; tinyxml2::MemPoolT<44>::ItemSize
PUBLIC	?CurrentAllocs@?$MemPoolT@$0CM@@tinyxml2@@QBEHXZ ; tinyxml2::MemPoolT<44>::CurrentAllocs
PUBLIC	?Alloc@?$MemPoolT@$0CM@@tinyxml2@@UAEPAXXZ	; tinyxml2::MemPoolT<44>::Alloc
PUBLIC	?Free@?$MemPoolT@$0CM@@tinyxml2@@UAEXPAX@Z	; tinyxml2::MemPoolT<44>::Free
PUBLIC	?SetTracked@?$MemPoolT@$0CM@@tinyxml2@@UAEXXZ	; tinyxml2::MemPoolT<44>::SetTracked
PUBLIC	?Untracked@?$MemPoolT@$0CM@@tinyxml2@@QBEHXZ	; tinyxml2::MemPoolT<44>::Untracked
PUBLIC	??0?$DynArray@PAUBlock@?$MemPoolT@$0CM@@tinyxml2@@$09@tinyxml2@@QAE@XZ ; tinyxml2::DynArray<tinyxml2::MemPoolT<44>::Block *,10>::DynArray<tinyxml2::MemPoolT<44>::Block *,10>
PUBLIC	??1?$DynArray@PAUBlock@?$MemPoolT@$0CM@@tinyxml2@@$09@tinyxml2@@QAE@XZ ; tinyxml2::DynArray<tinyxml2::MemPoolT<44>::Block *,10>::~DynArray<tinyxml2::MemPoolT<44>::Block *,10>
PUBLIC	?Push@?$DynArray@PAUBlock@?$MemPoolT@$0CM@@tinyxml2@@$09@tinyxml2@@QAEXPAUBlock@?$MemPoolT@$0CM@@2@@Z ; tinyxml2::DynArray<tinyxml2::MemPoolT<44>::Block *,10>::Push
PUBLIC	?Pop@?$DynArray@PAUBlock@?$MemPoolT@$0CM@@tinyxml2@@$09@tinyxml2@@QAEPAUBlock@?$MemPoolT@$0CM@@2@XZ ; tinyxml2::DynArray<tinyxml2::MemPoolT<44>::Block *,10>::Pop
PUBLIC	?Empty@?$DynArray@PAUBlock@?$MemPoolT@$0CM@@tinyxml2@@$09@tinyxml2@@QBE_NXZ ; tinyxml2::DynArray<tinyxml2::MemPoolT<44>::Block *,10>::Empty
PUBLIC	?EnsureCapacity@?$DynArray@PAUBlock@?$MemPoolT@$0CM@@tinyxml2@@$09@tinyxml2@@AAEXH@Z ; tinyxml2::DynArray<tinyxml2::MemPoolT<44>::Block *,10>::EnsureCapacity
PUBLIC	??_G?$MemPoolT@$0CM@@tinyxml2@@UAEPAXI@Z	; tinyxml2::MemPoolT<44>::`scalar deleting destructor'
PUBLIC	?Parse@XMLDocument@tinyxml2@@AAEXXZ		; tinyxml2::XMLDocument::Parse
PUBLIC	??_GXMLDocument@tinyxml2@@UAEPAXI@Z		; tinyxml2::XMLDocument::`scalar deleting destructor'
PUBLIC	??0XMLPrinter@tinyxml2@@QAE@PAU_iobuf@@_NH@Z	; tinyxml2::XMLPrinter::XMLPrinter
PUBLIC	??1XMLPrinter@tinyxml2@@UAE@XZ			; tinyxml2::XMLPrinter::~XMLPrinter
PUBLIC	?PushHeader@XMLPrinter@tinyxml2@@QAEX_N0@Z	; tinyxml2::XMLPrinter::PushHeader
PUBLIC	?OpenElement@XMLPrinter@tinyxml2@@QAEXPBD_N@Z	; tinyxml2::XMLPrinter::OpenElement
PUBLIC	?PushAttribute@XMLPrinter@tinyxml2@@QAEXPBD0@Z	; tinyxml2::XMLPrinter::PushAttribute
PUBLIC	?PushAttribute@XMLPrinter@tinyxml2@@QAEXPBDH@Z	; tinyxml2::XMLPrinter::PushAttribute
PUBLIC	?PushAttribute@XMLPrinter@tinyxml2@@QAEXPBDI@Z	; tinyxml2::XMLPrinter::PushAttribute
PUBLIC	?PushAttribute@XMLPrinter@tinyxml2@@QAEXPBD_N@Z	; tinyxml2::XMLPrinter::PushAttribute
PUBLIC	?PushAttribute@XMLPrinter@tinyxml2@@QAEXPBDN@Z	; tinyxml2::XMLPrinter::PushAttribute
PUBLIC	?CloseElement@XMLPrinter@tinyxml2@@UAEX_N@Z	; tinyxml2::XMLPrinter::CloseElement
PUBLIC	?PushText@XMLPrinter@tinyxml2@@QAEXPBD_N@Z	; tinyxml2::XMLPrinter::PushText
PUBLIC	?PushText@XMLPrinter@tinyxml2@@QAEXH@Z		; tinyxml2::XMLPrinter::PushText
PUBLIC	?PushText@XMLPrinter@tinyxml2@@QAEXI@Z		; tinyxml2::XMLPrinter::PushText
PUBLIC	?PushText@XMLPrinter@tinyxml2@@QAEX_N@Z		; tinyxml2::XMLPrinter::PushText
PUBLIC	?PushText@XMLPrinter@tinyxml2@@QAEXM@Z		; tinyxml2::XMLPrinter::PushText
PUBLIC	?PushText@XMLPrinter@tinyxml2@@QAEXN@Z		; tinyxml2::XMLPrinter::PushText
PUBLIC	?PushComment@XMLPrinter@tinyxml2@@QAEXPBD@Z	; tinyxml2::XMLPrinter::PushComment
PUBLIC	?PushDeclaration@XMLPrinter@tinyxml2@@QAEXPBD@Z	; tinyxml2::XMLPrinter::PushDeclaration
PUBLIC	?PushUnknown@XMLPrinter@tinyxml2@@QAEXPBD@Z	; tinyxml2::XMLPrinter::PushUnknown
PUBLIC	?VisitEnter@XMLPrinter@tinyxml2@@UAE_NABVXMLDocument@2@@Z ; tinyxml2::XMLPrinter::VisitEnter
PUBLIC	?VisitExit@XMLPrinter@tinyxml2@@UAE_NABVXMLDocument@2@@Z ; tinyxml2::XMLPrinter::VisitExit
PUBLIC	?VisitEnter@XMLPrinter@tinyxml2@@UAE_NABVXMLElement@2@PBVXMLAttribute@2@@Z ; tinyxml2::XMLPrinter::VisitEnter
PUBLIC	?VisitExit@XMLPrinter@tinyxml2@@UAE_NABVXMLElement@2@@Z ; tinyxml2::XMLPrinter::VisitExit
PUBLIC	?Visit@XMLPrinter@tinyxml2@@UAE_NABVXMLText@2@@Z ; tinyxml2::XMLPrinter::Visit
PUBLIC	?Visit@XMLPrinter@tinyxml2@@UAE_NABVXMLComment@2@@Z ; tinyxml2::XMLPrinter::Visit
PUBLIC	?Visit@XMLPrinter@tinyxml2@@UAE_NABVXMLDeclaration@2@@Z ; tinyxml2::XMLPrinter::Visit
PUBLIC	?Visit@XMLPrinter@tinyxml2@@UAE_NABVXMLUnknown@2@@Z ; tinyxml2::XMLPrinter::Visit
PUBLIC	?CompactMode@XMLPrinter@tinyxml2@@MAE_NABVXMLElement@2@@Z ; tinyxml2::XMLPrinter::CompactMode
PUBLIC	?PrintSpace@XMLPrinter@tinyxml2@@MAEXH@Z	; tinyxml2::XMLPrinter::PrintSpace
PUBLIC	?Print@XMLPrinter@tinyxml2@@IAAXPBDZZ		; tinyxml2::XMLPrinter::Print
PUBLIC	?SealElementIfJustOpened@XMLPrinter@tinyxml2@@IAEXXZ ; tinyxml2::XMLPrinter::SealElementIfJustOpened
PUBLIC	??0?$DynArray@PBD$09@tinyxml2@@QAE@XZ		; tinyxml2::DynArray<char const *,10>::DynArray<char const *,10>
PUBLIC	??1?$DynArray@PBD$09@tinyxml2@@QAE@XZ		; tinyxml2::DynArray<char const *,10>::~DynArray<char const *,10>
PUBLIC	?Push@?$DynArray@PBD$09@tinyxml2@@QAEXPBD@Z	; tinyxml2::DynArray<char const *,10>::Push
PUBLIC	?Pop@?$DynArray@PBD$09@tinyxml2@@QAEPBDXZ	; tinyxml2::DynArray<char const *,10>::Pop
PUBLIC	?EnsureCapacity@?$DynArray@PBD$09@tinyxml2@@AAEXH@Z ; tinyxml2::DynArray<char const *,10>::EnsureCapacity
PUBLIC	?PrintString@XMLPrinter@tinyxml2@@AAEXPBD_N@Z	; tinyxml2::XMLPrinter::PrintString
PUBLIC	??0?$DynArray@D$0BE@@tinyxml2@@QAE@XZ		; tinyxml2::DynArray<char,20>::DynArray<char,20>
PUBLIC	??1?$DynArray@D$0BE@@tinyxml2@@QAE@XZ		; tinyxml2::DynArray<char,20>::~DynArray<char,20>
PUBLIC	?Push@?$DynArray@D$0BE@@tinyxml2@@QAEXD@Z	; tinyxml2::DynArray<char,20>::Push
PUBLIC	?PushArr@?$DynArray@D$0BE@@tinyxml2@@QAEPADH@Z	; tinyxml2::DynArray<char,20>::PushArr
PUBLIC	??A?$DynArray@D$0BE@@tinyxml2@@QAEAADH@Z	; tinyxml2::DynArray<char,20>::operator[]
PUBLIC	?Size@?$DynArray@D$0BE@@tinyxml2@@QBEHXZ	; tinyxml2::DynArray<char,20>::Size
PUBLIC	?EnsureCapacity@?$DynArray@D$0BE@@tinyxml2@@AAEXH@Z ; tinyxml2::DynArray<char,20>::EnsureCapacity
PUBLIC	?__autoclassinit2@XMLPrinter@tinyxml2@@QAEXI@Z	; tinyxml2::XMLPrinter::__autoclassinit2
PUBLIC	??_GXMLPrinter@tinyxml2@@UAEPAXI@Z		; tinyxml2::XMLPrinter::`scalar deleting destructor'
PUBLIC	??2@YAPAXIPAX@Z					; operator new
PUBLIC	??3@YAXPAX0@Z					; operator delete
PUBLIC	?Fits@?$LongFitsIntoSizeTMinusOne@$00@tinyxml2@@SA_NK@Z ; tinyxml2::LongFitsIntoSizeTMinusOne<1>::Fits
PUBLIC	??_7MemPool@tinyxml2@@6B@			; tinyxml2::MemPool::`vftable'
PUBLIC	??_7XMLVisitor@tinyxml2@@6B@			; tinyxml2::XMLVisitor::`vftable'
PUBLIC	??_7XMLNode@tinyxml2@@6B@			; tinyxml2::XMLNode::`vftable'
PUBLIC	??_7XMLText@tinyxml2@@6B@			; tinyxml2::XMLText::`vftable'
PUBLIC	??_7XMLComment@tinyxml2@@6B@			; tinyxml2::XMLComment::`vftable'
PUBLIC	??_7XMLDeclaration@tinyxml2@@6B@		; tinyxml2::XMLDeclaration::`vftable'
PUBLIC	??_7XMLUnknown@tinyxml2@@6B@			; tinyxml2::XMLUnknown::`vftable'
PUBLIC	??_7XMLAttribute@tinyxml2@@6B@			; tinyxml2::XMLAttribute::`vftable'
PUBLIC	??_7XMLElement@tinyxml2@@6B@			; tinyxml2::XMLElement::`vftable'
PUBLIC	??_7?$MemPoolT@$0DE@@tinyxml2@@6B@		; tinyxml2::MemPoolT<52>::`vftable'
PUBLIC	??_7?$MemPoolT@$0CE@@tinyxml2@@6B@		; tinyxml2::MemPoolT<36>::`vftable'
PUBLIC	??_7?$MemPoolT@$0DA@@tinyxml2@@6B@		; tinyxml2::MemPoolT<48>::`vftable'
PUBLIC	??_7?$MemPoolT@$0CM@@tinyxml2@@6B@		; tinyxml2::MemPoolT<44>::`vftable'
PUBLIC	??_7XMLDocument@tinyxml2@@6B@			; tinyxml2::XMLDocument::`vftable'
PUBLIC	??_7XMLPrinter@tinyxml2@@6B@			; tinyxml2::XMLPrinter::`vftable'
PUBLIC	??_C@_02DPKJAMEF@?$CFd?$AA@			; `string'
PUBLIC	??_C@_02GMHACPFF@?$CFu?$AA@			; `string'
PUBLIC	??_C@_04HANFDJND@?$CF?48g?$AA@			; `string'
PUBLIC	??_C@_05CEKCMKAN@?$CF?417g?$AA@			; `string'
PUBLIC	??_C@_04LOAJBDKD@true?$AA@			; `string'
PUBLIC	??_C@_05LAPONLG@false?$AA@			; `string'
PUBLIC	??_C@_02NJPGOMH@?$CFf?$AA@			; `string'
PUBLIC	??_C@_03DLDNIBIK@?$CFlf?$AA@			; `string'
PUBLIC	??_C@_03MCHNFBAC@?$FN?$FN?$DO?$AA@		; `string'
PUBLIC	??_C@_03PNLDJJMO@?9?9?$DO?$AA@			; `string'
PUBLIC	??_C@_02GOEMJPDN@?$DP?$DO?$AA@			; `string'
PUBLIC	??_C@_01PPODPGHN@?$DO?$AA@			; `string'
PUBLIC	??_C@_0CD@MCGGMGEP@xml?5version?$DN?$CC1?40?$CC?5encoding?$DN?$CCUTF?9@ ; `string'
PUBLIC	??_C@_02JDPG@rb?$AA@				; `string'
PUBLIC	??_C@_01NOFIACDB@w?$AA@				; `string'
PUBLIC	??_C@_02DKCKIIND@?$CFs?$AA@			; `string'
PUBLIC	??_C@_0CO@CKABJOJH@XMLDocument?5error?5id?$DN?$CFd?5?8?$CFs?8?5str@ ; `string'
PUBLIC	??_C@_04PFOHOKJK@?5?5?5?5?$AA@			; `string'
PUBLIC	??_C@_04EBNJJJJI@?$CF?4?$CKs?$AA@		; `string'
PUBLIC	??_C@_04IKLFLEHL@?$CG?$CFs?$DL?$AA@		; `string'
PUBLIC	??_C@_0BC@CIAMHNHO@xml?5version?$DN?$CC1?40?$CC?$AA@ ; `string'
PUBLIC	??_C@_01EEMJAFIK@?6?$AA@			; `string'
PUBLIC	??_C@_03FONCMJME@?$DM?$CFs?$AA@			; `string'
PUBLIC	??_C@_05LCDLMEIP@?5?$CFs?$DN?$CC?$AA@		; `string'
PUBLIC	??_C@_01BJJEKLCA@?$CC?$AA@			; `string'
PUBLIC	??_C@_02HCGKDMEN@?1?$DO?$AA@			; `string'
PUBLIC	??_C@_05POIKLDCH@?$DM?1?$CFs?$DO?$AA@		; `string'
PUBLIC	??_C@_0P@FBMMJGJN@?$DM?$CB?$FLCDATA?$FL?$CFs?$FN?$FN?$DO?$AA@ ; `string'
PUBLIC	??_C@_09PNDCPLLD@?$DM?$CB?9?9?$CFs?9?9?$DO?$AA@	; `string'
PUBLIC	??_C@_06OGCFEMAJ@?$DM?$DP?$CFs?$DP?$DO?$AA@	; `string'
PUBLIC	??_C@_05EBLKANEG@?$DM?$CB?$CFs?$DO?$AA@		; `string'
PUBLIC	??_R4XMLDocument@tinyxml2@@6B@			; tinyxml2::XMLDocument::`RTTI Complete Object Locator'
PUBLIC	??_R0?AVXMLDocument@tinyxml2@@@8		; tinyxml2::XMLDocument `RTTI Type Descriptor'
PUBLIC	??_R3XMLDocument@tinyxml2@@8			; tinyxml2::XMLDocument::`RTTI Class Hierarchy Descriptor'
PUBLIC	??_R2XMLDocument@tinyxml2@@8			; tinyxml2::XMLDocument::`RTTI Base Class Array'
PUBLIC	??_R1A@?0A@EA@XMLDocument@tinyxml2@@8		; tinyxml2::XMLDocument::`RTTI Base Class Descriptor at (0,-1,0,64)'
PUBLIC	??_R1A@?0A@EA@XMLNode@tinyxml2@@8		; tinyxml2::XMLNode::`RTTI Base Class Descriptor at (0,-1,0,64)'
PUBLIC	??_R0?AVXMLNode@tinyxml2@@@8			; tinyxml2::XMLNode `RTTI Type Descriptor'
PUBLIC	??_R3XMLNode@tinyxml2@@8			; tinyxml2::XMLNode::`RTTI Class Hierarchy Descriptor'
PUBLIC	??_R2XMLNode@tinyxml2@@8			; tinyxml2::XMLNode::`RTTI Base Class Array'
PUBLIC	??_R4XMLElement@tinyxml2@@6B@			; tinyxml2::XMLElement::`RTTI Complete Object Locator'
PUBLIC	??_R0?AVXMLElement@tinyxml2@@@8			; tinyxml2::XMLElement `RTTI Type Descriptor'
PUBLIC	??_R3XMLElement@tinyxml2@@8			; tinyxml2::XMLElement::`RTTI Class Hierarchy Descriptor'
PUBLIC	??_R2XMLElement@tinyxml2@@8			; tinyxml2::XMLElement::`RTTI Base Class Array'
PUBLIC	??_R1A@?0A@EA@XMLElement@tinyxml2@@8		; tinyxml2::XMLElement::`RTTI Base Class Descriptor at (0,-1,0,64)'
PUBLIC	??_R4XMLAttribute@tinyxml2@@6B@			; tinyxml2::XMLAttribute::`RTTI Complete Object Locator'
PUBLIC	??_R0?AVXMLAttribute@tinyxml2@@@8		; tinyxml2::XMLAttribute `RTTI Type Descriptor'
PUBLIC	??_R3XMLAttribute@tinyxml2@@8			; tinyxml2::XMLAttribute::`RTTI Class Hierarchy Descriptor'
PUBLIC	??_R2XMLAttribute@tinyxml2@@8			; tinyxml2::XMLAttribute::`RTTI Base Class Array'
PUBLIC	??_R1A@?0A@EA@XMLAttribute@tinyxml2@@8		; tinyxml2::XMLAttribute::`RTTI Base Class Descriptor at (0,-1,0,64)'
PUBLIC	??_R4XMLComment@tinyxml2@@6B@			; tinyxml2::XMLComment::`RTTI Complete Object Locator'
PUBLIC	??_R0?AVXMLComment@tinyxml2@@@8			; tinyxml2::XMLComment `RTTI Type Descriptor'
PUBLIC	??_R3XMLComment@tinyxml2@@8			; tinyxml2::XMLComment::`RTTI Class Hierarchy Descriptor'
PUBLIC	??_R2XMLComment@tinyxml2@@8			; tinyxml2::XMLComment::`RTTI Base Class Array'
PUBLIC	??_R1A@?0A@EA@XMLComment@tinyxml2@@8		; tinyxml2::XMLComment::`RTTI Base Class Descriptor at (0,-1,0,64)'
PUBLIC	??_R4XMLText@tinyxml2@@6B@			; tinyxml2::XMLText::`RTTI Complete Object Locator'
PUBLIC	??_R0?AVXMLText@tinyxml2@@@8			; tinyxml2::XMLText `RTTI Type Descriptor'
PUBLIC	??_R3XMLText@tinyxml2@@8			; tinyxml2::XMLText::`RTTI Class Hierarchy Descriptor'
PUBLIC	??_R2XMLText@tinyxml2@@8			; tinyxml2::XMLText::`RTTI Base Class Array'
PUBLIC	??_R1A@?0A@EA@XMLText@tinyxml2@@8		; tinyxml2::XMLText::`RTTI Base Class Descriptor at (0,-1,0,64)'
PUBLIC	??_R4XMLDeclaration@tinyxml2@@6B@		; tinyxml2::XMLDeclaration::`RTTI Complete Object Locator'
PUBLIC	??_R0?AVXMLDeclaration@tinyxml2@@@8		; tinyxml2::XMLDeclaration `RTTI Type Descriptor'
PUBLIC	??_R3XMLDeclaration@tinyxml2@@8			; tinyxml2::XMLDeclaration::`RTTI Class Hierarchy Descriptor'
PUBLIC	??_R2XMLDeclaration@tinyxml2@@8			; tinyxml2::XMLDeclaration::`RTTI Base Class Array'
PUBLIC	??_R1A@?0A@EA@XMLDeclaration@tinyxml2@@8	; tinyxml2::XMLDeclaration::`RTTI Base Class Descriptor at (0,-1,0,64)'
PUBLIC	??_R4XMLUnknown@tinyxml2@@6B@			; tinyxml2::XMLUnknown::`RTTI Complete Object Locator'
PUBLIC	??_R0?AVXMLUnknown@tinyxml2@@@8			; tinyxml2::XMLUnknown `RTTI Type Descriptor'
PUBLIC	??_R3XMLUnknown@tinyxml2@@8			; tinyxml2::XMLUnknown::`RTTI Class Hierarchy Descriptor'
PUBLIC	??_R2XMLUnknown@tinyxml2@@8			; tinyxml2::XMLUnknown::`RTTI Base Class Array'
PUBLIC	??_R1A@?0A@EA@XMLUnknown@tinyxml2@@8		; tinyxml2::XMLUnknown::`RTTI Base Class Descriptor at (0,-1,0,64)'
PUBLIC	??_R4XMLPrinter@tinyxml2@@6B@			; tinyxml2::XMLPrinter::`RTTI Complete Object Locator'
PUBLIC	??_R0?AVXMLPrinter@tinyxml2@@@8			; tinyxml2::XMLPrinter `RTTI Type Descriptor'
PUBLIC	??_R3XMLPrinter@tinyxml2@@8			; tinyxml2::XMLPrinter::`RTTI Class Hierarchy Descriptor'
PUBLIC	??_R2XMLPrinter@tinyxml2@@8			; tinyxml2::XMLPrinter::`RTTI Base Class Array'
PUBLIC	??_R1A@?0A@EA@XMLPrinter@tinyxml2@@8		; tinyxml2::XMLPrinter::`RTTI Base Class Descriptor at (0,-1,0,64)'
PUBLIC	??_R1A@?0A@EA@XMLVisitor@tinyxml2@@8		; tinyxml2::XMLVisitor::`RTTI Base Class Descriptor at (0,-1,0,64)'
PUBLIC	??_R0?AVXMLVisitor@tinyxml2@@@8			; tinyxml2::XMLVisitor `RTTI Type Descriptor'
PUBLIC	??_R3XMLVisitor@tinyxml2@@8			; tinyxml2::XMLVisitor::`RTTI Class Hierarchy Descriptor'
PUBLIC	??_R2XMLVisitor@tinyxml2@@8			; tinyxml2::XMLVisitor::`RTTI Base Class Array'
PUBLIC	??_R4MemPool@tinyxml2@@6B@			; tinyxml2::MemPool::`RTTI Complete Object Locator'
PUBLIC	??_R0?AVMemPool@tinyxml2@@@8			; tinyxml2::MemPool `RTTI Type Descriptor'
PUBLIC	??_R3MemPool@tinyxml2@@8			; tinyxml2::MemPool::`RTTI Class Hierarchy Descriptor'
PUBLIC	??_R2MemPool@tinyxml2@@8			; tinyxml2::MemPool::`RTTI Base Class Array'
PUBLIC	??_R1A@?0A@EA@MemPool@tinyxml2@@8		; tinyxml2::MemPool::`RTTI Base Class Descriptor at (0,-1,0,64)'
PUBLIC	??_R4XMLVisitor@tinyxml2@@6B@			; tinyxml2::XMLVisitor::`RTTI Complete Object Locator'
PUBLIC	??_R4XMLNode@tinyxml2@@6B@			; tinyxml2::XMLNode::`RTTI Complete Object Locator'
PUBLIC	??_R4?$MemPoolT@$0DE@@tinyxml2@@6B@		; tinyxml2::MemPoolT<52>::`RTTI Complete Object Locator'
PUBLIC	??_R0?AV?$MemPoolT@$0DE@@tinyxml2@@@8		; tinyxml2::MemPoolT<52> `RTTI Type Descriptor'
PUBLIC	??_R3?$MemPoolT@$0DE@@tinyxml2@@8		; tinyxml2::MemPoolT<52>::`RTTI Class Hierarchy Descriptor'
PUBLIC	??_R2?$MemPoolT@$0DE@@tinyxml2@@8		; tinyxml2::MemPoolT<52>::`RTTI Base Class Array'
PUBLIC	??_R1A@?0A@EA@?$MemPoolT@$0DE@@tinyxml2@@8	; tinyxml2::MemPoolT<52>::`RTTI Base Class Descriptor at (0,-1,0,64)'
PUBLIC	??_R4?$MemPoolT@$0CE@@tinyxml2@@6B@		; tinyxml2::MemPoolT<36>::`RTTI Complete Object Locator'
PUBLIC	??_R0?AV?$MemPoolT@$0CE@@tinyxml2@@@8		; tinyxml2::MemPoolT<36> `RTTI Type Descriptor'
PUBLIC	??_R3?$MemPoolT@$0CE@@tinyxml2@@8		; tinyxml2::MemPoolT<36>::`RTTI Class Hierarchy Descriptor'
PUBLIC	??_R2?$MemPoolT@$0CE@@tinyxml2@@8		; tinyxml2::MemPoolT<36>::`RTTI Base Class Array'
PUBLIC	??_R1A@?0A@EA@?$MemPoolT@$0CE@@tinyxml2@@8	; tinyxml2::MemPoolT<36>::`RTTI Base Class Descriptor at (0,-1,0,64)'
PUBLIC	??_R4?$MemPoolT@$0DA@@tinyxml2@@6B@		; tinyxml2::MemPoolT<48>::`RTTI Complete Object Locator'
PUBLIC	??_R0?AV?$MemPoolT@$0DA@@tinyxml2@@@8		; tinyxml2::MemPoolT<48> `RTTI Type Descriptor'
PUBLIC	??_R3?$MemPoolT@$0DA@@tinyxml2@@8		; tinyxml2::MemPoolT<48>::`RTTI Class Hierarchy Descriptor'
PUBLIC	??_R2?$MemPoolT@$0DA@@tinyxml2@@8		; tinyxml2::MemPoolT<48>::`RTTI Base Class Array'
PUBLIC	??_R1A@?0A@EA@?$MemPoolT@$0DA@@tinyxml2@@8	; tinyxml2::MemPoolT<48>::`RTTI Base Class Descriptor at (0,-1,0,64)'
PUBLIC	??_R4?$MemPoolT@$0CM@@tinyxml2@@6B@		; tinyxml2::MemPoolT<44>::`RTTI Complete Object Locator'
PUBLIC	??_R0?AV?$MemPoolT@$0CM@@tinyxml2@@@8		; tinyxml2::MemPoolT<44> `RTTI Type Descriptor'
PUBLIC	??_R3?$MemPoolT@$0CM@@tinyxml2@@8		; tinyxml2::MemPoolT<44>::`RTTI Class Hierarchy Descriptor'
PUBLIC	??_R2?$MemPoolT@$0CM@@tinyxml2@@8		; tinyxml2::MemPoolT<44>::`RTTI Base Class Array'
PUBLIC	??_R1A@?0A@EA@?$MemPoolT@$0CM@@tinyxml2@@8	; tinyxml2::MemPoolT<44>::`RTTI Base Class Descriptor at (0,-1,0,64)'
EXTRN	__purecall:PROC
EXTRN	??2@YAPAXI@Z:PROC				; operator new
EXTRN	??3@YAXPAX@Z:PROC				; operator delete
EXTRN	__imp__isalpha:PROC
EXTRN	__imp__isdigit:PROC
EXTRN	__imp__isspace:PROC
EXTRN	__imp____iob_func:PROC
EXTRN	__imp__fclose:PROC
EXTRN	__imp__ferror:PROC
EXTRN	__imp__fgetc:PROC
EXTRN	__imp__fopen_s:PROC
EXTRN	__imp__fread:PROC
EXTRN	__imp__fseek:PROC
EXTRN	__imp__ftell:PROC
EXTRN	__imp__printf:PROC
EXTRN	__imp__sscanf_s:PROC
EXTRN	__imp__vfprintf:PROC
EXTRN	__imp__vsnprintf_s:PROC
EXTRN	__imp___vscprintf:PROC
EXTRN	_memcpy:PROC
EXTRN	_memset:PROC
EXTRN	_strlen:PROC
EXTRN	__imp__strchr:PROC
EXTRN	__imp__strncmp:PROC
EXTRN	??_EMemPool@tinyxml2@@UAEPAXI@Z:PROC		; tinyxml2::MemPool::`vector deleting destructor'
EXTRN	??_EXMLVisitor@tinyxml2@@UAEPAXI@Z:PROC		; tinyxml2::XMLVisitor::`vector deleting destructor'
EXTRN	??_EXMLNode@tinyxml2@@MAEPAXI@Z:PROC		; tinyxml2::XMLNode::`vector deleting destructor'
EXTRN	??_EXMLText@tinyxml2@@MAEPAXI@Z:PROC		; tinyxml2::XMLText::`vector deleting destructor'
EXTRN	??_EXMLComment@tinyxml2@@MAEPAXI@Z:PROC		; tinyxml2::XMLComment::`vector deleting destructor'
EXTRN	??_EXMLDeclaration@tinyxml2@@MAEPAXI@Z:PROC	; tinyxml2::XMLDeclaration::`vector deleting destructor'
EXTRN	??_EXMLUnknown@tinyxml2@@MAEPAXI@Z:PROC		; tinyxml2::XMLUnknown::`vector deleting destructor'
EXTRN	??_EXMLAttribute@tinyxml2@@EAEPAXI@Z:PROC	; tinyxml2::XMLAttribute::`vector deleting destructor'
EXTRN	??_EXMLElement@tinyxml2@@EAEPAXI@Z:PROC		; tinyxml2::XMLElement::`vector deleting destructor'
EXTRN	??_E?$MemPoolT@$0DE@@tinyxml2@@UAEPAXI@Z:PROC	; tinyxml2::MemPoolT<52>::`vector deleting destructor'
EXTRN	??_E?$MemPoolT@$0CE@@tinyxml2@@UAEPAXI@Z:PROC	; tinyxml2::MemPoolT<36>::`vector deleting destructor'
EXTRN	??_E?$MemPoolT@$0DA@@tinyxml2@@UAEPAXI@Z:PROC	; tinyxml2::MemPoolT<48>::`vector deleting destructor'
EXTRN	??_E?$MemPoolT@$0CM@@tinyxml2@@UAEPAXI@Z:PROC	; tinyxml2::MemPoolT<44>::`vector deleting destructor'
EXTRN	??_EXMLDocument@tinyxml2@@UAEPAXI@Z:PROC	; tinyxml2::XMLDocument::`vector deleting destructor'
EXTRN	??_EXMLPrinter@tinyxml2@@UAEPAXI@Z:PROC		; tinyxml2::XMLPrinter::`vector deleting destructor'
EXTRN	??_V@YAXPAX@Z:PROC				; operator delete[]
EXTRN	??_U@YAPAXI@Z:PROC				; operator new[]
EXTRN	@_RTC_CheckStackVars@8:PROC
EXTRN	@__security_check_cookie@4:PROC
EXTRN	__RTC_CheckEsp:PROC
EXTRN	__RTC_InitBase:PROC
EXTRN	__RTC_Shutdown:PROC
EXTRN	___CxxFrameHandler3:PROC
EXTRN	_memset:PROC
EXTRN	??_7type_info@@6B@:QWORD			; type_info::`vftable'
EXTRN	___security_cookie:DWORD
EXTRN	__fltused:DWORD
;	COMDAT rtc$TMZ
rtc$TMZ	SEGMENT
__RTC_Shutdown.rtc$TMZ DD FLAT:__RTC_Shutdown
rtc$TMZ	ENDS
;	COMDAT rtc$IMZ
rtc$IMZ	SEGMENT
__RTC_InitBase.rtc$IMZ DD FLAT:__RTC_InitBase
rtc$IMZ	ENDS
;	COMDAT ??_R1A@?0A@EA@?$MemPoolT@$0CM@@tinyxml2@@8
rdata$r	SEGMENT
??_R1A@?0A@EA@?$MemPoolT@$0CM@@tinyxml2@@8 DD FLAT:??_R0?AV?$MemPoolT@$0CM@@tinyxml2@@@8 ; tinyxml2::MemPoolT<44>::`RTTI Base Class Descriptor at (0,-1,0,64)'
	DD	01H
	DD	00H
	DD	0ffffffffH
	DD	00H
	DD	040H
	DD	FLAT:??_R3?$MemPoolT@$0CM@@tinyxml2@@8
rdata$r	ENDS
;	COMDAT ??_R2?$MemPoolT@$0CM@@tinyxml2@@8
rdata$r	SEGMENT
??_R2?$MemPoolT@$0CM@@tinyxml2@@8 DD FLAT:??_R1A@?0A@EA@?$MemPoolT@$0CM@@tinyxml2@@8 ; tinyxml2::MemPoolT<44>::`RTTI Base Class Array'
	DD	FLAT:??_R1A@?0A@EA@MemPool@tinyxml2@@8
rdata$r	ENDS
;	COMDAT ??_R3?$MemPoolT@$0CM@@tinyxml2@@8
rdata$r	SEGMENT
??_R3?$MemPoolT@$0CM@@tinyxml2@@8 DD 00H		; tinyxml2::MemPoolT<44>::`RTTI Class Hierarchy Descriptor'
	DD	00H
	DD	02H
	DD	FLAT:??_R2?$MemPoolT@$0CM@@tinyxml2@@8
rdata$r	ENDS
;	COMDAT ??_R0?AV?$MemPoolT@$0CM@@tinyxml2@@@8
data$r	SEGMENT
??_R0?AV?$MemPoolT@$0CM@@tinyxml2@@@8 DD FLAT:??_7type_info@@6B@ ; tinyxml2::MemPoolT<44> `RTTI Type Descriptor'
	DD	00H
	DB	'.?AV?$MemPoolT@$0CM@@tinyxml2@@', 00H
data$r	ENDS
;	COMDAT ??_R4?$MemPoolT@$0CM@@tinyxml2@@6B@
rdata$r	SEGMENT
??_R4?$MemPoolT@$0CM@@tinyxml2@@6B@ DD 00H		; tinyxml2::MemPoolT<44>::`RTTI Complete Object Locator'
	DD	00H
	DD	00H
	DD	FLAT:??_R0?AV?$MemPoolT@$0CM@@tinyxml2@@@8
	DD	FLAT:??_R3?$MemPoolT@$0CM@@tinyxml2@@8
rdata$r	ENDS
;	COMDAT ??_R1A@?0A@EA@?$MemPoolT@$0DA@@tinyxml2@@8
rdata$r	SEGMENT
??_R1A@?0A@EA@?$MemPoolT@$0DA@@tinyxml2@@8 DD FLAT:??_R0?AV?$MemPoolT@$0DA@@tinyxml2@@@8 ; tinyxml2::MemPoolT<48>::`RTTI Base Class Descriptor at (0,-1,0,64)'
	DD	01H
	DD	00H
	DD	0ffffffffH
	DD	00H
	DD	040H
	DD	FLAT:??_R3?$MemPoolT@$0DA@@tinyxml2@@8
rdata$r	ENDS
;	COMDAT ??_R2?$MemPoolT@$0DA@@tinyxml2@@8
rdata$r	SEGMENT
??_R2?$MemPoolT@$0DA@@tinyxml2@@8 DD FLAT:??_R1A@?0A@EA@?$MemPoolT@$0DA@@tinyxml2@@8 ; tinyxml2::MemPoolT<48>::`RTTI Base Class Array'
	DD	FLAT:??_R1A@?0A@EA@MemPool@tinyxml2@@8
rdata$r	ENDS
;	COMDAT ??_R3?$MemPoolT@$0DA@@tinyxml2@@8
rdata$r	SEGMENT
??_R3?$MemPoolT@$0DA@@tinyxml2@@8 DD 00H		; tinyxml2::MemPoolT<48>::`RTTI Class Hierarchy Descriptor'
	DD	00H
	DD	02H
	DD	FLAT:??_R2?$MemPoolT@$0DA@@tinyxml2@@8
rdata$r	ENDS
;	COMDAT ??_R0?AV?$MemPoolT@$0DA@@tinyxml2@@@8
data$r	SEGMENT
??_R0?AV?$MemPoolT@$0DA@@tinyxml2@@@8 DD FLAT:??_7type_info@@6B@ ; tinyxml2::MemPoolT<48> `RTTI Type Descriptor'
	DD	00H
	DB	'.?AV?$MemPoolT@$0DA@@tinyxml2@@', 00H
data$r	ENDS
;	COMDAT ??_R4?$MemPoolT@$0DA@@tinyxml2@@6B@
rdata$r	SEGMENT
??_R4?$MemPoolT@$0DA@@tinyxml2@@6B@ DD 00H		; tinyxml2::MemPoolT<48>::`RTTI Complete Object Locator'
	DD	00H
	DD	00H
	DD	FLAT:??_R0?AV?$MemPoolT@$0DA@@tinyxml2@@@8
	DD	FLAT:??_R3?$MemPoolT@$0DA@@tinyxml2@@8
rdata$r	ENDS
;	COMDAT ??_R1A@?0A@EA@?$MemPoolT@$0CE@@tinyxml2@@8
rdata$r	SEGMENT
??_R1A@?0A@EA@?$MemPoolT@$0CE@@tinyxml2@@8 DD FLAT:??_R0?AV?$MemPoolT@$0CE@@tinyxml2@@@8 ; tinyxml2::MemPoolT<36>::`RTTI Base Class Descriptor at (0,-1,0,64)'
	DD	01H
	DD	00H
	DD	0ffffffffH
	DD	00H
	DD	040H
	DD	FLAT:??_R3?$MemPoolT@$0CE@@tinyxml2@@8
rdata$r	ENDS
;	COMDAT ??_R2?$MemPoolT@$0CE@@tinyxml2@@8
rdata$r	SEGMENT
??_R2?$MemPoolT@$0CE@@tinyxml2@@8 DD FLAT:??_R1A@?0A@EA@?$MemPoolT@$0CE@@tinyxml2@@8 ; tinyxml2::MemPoolT<36>::`RTTI Base Class Array'
	DD	FLAT:??_R1A@?0A@EA@MemPool@tinyxml2@@8
rdata$r	ENDS
;	COMDAT ??_R3?$MemPoolT@$0CE@@tinyxml2@@8
rdata$r	SEGMENT
??_R3?$MemPoolT@$0CE@@tinyxml2@@8 DD 00H		; tinyxml2::MemPoolT<36>::`RTTI Class Hierarchy Descriptor'
	DD	00H
	DD	02H
	DD	FLAT:??_R2?$MemPoolT@$0CE@@tinyxml2@@8
rdata$r	ENDS
;	COMDAT ??_R0?AV?$MemPoolT@$0CE@@tinyxml2@@@8
data$r	SEGMENT
??_R0?AV?$MemPoolT@$0CE@@tinyxml2@@@8 DD FLAT:??_7type_info@@6B@ ; tinyxml2::MemPoolT<36> `RTTI Type Descriptor'
	DD	00H
	DB	'.?AV?$MemPoolT@$0CE@@tinyxml2@@', 00H
data$r	ENDS
;	COMDAT ??_R4?$MemPoolT@$0CE@@tinyxml2@@6B@
rdata$r	SEGMENT
??_R4?$MemPoolT@$0CE@@tinyxml2@@6B@ DD 00H		; tinyxml2::MemPoolT<36>::`RTTI Complete Object Locator'
	DD	00H
	DD	00H
	DD	FLAT:??_R0?AV?$MemPoolT@$0CE@@tinyxml2@@@8
	DD	FLAT:??_R3?$MemPoolT@$0CE@@tinyxml2@@8
rdata$r	ENDS
;	COMDAT ??_R1A@?0A@EA@?$MemPoolT@$0DE@@tinyxml2@@8
rdata$r	SEGMENT
??_R1A@?0A@EA@?$MemPoolT@$0DE@@tinyxml2@@8 DD FLAT:??_R0?AV?$MemPoolT@$0DE@@tinyxml2@@@8 ; tinyxml2::MemPoolT<52>::`RTTI Base Class Descriptor at (0,-1,0,64)'
	DD	01H
	DD	00H
	DD	0ffffffffH
	DD	00H
	DD	040H
	DD	FLAT:??_R3?$MemPoolT@$0DE@@tinyxml2@@8
rdata$r	ENDS
;	COMDAT ??_R2?$MemPoolT@$0DE@@tinyxml2@@8
rdata$r	SEGMENT
??_R2?$MemPoolT@$0DE@@tinyxml2@@8 DD FLAT:??_R1A@?0A@EA@?$MemPoolT@$0DE@@tinyxml2@@8 ; tinyxml2::MemPoolT<52>::`RTTI Base Class Array'
	DD	FLAT:??_R1A@?0A@EA@MemPool@tinyxml2@@8
rdata$r	ENDS
;	COMDAT ??_R3?$MemPoolT@$0DE@@tinyxml2@@8
rdata$r	SEGMENT
??_R3?$MemPoolT@$0DE@@tinyxml2@@8 DD 00H		; tinyxml2::MemPoolT<52>::`RTTI Class Hierarchy Descriptor'
	DD	00H
	DD	02H
	DD	FLAT:??_R2?$MemPoolT@$0DE@@tinyxml2@@8
rdata$r	ENDS
;	COMDAT ??_R0?AV?$MemPoolT@$0DE@@tinyxml2@@@8
data$r	SEGMENT
??_R0?AV?$MemPoolT@$0DE@@tinyxml2@@@8 DD FLAT:??_7type_info@@6B@ ; tinyxml2::MemPoolT<52> `RTTI Type Descriptor'
	DD	00H
	DB	'.?AV?$MemPoolT@$0DE@@tinyxml2@@', 00H
data$r	ENDS
;	COMDAT ??_R4?$MemPoolT@$0DE@@tinyxml2@@6B@
rdata$r	SEGMENT
??_R4?$MemPoolT@$0DE@@tinyxml2@@6B@ DD 00H		; tinyxml2::MemPoolT<52>::`RTTI Complete Object Locator'
	DD	00H
	DD	00H
	DD	FLAT:??_R0?AV?$MemPoolT@$0DE@@tinyxml2@@@8
	DD	FLAT:??_R3?$MemPoolT@$0DE@@tinyxml2@@8
rdata$r	ENDS
;	COMDAT ??_R4XMLNode@tinyxml2@@6B@
rdata$r	SEGMENT
??_R4XMLNode@tinyxml2@@6B@ DD 00H			; tinyxml2::XMLNode::`RTTI Complete Object Locator'
	DD	00H
	DD	00H
	DD	FLAT:??_R0?AVXMLNode@tinyxml2@@@8
	DD	FLAT:??_R3XMLNode@tinyxml2@@8
rdata$r	ENDS
;	COMDAT ??_R4XMLVisitor@tinyxml2@@6B@
rdata$r	SEGMENT
??_R4XMLVisitor@tinyxml2@@6B@ DD 00H			; tinyxml2::XMLVisitor::`RTTI Complete Object Locator'
	DD	00H
	DD	00H
	DD	FLAT:??_R0?AVXMLVisitor@tinyxml2@@@8
	DD	FLAT:??_R3XMLVisitor@tinyxml2@@8
rdata$r	ENDS
;	COMDAT ??_R1A@?0A@EA@MemPool@tinyxml2@@8
rdata$r	SEGMENT
??_R1A@?0A@EA@MemPool@tinyxml2@@8 DD FLAT:??_R0?AVMemPool@tinyxml2@@@8 ; tinyxml2::MemPool::`RTTI Base Class Descriptor at (0,-1,0,64)'
	DD	00H
	DD	00H
	DD	0ffffffffH
	DD	00H
	DD	040H
	DD	FLAT:??_R3MemPool@tinyxml2@@8
rdata$r	ENDS
;	COMDAT ??_R2MemPool@tinyxml2@@8
rdata$r	SEGMENT
??_R2MemPool@tinyxml2@@8 DD FLAT:??_R1A@?0A@EA@MemPool@tinyxml2@@8 ; tinyxml2::MemPool::`RTTI Base Class Array'
rdata$r	ENDS
;	COMDAT ??_R3MemPool@tinyxml2@@8
rdata$r	SEGMENT
??_R3MemPool@tinyxml2@@8 DD 00H				; tinyxml2::MemPool::`RTTI Class Hierarchy Descriptor'
	DD	00H
	DD	01H
	DD	FLAT:??_R2MemPool@tinyxml2@@8
rdata$r	ENDS
;	COMDAT ??_R0?AVMemPool@tinyxml2@@@8
data$r	SEGMENT
??_R0?AVMemPool@tinyxml2@@@8 DD FLAT:??_7type_info@@6B@	; tinyxml2::MemPool `RTTI Type Descriptor'
	DD	00H
	DB	'.?AVMemPool@tinyxml2@@', 00H
data$r	ENDS
;	COMDAT ??_R4MemPool@tinyxml2@@6B@
rdata$r	SEGMENT
??_R4MemPool@tinyxml2@@6B@ DD 00H			; tinyxml2::MemPool::`RTTI Complete Object Locator'
	DD	00H
	DD	00H
	DD	FLAT:??_R0?AVMemPool@tinyxml2@@@8
	DD	FLAT:??_R3MemPool@tinyxml2@@8
rdata$r	ENDS
;	COMDAT ??_R2XMLVisitor@tinyxml2@@8
rdata$r	SEGMENT
??_R2XMLVisitor@tinyxml2@@8 DD FLAT:??_R1A@?0A@EA@XMLVisitor@tinyxml2@@8 ; tinyxml2::XMLVisitor::`RTTI Base Class Array'
rdata$r	ENDS
;	COMDAT ??_R3XMLVisitor@tinyxml2@@8
rdata$r	SEGMENT
??_R3XMLVisitor@tinyxml2@@8 DD 00H			; tinyxml2::XMLVisitor::`RTTI Class Hierarchy Descriptor'
	DD	00H
	DD	01H
	DD	FLAT:??_R2XMLVisitor@tinyxml2@@8
rdata$r	ENDS
;	COMDAT ??_R0?AVXMLVisitor@tinyxml2@@@8
data$r	SEGMENT
??_R0?AVXMLVisitor@tinyxml2@@@8 DD FLAT:??_7type_info@@6B@ ; tinyxml2::XMLVisitor `RTTI Type Descriptor'
	DD	00H
	DB	'.?AVXMLVisitor@tinyxml2@@', 00H
data$r	ENDS
;	COMDAT ??_R1A@?0A@EA@XMLVisitor@tinyxml2@@8
rdata$r	SEGMENT
??_R1A@?0A@EA@XMLVisitor@tinyxml2@@8 DD FLAT:??_R0?AVXMLVisitor@tinyxml2@@@8 ; tinyxml2::XMLVisitor::`RTTI Base Class Descriptor at (0,-1,0,64)'
	DD	00H
	DD	00H
	DD	0ffffffffH
	DD	00H
	DD	040H
	DD	FLAT:??_R3XMLVisitor@tinyxml2@@8
rdata$r	ENDS
;	COMDAT ??_R1A@?0A@EA@XMLPrinter@tinyxml2@@8
rdata$r	SEGMENT
??_R1A@?0A@EA@XMLPrinter@tinyxml2@@8 DD FLAT:??_R0?AVXMLPrinter@tinyxml2@@@8 ; tinyxml2::XMLPrinter::`RTTI Base Class Descriptor at (0,-1,0,64)'
	DD	01H
	DD	00H
	DD	0ffffffffH
	DD	00H
	DD	040H
	DD	FLAT:??_R3XMLPrinter@tinyxml2@@8
rdata$r	ENDS
;	COMDAT ??_R2XMLPrinter@tinyxml2@@8
rdata$r	SEGMENT
??_R2XMLPrinter@tinyxml2@@8 DD FLAT:??_R1A@?0A@EA@XMLPrinter@tinyxml2@@8 ; tinyxml2::XMLPrinter::`RTTI Base Class Array'
	DD	FLAT:??_R1A@?0A@EA@XMLVisitor@tinyxml2@@8
rdata$r	ENDS
;	COMDAT ??_R3XMLPrinter@tinyxml2@@8
rdata$r	SEGMENT
??_R3XMLPrinter@tinyxml2@@8 DD 00H			; tinyxml2::XMLPrinter::`RTTI Class Hierarchy Descriptor'
	DD	00H
	DD	02H
	DD	FLAT:??_R2XMLPrinter@tinyxml2@@8
rdata$r	ENDS
;	COMDAT ??_R0?AVXMLPrinter@tinyxml2@@@8
data$r	SEGMENT
??_R0?AVXMLPrinter@tinyxml2@@@8 DD FLAT:??_7type_info@@6B@ ; tinyxml2::XMLPrinter `RTTI Type Descriptor'
	DD	00H
	DB	'.?AVXMLPrinter@tinyxml2@@', 00H
data$r	ENDS
;	COMDAT ??_R4XMLPrinter@tinyxml2@@6B@
rdata$r	SEGMENT
??_R4XMLPrinter@tinyxml2@@6B@ DD 00H			; tinyxml2::XMLPrinter::`RTTI Complete Object Locator'
	DD	00H
	DD	00H
	DD	FLAT:??_R0?AVXMLPrinter@tinyxml2@@@8
	DD	FLAT:??_R3XMLPrinter@tinyxml2@@8
rdata$r	ENDS
;	COMDAT ??_R1A@?0A@EA@XMLUnknown@tinyxml2@@8
rdata$r	SEGMENT
??_R1A@?0A@EA@XMLUnknown@tinyxml2@@8 DD FLAT:??_R0?AVXMLUnknown@tinyxml2@@@8 ; tinyxml2::XMLUnknown::`RTTI Base Class Descriptor at (0,-1,0,64)'
	DD	01H
	DD	00H
	DD	0ffffffffH
	DD	00H
	DD	040H
	DD	FLAT:??_R3XMLUnknown@tinyxml2@@8
rdata$r	ENDS
;	COMDAT ??_R2XMLUnknown@tinyxml2@@8
rdata$r	SEGMENT
??_R2XMLUnknown@tinyxml2@@8 DD FLAT:??_R1A@?0A@EA@XMLUnknown@tinyxml2@@8 ; tinyxml2::XMLUnknown::`RTTI Base Class Array'
	DD	FLAT:??_R1A@?0A@EA@XMLNode@tinyxml2@@8
rdata$r	ENDS
;	COMDAT ??_R3XMLUnknown@tinyxml2@@8
rdata$r	SEGMENT
??_R3XMLUnknown@tinyxml2@@8 DD 00H			; tinyxml2::XMLUnknown::`RTTI Class Hierarchy Descriptor'
	DD	00H
	DD	02H
	DD	FLAT:??_R2XMLUnknown@tinyxml2@@8
rdata$r	ENDS
;	COMDAT ??_R0?AVXMLUnknown@tinyxml2@@@8
data$r	SEGMENT
??_R0?AVXMLUnknown@tinyxml2@@@8 DD FLAT:??_7type_info@@6B@ ; tinyxml2::XMLUnknown `RTTI Type Descriptor'
	DD	00H
	DB	'.?AVXMLUnknown@tinyxml2@@', 00H
data$r	ENDS
;	COMDAT ??_R4XMLUnknown@tinyxml2@@6B@
rdata$r	SEGMENT
??_R4XMLUnknown@tinyxml2@@6B@ DD 00H			; tinyxml2::XMLUnknown::`RTTI Complete Object Locator'
	DD	00H
	DD	00H
	DD	FLAT:??_R0?AVXMLUnknown@tinyxml2@@@8
	DD	FLAT:??_R3XMLUnknown@tinyxml2@@8
rdata$r	ENDS
;	COMDAT ??_R1A@?0A@EA@XMLDeclaration@tinyxml2@@8
rdata$r	SEGMENT
??_R1A@?0A@EA@XMLDeclaration@tinyxml2@@8 DD FLAT:??_R0?AVXMLDeclaration@tinyxml2@@@8 ; tinyxml2::XMLDeclaration::`RTTI Base Class Descriptor at (0,-1,0,64)'
	DD	01H
	DD	00H
	DD	0ffffffffH
	DD	00H
	DD	040H
	DD	FLAT:??_R3XMLDeclaration@tinyxml2@@8
rdata$r	ENDS
;	COMDAT ??_R2XMLDeclaration@tinyxml2@@8
rdata$r	SEGMENT
??_R2XMLDeclaration@tinyxml2@@8 DD FLAT:??_R1A@?0A@EA@XMLDeclaration@tinyxml2@@8 ; tinyxml2::XMLDeclaration::`RTTI Base Class Array'
	DD	FLAT:??_R1A@?0A@EA@XMLNode@tinyxml2@@8
rdata$r	ENDS
;	COMDAT ??_R3XMLDeclaration@tinyxml2@@8
rdata$r	SEGMENT
??_R3XMLDeclaration@tinyxml2@@8 DD 00H			; tinyxml2::XMLDeclaration::`RTTI Class Hierarchy Descriptor'
	DD	00H
	DD	02H
	DD	FLAT:??_R2XMLDeclaration@tinyxml2@@8
rdata$r	ENDS
;	COMDAT ??_R0?AVXMLDeclaration@tinyxml2@@@8
data$r	SEGMENT
??_R0?AVXMLDeclaration@tinyxml2@@@8 DD FLAT:??_7type_info@@6B@ ; tinyxml2::XMLDeclaration `RTTI Type Descriptor'
	DD	00H
	DB	'.?AVXMLDeclaration@tinyxml2@@', 00H
data$r	ENDS
;	COMDAT ??_R4XMLDeclaration@tinyxml2@@6B@
rdata$r	SEGMENT
??_R4XMLDeclaration@tinyxml2@@6B@ DD 00H		; tinyxml2::XMLDeclaration::`RTTI Complete Object Locator'
	DD	00H
	DD	00H
	DD	FLAT:??_R0?AVXMLDeclaration@tinyxml2@@@8
	DD	FLAT:??_R3XMLDeclaration@tinyxml2@@8
rdata$r	ENDS
;	COMDAT ??_R1A@?0A@EA@XMLText@tinyxml2@@8
rdata$r	SEGMENT
??_R1A@?0A@EA@XMLText@tinyxml2@@8 DD FLAT:??_R0?AVXMLText@tinyxml2@@@8 ; tinyxml2::XMLText::`RTTI Base Class Descriptor at (0,-1,0,64)'
	DD	01H
	DD	00H
	DD	0ffffffffH
	DD	00H
	DD	040H
	DD	FLAT:??_R3XMLText@tinyxml2@@8
rdata$r	ENDS
;	COMDAT ??_R2XMLText@tinyxml2@@8
rdata$r	SEGMENT
??_R2XMLText@tinyxml2@@8 DD FLAT:??_R1A@?0A@EA@XMLText@tinyxml2@@8 ; tinyxml2::XMLText::`RTTI Base Class Array'
	DD	FLAT:??_R1A@?0A@EA@XMLNode@tinyxml2@@8
rdata$r	ENDS
;	COMDAT ??_R3XMLText@tinyxml2@@8
rdata$r	SEGMENT
??_R3XMLText@tinyxml2@@8 DD 00H				; tinyxml2::XMLText::`RTTI Class Hierarchy Descriptor'
	DD	00H
	DD	02H
	DD	FLAT:??_R2XMLText@tinyxml2@@8
rdata$r	ENDS
;	COMDAT ??_R0?AVXMLText@tinyxml2@@@8
data$r	SEGMENT
??_R0?AVXMLText@tinyxml2@@@8 DD FLAT:??_7type_info@@6B@	; tinyxml2::XMLText `RTTI Type Descriptor'
	DD	00H
	DB	'.?AVXMLText@tinyxml2@@', 00H
data$r	ENDS
;	COMDAT ??_R4XMLText@tinyxml2@@6B@
rdata$r	SEGMENT
??_R4XMLText@tinyxml2@@6B@ DD 00H			; tinyxml2::XMLText::`RTTI Complete Object Locator'
	DD	00H
	DD	00H
	DD	FLAT:??_R0?AVXMLText@tinyxml2@@@8
	DD	FLAT:??_R3XMLText@tinyxml2@@8
rdata$r	ENDS
;	COMDAT ??_R1A@?0A@EA@XMLComment@tinyxml2@@8
rdata$r	SEGMENT
??_R1A@?0A@EA@XMLComment@tinyxml2@@8 DD FLAT:??_R0?AVXMLComment@tinyxml2@@@8 ; tinyxml2::XMLComment::`RTTI Base Class Descriptor at (0,-1,0,64)'
	DD	01H
	DD	00H
	DD	0ffffffffH
	DD	00H
	DD	040H
	DD	FLAT:??_R3XMLComment@tinyxml2@@8
rdata$r	ENDS
;	COMDAT ??_R2XMLComment@tinyxml2@@8
rdata$r	SEGMENT
??_R2XMLComment@tinyxml2@@8 DD FLAT:??_R1A@?0A@EA@XMLComment@tinyxml2@@8 ; tinyxml2::XMLComment::`RTTI Base Class Array'
	DD	FLAT:??_R1A@?0A@EA@XMLNode@tinyxml2@@8
rdata$r	ENDS
;	COMDAT ??_R3XMLComment@tinyxml2@@8
rdata$r	SEGMENT
??_R3XMLComment@tinyxml2@@8 DD 00H			; tinyxml2::XMLComment::`RTTI Class Hierarchy Descriptor'
	DD	00H
	DD	02H
	DD	FLAT:??_R2XMLComment@tinyxml2@@8
rdata$r	ENDS
;	COMDAT ??_R0?AVXMLComment@tinyxml2@@@8
data$r	SEGMENT
??_R0?AVXMLComment@tinyxml2@@@8 DD FLAT:??_7type_info@@6B@ ; tinyxml2::XMLComment `RTTI Type Descriptor'
	DD	00H
	DB	'.?AVXMLComment@tinyxml2@@', 00H
data$r	ENDS
;	COMDAT ??_R4XMLComment@tinyxml2@@6B@
rdata$r	SEGMENT
??_R4XMLComment@tinyxml2@@6B@ DD 00H			; tinyxml2::XMLComment::`RTTI Complete Object Locator'
	DD	00H
	DD	00H
	DD	FLAT:??_R0?AVXMLComment@tinyxml2@@@8
	DD	FLAT:??_R3XMLComment@tinyxml2@@8
rdata$r	ENDS
;	COMDAT ??_R1A@?0A@EA@XMLAttribute@tinyxml2@@8
rdata$r	SEGMENT
??_R1A@?0A@EA@XMLAttribute@tinyxml2@@8 DD FLAT:??_R0?AVXMLAttribute@tinyxml2@@@8 ; tinyxml2::XMLAttribute::`RTTI Base Class Descriptor at (0,-1,0,64)'
	DD	00H
	DD	00H
	DD	0ffffffffH
	DD	00H
	DD	040H
	DD	FLAT:??_R3XMLAttribute@tinyxml2@@8
rdata$r	ENDS
;	COMDAT ??_R2XMLAttribute@tinyxml2@@8
rdata$r	SEGMENT
??_R2XMLAttribute@tinyxml2@@8 DD FLAT:??_R1A@?0A@EA@XMLAttribute@tinyxml2@@8 ; tinyxml2::XMLAttribute::`RTTI Base Class Array'
rdata$r	ENDS
;	COMDAT ??_R3XMLAttribute@tinyxml2@@8
rdata$r	SEGMENT
??_R3XMLAttribute@tinyxml2@@8 DD 00H			; tinyxml2::XMLAttribute::`RTTI Class Hierarchy Descriptor'
	DD	00H
	DD	01H
	DD	FLAT:??_R2XMLAttribute@tinyxml2@@8
rdata$r	ENDS
;	COMDAT ??_R0?AVXMLAttribute@tinyxml2@@@8
data$r	SEGMENT
??_R0?AVXMLAttribute@tinyxml2@@@8 DD FLAT:??_7type_info@@6B@ ; tinyxml2::XMLAttribute `RTTI Type Descriptor'
	DD	00H
	DB	'.?AVXMLAttribute@tinyxml2@@', 00H
data$r	ENDS
;	COMDAT ??_R4XMLAttribute@tinyxml2@@6B@
rdata$r	SEGMENT
??_R4XMLAttribute@tinyxml2@@6B@ DD 00H			; tinyxml2::XMLAttribute::`RTTI Complete Object Locator'
	DD	00H
	DD	00H
	DD	FLAT:??_R0?AVXMLAttribute@tinyxml2@@@8
	DD	FLAT:??_R3XMLAttribute@tinyxml2@@8
rdata$r	ENDS
;	COMDAT ??_R1A@?0A@EA@XMLElement@tinyxml2@@8
rdata$r	SEGMENT
??_R1A@?0A@EA@XMLElement@tinyxml2@@8 DD FLAT:??_R0?AVXMLElement@tinyxml2@@@8 ; tinyxml2::XMLElement::`RTTI Base Class Descriptor at (0,-1,0,64)'
	DD	01H
	DD	00H
	DD	0ffffffffH
	DD	00H
	DD	040H
	DD	FLAT:??_R3XMLElement@tinyxml2@@8
rdata$r	ENDS
;	COMDAT ??_R2XMLElement@tinyxml2@@8
rdata$r	SEGMENT
??_R2XMLElement@tinyxml2@@8 DD FLAT:??_R1A@?0A@EA@XMLElement@tinyxml2@@8 ; tinyxml2::XMLElement::`RTTI Base Class Array'
	DD	FLAT:??_R1A@?0A@EA@XMLNode@tinyxml2@@8
rdata$r	ENDS
;	COMDAT ??_R3XMLElement@tinyxml2@@8
rdata$r	SEGMENT
??_R3XMLElement@tinyxml2@@8 DD 00H			; tinyxml2::XMLElement::`RTTI Class Hierarchy Descriptor'
	DD	00H
	DD	02H
	DD	FLAT:??_R2XMLElement@tinyxml2@@8
rdata$r	ENDS
;	COMDAT ??_R0?AVXMLElement@tinyxml2@@@8
data$r	SEGMENT
??_R0?AVXMLElement@tinyxml2@@@8 DD FLAT:??_7type_info@@6B@ ; tinyxml2::XMLElement `RTTI Type Descriptor'
	DD	00H
	DB	'.?AVXMLElement@tinyxml2@@', 00H
data$r	ENDS
;	COMDAT ??_R4XMLElement@tinyxml2@@6B@
rdata$r	SEGMENT
??_R4XMLElement@tinyxml2@@6B@ DD 00H			; tinyxml2::XMLElement::`RTTI Complete Object Locator'
	DD	00H
	DD	00H
	DD	FLAT:??_R0?AVXMLElement@tinyxml2@@@8
	DD	FLAT:??_R3XMLElement@tinyxml2@@8
rdata$r	ENDS
;	COMDAT ??_R2XMLNode@tinyxml2@@8
rdata$r	SEGMENT
??_R2XMLNode@tinyxml2@@8 DD FLAT:??_R1A@?0A@EA@XMLNode@tinyxml2@@8 ; tinyxml2::XMLNode::`RTTI Base Class Array'
rdata$r	ENDS
;	COMDAT ??_R3XMLNode@tinyxml2@@8
rdata$r	SEGMENT
??_R3XMLNode@tinyxml2@@8 DD 00H				; tinyxml2::XMLNode::`RTTI Class Hierarchy Descriptor'
	DD	00H
	DD	01H
	DD	FLAT:??_R2XMLNode@tinyxml2@@8
rdata$r	ENDS
;	COMDAT ??_R0?AVXMLNode@tinyxml2@@@8
data$r	SEGMENT
??_R0?AVXMLNode@tinyxml2@@@8 DD FLAT:??_7type_info@@6B@	; tinyxml2::XMLNode `RTTI Type Descriptor'
	DD	00H
	DB	'.?AVXMLNode@tinyxml2@@', 00H
data$r	ENDS
;	COMDAT ??_R1A@?0A@EA@XMLNode@tinyxml2@@8
rdata$r	SEGMENT
??_R1A@?0A@EA@XMLNode@tinyxml2@@8 DD FLAT:??_R0?AVXMLNode@tinyxml2@@@8 ; tinyxml2::XMLNode::`RTTI Base Class Descriptor at (0,-1,0,64)'
	DD	00H
	DD	00H
	DD	0ffffffffH
	DD	00H
	DD	040H
	DD	FLAT:??_R3XMLNode@tinyxml2@@8
rdata$r	ENDS
;	COMDAT ??_R1A@?0A@EA@XMLDocument@tinyxml2@@8
rdata$r	SEGMENT
??_R1A@?0A@EA@XMLDocument@tinyxml2@@8 DD FLAT:??_R0?AVXMLDocument@tinyxml2@@@8 ; tinyxml2::XMLDocument::`RTTI Base Class Descriptor at (0,-1,0,64)'
	DD	01H
	DD	00H
	DD	0ffffffffH
	DD	00H
	DD	040H
	DD	FLAT:??_R3XMLDocument@tinyxml2@@8
rdata$r	ENDS
;	COMDAT ??_R2XMLDocument@tinyxml2@@8
rdata$r	SEGMENT
??_R2XMLDocument@tinyxml2@@8 DD FLAT:??_R1A@?0A@EA@XMLDocument@tinyxml2@@8 ; tinyxml2::XMLDocument::`RTTI Base Class Array'
	DD	FLAT:??_R1A@?0A@EA@XMLNode@tinyxml2@@8
rdata$r	ENDS
;	COMDAT ??_R3XMLDocument@tinyxml2@@8
rdata$r	SEGMENT
??_R3XMLDocument@tinyxml2@@8 DD 00H			; tinyxml2::XMLDocument::`RTTI Class Hierarchy Descriptor'
	DD	00H
	DD	02H
	DD	FLAT:??_R2XMLDocument@tinyxml2@@8
rdata$r	ENDS
;	COMDAT ??_R0?AVXMLDocument@tinyxml2@@@8
data$r	SEGMENT
??_R0?AVXMLDocument@tinyxml2@@@8 DD FLAT:??_7type_info@@6B@ ; tinyxml2::XMLDocument `RTTI Type Descriptor'
	DD	00H
	DB	'.?AVXMLDocument@tinyxml2@@', 00H
data$r	ENDS
;	COMDAT ??_R4XMLDocument@tinyxml2@@6B@
rdata$r	SEGMENT
??_R4XMLDocument@tinyxml2@@6B@ DD 00H			; tinyxml2::XMLDocument::`RTTI Complete Object Locator'
	DD	00H
	DD	00H
	DD	FLAT:??_R0?AVXMLDocument@tinyxml2@@@8
	DD	FLAT:??_R3XMLDocument@tinyxml2@@8
rdata$r	ENDS
;	COMDAT ??_C@_05EBLKANEG@?$DM?$CB?$CFs?$DO?$AA@
CONST	SEGMENT
??_C@_05EBLKANEG@?$DM?$CB?$CFs?$DO?$AA@ DB '<!%s>', 00H	; `string'
CONST	ENDS
;	COMDAT ??_C@_06OGCFEMAJ@?$DM?$DP?$CFs?$DP?$DO?$AA@
CONST	SEGMENT
??_C@_06OGCFEMAJ@?$DM?$DP?$CFs?$DP?$DO?$AA@ DB '<?%s?>', 00H ; `string'
CONST	ENDS
;	COMDAT ??_C@_09PNDCPLLD@?$DM?$CB?9?9?$CFs?9?9?$DO?$AA@
CONST	SEGMENT
??_C@_09PNDCPLLD@?$DM?$CB?9?9?$CFs?9?9?$DO?$AA@ DB '<!--%s-->', 00H ; `string'
CONST	ENDS
;	COMDAT ??_C@_0P@FBMMJGJN@?$DM?$CB?$FLCDATA?$FL?$CFs?$FN?$FN?$DO?$AA@
CONST	SEGMENT
??_C@_0P@FBMMJGJN@?$DM?$CB?$FLCDATA?$FL?$CFs?$FN?$FN?$DO?$AA@ DB '<![CDAT'
	DB	'A[%s]]>', 00H				; `string'
CONST	ENDS
;	COMDAT ??_C@_05POIKLDCH@?$DM?1?$CFs?$DO?$AA@
CONST	SEGMENT
??_C@_05POIKLDCH@?$DM?1?$CFs?$DO?$AA@ DB '</%s>', 00H	; `string'
CONST	ENDS
;	COMDAT ??_C@_02HCGKDMEN@?1?$DO?$AA@
CONST	SEGMENT
??_C@_02HCGKDMEN@?1?$DO?$AA@ DB '/>', 00H		; `string'
CONST	ENDS
;	COMDAT ??_C@_01BJJEKLCA@?$CC?$AA@
CONST	SEGMENT
??_C@_01BJJEKLCA@?$CC?$AA@ DB '"', 00H			; `string'
CONST	ENDS
;	COMDAT ??_C@_05LCDLMEIP@?5?$CFs?$DN?$CC?$AA@
CONST	SEGMENT
??_C@_05LCDLMEIP@?5?$CFs?$DN?$CC?$AA@ DB ' %s="', 00H	; `string'
CONST	ENDS
;	COMDAT ??_C@_03FONCMJME@?$DM?$CFs?$AA@
CONST	SEGMENT
??_C@_03FONCMJME@?$DM?$CFs?$AA@ DB '<%s', 00H		; `string'
CONST	ENDS
;	COMDAT ??_C@_01EEMJAFIK@?6?$AA@
CONST	SEGMENT
??_C@_01EEMJAFIK@?6?$AA@ DB 0aH, 00H			; `string'
CONST	ENDS
;	COMDAT ??_C@_0BC@CIAMHNHO@xml?5version?$DN?$CC1?40?$CC?$AA@
CONST	SEGMENT
??_C@_0BC@CIAMHNHO@xml?5version?$DN?$CC1?40?$CC?$AA@ DB 'xml version="1.0'
	DB	'"', 00H					; `string'
CONST	ENDS
;	COMDAT ??_C@_04IKLFLEHL@?$CG?$CFs?$DL?$AA@
CONST	SEGMENT
??_C@_04IKLFLEHL@?$CG?$CFs?$DL?$AA@ DB '&%s;', 00H	; `string'
CONST	ENDS
;	COMDAT ??_C@_04EBNJJJJI@?$CF?4?$CKs?$AA@
CONST	SEGMENT
??_C@_04EBNJJJJI@?$CF?4?$CKs?$AA@ DB '%.*s', 00H	; `string'
CONST	ENDS
;	COMDAT ??_C@_04PFOHOKJK@?5?5?5?5?$AA@
CONST	SEGMENT
??_C@_04PFOHOKJK@?5?5?5?5?$AA@ DB '    ', 00H		; `string'
CONST	ENDS
;	COMDAT ??_C@_0CO@CKABJOJH@XMLDocument?5error?5id?$DN?$CFd?5?8?$CFs?8?5str@
CONST	SEGMENT
??_C@_0CO@CKABJOJH@XMLDocument?5error?5id?$DN?$CFd?5?8?$CFs?8?5str@ DB 'X'
	DB	'MLDocument error id=%d ''%s'' str1=%s str2=%s', 0aH, 00H ; `string'
CONST	ENDS
;	COMDAT ??_C@_02DKCKIIND@?$CFs?$AA@
CONST	SEGMENT
??_C@_02DKCKIIND@?$CFs?$AA@ DB '%s', 00H		; `string'
CONST	ENDS
;	COMDAT ??_C@_01NOFIACDB@w?$AA@
CONST	SEGMENT
??_C@_01NOFIACDB@w?$AA@ DB 'w', 00H			; `string'
CONST	ENDS
;	COMDAT ??_C@_02JDPG@rb?$AA@
CONST	SEGMENT
??_C@_02JDPG@rb?$AA@ DB 'rb', 00H			; `string'
CONST	ENDS
;	COMDAT ??_C@_0CD@MCGGMGEP@xml?5version?$DN?$CC1?40?$CC?5encoding?$DN?$CCUTF?9@
CONST	SEGMENT
??_C@_0CD@MCGGMGEP@xml?5version?$DN?$CC1?40?$CC?5encoding?$DN?$CCUTF?9@ DB 'x'
	DB	'ml version="1.0" encoding="UTF-8"', 00H	; `string'
CONST	ENDS
;	COMDAT ??_C@_01PPODPGHN@?$DO?$AA@
CONST	SEGMENT
??_C@_01PPODPGHN@?$DO?$AA@ DB '>', 00H			; `string'
CONST	ENDS
;	COMDAT ??_C@_02GOEMJPDN@?$DP?$DO?$AA@
CONST	SEGMENT
??_C@_02GOEMJPDN@?$DP?$DO?$AA@ DB '?>', 00H		; `string'
CONST	ENDS
;	COMDAT ??_C@_03PNLDJJMO@?9?9?$DO?$AA@
CONST	SEGMENT
??_C@_03PNLDJJMO@?9?9?$DO?$AA@ DB '-->', 00H		; `string'
CONST	ENDS
;	COMDAT ??_C@_03MCHNFBAC@?$FN?$FN?$DO?$AA@
CONST	SEGMENT
??_C@_03MCHNFBAC@?$FN?$FN?$DO?$AA@ DB ']]>', 00H	; `string'
CONST	ENDS
;	COMDAT ??_C@_03DLDNIBIK@?$CFlf?$AA@
CONST	SEGMENT
??_C@_03DLDNIBIK@?$CFlf?$AA@ DB '%lf', 00H		; `string'
CONST	ENDS
;	COMDAT ??_C@_02NJPGOMH@?$CFf?$AA@
CONST	SEGMENT
??_C@_02NJPGOMH@?$CFf?$AA@ DB '%f', 00H			; `string'
CONST	ENDS
;	COMDAT ??_C@_05LAPONLG@false?$AA@
CONST	SEGMENT
??_C@_05LAPONLG@false?$AA@ DB 'false', 00H		; `string'
CONST	ENDS
;	COMDAT ??_C@_04LOAJBDKD@true?$AA@
CONST	SEGMENT
??_C@_04LOAJBDKD@true?$AA@ DB 'true', 00H		; `string'
CONST	ENDS
;	COMDAT ??_C@_05CEKCMKAN@?$CF?417g?$AA@
CONST	SEGMENT
??_C@_05CEKCMKAN@?$CF?417g?$AA@ DB '%.17g', 00H		; `string'
CONST	ENDS
;	COMDAT ??_C@_04HANFDJND@?$CF?48g?$AA@
CONST	SEGMENT
??_C@_04HANFDJND@?$CF?48g?$AA@ DB '%.8g', 00H		; `string'
CONST	ENDS
;	COMDAT ??_C@_02GMHACPFF@?$CFu?$AA@
CONST	SEGMENT
??_C@_02GMHACPFF@?$CFu?$AA@ DB '%u', 00H		; `string'
CONST	ENDS
;	COMDAT ??_C@_02DPKJAMEF@?$CFd?$AA@
CONST	SEGMENT
??_C@_02DPKJAMEF@?$CFd?$AA@ DB '%d', 00H		; `string'
CONST	ENDS
;	COMDAT ??_7XMLPrinter@tinyxml2@@6B@
CONST	SEGMENT
??_7XMLPrinter@tinyxml2@@6B@ DD FLAT:??_R4XMLPrinter@tinyxml2@@6B@ ; tinyxml2::XMLPrinter::`vftable'
	DD	FLAT:??_EXMLPrinter@tinyxml2@@UAEPAXI@Z
	DD	FLAT:?VisitEnter@XMLPrinter@tinyxml2@@UAE_NABVXMLElement@2@PBVXMLAttribute@2@@Z
	DD	FLAT:?VisitEnter@XMLPrinter@tinyxml2@@UAE_NABVXMLDocument@2@@Z
	DD	FLAT:?VisitExit@XMLPrinter@tinyxml2@@UAE_NABVXMLElement@2@@Z
	DD	FLAT:?VisitExit@XMLPrinter@tinyxml2@@UAE_NABVXMLDocument@2@@Z
	DD	FLAT:?Visit@XMLPrinter@tinyxml2@@UAE_NABVXMLUnknown@2@@Z
	DD	FLAT:?Visit@XMLPrinter@tinyxml2@@UAE_NABVXMLComment@2@@Z
	DD	FLAT:?Visit@XMLPrinter@tinyxml2@@UAE_NABVXMLText@2@@Z
	DD	FLAT:?Visit@XMLPrinter@tinyxml2@@UAE_NABVXMLDeclaration@2@@Z
	DD	FLAT:?CloseElement@XMLPrinter@tinyxml2@@UAEX_N@Z
	DD	FLAT:?CompactMode@XMLPrinter@tinyxml2@@MAE_NABVXMLElement@2@@Z
	DD	FLAT:?PrintSpace@XMLPrinter@tinyxml2@@MAEXH@Z
CONST	ENDS
;	COMDAT ??_7XMLDocument@tinyxml2@@6B@
CONST	SEGMENT
??_7XMLDocument@tinyxml2@@6B@ DD FLAT:??_R4XMLDocument@tinyxml2@@6B@ ; tinyxml2::XMLDocument::`vftable'
	DD	FLAT:?ToElement@XMLNode@tinyxml2@@UBEPBVXMLElement@2@XZ
	DD	FLAT:?ToElement@XMLNode@tinyxml2@@UAEPAVXMLElement@2@XZ
	DD	FLAT:?ToText@XMLNode@tinyxml2@@UBEPBVXMLText@2@XZ
	DD	FLAT:?ToText@XMLNode@tinyxml2@@UAEPAVXMLText@2@XZ
	DD	FLAT:?ToComment@XMLNode@tinyxml2@@UBEPBVXMLComment@2@XZ
	DD	FLAT:?ToComment@XMLNode@tinyxml2@@UAEPAVXMLComment@2@XZ
	DD	FLAT:?ToDocument@XMLDocument@tinyxml2@@UBEPBV12@XZ
	DD	FLAT:?ToDocument@XMLDocument@tinyxml2@@UAEPAV12@XZ
	DD	FLAT:?ToDeclaration@XMLNode@tinyxml2@@UBEPBVXMLDeclaration@2@XZ
	DD	FLAT:?ToDeclaration@XMLNode@tinyxml2@@UAEPAVXMLDeclaration@2@XZ
	DD	FLAT:?ToUnknown@XMLNode@tinyxml2@@UBEPBVXMLUnknown@2@XZ
	DD	FLAT:?ToUnknown@XMLNode@tinyxml2@@UAEPAVXMLUnknown@2@XZ
	DD	FLAT:?ShallowClone@XMLDocument@tinyxml2@@UBEPAVXMLNode@2@PAV12@@Z
	DD	FLAT:?ShallowEqual@XMLDocument@tinyxml2@@UBE_NPBVXMLNode@2@@Z
	DD	FLAT:?Accept@XMLDocument@tinyxml2@@UBE_NPAVXMLVisitor@2@@Z
	DD	FLAT:??_EXMLDocument@tinyxml2@@UAEPAXI@Z
	DD	FLAT:?ParseDeep@XMLNode@tinyxml2@@MAEPADPADPAVStrPair@2@@Z
CONST	ENDS
;	COMDAT ??_7?$MemPoolT@$0CM@@tinyxml2@@6B@
CONST	SEGMENT
??_7?$MemPoolT@$0CM@@tinyxml2@@6B@ DD FLAT:??_R4?$MemPoolT@$0CM@@tinyxml2@@6B@ ; tinyxml2::MemPoolT<44>::`vftable'
	DD	FLAT:??_E?$MemPoolT@$0CM@@tinyxml2@@UAEPAXI@Z
	DD	FLAT:?ItemSize@?$MemPoolT@$0CM@@tinyxml2@@UBEHXZ
	DD	FLAT:?Alloc@?$MemPoolT@$0CM@@tinyxml2@@UAEPAXXZ
	DD	FLAT:?Free@?$MemPoolT@$0CM@@tinyxml2@@UAEXPAX@Z
	DD	FLAT:?SetTracked@?$MemPoolT@$0CM@@tinyxml2@@UAEXXZ
	DD	FLAT:?Clear@?$MemPoolT@$0CM@@tinyxml2@@UAEXXZ
CONST	ENDS
;	COMDAT ??_7?$MemPoolT@$0DA@@tinyxml2@@6B@
CONST	SEGMENT
??_7?$MemPoolT@$0DA@@tinyxml2@@6B@ DD FLAT:??_R4?$MemPoolT@$0DA@@tinyxml2@@6B@ ; tinyxml2::MemPoolT<48>::`vftable'
	DD	FLAT:??_E?$MemPoolT@$0DA@@tinyxml2@@UAEPAXI@Z
	DD	FLAT:?ItemSize@?$MemPoolT@$0DA@@tinyxml2@@UBEHXZ
	DD	FLAT:?Alloc@?$MemPoolT@$0DA@@tinyxml2@@UAEPAXXZ
	DD	FLAT:?Free@?$MemPoolT@$0DA@@tinyxml2@@UAEXPAX@Z
	DD	FLAT:?SetTracked@?$MemPoolT@$0DA@@tinyxml2@@UAEXXZ
	DD	FLAT:?Clear@?$MemPoolT@$0DA@@tinyxml2@@UAEXXZ
CONST	ENDS
;	COMDAT ??_7?$MemPoolT@$0CE@@tinyxml2@@6B@
CONST	SEGMENT
??_7?$MemPoolT@$0CE@@tinyxml2@@6B@ DD FLAT:??_R4?$MemPoolT@$0CE@@tinyxml2@@6B@ ; tinyxml2::MemPoolT<36>::`vftable'
	DD	FLAT:??_E?$MemPoolT@$0CE@@tinyxml2@@UAEPAXI@Z
	DD	FLAT:?ItemSize@?$MemPoolT@$0CE@@tinyxml2@@UBEHXZ
	DD	FLAT:?Alloc@?$MemPoolT@$0CE@@tinyxml2@@UAEPAXXZ
	DD	FLAT:?Free@?$MemPoolT@$0CE@@tinyxml2@@UAEXPAX@Z
	DD	FLAT:?SetTracked@?$MemPoolT@$0CE@@tinyxml2@@UAEXXZ
	DD	FLAT:?Clear@?$MemPoolT@$0CE@@tinyxml2@@UAEXXZ
CONST	ENDS
;	COMDAT ??_7?$MemPoolT@$0DE@@tinyxml2@@6B@
CONST	SEGMENT
??_7?$MemPoolT@$0DE@@tinyxml2@@6B@ DD FLAT:??_R4?$MemPoolT@$0DE@@tinyxml2@@6B@ ; tinyxml2::MemPoolT<52>::`vftable'
	DD	FLAT:??_E?$MemPoolT@$0DE@@tinyxml2@@UAEPAXI@Z
	DD	FLAT:?ItemSize@?$MemPoolT@$0DE@@tinyxml2@@UBEHXZ
	DD	FLAT:?Alloc@?$MemPoolT@$0DE@@tinyxml2@@UAEPAXXZ
	DD	FLAT:?Free@?$MemPoolT@$0DE@@tinyxml2@@UAEXPAX@Z
	DD	FLAT:?SetTracked@?$MemPoolT@$0DE@@tinyxml2@@UAEXXZ
	DD	FLAT:?Clear@?$MemPoolT@$0DE@@tinyxml2@@UAEXXZ
CONST	ENDS
;	COMDAT ??_7XMLElement@tinyxml2@@6B@
CONST	SEGMENT
??_7XMLElement@tinyxml2@@6B@ DD FLAT:??_R4XMLElement@tinyxml2@@6B@ ; tinyxml2::XMLElement::`vftable'
	DD	FLAT:?ToElement@XMLElement@tinyxml2@@UBEPBV12@XZ
	DD	FLAT:?ToElement@XMLElement@tinyxml2@@UAEPAV12@XZ
	DD	FLAT:?ToText@XMLNode@tinyxml2@@UBEPBVXMLText@2@XZ
	DD	FLAT:?ToText@XMLNode@tinyxml2@@UAEPAVXMLText@2@XZ
	DD	FLAT:?ToComment@XMLNode@tinyxml2@@UBEPBVXMLComment@2@XZ
	DD	FLAT:?ToComment@XMLNode@tinyxml2@@UAEPAVXMLComment@2@XZ
	DD	FLAT:?ToDocument@XMLNode@tinyxml2@@UBEPBVXMLDocument@2@XZ
	DD	FLAT:?ToDocument@XMLNode@tinyxml2@@UAEPAVXMLDocument@2@XZ
	DD	FLAT:?ToDeclaration@XMLNode@tinyxml2@@UBEPBVXMLDeclaration@2@XZ
	DD	FLAT:?ToDeclaration@XMLNode@tinyxml2@@UAEPAVXMLDeclaration@2@XZ
	DD	FLAT:?ToUnknown@XMLNode@tinyxml2@@UBEPBVXMLUnknown@2@XZ
	DD	FLAT:?ToUnknown@XMLNode@tinyxml2@@UAEPAVXMLUnknown@2@XZ
	DD	FLAT:?ShallowClone@XMLElement@tinyxml2@@UBEPAVXMLNode@2@PAVXMLDocument@2@@Z
	DD	FLAT:?ShallowEqual@XMLElement@tinyxml2@@UBE_NPBVXMLNode@2@@Z
	DD	FLAT:?Accept@XMLElement@tinyxml2@@UBE_NPAVXMLVisitor@2@@Z
	DD	FLAT:??_EXMLElement@tinyxml2@@EAEPAXI@Z
	DD	FLAT:?ParseDeep@XMLElement@tinyxml2@@MAEPADPADPAVStrPair@2@@Z
CONST	ENDS
;	COMDAT ??_7XMLAttribute@tinyxml2@@6B@
CONST	SEGMENT
??_7XMLAttribute@tinyxml2@@6B@ DD FLAT:??_R4XMLAttribute@tinyxml2@@6B@ ; tinyxml2::XMLAttribute::`vftable'
	DD	FLAT:??_EXMLAttribute@tinyxml2@@EAEPAXI@Z
CONST	ENDS
;	COMDAT ??_7XMLUnknown@tinyxml2@@6B@
CONST	SEGMENT
??_7XMLUnknown@tinyxml2@@6B@ DD FLAT:??_R4XMLUnknown@tinyxml2@@6B@ ; tinyxml2::XMLUnknown::`vftable'
	DD	FLAT:?ToElement@XMLNode@tinyxml2@@UBEPBVXMLElement@2@XZ
	DD	FLAT:?ToElement@XMLNode@tinyxml2@@UAEPAVXMLElement@2@XZ
	DD	FLAT:?ToText@XMLNode@tinyxml2@@UBEPBVXMLText@2@XZ
	DD	FLAT:?ToText@XMLNode@tinyxml2@@UAEPAVXMLText@2@XZ
	DD	FLAT:?ToComment@XMLNode@tinyxml2@@UBEPBVXMLComment@2@XZ
	DD	FLAT:?ToComment@XMLNode@tinyxml2@@UAEPAVXMLComment@2@XZ
	DD	FLAT:?ToDocument@XMLNode@tinyxml2@@UBEPBVXMLDocument@2@XZ
	DD	FLAT:?ToDocument@XMLNode@tinyxml2@@UAEPAVXMLDocument@2@XZ
	DD	FLAT:?ToDeclaration@XMLNode@tinyxml2@@UBEPBVXMLDeclaration@2@XZ
	DD	FLAT:?ToDeclaration@XMLNode@tinyxml2@@UAEPAVXMLDeclaration@2@XZ
	DD	FLAT:?ToUnknown@XMLUnknown@tinyxml2@@UBEPBV12@XZ
	DD	FLAT:?ToUnknown@XMLUnknown@tinyxml2@@UAEPAV12@XZ
	DD	FLAT:?ShallowClone@XMLUnknown@tinyxml2@@UBEPAVXMLNode@2@PAVXMLDocument@2@@Z
	DD	FLAT:?ShallowEqual@XMLUnknown@tinyxml2@@UBE_NPBVXMLNode@2@@Z
	DD	FLAT:?Accept@XMLUnknown@tinyxml2@@UBE_NPAVXMLVisitor@2@@Z
	DD	FLAT:??_EXMLUnknown@tinyxml2@@MAEPAXI@Z
	DD	FLAT:?ParseDeep@XMLUnknown@tinyxml2@@MAEPADPADPAVStrPair@2@@Z
CONST	ENDS
;	COMDAT ??_7XMLDeclaration@tinyxml2@@6B@
CONST	SEGMENT
??_7XMLDeclaration@tinyxml2@@6B@ DD FLAT:??_R4XMLDeclaration@tinyxml2@@6B@ ; tinyxml2::XMLDeclaration::`vftable'
	DD	FLAT:?ToElement@XMLNode@tinyxml2@@UBEPBVXMLElement@2@XZ
	DD	FLAT:?ToElement@XMLNode@tinyxml2@@UAEPAVXMLElement@2@XZ
	DD	FLAT:?ToText@XMLNode@tinyxml2@@UBEPBVXMLText@2@XZ
	DD	FLAT:?ToText@XMLNode@tinyxml2@@UAEPAVXMLText@2@XZ
	DD	FLAT:?ToComment@XMLNode@tinyxml2@@UBEPBVXMLComment@2@XZ
	DD	FLAT:?ToComment@XMLNode@tinyxml2@@UAEPAVXMLComment@2@XZ
	DD	FLAT:?ToDocument@XMLNode@tinyxml2@@UBEPBVXMLDocument@2@XZ
	DD	FLAT:?ToDocument@XMLNode@tinyxml2@@UAEPAVXMLDocument@2@XZ
	DD	FLAT:?ToDeclaration@XMLDeclaration@tinyxml2@@UBEPBV12@XZ
	DD	FLAT:?ToDeclaration@XMLDeclaration@tinyxml2@@UAEPAV12@XZ
	DD	FLAT:?ToUnknown@XMLNode@tinyxml2@@UBEPBVXMLUnknown@2@XZ
	DD	FLAT:?ToUnknown@XMLNode@tinyxml2@@UAEPAVXMLUnknown@2@XZ
	DD	FLAT:?ShallowClone@XMLDeclaration@tinyxml2@@UBEPAVXMLNode@2@PAVXMLDocument@2@@Z
	DD	FLAT:?ShallowEqual@XMLDeclaration@tinyxml2@@UBE_NPBVXMLNode@2@@Z
	DD	FLAT:?Accept@XMLDeclaration@tinyxml2@@UBE_NPAVXMLVisitor@2@@Z
	DD	FLAT:??_EXMLDeclaration@tinyxml2@@MAEPAXI@Z
	DD	FLAT:?ParseDeep@XMLDeclaration@tinyxml2@@MAEPADPADPAVStrPair@2@@Z
CONST	ENDS
;	COMDAT ??_7XMLComment@tinyxml2@@6B@
CONST	SEGMENT
??_7XMLComment@tinyxml2@@6B@ DD FLAT:??_R4XMLComment@tinyxml2@@6B@ ; tinyxml2::XMLComment::`vftable'
	DD	FLAT:?ToElement@XMLNode@tinyxml2@@UBEPBVXMLElement@2@XZ
	DD	FLAT:?ToElement@XMLNode@tinyxml2@@UAEPAVXMLElement@2@XZ
	DD	FLAT:?ToText@XMLNode@tinyxml2@@UBEPBVXMLText@2@XZ
	DD	FLAT:?ToText@XMLNode@tinyxml2@@UAEPAVXMLText@2@XZ
	DD	FLAT:?ToComment@XMLComment@tinyxml2@@UBEPBV12@XZ
	DD	FLAT:?ToComment@XMLComment@tinyxml2@@UAEPAV12@XZ
	DD	FLAT:?ToDocument@XMLNode@tinyxml2@@UBEPBVXMLDocument@2@XZ
	DD	FLAT:?ToDocument@XMLNode@tinyxml2@@UAEPAVXMLDocument@2@XZ
	DD	FLAT:?ToDeclaration@XMLNode@tinyxml2@@UBEPBVXMLDeclaration@2@XZ
	DD	FLAT:?ToDeclaration@XMLNode@tinyxml2@@UAEPAVXMLDeclaration@2@XZ
	DD	FLAT:?ToUnknown@XMLNode@tinyxml2@@UBEPBVXMLUnknown@2@XZ
	DD	FLAT:?ToUnknown@XMLNode@tinyxml2@@UAEPAVXMLUnknown@2@XZ
	DD	FLAT:?ShallowClone@XMLComment@tinyxml2@@UBEPAVXMLNode@2@PAVXMLDocument@2@@Z
	DD	FLAT:?ShallowEqual@XMLComment@tinyxml2@@UBE_NPBVXMLNode@2@@Z
	DD	FLAT:?Accept@XMLComment@tinyxml2@@UBE_NPAVXMLVisitor@2@@Z
	DD	FLAT:??_EXMLComment@tinyxml2@@MAEPAXI@Z
	DD	FLAT:?ParseDeep@XMLComment@tinyxml2@@MAEPADPADPAVStrPair@2@@Z
CONST	ENDS
;	COMDAT ??_7XMLText@tinyxml2@@6B@
CONST	SEGMENT
??_7XMLText@tinyxml2@@6B@ DD FLAT:??_R4XMLText@tinyxml2@@6B@ ; tinyxml2::XMLText::`vftable'
	DD	FLAT:?ToElement@XMLNode@tinyxml2@@UBEPBVXMLElement@2@XZ
	DD	FLAT:?ToElement@XMLNode@tinyxml2@@UAEPAVXMLElement@2@XZ
	DD	FLAT:?ToText@XMLText@tinyxml2@@UBEPBV12@XZ
	DD	FLAT:?ToText@XMLText@tinyxml2@@UAEPAV12@XZ
	DD	FLAT:?ToComment@XMLNode@tinyxml2@@UBEPBVXMLComment@2@XZ
	DD	FLAT:?ToComment@XMLNode@tinyxml2@@UAEPAVXMLComment@2@XZ
	DD	FLAT:?ToDocument@XMLNode@tinyxml2@@UBEPBVXMLDocument@2@XZ
	DD	FLAT:?ToDocument@XMLNode@tinyxml2@@UAEPAVXMLDocument@2@XZ
	DD	FLAT:?ToDeclaration@XMLNode@tinyxml2@@UBEPBVXMLDeclaration@2@XZ
	DD	FLAT:?ToDeclaration@XMLNode@tinyxml2@@UAEPAVXMLDeclaration@2@XZ
	DD	FLAT:?ToUnknown@XMLNode@tinyxml2@@UBEPBVXMLUnknown@2@XZ
	DD	FLAT:?ToUnknown@XMLNode@tinyxml2@@UAEPAVXMLUnknown@2@XZ
	DD	FLAT:?ShallowClone@XMLText@tinyxml2@@UBEPAVXMLNode@2@PAVXMLDocument@2@@Z
	DD	FLAT:?ShallowEqual@XMLText@tinyxml2@@UBE_NPBVXMLNode@2@@Z
	DD	FLAT:?Accept@XMLText@tinyxml2@@UBE_NPAVXMLVisitor@2@@Z
	DD	FLAT:??_EXMLText@tinyxml2@@MAEPAXI@Z
	DD	FLAT:?ParseDeep@XMLText@tinyxml2@@MAEPADPADPAVStrPair@2@@Z
CONST	ENDS
;	COMDAT ??_7XMLNode@tinyxml2@@6B@
CONST	SEGMENT
??_7XMLNode@tinyxml2@@6B@ DD FLAT:??_R4XMLNode@tinyxml2@@6B@ ; tinyxml2::XMLNode::`vftable'
	DD	FLAT:?ToElement@XMLNode@tinyxml2@@UBEPBVXMLElement@2@XZ
	DD	FLAT:?ToElement@XMLNode@tinyxml2@@UAEPAVXMLElement@2@XZ
	DD	FLAT:?ToText@XMLNode@tinyxml2@@UBEPBVXMLText@2@XZ
	DD	FLAT:?ToText@XMLNode@tinyxml2@@UAEPAVXMLText@2@XZ
	DD	FLAT:?ToComment@XMLNode@tinyxml2@@UBEPBVXMLComment@2@XZ
	DD	FLAT:?ToComment@XMLNode@tinyxml2@@UAEPAVXMLComment@2@XZ
	DD	FLAT:?ToDocument@XMLNode@tinyxml2@@UBEPBVXMLDocument@2@XZ
	DD	FLAT:?ToDocument@XMLNode@tinyxml2@@UAEPAVXMLDocument@2@XZ
	DD	FLAT:?ToDeclaration@XMLNode@tinyxml2@@UBEPBVXMLDeclaration@2@XZ
	DD	FLAT:?ToDeclaration@XMLNode@tinyxml2@@UAEPAVXMLDeclaration@2@XZ
	DD	FLAT:?ToUnknown@XMLNode@tinyxml2@@UBEPBVXMLUnknown@2@XZ
	DD	FLAT:?ToUnknown@XMLNode@tinyxml2@@UAEPAVXMLUnknown@2@XZ
	DD	FLAT:__purecall
	DD	FLAT:__purecall
	DD	FLAT:__purecall
	DD	FLAT:??_EXMLNode@tinyxml2@@MAEPAXI@Z
	DD	FLAT:?ParseDeep@XMLNode@tinyxml2@@MAEPADPADPAVStrPair@2@@Z
CONST	ENDS
;	COMDAT ??_7XMLVisitor@tinyxml2@@6B@
CONST	SEGMENT
??_7XMLVisitor@tinyxml2@@6B@ DD FLAT:??_R4XMLVisitor@tinyxml2@@6B@ ; tinyxml2::XMLVisitor::`vftable'
	DD	FLAT:??_EXMLVisitor@tinyxml2@@UAEPAXI@Z
	DD	FLAT:?VisitEnter@XMLVisitor@tinyxml2@@UAE_NABVXMLElement@2@PBVXMLAttribute@2@@Z
	DD	FLAT:?VisitEnter@XMLVisitor@tinyxml2@@UAE_NABVXMLDocument@2@@Z
	DD	FLAT:?VisitExit@XMLVisitor@tinyxml2@@UAE_NABVXMLElement@2@@Z
	DD	FLAT:?VisitExit@XMLVisitor@tinyxml2@@UAE_NABVXMLDocument@2@@Z
	DD	FLAT:?Visit@XMLVisitor@tinyxml2@@UAE_NABVXMLUnknown@2@@Z
	DD	FLAT:?Visit@XMLVisitor@tinyxml2@@UAE_NABVXMLComment@2@@Z
	DD	FLAT:?Visit@XMLVisitor@tinyxml2@@UAE_NABVXMLText@2@@Z
	DD	FLAT:?Visit@XMLVisitor@tinyxml2@@UAE_NABVXMLDeclaration@2@@Z
CONST	ENDS
;	COMDAT ??_7MemPool@tinyxml2@@6B@
CONST	SEGMENT
??_7MemPool@tinyxml2@@6B@ DD FLAT:??_R4MemPool@tinyxml2@@6B@ ; tinyxml2::MemPool::`vftable'
	DD	FLAT:??_EMemPool@tinyxml2@@UAEPAXI@Z
	DD	FLAT:__purecall
	DD	FLAT:__purecall
	DD	FLAT:__purecall
	DD	FLAT:__purecall
	DD	FLAT:__purecall
CONST	ENDS
;	COMDAT xdata$x
xdata$x	SEGMENT
__unwindtable$??1XMLPrinter@tinyxml2@@UAE@XZ DD 0ffffffffH
	DD	FLAT:__unwindfunclet$??1XMLPrinter@tinyxml2@@UAE@XZ$0
	DD	00H
	DD	FLAT:__unwindfunclet$??1XMLPrinter@tinyxml2@@UAE@XZ$1
__ehfuncinfo$??1XMLPrinter@tinyxml2@@UAE@XZ DD 019930522H
	DD	02H
	DD	FLAT:__unwindtable$??1XMLPrinter@tinyxml2@@UAE@XZ
	DD	2 DUP(00H)
	DD	2 DUP(00H)
	DD	00H
	DD	01H
xdata$x	ENDS
;	COMDAT xdata$x
xdata$x	SEGMENT
__unwindtable$??0XMLPrinter@tinyxml2@@QAE@PAU_iobuf@@_NH@Z DD 0ffffffffH
	DD	FLAT:__unwindfunclet$??0XMLPrinter@tinyxml2@@QAE@PAU_iobuf@@_NH@Z$0
	DD	00H
	DD	FLAT:__unwindfunclet$??0XMLPrinter@tinyxml2@@QAE@PAU_iobuf@@_NH@Z$1
	DD	01H
	DD	FLAT:__unwindfunclet$??0XMLPrinter@tinyxml2@@QAE@PAU_iobuf@@_NH@Z$2
__ehfuncinfo$??0XMLPrinter@tinyxml2@@QAE@PAU_iobuf@@_NH@Z DD 019930522H
	DD	03H
	DD	FLAT:__unwindtable$??0XMLPrinter@tinyxml2@@QAE@PAU_iobuf@@_NH@Z
	DD	2 DUP(00H)
	DD	2 DUP(00H)
	DD	00H
	DD	01H
xdata$x	ENDS
;	COMDAT xdata$x
xdata$x	SEGMENT
__unwindtable$??1?$MemPoolT@$0CM@@tinyxml2@@UAE@XZ DD 0ffffffffH
	DD	FLAT:__unwindfunclet$??1?$MemPoolT@$0CM@@tinyxml2@@UAE@XZ$0
	DD	00H
	DD	FLAT:__unwindfunclet$??1?$MemPoolT@$0CM@@tinyxml2@@UAE@XZ$1
__ehfuncinfo$??1?$MemPoolT@$0CM@@tinyxml2@@UAE@XZ DD 019930522H
	DD	02H
	DD	FLAT:__unwindtable$??1?$MemPoolT@$0CM@@tinyxml2@@UAE@XZ
	DD	2 DUP(00H)
	DD	2 DUP(00H)
	DD	00H
	DD	01H
xdata$x	ENDS
;	COMDAT xdata$x
xdata$x	SEGMENT
__unwindtable$??0?$MemPoolT@$0CM@@tinyxml2@@QAE@XZ DD 0ffffffffH
	DD	FLAT:__unwindfunclet$??0?$MemPoolT@$0CM@@tinyxml2@@QAE@XZ$0
__ehfuncinfo$??0?$MemPoolT@$0CM@@tinyxml2@@QAE@XZ DD 019930522H
	DD	01H
	DD	FLAT:__unwindtable$??0?$MemPoolT@$0CM@@tinyxml2@@QAE@XZ
	DD	2 DUP(00H)
	DD	2 DUP(00H)
	DD	00H
	DD	01H
xdata$x	ENDS
;	COMDAT xdata$x
xdata$x	SEGMENT
__unwindtable$??1?$MemPoolT@$0DA@@tinyxml2@@UAE@XZ DD 0ffffffffH
	DD	FLAT:__unwindfunclet$??1?$MemPoolT@$0DA@@tinyxml2@@UAE@XZ$0
	DD	00H
	DD	FLAT:__unwindfunclet$??1?$MemPoolT@$0DA@@tinyxml2@@UAE@XZ$1
__ehfuncinfo$??1?$MemPoolT@$0DA@@tinyxml2@@UAE@XZ DD 019930522H
	DD	02H
	DD	FLAT:__unwindtable$??1?$MemPoolT@$0DA@@tinyxml2@@UAE@XZ
	DD	2 DUP(00H)
	DD	2 DUP(00H)
	DD	00H
	DD	01H
xdata$x	ENDS
;	COMDAT xdata$x
xdata$x	SEGMENT
__unwindtable$??0?$MemPoolT@$0DA@@tinyxml2@@QAE@XZ DD 0ffffffffH
	DD	FLAT:__unwindfunclet$??0?$MemPoolT@$0DA@@tinyxml2@@QAE@XZ$0
__ehfuncinfo$??0?$MemPoolT@$0DA@@tinyxml2@@QAE@XZ DD 019930522H
	DD	01H
	DD	FLAT:__unwindtable$??0?$MemPoolT@$0DA@@tinyxml2@@QAE@XZ
	DD	2 DUP(00H)
	DD	2 DUP(00H)
	DD	00H
	DD	01H
xdata$x	ENDS
;	COMDAT xdata$x
xdata$x	SEGMENT
__unwindtable$??1?$MemPoolT@$0CE@@tinyxml2@@UAE@XZ DD 0ffffffffH
	DD	FLAT:__unwindfunclet$??1?$MemPoolT@$0CE@@tinyxml2@@UAE@XZ$0
	DD	00H
	DD	FLAT:__unwindfunclet$??1?$MemPoolT@$0CE@@tinyxml2@@UAE@XZ$1
__ehfuncinfo$??1?$MemPoolT@$0CE@@tinyxml2@@UAE@XZ DD 019930522H
	DD	02H
	DD	FLAT:__unwindtable$??1?$MemPoolT@$0CE@@tinyxml2@@UAE@XZ
	DD	2 DUP(00H)
	DD	2 DUP(00H)
	DD	00H
	DD	01H
xdata$x	ENDS
;	COMDAT xdata$x
xdata$x	SEGMENT
__unwindtable$??0?$MemPoolT@$0CE@@tinyxml2@@QAE@XZ DD 0ffffffffH
	DD	FLAT:__unwindfunclet$??0?$MemPoolT@$0CE@@tinyxml2@@QAE@XZ$0
__ehfuncinfo$??0?$MemPoolT@$0CE@@tinyxml2@@QAE@XZ DD 019930522H
	DD	01H
	DD	FLAT:__unwindtable$??0?$MemPoolT@$0CE@@tinyxml2@@QAE@XZ
	DD	2 DUP(00H)
	DD	2 DUP(00H)
	DD	00H
	DD	01H
xdata$x	ENDS
;	COMDAT xdata$x
xdata$x	SEGMENT
__unwindtable$??1?$MemPoolT@$0DE@@tinyxml2@@UAE@XZ DD 0ffffffffH
	DD	FLAT:__unwindfunclet$??1?$MemPoolT@$0DE@@tinyxml2@@UAE@XZ$0
	DD	00H
	DD	FLAT:__unwindfunclet$??1?$MemPoolT@$0DE@@tinyxml2@@UAE@XZ$1
__ehfuncinfo$??1?$MemPoolT@$0DE@@tinyxml2@@UAE@XZ DD 019930522H
	DD	02H
	DD	FLAT:__unwindtable$??1?$MemPoolT@$0DE@@tinyxml2@@UAE@XZ
	DD	2 DUP(00H)
	DD	2 DUP(00H)
	DD	00H
	DD	01H
xdata$x	ENDS
;	COMDAT xdata$x
xdata$x	SEGMENT
__unwindtable$??0?$MemPoolT@$0DE@@tinyxml2@@QAE@XZ DD 0ffffffffH
	DD	FLAT:__unwindfunclet$??0?$MemPoolT@$0DE@@tinyxml2@@QAE@XZ$0
__ehfuncinfo$??0?$MemPoolT@$0DE@@tinyxml2@@QAE@XZ DD 019930522H
	DD	01H
	DD	FLAT:__unwindtable$??0?$MemPoolT@$0DE@@tinyxml2@@QAE@XZ
	DD	2 DUP(00H)
	DD	2 DUP(00H)
	DD	00H
	DD	01H
xdata$x	ENDS
;	COMDAT xdata$x
xdata$x	SEGMENT
__ehfuncinfo$?Identify@XMLDocument@tinyxml2@@QAEPADPADPAPAVXMLNode@2@@Z DD 019930522H
	DD	06H
	DD	FLAT:__unwindtable$?Identify@XMLDocument@tinyxml2@@QAEPADPADPAPAVXMLNode@2@@Z
	DD	2 DUP(00H)
	DD	2 DUP(00H)
	DD	00H
	DD	01H
__unwindtable$?Identify@XMLDocument@tinyxml2@@QAEPADPADPAPAVXMLNode@2@@Z DD 0ffffffffH
	DD	FLAT:__unwindfunclet$?Identify@XMLDocument@tinyxml2@@QAEPADPADPAPAVXMLNode@2@@Z$0
	DD	0ffffffffH
	DD	FLAT:__unwindfunclet$?Identify@XMLDocument@tinyxml2@@QAEPADPADPAPAVXMLNode@2@@Z$1
	DD	0ffffffffH
	DD	FLAT:__unwindfunclet$?Identify@XMLDocument@tinyxml2@@QAEPADPADPAPAVXMLNode@2@@Z$2
	DD	0ffffffffH
	DD	FLAT:__unwindfunclet$?Identify@XMLDocument@tinyxml2@@QAEPADPADPAPAVXMLNode@2@@Z$3
	DD	0ffffffffH
	DD	FLAT:__unwindfunclet$?Identify@XMLDocument@tinyxml2@@QAEPADPADPAPAVXMLNode@2@@Z$4
	DD	0ffffffffH
	DD	FLAT:__unwindfunclet$?Identify@XMLDocument@tinyxml2@@QAEPADPADPAPAVXMLNode@2@@Z$5
xdata$x	ENDS
;	COMDAT xdata$x
xdata$x	SEGMENT
__unwindtable$?NewUnknown@XMLDocument@tinyxml2@@QAEPAVXMLUnknown@2@PBD@Z DD 0ffffffffH
	DD	FLAT:__unwindfunclet$?NewUnknown@XMLDocument@tinyxml2@@QAEPAVXMLUnknown@2@PBD@Z$0
__ehfuncinfo$?NewUnknown@XMLDocument@tinyxml2@@QAEPAVXMLUnknown@2@PBD@Z DD 019930522H
	DD	01H
	DD	FLAT:__unwindtable$?NewUnknown@XMLDocument@tinyxml2@@QAEPAVXMLUnknown@2@PBD@Z
	DD	2 DUP(00H)
	DD	2 DUP(00H)
	DD	00H
	DD	01H
xdata$x	ENDS
;	COMDAT xdata$x
xdata$x	SEGMENT
__unwindtable$?NewDeclaration@XMLDocument@tinyxml2@@QAEPAVXMLDeclaration@2@PBD@Z DD 0ffffffffH
	DD	FLAT:__unwindfunclet$?NewDeclaration@XMLDocument@tinyxml2@@QAEPAVXMLDeclaration@2@PBD@Z$0
__ehfuncinfo$?NewDeclaration@XMLDocument@tinyxml2@@QAEPAVXMLDeclaration@2@PBD@Z DD 019930522H
	DD	01H
	DD	FLAT:__unwindtable$?NewDeclaration@XMLDocument@tinyxml2@@QAEPAVXMLDeclaration@2@PBD@Z
	DD	2 DUP(00H)
	DD	2 DUP(00H)
	DD	00H
	DD	01H
xdata$x	ENDS
;	COMDAT xdata$x
xdata$x	SEGMENT
__unwindtable$?NewText@XMLDocument@tinyxml2@@QAEPAVXMLText@2@PBD@Z DD 0ffffffffH
	DD	FLAT:__unwindfunclet$?NewText@XMLDocument@tinyxml2@@QAEPAVXMLText@2@PBD@Z$0
__ehfuncinfo$?NewText@XMLDocument@tinyxml2@@QAEPAVXMLText@2@PBD@Z DD 019930522H
	DD	01H
	DD	FLAT:__unwindtable$?NewText@XMLDocument@tinyxml2@@QAEPAVXMLText@2@PBD@Z
	DD	2 DUP(00H)
	DD	2 DUP(00H)
	DD	00H
	DD	01H
xdata$x	ENDS
;	COMDAT xdata$x
xdata$x	SEGMENT
__unwindtable$?NewComment@XMLDocument@tinyxml2@@QAEPAVXMLComment@2@PBD@Z DD 0ffffffffH
	DD	FLAT:__unwindfunclet$?NewComment@XMLDocument@tinyxml2@@QAEPAVXMLComment@2@PBD@Z$0
__ehfuncinfo$?NewComment@XMLDocument@tinyxml2@@QAEPAVXMLComment@2@PBD@Z DD 019930522H
	DD	01H
	DD	FLAT:__unwindtable$?NewComment@XMLDocument@tinyxml2@@QAEPAVXMLComment@2@PBD@Z
	DD	2 DUP(00H)
	DD	2 DUP(00H)
	DD	00H
	DD	01H
xdata$x	ENDS
;	COMDAT xdata$x
xdata$x	SEGMENT
__unwindtable$?NewElement@XMLDocument@tinyxml2@@QAEPAVXMLElement@2@PBD@Z DD 0ffffffffH
	DD	FLAT:__unwindfunclet$?NewElement@XMLDocument@tinyxml2@@QAEPAVXMLElement@2@PBD@Z$0
__ehfuncinfo$?NewElement@XMLDocument@tinyxml2@@QAEPAVXMLElement@2@PBD@Z DD 019930522H
	DD	01H
	DD	FLAT:__unwindtable$?NewElement@XMLDocument@tinyxml2@@QAEPAVXMLElement@2@PBD@Z
	DD	2 DUP(00H)
	DD	2 DUP(00H)
	DD	00H
	DD	01H
xdata$x	ENDS
;	COMDAT xdata$x
xdata$x	SEGMENT
__unwindtable$?Print@XMLDocument@tinyxml2@@QBEXPAVXMLPrinter@2@@Z DD 0ffffffffH
	DD	FLAT:__unwindfunclet$?Print@XMLDocument@tinyxml2@@QBEXPAVXMLPrinter@2@@Z$0
__ehfuncinfo$?Print@XMLDocument@tinyxml2@@QBEXPAVXMLPrinter@2@@Z DD 019930522H
	DD	01H
	DD	FLAT:__unwindtable$?Print@XMLDocument@tinyxml2@@QBEXPAVXMLPrinter@2@@Z
	DD	2 DUP(00H)
	DD	2 DUP(00H)
	DD	00H
	DD	01H
xdata$x	ENDS
;	COMDAT xdata$x
xdata$x	SEGMENT
__unwindtable$?SaveFile@XMLDocument@tinyxml2@@QAE?AW4XMLError@2@PAU_iobuf@@_N@Z DD 0ffffffffH
	DD	FLAT:__unwindfunclet$?SaveFile@XMLDocument@tinyxml2@@QAE?AW4XMLError@2@PAU_iobuf@@_N@Z$0
__ehfuncinfo$?SaveFile@XMLDocument@tinyxml2@@QAE?AW4XMLError@2@PAU_iobuf@@_N@Z DD 019930522H
	DD	01H
	DD	FLAT:__unwindtable$?SaveFile@XMLDocument@tinyxml2@@QAE?AW4XMLError@2@PAU_iobuf@@_N@Z
	DD	2 DUP(00H)
	DD	2 DUP(00H)
	DD	00H
	DD	01H
xdata$x	ENDS
;	COMDAT xdata$x
xdata$x	SEGMENT
__ehfuncinfo$??1XMLDocument@tinyxml2@@UAE@XZ DD 019930522H
	DD	05H
	DD	FLAT:__unwindtable$??1XMLDocument@tinyxml2@@UAE@XZ
	DD	2 DUP(00H)
	DD	2 DUP(00H)
	DD	00H
	DD	01H
__unwindtable$??1XMLDocument@tinyxml2@@UAE@XZ DD 0ffffffffH
	DD	FLAT:__unwindfunclet$??1XMLDocument@tinyxml2@@UAE@XZ$0
	DD	00H
	DD	FLAT:__unwindfunclet$??1XMLDocument@tinyxml2@@UAE@XZ$1
	DD	01H
	DD	FLAT:__unwindfunclet$??1XMLDocument@tinyxml2@@UAE@XZ$2
	DD	02H
	DD	FLAT:__unwindfunclet$??1XMLDocument@tinyxml2@@UAE@XZ$3
	DD	03H
	DD	FLAT:__unwindfunclet$??1XMLDocument@tinyxml2@@UAE@XZ$4
xdata$x	ENDS
;	COMDAT xdata$x
xdata$x	SEGMENT
__unwindtable$??0XMLDocument@tinyxml2@@QAE@_NW4Whitespace@1@@Z DD 0ffffffffH
	DD	FLAT:__unwindfunclet$??0XMLDocument@tinyxml2@@QAE@_NW4Whitespace@1@@Z$0
	DD	00H
	DD	FLAT:__unwindfunclet$??0XMLDocument@tinyxml2@@QAE@_NW4Whitespace@1@@Z$1
	DD	01H
	DD	FLAT:__unwindfunclet$??0XMLDocument@tinyxml2@@QAE@_NW4Whitespace@1@@Z$2
	DD	02H
	DD	FLAT:__unwindfunclet$??0XMLDocument@tinyxml2@@QAE@_NW4Whitespace@1@@Z$3
__ehfuncinfo$??0XMLDocument@tinyxml2@@QAE@_NW4Whitespace@1@@Z DD 019930522H
	DD	04H
	DD	FLAT:__unwindtable$??0XMLDocument@tinyxml2@@QAE@_NW4Whitespace@1@@Z
	DD	2 DUP(00H)
	DD	2 DUP(00H)
	DD	00H
	DD	01H
xdata$x	ENDS
;	COMDAT xdata$x
xdata$x	SEGMENT
__unwindtable$?ParseAttributes@XMLElement@tinyxml2@@AAEPADPAD@Z DD 0ffffffffH
	DD	FLAT:__unwindfunclet$?ParseAttributes@XMLElement@tinyxml2@@AAEPADPAD@Z$0
__ehfuncinfo$?ParseAttributes@XMLElement@tinyxml2@@AAEPADPAD@Z DD 019930522H
	DD	01H
	DD	FLAT:__unwindtable$?ParseAttributes@XMLElement@tinyxml2@@AAEPADPAD@Z
	DD	2 DUP(00H)
	DD	2 DUP(00H)
	DD	00H
	DD	01H
xdata$x	ENDS
;	COMDAT xdata$x
xdata$x	SEGMENT
__unwindtable$?FindOrCreateAttribute@XMLElement@tinyxml2@@AAEPAVXMLAttribute@2@PBD@Z DD 0ffffffffH
	DD	FLAT:__unwindfunclet$?FindOrCreateAttribute@XMLElement@tinyxml2@@AAEPAVXMLAttribute@2@PBD@Z$0
__ehfuncinfo$?FindOrCreateAttribute@XMLElement@tinyxml2@@AAEPAVXMLAttribute@2@PBD@Z DD 019930522H
	DD	01H
	DD	FLAT:__unwindtable$?FindOrCreateAttribute@XMLElement@tinyxml2@@AAEPAVXMLAttribute@2@PBD@Z
	DD	2 DUP(00H)
	DD	2 DUP(00H)
	DD	00H
	DD	01H
xdata$x	ENDS
;	COMDAT xdata$x
xdata$x	SEGMENT
__unwindtable$??1XMLElement@tinyxml2@@EAE@XZ DD 0ffffffffH
	DD	FLAT:__unwindfunclet$??1XMLElement@tinyxml2@@EAE@XZ$0
__ehfuncinfo$??1XMLElement@tinyxml2@@EAE@XZ DD 019930522H
	DD	01H
	DD	FLAT:__unwindtable$??1XMLElement@tinyxml2@@EAE@XZ
	DD	2 DUP(00H)
	DD	2 DUP(00H)
	DD	00H
	DD	01H
xdata$x	ENDS
;	COMDAT xdata$x
xdata$x	SEGMENT
__unwindtable$??1XMLAttribute@tinyxml2@@EAE@XZ DD 0ffffffffH
	DD	FLAT:__unwindfunclet$??1XMLAttribute@tinyxml2@@EAE@XZ$0
__ehfuncinfo$??1XMLAttribute@tinyxml2@@EAE@XZ DD 019930522H
	DD	01H
	DD	FLAT:__unwindtable$??1XMLAttribute@tinyxml2@@EAE@XZ
	DD	2 DUP(00H)
	DD	2 DUP(00H)
	DD	00H
	DD	01H
xdata$x	ENDS
;	COMDAT xdata$x
xdata$x	SEGMENT
__unwindtable$??0XMLAttribute@tinyxml2@@AAE@XZ DD 0ffffffffH
	DD	FLAT:__unwindfunclet$??0XMLAttribute@tinyxml2@@AAE@XZ$0
__ehfuncinfo$??0XMLAttribute@tinyxml2@@AAE@XZ DD 019930522H
	DD	01H
	DD	FLAT:__unwindtable$??0XMLAttribute@tinyxml2@@AAE@XZ
	DD	2 DUP(00H)
	DD	2 DUP(00H)
	DD	00H
	DD	01H
xdata$x	ENDS
;	COMDAT xdata$x
xdata$x	SEGMENT
__unwindtable$?ParseDeep@XMLNode@tinyxml2@@MAEPADPADPAVStrPair@2@@Z DD 0ffffffffH
	DD	FLAT:__unwindfunclet$?ParseDeep@XMLNode@tinyxml2@@MAEPADPADPAVStrPair@2@@Z$0
__ehfuncinfo$?ParseDeep@XMLNode@tinyxml2@@MAEPADPADPAVStrPair@2@@Z DD 019930522H
	DD	01H
	DD	FLAT:__unwindtable$?ParseDeep@XMLNode@tinyxml2@@MAEPADPADPAVStrPair@2@@Z
	DD	2 DUP(00H)
	DD	2 DUP(00H)
	DD	00H
	DD	01H
xdata$x	ENDS
;	COMDAT xdata$x
xdata$x	SEGMENT
__unwindtable$??1XMLNode@tinyxml2@@MAE@XZ DD 0ffffffffH
	DD	FLAT:__unwindfunclet$??1XMLNode@tinyxml2@@MAE@XZ$0
__ehfuncinfo$??1XMLNode@tinyxml2@@MAE@XZ DD 019930522H
	DD	01H
	DD	FLAT:__unwindtable$??1XMLNode@tinyxml2@@MAE@XZ
	DD	2 DUP(00H)
	DD	2 DUP(00H)
	DD	00H
	DD	01H
xdata$x	ENDS
; Function compile flags: /Odtp /RTCsu /ZI
;	COMDAT ?Fits@?$LongFitsIntoSizeTMinusOne@$00@tinyxml2@@SA_NK@Z
_TEXT	SEGMENT
tv65 = -196						; size = 4
_value$ = 8						; size = 4
?Fits@?$LongFitsIntoSizeTMinusOne@$00@tinyxml2@@SA_NK@Z PROC ; tinyxml2::LongFitsIntoSizeTMinusOne<1>::Fits, COMDAT
; File f:\cavestory\cavestory\cavestory\tinyxml2.cpp
; Line 1928
  00000	55		 push	 ebp
  00001	8b ec		 mov	 ebp, esp
  00003	81 ec c4 00 00
	00		 sub	 esp, 196		; 000000c4H
  00009	53		 push	 ebx
  0000a	56		 push	 esi
  0000b	57		 push	 edi
  0000c	8d bd 3c ff ff
	ff		 lea	 edi, DWORD PTR [ebp-196]
  00012	b9 31 00 00 00	 mov	 ecx, 49			; 00000031H
  00017	b8 cc cc cc cc	 mov	 eax, -858993460		; ccccccccH
  0001c	f3 ab		 rep stosd
; Line 1929
  0001e	83 7d 08 ff	 cmp	 DWORD PTR _value$[ebp], -1
  00022	73 0c		 jae	 SHORT $LN3@Fits
  00024	c7 85 3c ff ff
	ff 01 00 00 00	 mov	 DWORD PTR tv65[ebp], 1
  0002e	eb 0a		 jmp	 SHORT $LN4@Fits
$LN3@Fits:
  00030	c7 85 3c ff ff
	ff 00 00 00 00	 mov	 DWORD PTR tv65[ebp], 0
$LN4@Fits:
  0003a	8a 85 3c ff ff
	ff		 mov	 al, BYTE PTR tv65[ebp]
; Line 1930
  00040	5f		 pop	 edi
  00041	5e		 pop	 esi
  00042	5b		 pop	 ebx
  00043	8b e5		 mov	 esp, ebp
  00045	5d		 pop	 ebp
  00046	c3		 ret	 0
?Fits@?$LongFitsIntoSizeTMinusOne@$00@tinyxml2@@SA_NK@Z ENDP ; tinyxml2::LongFitsIntoSizeTMinusOne<1>::Fits
_TEXT	ENDS
; Function compile flags: /Odtp /RTCsu /ZI
;	COMDAT ?callfopen@tinyxml2@@YAPAU_iobuf@@PBD0@Z
_TEXT	SEGMENT
_err$ = -24						; size = 4
_fp$ = -12						; size = 4
__$ArrayPad$ = -4					; size = 4
_filepath$ = 8						; size = 4
_mode$ = 12						; size = 4
?callfopen@tinyxml2@@YAPAU_iobuf@@PBD0@Z PROC		; tinyxml2::callfopen, COMDAT
; File f:\cavestory\cavestory\cavestory\tinyxml2.cpp
; Line 1872
  00000	55		 push	 ebp
  00001	8b ec		 mov	 ebp, esp
  00003	81 ec dc 00 00
	00		 sub	 esp, 220		; 000000dcH
  00009	53		 push	 ebx
  0000a	56		 push	 esi
  0000b	57		 push	 edi
  0000c	8d bd 24 ff ff
	ff		 lea	 edi, DWORD PTR [ebp-220]
  00012	b9 37 00 00 00	 mov	 ecx, 55			; 00000037H
  00017	b8 cc cc cc cc	 mov	 eax, -858993460		; ccccccccH
  0001c	f3 ab		 rep stosd
  0001e	a1 00 00 00 00	 mov	 eax, DWORD PTR ___security_cookie
  00023	33 c5		 xor	 eax, ebp
  00025	89 45 fc	 mov	 DWORD PTR __$ArrayPad$[ebp], eax
; Line 1873
  00028	83 7d 08 00	 cmp	 DWORD PTR _filepath$[ebp], 0
  0002c	75 01		 jne	 SHORT $LN3@callfopen
  0002e	cc		 int	 3
$LN3@callfopen:
; Line 1874
  0002f	83 7d 0c 00	 cmp	 DWORD PTR _mode$[ebp], 0
  00033	75 01		 jne	 SHORT $LN2@callfopen
  00035	cc		 int	 3
$LN2@callfopen:
; Line 1876
  00036	c7 45 f4 00 00
	00 00		 mov	 DWORD PTR _fp$[ebp], 0
; Line 1877
  0003d	8b f4		 mov	 esi, esp
  0003f	8b 45 0c	 mov	 eax, DWORD PTR _mode$[ebp]
  00042	50		 push	 eax
  00043	8b 4d 08	 mov	 ecx, DWORD PTR _filepath$[ebp]
  00046	51		 push	 ecx
  00047	8d 55 f4	 lea	 edx, DWORD PTR _fp$[ebp]
  0004a	52		 push	 edx
  0004b	ff 15 00 00 00
	00		 call	 DWORD PTR __imp__fopen_s
  00051	83 c4 0c	 add	 esp, 12			; 0000000cH
  00054	3b f4		 cmp	 esi, esp
  00056	e8 00 00 00 00	 call	 __RTC_CheckEsp
  0005b	89 45 e8	 mov	 DWORD PTR _err$[ebp], eax
; Line 1878
  0005e	83 7d e8 00	 cmp	 DWORD PTR _err$[ebp], 0
  00062	74 04		 je	 SHORT $LN1@callfopen
; Line 1879
  00064	33 c0		 xor	 eax, eax
  00066	eb 03		 jmp	 SHORT $LN4@callfopen
$LN1@callfopen:
; Line 1884
  00068	8b 45 f4	 mov	 eax, DWORD PTR _fp$[ebp]
$LN4@callfopen:
; Line 1885
  0006b	52		 push	 edx
  0006c	8b cd		 mov	 ecx, ebp
  0006e	50		 push	 eax
  0006f	8d 15 00 00 00
	00		 lea	 edx, DWORD PTR $LN8@callfopen
  00075	e8 00 00 00 00	 call	 @_RTC_CheckStackVars@8
  0007a	58		 pop	 eax
  0007b	5a		 pop	 edx
  0007c	5f		 pop	 edi
  0007d	5e		 pop	 esi
  0007e	5b		 pop	 ebx
  0007f	8b 4d fc	 mov	 ecx, DWORD PTR __$ArrayPad$[ebp]
  00082	33 cd		 xor	 ecx, ebp
  00084	e8 00 00 00 00	 call	 @__security_check_cookie@4
  00089	81 c4 dc 00 00
	00		 add	 esp, 220		; 000000dcH
  0008f	3b ec		 cmp	 ebp, esp
  00091	e8 00 00 00 00	 call	 __RTC_CheckEsp
  00096	8b e5		 mov	 esp, ebp
  00098	5d		 pop	 ebp
  00099	c3		 ret	 0
  0009a	8b ff		 npad	 2
$LN8@callfopen:
  0009c	01 00 00 00	 DD	 1
  000a0	00 00 00 00	 DD	 $LN7@callfopen
$LN7@callfopen:
  000a4	f4 ff ff ff	 DD	 -12			; fffffff4H
  000a8	04 00 00 00	 DD	 4
  000ac	00 00 00 00	 DD	 $LN6@callfopen
$LN6@callfopen:
  000b0	66		 DB	 102			; 00000066H
  000b1	70		 DB	 112			; 00000070H
  000b2	00		 DB	 0
?callfopen@tinyxml2@@YAPAU_iobuf@@PBD0@Z ENDP		; tinyxml2::callfopen
_TEXT	ENDS
; Function compile flags: /Odtp /RTCsu /ZI
;	COMDAT ?TIXML_VSNPRINTF@@YAHPADIPBD0@Z
_TEXT	SEGMENT
_result$ = -8						; size = 4
_buffer$ = 8						; size = 4
_size$ = 12						; size = 4
_format$ = 16						; size = 4
_va$ = 20						; size = 4
?TIXML_VSNPRINTF@@YAHPADIPBD0@Z PROC			; TIXML_VSNPRINTF, COMDAT
; File f:\cavestory\cavestory\cavestory\tinyxml2.cpp
; Line 54
  00000	55		 push	 ebp
  00001	8b ec		 mov	 ebp, esp
  00003	81 ec cc 00 00
	00		 sub	 esp, 204		; 000000ccH
  00009	53		 push	 ebx
  0000a	56		 push	 esi
  0000b	57		 push	 edi
  0000c	8d bd 34 ff ff
	ff		 lea	 edi, DWORD PTR [ebp-204]
  00012	b9 33 00 00 00	 mov	 ecx, 51			; 00000033H
  00017	b8 cc cc cc cc	 mov	 eax, -858993460		; ccccccccH
  0001c	f3 ab		 rep stosd
; Line 55
  0001e	8b f4		 mov	 esi, esp
  00020	8b 45 14	 mov	 eax, DWORD PTR _va$[ebp]
  00023	50		 push	 eax
  00024	8b 4d 10	 mov	 ecx, DWORD PTR _format$[ebp]
  00027	51		 push	 ecx
  00028	6a ff		 push	 -1
  0002a	8b 55 0c	 mov	 edx, DWORD PTR _size$[ebp]
  0002d	52		 push	 edx
  0002e	8b 45 08	 mov	 eax, DWORD PTR _buffer$[ebp]
  00031	50		 push	 eax
  00032	ff 15 00 00 00
	00		 call	 DWORD PTR __imp__vsnprintf_s
  00038	83 c4 14	 add	 esp, 20			; 00000014H
  0003b	3b f4		 cmp	 esi, esp
  0003d	e8 00 00 00 00	 call	 __RTC_CheckEsp
  00042	89 45 f8	 mov	 DWORD PTR _result$[ebp], eax
; Line 56
  00045	8b 45 f8	 mov	 eax, DWORD PTR _result$[ebp]
; Line 57
  00048	5f		 pop	 edi
  00049	5e		 pop	 esi
  0004a	5b		 pop	 ebx
  0004b	81 c4 cc 00 00
	00		 add	 esp, 204		; 000000ccH
  00051	3b ec		 cmp	 ebp, esp
  00053	e8 00 00 00 00	 call	 __RTC_CheckEsp
  00058	8b e5		 mov	 esp, ebp
  0005a	5d		 pop	 ebp
  0005b	c3		 ret	 0
?TIXML_VSNPRINTF@@YAHPADIPBD0@Z ENDP			; TIXML_VSNPRINTF
_TEXT	ENDS
; Function compile flags: /Odtp /RTCsu /ZI
;	COMDAT ?TIXML_SNPRINTF@@YAHPADIPBDZZ
_TEXT	SEGMENT
_result$ = -20						; size = 4
_va$ = -8						; size = 4
_buffer$ = 8						; size = 4
_size$ = 12						; size = 4
_format$ = 16						; size = 4
?TIXML_SNPRINTF@@YAHPADIPBDZZ PROC			; TIXML_SNPRINTF, COMDAT
; File f:\cavestory\cavestory\cavestory\tinyxml2.cpp
; Line 45
  00000	55		 push	 ebp
  00001	8b ec		 mov	 ebp, esp
  00003	81 ec d8 00 00
	00		 sub	 esp, 216		; 000000d8H
  00009	53		 push	 ebx
  0000a	56		 push	 esi
  0000b	57		 push	 edi
  0000c	8d bd 28 ff ff
	ff		 lea	 edi, DWORD PTR [ebp-216]
  00012	b9 36 00 00 00	 mov	 ecx, 54			; 00000036H
  00017	b8 cc cc cc cc	 mov	 eax, -858993460		; ccccccccH
  0001c	f3 ab		 rep stosd
; Line 47
  0001e	8d 45 14	 lea	 eax, DWORD PTR _format$[ebp+4]
  00021	89 45 f8	 mov	 DWORD PTR _va$[ebp], eax
; Line 48
  00024	8b f4		 mov	 esi, esp
  00026	8b 45 f8	 mov	 eax, DWORD PTR _va$[ebp]
  00029	50		 push	 eax
  0002a	8b 4d 10	 mov	 ecx, DWORD PTR _format$[ebp]
  0002d	51		 push	 ecx
  0002e	6a ff		 push	 -1
  00030	8b 55 0c	 mov	 edx, DWORD PTR _size$[ebp]
  00033	52		 push	 edx
  00034	8b 45 08	 mov	 eax, DWORD PTR _buffer$[ebp]
  00037	50		 push	 eax
  00038	ff 15 00 00 00
	00		 call	 DWORD PTR __imp__vsnprintf_s
  0003e	83 c4 14	 add	 esp, 20			; 00000014H
  00041	3b f4		 cmp	 esi, esp
  00043	e8 00 00 00 00	 call	 __RTC_CheckEsp
  00048	89 45 ec	 mov	 DWORD PTR _result$[ebp], eax
; Line 49
  0004b	c7 45 f8 00 00
	00 00		 mov	 DWORD PTR _va$[ebp], 0
; Line 50
  00052	8b 45 ec	 mov	 eax, DWORD PTR _result$[ebp]
; Line 51
  00055	5f		 pop	 edi
  00056	5e		 pop	 esi
  00057	5b		 pop	 ebx
  00058	81 c4 d8 00 00
	00		 add	 esp, 216		; 000000d8H
  0005e	3b ec		 cmp	 ebp, esp
  00060	e8 00 00 00 00	 call	 __RTC_CheckEsp
  00065	8b e5		 mov	 esp, ebp
  00067	5d		 pop	 ebp
  00068	c3		 ret	 0
?TIXML_SNPRINTF@@YAHPADIPBDZZ ENDP			; TIXML_SNPRINTF
_TEXT	ENDS
; Function compile flags: /Odtp /RTCsu /ZI
;	COMDAT ??3@YAXPAX0@Z
_TEXT	SEGMENT
___formal$ = 8						; size = 4
___formal$ = 12						; size = 4
??3@YAXPAX0@Z PROC					; operator delete, COMDAT
; File c:\program files (x86)\microsoft visual studio 12.0\vc\include\new
; Line 64
  00000	55		 push	 ebp
  00001	8b ec		 mov	 ebp, esp
  00003	81 ec c0 00 00
	00		 sub	 esp, 192		; 000000c0H
  00009	53		 push	 ebx
  0000a	56		 push	 esi
  0000b	57		 push	 edi
  0000c	8d bd 40 ff ff
	ff		 lea	 edi, DWORD PTR [ebp-192]
  00012	b9 30 00 00 00	 mov	 ecx, 48			; 00000030H
  00017	b8 cc cc cc cc	 mov	 eax, -858993460		; ccccccccH
  0001c	f3 ab		 rep stosd
; Line 65
  0001e	5f		 pop	 edi
  0001f	5e		 pop	 esi
  00020	5b		 pop	 ebx
  00021	8b e5		 mov	 esp, ebp
  00023	5d		 pop	 ebp
  00024	c3		 ret	 0
??3@YAXPAX0@Z ENDP					; operator delete
_TEXT	ENDS
; Function compile flags: /Odtp /RTCsu /ZI
;	COMDAT ??2@YAPAXIPAX@Z
_TEXT	SEGMENT
___formal$ = 8						; size = 4
__Where$ = 12						; size = 4
??2@YAPAXIPAX@Z PROC					; operator new, COMDAT
; File c:\program files (x86)\microsoft visual studio 12.0\vc\include\new
; Line 59
  00000	55		 push	 ebp
  00001	8b ec		 mov	 ebp, esp
  00003	81 ec c0 00 00
	00		 sub	 esp, 192		; 000000c0H
  00009	53		 push	 ebx
  0000a	56		 push	 esi
  0000b	57		 push	 edi
  0000c	8d bd 40 ff ff
	ff		 lea	 edi, DWORD PTR [ebp-192]
  00012	b9 30 00 00 00	 mov	 ecx, 48			; 00000030H
  00017	b8 cc cc cc cc	 mov	 eax, -858993460		; ccccccccH
  0001c	f3 ab		 rep stosd
; Line 60
  0001e	8b 45 0c	 mov	 eax, DWORD PTR __Where$[ebp]
; Line 61
  00021	5f		 pop	 edi
  00022	5e		 pop	 esi
  00023	5b		 pop	 ebx
  00024	8b e5		 mov	 esp, ebp
  00026	5d		 pop	 ebp
  00027	c3		 ret	 0
??2@YAPAXIPAX@Z ENDP					; operator new
_TEXT	ENDS
; Function compile flags: /Odtp /RTCsu /ZI
;	COMDAT ??_GXMLPrinter@tinyxml2@@UAEPAXI@Z
_TEXT	SEGMENT
_this$ = -8						; size = 4
___flags$ = 8						; size = 4
??_GXMLPrinter@tinyxml2@@UAEPAXI@Z PROC			; tinyxml2::XMLPrinter::`scalar deleting destructor', COMDAT
; _this$ = ecx
  00000	55		 push	 ebp
  00001	8b ec		 mov	 ebp, esp
  00003	81 ec cc 00 00
	00		 sub	 esp, 204		; 000000ccH
  00009	53		 push	 ebx
  0000a	56		 push	 esi
  0000b	57		 push	 edi
  0000c	51		 push	 ecx
  0000d	8d bd 34 ff ff
	ff		 lea	 edi, DWORD PTR [ebp-204]
  00013	b9 33 00 00 00	 mov	 ecx, 51			; 00000033H
  00018	b8 cc cc cc cc	 mov	 eax, -858993460		; ccccccccH
  0001d	f3 ab		 rep stosd
  0001f	59		 pop	 ecx
  00020	89 4d f8	 mov	 DWORD PTR _this$[ebp], ecx
  00023	8b 4d f8	 mov	 ecx, DWORD PTR _this$[ebp]
  00026	e8 00 00 00 00	 call	 ??1XMLPrinter@tinyxml2@@UAE@XZ ; tinyxml2::XMLPrinter::~XMLPrinter
  0002b	8b 45 08	 mov	 eax, DWORD PTR ___flags$[ebp]
  0002e	83 e0 01	 and	 eax, 1
  00031	74 0c		 je	 SHORT $LN1@scalar
  00033	8b 45 f8	 mov	 eax, DWORD PTR _this$[ebp]
  00036	50		 push	 eax
  00037	e8 00 00 00 00	 call	 ??3@YAXPAX@Z		; operator delete
  0003c	83 c4 04	 add	 esp, 4
$LN1@scalar:
  0003f	8b 45 f8	 mov	 eax, DWORD PTR _this$[ebp]
  00042	5f		 pop	 edi
  00043	5e		 pop	 esi
  00044	5b		 pop	 ebx
  00045	81 c4 cc 00 00
	00		 add	 esp, 204		; 000000ccH
  0004b	3b ec		 cmp	 ebp, esp
  0004d	e8 00 00 00 00	 call	 __RTC_CheckEsp
  00052	8b e5		 mov	 esp, ebp
  00054	5d		 pop	 ebp
  00055	c2 04 00	 ret	 4
??_GXMLPrinter@tinyxml2@@UAEPAXI@Z ENDP			; tinyxml2::XMLPrinter::`scalar deleting destructor'
_TEXT	ENDS
; Function compile flags: /Odtp /RTCsu /ZI
;	COMDAT ?__autoclassinit2@XMLPrinter@tinyxml2@@QAEXI@Z
_TEXT	SEGMENT
_this$ = -8						; size = 4
_classSize$ = 8						; size = 4
?__autoclassinit2@XMLPrinter@tinyxml2@@QAEXI@Z PROC	; tinyxml2::XMLPrinter::__autoclassinit2, COMDAT
; _this$ = ecx
  00000	55		 push	 ebp
  00001	8b ec		 mov	 ebp, esp
  00003	81 ec cc 00 00
	00		 sub	 esp, 204		; 000000ccH
  00009	53		 push	 ebx
  0000a	56		 push	 esi
  0000b	57		 push	 edi
  0000c	51		 push	 ecx
  0000d	8d bd 34 ff ff
	ff		 lea	 edi, DWORD PTR [ebp-204]
  00013	b9 33 00 00 00	 mov	 ecx, 51			; 00000033H
  00018	b8 cc cc cc cc	 mov	 eax, -858993460		; ccccccccH
  0001d	f3 ab		 rep stosd
  0001f	59		 pop	 ecx
  00020	89 4d f8	 mov	 DWORD PTR _this$[ebp], ecx
  00023	8b 45 08	 mov	 eax, DWORD PTR _classSize$[ebp]
  00026	50		 push	 eax
  00027	6a 00		 push	 0
  00029	8b 4d f8	 mov	 ecx, DWORD PTR _this$[ebp]
  0002c	51		 push	 ecx
  0002d	e8 00 00 00 00	 call	 _memset
  00032	83 c4 0c	 add	 esp, 12			; 0000000cH
  00035	5f		 pop	 edi
  00036	5e		 pop	 esi
  00037	5b		 pop	 ebx
  00038	81 c4 cc 00 00
	00		 add	 esp, 204		; 000000ccH
  0003e	3b ec		 cmp	 ebp, esp
  00040	e8 00 00 00 00	 call	 __RTC_CheckEsp
  00045	8b e5		 mov	 esp, ebp
  00047	5d		 pop	 ebp
  00048	c2 04 00	 ret	 4
?__autoclassinit2@XMLPrinter@tinyxml2@@QAEXI@Z ENDP	; tinyxml2::XMLPrinter::__autoclassinit2
_TEXT	ENDS
; Function compile flags: /Odtp /RTCsu /ZI
;	COMDAT ?EnsureCapacity@?$DynArray@D$0BE@@tinyxml2@@AAEXH@Z
_TEXT	SEGMENT
$T1 = -248						; size = 4
$T2 = -236						; size = 4
_newMem$3 = -32						; size = 4
_newAllocated$4 = -20					; size = 4
_this$ = -8						; size = 4
_cap$ = 8						; size = 4
?EnsureCapacity@?$DynArray@D$0BE@@tinyxml2@@AAEXH@Z PROC ; tinyxml2::DynArray<char,20>::EnsureCapacity, COMDAT
; _this$ = ecx
; File f:\cavestory\cavestory\cavestory\tinyxml2.h
; Line 271
  00000	55		 push	 ebp
  00001	8b ec		 mov	 ebp, esp
  00003	81 ec fc 00 00
	00		 sub	 esp, 252		; 000000fcH
  00009	53		 push	 ebx
  0000a	56		 push	 esi
  0000b	57		 push	 edi
  0000c	51		 push	 ecx
  0000d	8d bd 04 ff ff
	ff		 lea	 edi, DWORD PTR [ebp-252]
  00013	b9 3f 00 00 00	 mov	 ecx, 63			; 0000003fH
  00018	b8 cc cc cc cc	 mov	 eax, -858993460		; ccccccccH
  0001d	f3 ab		 rep stosd
  0001f	59		 pop	 ecx
  00020	89 4d f8	 mov	 DWORD PTR _this$[ebp], ecx
; Line 272
  00023	83 7d 08 00	 cmp	 DWORD PTR _cap$[ebp], 0
  00027	7f 01		 jg	 SHORT $LN4@EnsureCapa
  00029	cc		 int	 3
$LN4@EnsureCapa:
; Line 273
  0002a	8b 45 f8	 mov	 eax, DWORD PTR _this$[ebp]
  0002d	8b 4d 08	 mov	 ecx, DWORD PTR _cap$[ebp]
  00030	3b 48 18	 cmp	 ecx, DWORD PTR [eax+24]
  00033	7e 7e		 jle	 SHORT $LN5@EnsureCapa
; Line 274
  00035	81 7d 08 ff ff
	ff 3f		 cmp	 DWORD PTR _cap$[ebp], 1073741823 ; 3fffffffH
  0003c	7e 01		 jle	 SHORT $LN2@EnsureCapa
  0003e	cc		 int	 3
$LN2@EnsureCapa:
; Line 275
  0003f	8b 45 08	 mov	 eax, DWORD PTR _cap$[ebp]
  00042	d1 e0		 shl	 eax, 1
  00044	89 45 ec	 mov	 DWORD PTR _newAllocated$4[ebp], eax
; Line 276
  00047	8b 45 ec	 mov	 eax, DWORD PTR _newAllocated$4[ebp]
  0004a	50		 push	 eax
  0004b	e8 00 00 00 00	 call	 ??_U@YAPAXI@Z		; operator new[]
  00050	83 c4 04	 add	 esp, 4
  00053	89 85 08 ff ff
	ff		 mov	 DWORD PTR $T1[ebp], eax
  00059	8b 8d 08 ff ff
	ff		 mov	 ecx, DWORD PTR $T1[ebp]
  0005f	89 4d e0	 mov	 DWORD PTR _newMem$3[ebp], ecx
; Line 277
  00062	8b 45 f8	 mov	 eax, DWORD PTR _this$[ebp]
  00065	8b 48 1c	 mov	 ecx, DWORD PTR [eax+28]
  00068	51		 push	 ecx
  00069	8b 55 f8	 mov	 edx, DWORD PTR _this$[ebp]
  0006c	8b 02		 mov	 eax, DWORD PTR [edx]
  0006e	50		 push	 eax
  0006f	8b 4d e0	 mov	 ecx, DWORD PTR _newMem$3[ebp]
  00072	51		 push	 ecx
  00073	e8 00 00 00 00	 call	 _memcpy
  00078	83 c4 0c	 add	 esp, 12			; 0000000cH
; Line 278
  0007b	8b 45 f8	 mov	 eax, DWORD PTR _this$[ebp]
  0007e	83 c0 04	 add	 eax, 4
  00081	8b 4d f8	 mov	 ecx, DWORD PTR _this$[ebp]
  00084	39 01		 cmp	 DWORD PTR [ecx], eax
  00086	74 1a		 je	 SHORT $LN1@EnsureCapa
; Line 279
  00088	8b 45 f8	 mov	 eax, DWORD PTR _this$[ebp]
  0008b	8b 08		 mov	 ecx, DWORD PTR [eax]
  0008d	89 8d 14 ff ff
	ff		 mov	 DWORD PTR $T2[ebp], ecx
  00093	8b 95 14 ff ff
	ff		 mov	 edx, DWORD PTR $T2[ebp]
  00099	52		 push	 edx
  0009a	e8 00 00 00 00	 call	 ??_V@YAXPAX@Z		; operator delete[]
  0009f	83 c4 04	 add	 esp, 4
$LN1@EnsureCapa:
; Line 281
  000a2	8b 45 f8	 mov	 eax, DWORD PTR _this$[ebp]
  000a5	8b 4d e0	 mov	 ecx, DWORD PTR _newMem$3[ebp]
  000a8	89 08		 mov	 DWORD PTR [eax], ecx
; Line 282
  000aa	8b 45 f8	 mov	 eax, DWORD PTR _this$[ebp]
  000ad	8b 4d ec	 mov	 ecx, DWORD PTR _newAllocated$4[ebp]
  000b0	89 48 18	 mov	 DWORD PTR [eax+24], ecx
$LN5@EnsureCapa:
; Line 284
  000b3	5f		 pop	 edi
  000b4	5e		 pop	 esi
  000b5	5b		 pop	 ebx
  000b6	81 c4 fc 00 00
	00		 add	 esp, 252		; 000000fcH
  000bc	3b ec		 cmp	 ebp, esp
  000be	e8 00 00 00 00	 call	 __RTC_CheckEsp
  000c3	8b e5		 mov	 esp, ebp
  000c5	5d		 pop	 ebp
  000c6	c2 04 00	 ret	 4
?EnsureCapacity@?$DynArray@D$0BE@@tinyxml2@@AAEXH@Z ENDP ; tinyxml2::DynArray<char,20>::EnsureCapacity
_TEXT	ENDS
; Function compile flags: /Odtp /RTCsu /ZI
;	COMDAT ?Size@?$DynArray@D$0BE@@tinyxml2@@QBEHXZ
_TEXT	SEGMENT
_this$ = -8						; size = 4
?Size@?$DynArray@D$0BE@@tinyxml2@@QBEHXZ PROC		; tinyxml2::DynArray<char,20>::Size, COMDAT
; _this$ = ecx
; File f:\cavestory\cavestory\cavestory\tinyxml2.h
; Line 247
  00000	55		 push	 ebp
  00001	8b ec		 mov	 ebp, esp
  00003	81 ec cc 00 00
	00		 sub	 esp, 204		; 000000ccH
  00009	53		 push	 ebx
  0000a	56		 push	 esi
  0000b	57		 push	 edi
  0000c	51		 push	 ecx
  0000d	8d bd 34 ff ff
	ff		 lea	 edi, DWORD PTR [ebp-204]
  00013	b9 33 00 00 00	 mov	 ecx, 51			; 00000033H
  00018	b8 cc cc cc cc	 mov	 eax, -858993460		; ccccccccH
  0001d	f3 ab		 rep stosd
  0001f	59		 pop	 ecx
  00020	89 4d f8	 mov	 DWORD PTR _this$[ebp], ecx
; Line 248
  00023	8b 45 f8	 mov	 eax, DWORD PTR _this$[ebp]
  00026	83 78 1c 00	 cmp	 DWORD PTR [eax+28], 0
  0002a	7d 01		 jge	 SHORT $LN1@Size
  0002c	cc		 int	 3
$LN1@Size:
; Line 249
  0002d	8b 45 f8	 mov	 eax, DWORD PTR _this$[ebp]
  00030	8b 40 1c	 mov	 eax, DWORD PTR [eax+28]
; Line 250
  00033	5f		 pop	 edi
  00034	5e		 pop	 esi
  00035	5b		 pop	 ebx
  00036	8b e5		 mov	 esp, ebp
  00038	5d		 pop	 ebp
  00039	c3		 ret	 0
?Size@?$DynArray@D$0BE@@tinyxml2@@QBEHXZ ENDP		; tinyxml2::DynArray<char,20>::Size
_TEXT	ENDS
; Function compile flags: /Odtp /RTCsu /ZI
;	COMDAT ??A?$DynArray@D$0BE@@tinyxml2@@QAEAADH@Z
_TEXT	SEGMENT
tv67 = -208						; size = 4
_this$ = -8						; size = 4
_i$ = 8							; size = 4
??A?$DynArray@D$0BE@@tinyxml2@@QAEAADH@Z PROC		; tinyxml2::DynArray<char,20>::operator[], COMDAT
; _this$ = ecx
; File f:\cavestory\cavestory\cavestory\tinyxml2.h
; Line 232
  00000	55		 push	 ebp
  00001	8b ec		 mov	 ebp, esp
  00003	81 ec d0 00 00
	00		 sub	 esp, 208		; 000000d0H
  00009	53		 push	 ebx
  0000a	56		 push	 esi
  0000b	57		 push	 edi
  0000c	51		 push	 ecx
  0000d	8d bd 30 ff ff
	ff		 lea	 edi, DWORD PTR [ebp-208]
  00013	b9 34 00 00 00	 mov	 ecx, 52			; 00000034H
  00018	b8 cc cc cc cc	 mov	 eax, -858993460		; ccccccccH
  0001d	f3 ab		 rep stosd
  0001f	59		 pop	 ecx
  00020	89 4d f8	 mov	 DWORD PTR _this$[ebp], ecx
; Line 233
  00023	83 7d 08 00	 cmp	 DWORD PTR _i$[ebp], 0
  00027	7c 17		 jl	 SHORT $LN4@operator
  00029	8b 45 f8	 mov	 eax, DWORD PTR _this$[ebp]
  0002c	8b 4d 08	 mov	 ecx, DWORD PTR _i$[ebp]
  0002f	3b 48 1c	 cmp	 ecx, DWORD PTR [eax+28]
  00032	7d 0c		 jge	 SHORT $LN4@operator
  00034	c7 85 30 ff ff
	ff 01 00 00 00	 mov	 DWORD PTR tv67[ebp], 1
  0003e	eb 0a		 jmp	 SHORT $LN5@operator
$LN4@operator:
  00040	c7 85 30 ff ff
	ff 00 00 00 00	 mov	 DWORD PTR tv67[ebp], 0
$LN5@operator:
  0004a	83 bd 30 ff ff
	ff 00		 cmp	 DWORD PTR tv67[ebp], 0
  00051	75 01		 jne	 SHORT $LN1@operator
  00053	cc		 int	 3
$LN1@operator:
; Line 234
  00054	8b 45 f8	 mov	 eax, DWORD PTR _this$[ebp]
  00057	8b 00		 mov	 eax, DWORD PTR [eax]
  00059	03 45 08	 add	 eax, DWORD PTR _i$[ebp]
; Line 235
  0005c	5f		 pop	 edi
  0005d	5e		 pop	 esi
  0005e	5b		 pop	 ebx
  0005f	8b e5		 mov	 esp, ebp
  00061	5d		 pop	 ebp
  00062	c2 04 00	 ret	 4
??A?$DynArray@D$0BE@@tinyxml2@@QAEAADH@Z ENDP		; tinyxml2::DynArray<char,20>::operator[]
_TEXT	ENDS
; Function compile flags: /Odtp /RTCsu /ZI
;	COMDAT ?PushArr@?$DynArray@D$0BE@@tinyxml2@@QAEPADH@Z
_TEXT	SEGMENT
_ret$ = -20						; size = 4
_this$ = -8						; size = 4
_count$ = 8						; size = 4
?PushArr@?$DynArray@D$0BE@@tinyxml2@@QAEPADH@Z PROC	; tinyxml2::DynArray<char,20>::PushArr, COMDAT
; _this$ = ecx
; File f:\cavestory\cavestory\cavestory\tinyxml2.h
; Line 209
  00000	55		 push	 ebp
  00001	8b ec		 mov	 ebp, esp
  00003	81 ec d8 00 00
	00		 sub	 esp, 216		; 000000d8H
  00009	53		 push	 ebx
  0000a	56		 push	 esi
  0000b	57		 push	 edi
  0000c	51		 push	 ecx
  0000d	8d bd 28 ff ff
	ff		 lea	 edi, DWORD PTR [ebp-216]
  00013	b9 36 00 00 00	 mov	 ecx, 54			; 00000036H
  00018	b8 cc cc cc cc	 mov	 eax, -858993460		; ccccccccH
  0001d	f3 ab		 rep stosd
  0001f	59		 pop	 ecx
  00020	89 4d f8	 mov	 DWORD PTR _this$[ebp], ecx
; Line 210
  00023	83 7d 08 00	 cmp	 DWORD PTR _count$[ebp], 0
  00027	7d 01		 jge	 SHORT $LN2@PushArr
  00029	cc		 int	 3
$LN2@PushArr:
; Line 211
  0002a	b8 ff ff ff 7f	 mov	 eax, 2147483647		; 7fffffffH
  0002f	2b 45 08	 sub	 eax, DWORD PTR _count$[ebp]
  00032	8b 4d f8	 mov	 ecx, DWORD PTR _this$[ebp]
  00035	39 41 1c	 cmp	 DWORD PTR [ecx+28], eax
  00038	7e 01		 jle	 SHORT $LN1@PushArr
  0003a	cc		 int	 3
$LN1@PushArr:
; Line 212
  0003b	8b 45 f8	 mov	 eax, DWORD PTR _this$[ebp]
  0003e	8b 48 1c	 mov	 ecx, DWORD PTR [eax+28]
  00041	03 4d 08	 add	 ecx, DWORD PTR _count$[ebp]
  00044	51		 push	 ecx
  00045	8b 4d f8	 mov	 ecx, DWORD PTR _this$[ebp]
  00048	e8 00 00 00 00	 call	 ?EnsureCapacity@?$DynArray@D$0BE@@tinyxml2@@AAEXH@Z ; tinyxml2::DynArray<char,20>::EnsureCapacity
; Line 213
  0004d	8b 45 f8	 mov	 eax, DWORD PTR _this$[ebp]
  00050	8b 08		 mov	 ecx, DWORD PTR [eax]
  00052	8b 55 f8	 mov	 edx, DWORD PTR _this$[ebp]
  00055	03 4a 1c	 add	 ecx, DWORD PTR [edx+28]
  00058	89 4d ec	 mov	 DWORD PTR _ret$[ebp], ecx
; Line 214
  0005b	8b 45 f8	 mov	 eax, DWORD PTR _this$[ebp]
  0005e	8b 48 1c	 mov	 ecx, DWORD PTR [eax+28]
  00061	03 4d 08	 add	 ecx, DWORD PTR _count$[ebp]
  00064	8b 55 f8	 mov	 edx, DWORD PTR _this$[ebp]
  00067	89 4a 1c	 mov	 DWORD PTR [edx+28], ecx
; Line 215
  0006a	8b 45 ec	 mov	 eax, DWORD PTR _ret$[ebp]
; Line 216
  0006d	5f		 pop	 edi
  0006e	5e		 pop	 esi
  0006f	5b		 pop	 ebx
  00070	81 c4 d8 00 00
	00		 add	 esp, 216		; 000000d8H
  00076	3b ec		 cmp	 ebp, esp
  00078	e8 00 00 00 00	 call	 __RTC_CheckEsp
  0007d	8b e5		 mov	 esp, ebp
  0007f	5d		 pop	 ebp
  00080	c2 04 00	 ret	 4
?PushArr@?$DynArray@D$0BE@@tinyxml2@@QAEPADH@Z ENDP	; tinyxml2::DynArray<char,20>::PushArr
_TEXT	ENDS
; Function compile flags: /Odtp /RTCsu /ZI
;	COMDAT ?Push@?$DynArray@D$0BE@@tinyxml2@@QAEXD@Z
_TEXT	SEGMENT
_this$ = -8						; size = 4
_t$ = 8							; size = 1
?Push@?$DynArray@D$0BE@@tinyxml2@@QAEXD@Z PROC		; tinyxml2::DynArray<char,20>::Push, COMDAT
; _this$ = ecx
; File f:\cavestory\cavestory\cavestory\tinyxml2.h
; Line 203
  00000	55		 push	 ebp
  00001	8b ec		 mov	 ebp, esp
  00003	81 ec cc 00 00
	00		 sub	 esp, 204		; 000000ccH
  00009	53		 push	 ebx
  0000a	56		 push	 esi
  0000b	57		 push	 edi
  0000c	51		 push	 ecx
  0000d	8d bd 34 ff ff
	ff		 lea	 edi, DWORD PTR [ebp-204]
  00013	b9 33 00 00 00	 mov	 ecx, 51			; 00000033H
  00018	b8 cc cc cc cc	 mov	 eax, -858993460		; ccccccccH
  0001d	f3 ab		 rep stosd
  0001f	59		 pop	 ecx
  00020	89 4d f8	 mov	 DWORD PTR _this$[ebp], ecx
; Line 204
  00023	8b 45 f8	 mov	 eax, DWORD PTR _this$[ebp]
  00026	81 78 1c ff ff
	ff 7f		 cmp	 DWORD PTR [eax+28], 2147483647 ; 7fffffffH
  0002d	7c 01		 jl	 SHORT $LN1@Push
  0002f	cc		 int	 3
$LN1@Push:
; Line 205
  00030	8b 45 f8	 mov	 eax, DWORD PTR _this$[ebp]
  00033	8b 48 1c	 mov	 ecx, DWORD PTR [eax+28]
  00036	83 c1 01	 add	 ecx, 1
  00039	51		 push	 ecx
  0003a	8b 4d f8	 mov	 ecx, DWORD PTR _this$[ebp]
  0003d	e8 00 00 00 00	 call	 ?EnsureCapacity@?$DynArray@D$0BE@@tinyxml2@@AAEXH@Z ; tinyxml2::DynArray<char,20>::EnsureCapacity
; Line 206
  00042	8b 45 f8	 mov	 eax, DWORD PTR _this$[ebp]
  00045	8b 48 1c	 mov	 ecx, DWORD PTR [eax+28]
  00048	8b 55 f8	 mov	 edx, DWORD PTR _this$[ebp]
  0004b	8b 02		 mov	 eax, DWORD PTR [edx]
  0004d	8a 55 08	 mov	 dl, BYTE PTR _t$[ebp]
  00050	88 14 08	 mov	 BYTE PTR [eax+ecx], dl
  00053	8b 45 f8	 mov	 eax, DWORD PTR _this$[ebp]
  00056	8b 48 1c	 mov	 ecx, DWORD PTR [eax+28]
  00059	83 c1 01	 add	 ecx, 1
  0005c	8b 55 f8	 mov	 edx, DWORD PTR _this$[ebp]
  0005f	89 4a 1c	 mov	 DWORD PTR [edx+28], ecx
; Line 207
  00062	5f		 pop	 edi
  00063	5e		 pop	 esi
  00064	5b		 pop	 ebx
  00065	81 c4 cc 00 00
	00		 add	 esp, 204		; 000000ccH
  0006b	3b ec		 cmp	 ebp, esp
  0006d	e8 00 00 00 00	 call	 __RTC_CheckEsp
  00072	8b e5		 mov	 esp, ebp
  00074	5d		 pop	 ebp
  00075	c2 04 00	 ret	 4
?Push@?$DynArray@D$0BE@@tinyxml2@@QAEXD@Z ENDP		; tinyxml2::DynArray<char,20>::Push
_TEXT	ENDS
; Function compile flags: /Odtp /RTCsu /ZI
;	COMDAT ??1?$DynArray@D$0BE@@tinyxml2@@QAE@XZ
_TEXT	SEGMENT
$T1 = -212						; size = 4
_this$ = -8						; size = 4
??1?$DynArray@D$0BE@@tinyxml2@@QAE@XZ PROC		; tinyxml2::DynArray<char,20>::~DynArray<char,20>, COMDAT
; _this$ = ecx
; File f:\cavestory\cavestory\cavestory\tinyxml2.h
; Line 193
  00000	55		 push	 ebp
  00001	8b ec		 mov	 ebp, esp
  00003	81 ec d8 00 00
	00		 sub	 esp, 216		; 000000d8H
  00009	53		 push	 ebx
  0000a	56		 push	 esi
  0000b	57		 push	 edi
  0000c	51		 push	 ecx
  0000d	8d bd 28 ff ff
	ff		 lea	 edi, DWORD PTR [ebp-216]
  00013	b9 36 00 00 00	 mov	 ecx, 54			; 00000036H
  00018	b8 cc cc cc cc	 mov	 eax, -858993460		; ccccccccH
  0001d	f3 ab		 rep stosd
  0001f	59		 pop	 ecx
  00020	89 4d f8	 mov	 DWORD PTR _this$[ebp], ecx
; Line 194
  00023	8b 45 f8	 mov	 eax, DWORD PTR _this$[ebp]
  00026	83 c0 04	 add	 eax, 4
  00029	8b 4d f8	 mov	 ecx, DWORD PTR _this$[ebp]
  0002c	39 01		 cmp	 DWORD PTR [ecx], eax
  0002e	74 1a		 je	 SHORT $LN2@DynArray
; Line 195
  00030	8b 45 f8	 mov	 eax, DWORD PTR _this$[ebp]
  00033	8b 08		 mov	 ecx, DWORD PTR [eax]
  00035	89 8d 2c ff ff
	ff		 mov	 DWORD PTR $T1[ebp], ecx
  0003b	8b 95 2c ff ff
	ff		 mov	 edx, DWORD PTR $T1[ebp]
  00041	52		 push	 edx
  00042	e8 00 00 00 00	 call	 ??_V@YAXPAX@Z		; operator delete[]
  00047	83 c4 04	 add	 esp, 4
$LN2@DynArray:
; Line 197
  0004a	5f		 pop	 edi
  0004b	5e		 pop	 esi
  0004c	5b		 pop	 ebx
  0004d	81 c4 d8 00 00
	00		 add	 esp, 216		; 000000d8H
  00053	3b ec		 cmp	 ebp, esp
  00055	e8 00 00 00 00	 call	 __RTC_CheckEsp
  0005a	8b e5		 mov	 esp, ebp
  0005c	5d		 pop	 ebp
  0005d	c3		 ret	 0
??1?$DynArray@D$0BE@@tinyxml2@@QAE@XZ ENDP		; tinyxml2::DynArray<char,20>::~DynArray<char,20>
_TEXT	ENDS
; Function compile flags: /Odtp /RTCsu /ZI
;	COMDAT ??0?$DynArray@D$0BE@@tinyxml2@@QAE@XZ
_TEXT	SEGMENT
_this$ = -8						; size = 4
??0?$DynArray@D$0BE@@tinyxml2@@QAE@XZ PROC		; tinyxml2::DynArray<char,20>::DynArray<char,20>, COMDAT
; _this$ = ecx
; File f:\cavestory\cavestory\cavestory\tinyxml2.h
; Line 187
  00000	55		 push	 ebp
  00001	8b ec		 mov	 ebp, esp
  00003	81 ec cc 00 00
	00		 sub	 esp, 204		; 000000ccH
  00009	53		 push	 ebx
  0000a	56		 push	 esi
  0000b	57		 push	 edi
  0000c	51		 push	 ecx
  0000d	8d bd 34 ff ff
	ff		 lea	 edi, DWORD PTR [ebp-204]
  00013	b9 33 00 00 00	 mov	 ecx, 51			; 00000033H
  00018	b8 cc cc cc cc	 mov	 eax, -858993460		; ccccccccH
  0001d	f3 ab		 rep stosd
  0001f	59		 pop	 ecx
  00020	89 4d f8	 mov	 DWORD PTR _this$[ebp], ecx
; Line 188
  00023	8b 45 f8	 mov	 eax, DWORD PTR _this$[ebp]
  00026	83 c0 04	 add	 eax, 4
  00029	8b 4d f8	 mov	 ecx, DWORD PTR _this$[ebp]
  0002c	89 01		 mov	 DWORD PTR [ecx], eax
; Line 189
  0002e	8b 45 f8	 mov	 eax, DWORD PTR _this$[ebp]
  00031	c7 40 18 14 00
	00 00		 mov	 DWORD PTR [eax+24], 20	; 00000014H
; Line 190
  00038	8b 45 f8	 mov	 eax, DWORD PTR _this$[ebp]
  0003b	c7 40 1c 00 00
	00 00		 mov	 DWORD PTR [eax+28], 0
; Line 191
  00042	8b 45 f8	 mov	 eax, DWORD PTR _this$[ebp]
  00045	5f		 pop	 edi
  00046	5e		 pop	 esi
  00047	5b		 pop	 ebx
  00048	8b e5		 mov	 esp, ebp
  0004a	5d		 pop	 ebp
  0004b	c3		 ret	 0
??0?$DynArray@D$0BE@@tinyxml2@@QAE@XZ ENDP		; tinyxml2::DynArray<char,20>::DynArray<char,20>
_TEXT	ENDS
; Function compile flags: /Odtp /RTCsu /ZI
;	COMDAT ?PrintString@XMLPrinter@tinyxml2@@AAEXPBD_N@Z
_TEXT	SEGMENT
tv87 = -280						; size = 4
tv71 = -280						; size = 4
_i$1 = -80						; size = 4
_entityPatternPrinted$2 = -65				; size = 1
_toPrint$3 = -56					; size = 4
_delta$4 = -44						; size = 4
_flag$5 = -32						; size = 4
_q$ = -20						; size = 4
_this$ = -8						; size = 4
_p$ = 8							; size = 4
_restricted$ = 12					; size = 1
?PrintString@XMLPrinter@tinyxml2@@AAEXPBD_N@Z PROC	; tinyxml2::XMLPrinter::PrintString, COMDAT
; _this$ = ecx
; File f:\cavestory\cavestory\cavestory\tinyxml2.cpp
; Line 2159
  00000	55		 push	 ebp
  00001	8b ec		 mov	 ebp, esp
  00003	81 ec 18 01 00
	00		 sub	 esp, 280		; 00000118H
  00009	53		 push	 ebx
  0000a	56		 push	 esi
  0000b	57		 push	 edi
  0000c	51		 push	 ecx
  0000d	8d bd e8 fe ff
	ff		 lea	 edi, DWORD PTR [ebp-280]
  00013	b9 46 00 00 00	 mov	 ecx, 70			; 00000046H
  00018	b8 cc cc cc cc	 mov	 eax, -858993460		; ccccccccH
  0001d	f3 ab		 rep stosd
  0001f	59		 pop	 ecx
  00020	89 4d f8	 mov	 DWORD PTR _this$[ebp], ecx
; Line 2161
  00023	8b 45 08	 mov	 eax, DWORD PTR _p$[ebp]
  00026	89 45 ec	 mov	 DWORD PTR _q$[ebp], eax
; Line 2163
  00029	8b 45 f8	 mov	 eax, DWORD PTR _this$[ebp]
  0002c	0f b6 48 4c	 movzx	 ecx, BYTE PTR [eax+76]
  00030	85 c9		 test	 ecx, ecx
  00032	0f 84 55 01 00
	00		 je	 $LN18@PrintStrin
; Line 2164
  00038	0f b6 45 0c	 movzx	 eax, BYTE PTR _restricted$[ebp]
  0003c	85 c0		 test	 eax, eax
  0003e	74 11		 je	 SHORT $LN21@PrintStrin
  00040	8b 4d f8	 mov	 ecx, DWORD PTR _this$[ebp]
  00043	81 c1 8e 00 00
	00		 add	 ecx, 142		; 0000008eH
  00049	89 8d e8 fe ff
	ff		 mov	 DWORD PTR tv71[ebp], ecx
  0004f	eb 0c		 jmp	 SHORT $LN22@PrintStrin
$LN21@PrintStrin:
  00051	8b 55 f8	 mov	 edx, DWORD PTR _this$[ebp]
  00054	83 c2 4e	 add	 edx, 78			; 0000004eH
  00057	89 95 e8 fe ff
	ff		 mov	 DWORD PTR tv71[ebp], edx
$LN22@PrintStrin:
  0005d	8b 85 e8 fe ff
	ff		 mov	 eax, DWORD PTR tv71[ebp]
  00063	89 45 e0	 mov	 DWORD PTR _flag$5[ebp], eax
$LN17@PrintStrin:
; Line 2165
  00066	8b 45 ec	 mov	 eax, DWORD PTR _q$[ebp]
  00069	0f be 08	 movsx	 ecx, BYTE PTR [eax]
  0006c	85 c9		 test	 ecx, ecx
  0006e	0f 84 19 01 00
	00		 je	 $LN18@PrintStrin
; Line 2166
  00074	8b 45 08	 mov	 eax, DWORD PTR _p$[ebp]
  00077	3b 45 ec	 cmp	 eax, DWORD PTR _q$[ebp]
  0007a	76 01		 jbe	 SHORT $LN15@PrintStrin
  0007c	cc		 int	 3
$LN15@PrintStrin:
; Line 2168
  0007d	8b 45 ec	 mov	 eax, DWORD PTR _q$[ebp]
  00080	0f be 08	 movsx	 ecx, BYTE PTR [eax]
  00083	85 c9		 test	 ecx, ecx
  00085	0f 8e eb 00 00
	00		 jle	 $LN14@PrintStrin
  0008b	8b 45 ec	 mov	 eax, DWORD PTR _q$[ebp]
  0008e	0f be 08	 movsx	 ecx, BYTE PTR [eax]
  00091	83 f9 40	 cmp	 ecx, 64			; 00000040H
  00094	0f 8d dc 00 00
	00		 jge	 $LN14@PrintStrin
; Line 2172
  0009a	8b 45 ec	 mov	 eax, DWORD PTR _q$[ebp]
  0009d	0f b6 08	 movzx	 ecx, BYTE PTR [eax]
  000a0	8b 55 e0	 mov	 edx, DWORD PTR _flag$5[ebp]
  000a3	0f b6 04 0a	 movzx	 eax, BYTE PTR [edx+ecx]
  000a7	85 c0		 test	 eax, eax
  000a9	0f 84 c7 00 00
	00		 je	 $LN14@PrintStrin
$LN12@PrintStrin:
; Line 2173
  000af	8b 45 08	 mov	 eax, DWORD PTR _p$[ebp]
  000b2	3b 45 ec	 cmp	 eax, DWORD PTR _q$[ebp]
  000b5	73 54		 jae	 SHORT $LN11@PrintStrin
; Line 2174
  000b7	8b 45 ec	 mov	 eax, DWORD PTR _q$[ebp]
  000ba	2b 45 08	 sub	 eax, DWORD PTR _p$[ebp]
  000bd	89 45 d4	 mov	 DWORD PTR _delta$4[ebp], eax
; Line 2176
  000c0	81 7d d4 ff ff
	ff 7f		 cmp	 DWORD PTR _delta$4[ebp], 2147483647 ; 7fffffffH
  000c7	76 0c		 jbe	 SHORT $LN23@PrintStrin
  000c9	c7 85 e8 fe ff
	ff ff ff ff 7f	 mov	 DWORD PTR tv87[ebp], 2147483647 ; 7fffffffH
  000d3	eb 09		 jmp	 SHORT $LN24@PrintStrin
$LN23@PrintStrin:
  000d5	8b 45 d4	 mov	 eax, DWORD PTR _delta$4[ebp]
  000d8	89 85 e8 fe ff
	ff		 mov	 DWORD PTR tv87[ebp], eax
$LN24@PrintStrin:
  000de	8b 8d e8 fe ff
	ff		 mov	 ecx, DWORD PTR tv87[ebp]
  000e4	89 4d c8	 mov	 DWORD PTR _toPrint$3[ebp], ecx
; Line 2177
  000e7	8b 45 08	 mov	 eax, DWORD PTR _p$[ebp]
  000ea	50		 push	 eax
  000eb	8b 4d c8	 mov	 ecx, DWORD PTR _toPrint$3[ebp]
  000ee	51		 push	 ecx
  000ef	68 00 00 00 00	 push	 OFFSET ??_C@_04EBNJJJJI@?$CF?4?$CKs?$AA@
  000f4	8b 55 f8	 mov	 edx, DWORD PTR _this$[ebp]
  000f7	52		 push	 edx
  000f8	e8 00 00 00 00	 call	 ?Print@XMLPrinter@tinyxml2@@IAAXPBDZZ ; tinyxml2::XMLPrinter::Print
  000fd	83 c4 10	 add	 esp, 16			; 00000010H
; Line 2178
  00100	8b 45 08	 mov	 eax, DWORD PTR _p$[ebp]
  00103	03 45 c8	 add	 eax, DWORD PTR _toPrint$3[ebp]
  00106	89 45 08	 mov	 DWORD PTR _p$[ebp], eax
; Line 2179
  00109	eb a4		 jmp	 SHORT $LN12@PrintStrin
$LN11@PrintStrin:
; Line 2180
  0010b	c6 45 bf 00	 mov	 BYTE PTR _entityPatternPrinted$2[ebp], 0
; Line 2181
  0010f	c7 45 b0 00 00
	00 00		 mov	 DWORD PTR _i$1[ebp], 0
  00116	eb 09		 jmp	 SHORT $LN10@PrintStrin
$LN9@PrintStrin:
  00118	8b 45 b0	 mov	 eax, DWORD PTR _i$1[ebp]
  0011b	83 c0 01	 add	 eax, 1
  0011e	89 45 b0	 mov	 DWORD PTR _i$1[ebp], eax
$LN10@PrintStrin:
  00121	83 7d b0 05	 cmp	 DWORD PTR _i$1[ebp], 5
  00125	7d 39		 jge	 SHORT $LN8@PrintStrin
; Line 2182
  00127	6b 45 b0 0c	 imul	 eax, DWORD PTR _i$1[ebp], 12
  0012b	0f be 88 08 00
	00 00		 movsx	 ecx, BYTE PTR _entities[eax+8]
  00132	8b 55 ec	 mov	 edx, DWORD PTR _q$[ebp]
  00135	0f be 02	 movsx	 eax, BYTE PTR [edx]
  00138	3b c8		 cmp	 ecx, eax
  0013a	75 22		 jne	 SHORT $LN7@PrintStrin
; Line 2183
  0013c	6b 45 b0 0c	 imul	 eax, DWORD PTR _i$1[ebp], 12
  00140	8b 88 00 00 00
	00		 mov	 ecx, DWORD PTR _entities[eax]
  00146	51		 push	 ecx
  00147	68 00 00 00 00	 push	 OFFSET ??_C@_04IKLFLEHL@?$CG?$CFs?$DL?$AA@
  0014c	8b 55 f8	 mov	 edx, DWORD PTR _this$[ebp]
  0014f	52		 push	 edx
  00150	e8 00 00 00 00	 call	 ?Print@XMLPrinter@tinyxml2@@IAAXPBDZZ ; tinyxml2::XMLPrinter::Print
  00155	83 c4 0c	 add	 esp, 12			; 0000000cH
; Line 2184
  00158	c6 45 bf 01	 mov	 BYTE PTR _entityPatternPrinted$2[ebp], 1
; Line 2185
  0015c	eb 02		 jmp	 SHORT $LN8@PrintStrin
$LN7@PrintStrin:
; Line 2187
  0015e	eb b8		 jmp	 SHORT $LN9@PrintStrin
$LN8@PrintStrin:
; Line 2188
  00160	0f b6 45 bf	 movzx	 eax, BYTE PTR _entityPatternPrinted$2[ebp]
  00164	85 c0		 test	 eax, eax
  00166	75 05		 jne	 SHORT $LN6@PrintStrin
; Line 2190
  00168	33 c0		 xor	 eax, eax
  0016a	75 01		 jne	 SHORT $LN6@PrintStrin
  0016c	cc		 int	 3
$LN6@PrintStrin:
; Line 2192
  0016d	8b 45 08	 mov	 eax, DWORD PTR _p$[ebp]
  00170	83 c0 01	 add	 eax, 1
  00173	89 45 08	 mov	 DWORD PTR _p$[ebp], eax
$LN14@PrintStrin:
; Line 2195
  00176	8b 45 ec	 mov	 eax, DWORD PTR _q$[ebp]
  00179	83 c0 01	 add	 eax, 1
  0017c	89 45 ec	 mov	 DWORD PTR _q$[ebp], eax
; Line 2196
  0017f	8b 45 08	 mov	 eax, DWORD PTR _p$[ebp]
  00182	3b 45 ec	 cmp	 eax, DWORD PTR _q$[ebp]
  00185	76 01		 jbe	 SHORT $LN4@PrintStrin
  00187	cc		 int	 3
$LN4@PrintStrin:
; Line 2197
  00188	e9 d9 fe ff ff	 jmp	 $LN17@PrintStrin
$LN18@PrintStrin:
; Line 2201
  0018d	8b 45 08	 mov	 eax, DWORD PTR _p$[ebp]
  00190	3b 45 ec	 cmp	 eax, DWORD PTR _q$[ebp]
  00193	76 01		 jbe	 SHORT $LN3@PrintStrin
  00195	cc		 int	 3
$LN3@PrintStrin:
; Line 2202
  00196	8b 45 f8	 mov	 eax, DWORD PTR _this$[ebp]
  00199	0f b6 48 4c	 movzx	 ecx, BYTE PTR [eax+76]
  0019d	85 c9		 test	 ecx, ecx
  0019f	74 08		 je	 SHORT $LN1@PrintStrin
  001a1	8b 45 08	 mov	 eax, DWORD PTR _p$[ebp]
  001a4	3b 45 ec	 cmp	 eax, DWORD PTR _q$[ebp]
  001a7	73 15		 jae	 SHORT $LN19@PrintStrin
$LN1@PrintStrin:
; Line 2203
  001a9	8b 45 08	 mov	 eax, DWORD PTR _p$[ebp]
  001ac	50		 push	 eax
  001ad	68 00 00 00 00	 push	 OFFSET ??_C@_02DKCKIIND@?$CFs?$AA@
  001b2	8b 4d f8	 mov	 ecx, DWORD PTR _this$[ebp]
  001b5	51		 push	 ecx
  001b6	e8 00 00 00 00	 call	 ?Print@XMLPrinter@tinyxml2@@IAAXPBDZZ ; tinyxml2::XMLPrinter::Print
  001bb	83 c4 0c	 add	 esp, 12			; 0000000cH
$LN19@PrintStrin:
; Line 2205
  001be	5f		 pop	 edi
  001bf	5e		 pop	 esi
  001c0	5b		 pop	 ebx
  001c1	81 c4 18 01 00
	00		 add	 esp, 280		; 00000118H
  001c7	3b ec		 cmp	 ebp, esp
  001c9	e8 00 00 00 00	 call	 __RTC_CheckEsp
  001ce	8b e5		 mov	 esp, ebp
  001d0	5d		 pop	 ebp
  001d1	c2 08 00	 ret	 8
?PrintString@XMLPrinter@tinyxml2@@AAEXPBD_N@Z ENDP	; tinyxml2::XMLPrinter::PrintString
_TEXT	ENDS
; Function compile flags: /Odtp /RTCsu /ZI
;	COMDAT ?EnsureCapacity@?$DynArray@PBD$09@tinyxml2@@AAEXH@Z
_TEXT	SEGMENT
$T1 = -248						; size = 4
$T2 = -236						; size = 4
_newMem$3 = -32						; size = 4
_newAllocated$4 = -20					; size = 4
_this$ = -8						; size = 4
_cap$ = 8						; size = 4
?EnsureCapacity@?$DynArray@PBD$09@tinyxml2@@AAEXH@Z PROC ; tinyxml2::DynArray<char const *,10>::EnsureCapacity, COMDAT
; _this$ = ecx
; File f:\cavestory\cavestory\cavestory\tinyxml2.h
; Line 271
  00000	55		 push	 ebp
  00001	8b ec		 mov	 ebp, esp
  00003	81 ec fc 00 00
	00		 sub	 esp, 252		; 000000fcH
  00009	53		 push	 ebx
  0000a	56		 push	 esi
  0000b	57		 push	 edi
  0000c	51		 push	 ecx
  0000d	8d bd 04 ff ff
	ff		 lea	 edi, DWORD PTR [ebp-252]
  00013	b9 3f 00 00 00	 mov	 ecx, 63			; 0000003fH
  00018	b8 cc cc cc cc	 mov	 eax, -858993460		; ccccccccH
  0001d	f3 ab		 rep stosd
  0001f	59		 pop	 ecx
  00020	89 4d f8	 mov	 DWORD PTR _this$[ebp], ecx
; Line 272
  00023	83 7d 08 00	 cmp	 DWORD PTR _cap$[ebp], 0
  00027	7f 01		 jg	 SHORT $LN4@EnsureCapa
  00029	cc		 int	 3
$LN4@EnsureCapa:
; Line 273
  0002a	8b 45 f8	 mov	 eax, DWORD PTR _this$[ebp]
  0002d	8b 4d 08	 mov	 ecx, DWORD PTR _cap$[ebp]
  00030	3b 48 2c	 cmp	 ecx, DWORD PTR [eax+44]
  00033	0f 8e 91 00 00
	00		 jle	 $LN5@EnsureCapa
; Line 274
  00039	81 7d 08 ff ff
	ff 3f		 cmp	 DWORD PTR _cap$[ebp], 1073741823 ; 3fffffffH
  00040	7e 01		 jle	 SHORT $LN2@EnsureCapa
  00042	cc		 int	 3
$LN2@EnsureCapa:
; Line 275
  00043	8b 45 08	 mov	 eax, DWORD PTR _cap$[ebp]
  00046	d1 e0		 shl	 eax, 1
  00048	89 45 ec	 mov	 DWORD PTR _newAllocated$4[ebp], eax
; Line 276
  0004b	33 c9		 xor	 ecx, ecx
  0004d	8b 45 ec	 mov	 eax, DWORD PTR _newAllocated$4[ebp]
  00050	ba 04 00 00 00	 mov	 edx, 4
  00055	f7 e2		 mul	 edx
  00057	0f 90 c1	 seto	 cl
  0005a	f7 d9		 neg	 ecx
  0005c	0b c8		 or	 ecx, eax
  0005e	51		 push	 ecx
  0005f	e8 00 00 00 00	 call	 ??_U@YAPAXI@Z		; operator new[]
  00064	83 c4 04	 add	 esp, 4
  00067	89 85 08 ff ff
	ff		 mov	 DWORD PTR $T1[ebp], eax
  0006d	8b 85 08 ff ff
	ff		 mov	 eax, DWORD PTR $T1[ebp]
  00073	89 45 e0	 mov	 DWORD PTR _newMem$3[ebp], eax
; Line 277
  00076	8b 45 f8	 mov	 eax, DWORD PTR _this$[ebp]
  00079	8b 48 30	 mov	 ecx, DWORD PTR [eax+48]
  0007c	c1 e1 02	 shl	 ecx, 2
  0007f	51		 push	 ecx
  00080	8b 55 f8	 mov	 edx, DWORD PTR _this$[ebp]
  00083	8b 02		 mov	 eax, DWORD PTR [edx]
  00085	50		 push	 eax
  00086	8b 4d e0	 mov	 ecx, DWORD PTR _newMem$3[ebp]
  00089	51		 push	 ecx
  0008a	e8 00 00 00 00	 call	 _memcpy
  0008f	83 c4 0c	 add	 esp, 12			; 0000000cH
; Line 278
  00092	8b 45 f8	 mov	 eax, DWORD PTR _this$[ebp]
  00095	83 c0 04	 add	 eax, 4
  00098	8b 4d f8	 mov	 ecx, DWORD PTR _this$[ebp]
  0009b	39 01		 cmp	 DWORD PTR [ecx], eax
  0009d	74 1a		 je	 SHORT $LN1@EnsureCapa
; Line 279
  0009f	8b 45 f8	 mov	 eax, DWORD PTR _this$[ebp]
  000a2	8b 08		 mov	 ecx, DWORD PTR [eax]
  000a4	89 8d 14 ff ff
	ff		 mov	 DWORD PTR $T2[ebp], ecx
  000aa	8b 95 14 ff ff
	ff		 mov	 edx, DWORD PTR $T2[ebp]
  000b0	52		 push	 edx
  000b1	e8 00 00 00 00	 call	 ??_V@YAXPAX@Z		; operator delete[]
  000b6	83 c4 04	 add	 esp, 4
$LN1@EnsureCapa:
; Line 281
  000b9	8b 45 f8	 mov	 eax, DWORD PTR _this$[ebp]
  000bc	8b 4d e0	 mov	 ecx, DWORD PTR _newMem$3[ebp]
  000bf	89 08		 mov	 DWORD PTR [eax], ecx
; Line 282
  000c1	8b 45 f8	 mov	 eax, DWORD PTR _this$[ebp]
  000c4	8b 4d ec	 mov	 ecx, DWORD PTR _newAllocated$4[ebp]
  000c7	89 48 2c	 mov	 DWORD PTR [eax+44], ecx
$LN5@EnsureCapa:
; Line 284
  000ca	5f		 pop	 edi
  000cb	5e		 pop	 esi
  000cc	5b		 pop	 ebx
  000cd	81 c4 fc 00 00
	00		 add	 esp, 252		; 000000fcH
  000d3	3b ec		 cmp	 ebp, esp
  000d5	e8 00 00 00 00	 call	 __RTC_CheckEsp
  000da	8b e5		 mov	 esp, ebp
  000dc	5d		 pop	 ebp
  000dd	c2 04 00	 ret	 4
?EnsureCapacity@?$DynArray@PBD$09@tinyxml2@@AAEXH@Z ENDP ; tinyxml2::DynArray<char const *,10>::EnsureCapacity
_TEXT	ENDS
; Function compile flags: /Odtp /RTCsu /ZI
;	COMDAT ?Pop@?$DynArray@PBD$09@tinyxml2@@QAEPBDXZ
_TEXT	SEGMENT
tv71 = -208						; size = 4
_this$ = -8						; size = 4
?Pop@?$DynArray@PBD$09@tinyxml2@@QAEPBDXZ PROC		; tinyxml2::DynArray<char const *,10>::Pop, COMDAT
; _this$ = ecx
; File f:\cavestory\cavestory\cavestory\tinyxml2.h
; Line 218
  00000	55		 push	 ebp
  00001	8b ec		 mov	 ebp, esp
  00003	81 ec d0 00 00
	00		 sub	 esp, 208		; 000000d0H
  00009	53		 push	 ebx
  0000a	56		 push	 esi
  0000b	57		 push	 edi
  0000c	51		 push	 ecx
  0000d	8d bd 30 ff ff
	ff		 lea	 edi, DWORD PTR [ebp-208]
  00013	b9 34 00 00 00	 mov	 ecx, 52			; 00000034H
  00018	b8 cc cc cc cc	 mov	 eax, -858993460		; ccccccccH
  0001d	f3 ab		 rep stosd
  0001f	59		 pop	 ecx
  00020	89 4d f8	 mov	 DWORD PTR _this$[ebp], ecx
; Line 219
  00023	8b 45 f8	 mov	 eax, DWORD PTR _this$[ebp]
  00026	83 78 30 00	 cmp	 DWORD PTR [eax+48], 0
  0002a	7f 01		 jg	 SHORT $LN1@Pop
  0002c	cc		 int	 3
$LN1@Pop:
; Line 220
  0002d	8b 45 f8	 mov	 eax, DWORD PTR _this$[ebp]
  00030	8b 48 30	 mov	 ecx, DWORD PTR [eax+48]
  00033	83 e9 01	 sub	 ecx, 1
  00036	89 8d 30 ff ff
	ff		 mov	 DWORD PTR tv71[ebp], ecx
  0003c	8b 55 f8	 mov	 edx, DWORD PTR _this$[ebp]
  0003f	8b 85 30 ff ff
	ff		 mov	 eax, DWORD PTR tv71[ebp]
  00045	89 42 30	 mov	 DWORD PTR [edx+48], eax
  00048	8b 4d f8	 mov	 ecx, DWORD PTR _this$[ebp]
  0004b	8b 11		 mov	 edx, DWORD PTR [ecx]
  0004d	8b 85 30 ff ff
	ff		 mov	 eax, DWORD PTR tv71[ebp]
  00053	8b 04 82	 mov	 eax, DWORD PTR [edx+eax*4]
; Line 221
  00056	5f		 pop	 edi
  00057	5e		 pop	 esi
  00058	5b		 pop	 ebx
  00059	8b e5		 mov	 esp, ebp
  0005b	5d		 pop	 ebp
  0005c	c3		 ret	 0
?Pop@?$DynArray@PBD$09@tinyxml2@@QAEPBDXZ ENDP		; tinyxml2::DynArray<char const *,10>::Pop
_TEXT	ENDS
; Function compile flags: /Odtp /RTCsu /ZI
;	COMDAT ?Push@?$DynArray@PBD$09@tinyxml2@@QAEXPBD@Z
_TEXT	SEGMENT
_this$ = -8						; size = 4
_t$ = 8							; size = 4
?Push@?$DynArray@PBD$09@tinyxml2@@QAEXPBD@Z PROC	; tinyxml2::DynArray<char const *,10>::Push, COMDAT
; _this$ = ecx
; File f:\cavestory\cavestory\cavestory\tinyxml2.h
; Line 203
  00000	55		 push	 ebp
  00001	8b ec		 mov	 ebp, esp
  00003	81 ec cc 00 00
	00		 sub	 esp, 204		; 000000ccH
  00009	53		 push	 ebx
  0000a	56		 push	 esi
  0000b	57		 push	 edi
  0000c	51		 push	 ecx
  0000d	8d bd 34 ff ff
	ff		 lea	 edi, DWORD PTR [ebp-204]
  00013	b9 33 00 00 00	 mov	 ecx, 51			; 00000033H
  00018	b8 cc cc cc cc	 mov	 eax, -858993460		; ccccccccH
  0001d	f3 ab		 rep stosd
  0001f	59		 pop	 ecx
  00020	89 4d f8	 mov	 DWORD PTR _this$[ebp], ecx
; Line 204
  00023	8b 45 f8	 mov	 eax, DWORD PTR _this$[ebp]
  00026	81 78 30 ff ff
	ff 7f		 cmp	 DWORD PTR [eax+48], 2147483647 ; 7fffffffH
  0002d	7c 01		 jl	 SHORT $LN1@Push
  0002f	cc		 int	 3
$LN1@Push:
; Line 205
  00030	8b 45 f8	 mov	 eax, DWORD PTR _this$[ebp]
  00033	8b 48 30	 mov	 ecx, DWORD PTR [eax+48]
  00036	83 c1 01	 add	 ecx, 1
  00039	51		 push	 ecx
  0003a	8b 4d f8	 mov	 ecx, DWORD PTR _this$[ebp]
  0003d	e8 00 00 00 00	 call	 ?EnsureCapacity@?$DynArray@PBD$09@tinyxml2@@AAEXH@Z ; tinyxml2::DynArray<char const *,10>::EnsureCapacity
; Line 206
  00042	8b 45 f8	 mov	 eax, DWORD PTR _this$[ebp]
  00045	8b 48 30	 mov	 ecx, DWORD PTR [eax+48]
  00048	8b 55 f8	 mov	 edx, DWORD PTR _this$[ebp]
  0004b	8b 02		 mov	 eax, DWORD PTR [edx]
  0004d	8b 55 08	 mov	 edx, DWORD PTR _t$[ebp]
  00050	89 14 88	 mov	 DWORD PTR [eax+ecx*4], edx
  00053	8b 45 f8	 mov	 eax, DWORD PTR _this$[ebp]
  00056	8b 48 30	 mov	 ecx, DWORD PTR [eax+48]
  00059	83 c1 01	 add	 ecx, 1
  0005c	8b 55 f8	 mov	 edx, DWORD PTR _this$[ebp]
  0005f	89 4a 30	 mov	 DWORD PTR [edx+48], ecx
; Line 207
  00062	5f		 pop	 edi
  00063	5e		 pop	 esi
  00064	5b		 pop	 ebx
  00065	81 c4 cc 00 00
	00		 add	 esp, 204		; 000000ccH
  0006b	3b ec		 cmp	 ebp, esp
  0006d	e8 00 00 00 00	 call	 __RTC_CheckEsp
  00072	8b e5		 mov	 esp, ebp
  00074	5d		 pop	 ebp
  00075	c2 04 00	 ret	 4
?Push@?$DynArray@PBD$09@tinyxml2@@QAEXPBD@Z ENDP	; tinyxml2::DynArray<char const *,10>::Push
_TEXT	ENDS
; Function compile flags: /Odtp /RTCsu /ZI
;	COMDAT ??1?$DynArray@PBD$09@tinyxml2@@QAE@XZ
_TEXT	SEGMENT
$T1 = -212						; size = 4
_this$ = -8						; size = 4
??1?$DynArray@PBD$09@tinyxml2@@QAE@XZ PROC		; tinyxml2::DynArray<char const *,10>::~DynArray<char const *,10>, COMDAT
; _this$ = ecx
; File f:\cavestory\cavestory\cavestory\tinyxml2.h
; Line 193
  00000	55		 push	 ebp
  00001	8b ec		 mov	 ebp, esp
  00003	81 ec d8 00 00
	00		 sub	 esp, 216		; 000000d8H
  00009	53		 push	 ebx
  0000a	56		 push	 esi
  0000b	57		 push	 edi
  0000c	51		 push	 ecx
  0000d	8d bd 28 ff ff
	ff		 lea	 edi, DWORD PTR [ebp-216]
  00013	b9 36 00 00 00	 mov	 ecx, 54			; 00000036H
  00018	b8 cc cc cc cc	 mov	 eax, -858993460		; ccccccccH
  0001d	f3 ab		 rep stosd
  0001f	59		 pop	 ecx
  00020	89 4d f8	 mov	 DWORD PTR _this$[ebp], ecx
; Line 194
  00023	8b 45 f8	 mov	 eax, DWORD PTR _this$[ebp]
  00026	83 c0 04	 add	 eax, 4
  00029	8b 4d f8	 mov	 ecx, DWORD PTR _this$[ebp]
  0002c	39 01		 cmp	 DWORD PTR [ecx], eax
  0002e	74 1a		 je	 SHORT $LN2@DynArray
; Line 195
  00030	8b 45 f8	 mov	 eax, DWORD PTR _this$[ebp]
  00033	8b 08		 mov	 ecx, DWORD PTR [eax]
  00035	89 8d 2c ff ff
	ff		 mov	 DWORD PTR $T1[ebp], ecx
  0003b	8b 95 2c ff ff
	ff		 mov	 edx, DWORD PTR $T1[ebp]
  00041	52		 push	 edx
  00042	e8 00 00 00 00	 call	 ??_V@YAXPAX@Z		; operator delete[]
  00047	83 c4 04	 add	 esp, 4
$LN2@DynArray:
; Line 197
  0004a	5f		 pop	 edi
  0004b	5e		 pop	 esi
  0004c	5b		 pop	 ebx
  0004d	81 c4 d8 00 00
	00		 add	 esp, 216		; 000000d8H
  00053	3b ec		 cmp	 ebp, esp
  00055	e8 00 00 00 00	 call	 __RTC_CheckEsp
  0005a	8b e5		 mov	 esp, ebp
  0005c	5d		 pop	 ebp
  0005d	c3		 ret	 0
??1?$DynArray@PBD$09@tinyxml2@@QAE@XZ ENDP		; tinyxml2::DynArray<char const *,10>::~DynArray<char const *,10>
_TEXT	ENDS
; Function compile flags: /Odtp /RTCsu /ZI
;	COMDAT ??0?$DynArray@PBD$09@tinyxml2@@QAE@XZ
_TEXT	SEGMENT
_this$ = -8						; size = 4
??0?$DynArray@PBD$09@tinyxml2@@QAE@XZ PROC		; tinyxml2::DynArray<char const *,10>::DynArray<char const *,10>, COMDAT
; _this$ = ecx
; File f:\cavestory\cavestory\cavestory\tinyxml2.h
; Line 187
  00000	55		 push	 ebp
  00001	8b ec		 mov	 ebp, esp
  00003	81 ec cc 00 00
	00		 sub	 esp, 204		; 000000ccH
  00009	53		 push	 ebx
  0000a	56		 push	 esi
  0000b	57		 push	 edi
  0000c	51		 push	 ecx
  0000d	8d bd 34 ff ff
	ff		 lea	 edi, DWORD PTR [ebp-204]
  00013	b9 33 00 00 00	 mov	 ecx, 51			; 00000033H
  00018	b8 cc cc cc cc	 mov	 eax, -858993460		; ccccccccH
  0001d	f3 ab		 rep stosd
  0001f	59		 pop	 ecx
  00020	89 4d f8	 mov	 DWORD PTR _this$[ebp], ecx
; Line 188
  00023	8b 45 f8	 mov	 eax, DWORD PTR _this$[ebp]
  00026	83 c0 04	 add	 eax, 4
  00029	8b 4d f8	 mov	 ecx, DWORD PTR _this$[ebp]
  0002c	89 01		 mov	 DWORD PTR [ecx], eax
; Line 189
  0002e	8b 45 f8	 mov	 eax, DWORD PTR _this$[ebp]
  00031	c7 40 2c 0a 00
	00 00		 mov	 DWORD PTR [eax+44], 10	; 0000000aH
; Line 190
  00038	8b 45 f8	 mov	 eax, DWORD PTR _this$[ebp]
  0003b	c7 40 30 00 00
	00 00		 mov	 DWORD PTR [eax+48], 0
; Line 191
  00042	8b 45 f8	 mov	 eax, DWORD PTR _this$[ebp]
  00045	5f		 pop	 edi
  00046	5e		 pop	 esi
  00047	5b		 pop	 ebx
  00048	8b e5		 mov	 esp, ebp
  0004a	5d		 pop	 ebp
  0004b	c3		 ret	 0
??0?$DynArray@PBD$09@tinyxml2@@QAE@XZ ENDP		; tinyxml2::DynArray<char const *,10>::DynArray<char const *,10>
_TEXT	ENDS
; Function compile flags: /Odtp /RTCsu /ZI
;	COMDAT ?SealElementIfJustOpened@XMLPrinter@tinyxml2@@IAEXXZ
_TEXT	SEGMENT
_this$ = -8						; size = 4
?SealElementIfJustOpened@XMLPrinter@tinyxml2@@IAEXXZ PROC ; tinyxml2::XMLPrinter::SealElementIfJustOpened, COMDAT
; _this$ = ecx
; File f:\cavestory\cavestory\cavestory\tinyxml2.cpp
; Line 2307
  00000	55		 push	 ebp
  00001	8b ec		 mov	 ebp, esp
  00003	81 ec cc 00 00
	00		 sub	 esp, 204		; 000000ccH
  00009	53		 push	 ebx
  0000a	56		 push	 esi
  0000b	57		 push	 edi
  0000c	51		 push	 ecx
  0000d	8d bd 34 ff ff
	ff		 lea	 edi, DWORD PTR [ebp-204]
  00013	b9 33 00 00 00	 mov	 ecx, 51			; 00000033H
  00018	b8 cc cc cc cc	 mov	 eax, -858993460		; ccccccccH
  0001d	f3 ab		 rep stosd
  0001f	59		 pop	 ecx
  00020	89 4d f8	 mov	 DWORD PTR _this$[ebp], ecx
; Line 2308
  00023	8b 45 f8	 mov	 eax, DWORD PTR _this$[ebp]
  00026	0f b6 48 04	 movzx	 ecx, BYTE PTR [eax+4]
  0002a	85 c9		 test	 ecx, ecx
  0002c	75 02		 jne	 SHORT $LN1@SealElemen
; Line 2309
  0002e	eb 18		 jmp	 SHORT $LN2@SealElemen
$LN1@SealElemen:
; Line 2311
  00030	8b 45 f8	 mov	 eax, DWORD PTR _this$[ebp]
  00033	c6 40 04 00	 mov	 BYTE PTR [eax+4], 0
; Line 2312
  00037	68 00 00 00 00	 push	 OFFSET ??_C@_01PPODPGHN@?$DO?$AA@
  0003c	8b 45 f8	 mov	 eax, DWORD PTR _this$[ebp]
  0003f	50		 push	 eax
  00040	e8 00 00 00 00	 call	 ?Print@XMLPrinter@tinyxml2@@IAAXPBDZZ ; tinyxml2::XMLPrinter::Print
  00045	83 c4 08	 add	 esp, 8
$LN2@SealElemen:
; Line 2313
  00048	5f		 pop	 edi
  00049	5e		 pop	 esi
  0004a	5b		 pop	 ebx
  0004b	81 c4 cc 00 00
	00		 add	 esp, 204		; 000000ccH
  00051	3b ec		 cmp	 ebp, esp
  00053	e8 00 00 00 00	 call	 __RTC_CheckEsp
  00058	8b e5		 mov	 esp, ebp
  0005a	5d		 pop	 ebp
  0005b	c3		 ret	 0
?SealElementIfJustOpened@XMLPrinter@tinyxml2@@IAEXXZ ENDP ; tinyxml2::XMLPrinter::SealElementIfJustOpened
_TEXT	ENDS
; Function compile flags: /Odtp /RTCsu /ZI
;	COMDAT ?Print@XMLPrinter@tinyxml2@@IAAXPBDZZ
_TEXT	SEGMENT
tv90 = -232						; size = 4
_p$1 = -32						; size = 4
_len$2 = -20						; size = 4
_va$ = -8						; size = 4
_this$ = 8						; size = 4
_format$ = 12						; size = 4
?Print@XMLPrinter@tinyxml2@@IAAXPBDZZ PROC		; tinyxml2::XMLPrinter::Print, COMDAT
; File f:\cavestory\cavestory\cavestory\tinyxml2.cpp
; Line 2129
  00000	55		 push	 ebp
  00001	8b ec		 mov	 ebp, esp
  00003	81 ec e8 00 00
	00		 sub	 esp, 232		; 000000e8H
  00009	53		 push	 ebx
  0000a	56		 push	 esi
  0000b	57		 push	 edi
  0000c	8d bd 18 ff ff
	ff		 lea	 edi, DWORD PTR [ebp-232]
  00012	b9 3a 00 00 00	 mov	 ecx, 58			; 0000003aH
  00017	b8 cc cc cc cc	 mov	 eax, -858993460		; ccccccccH
  0001c	f3 ab		 rep stosd
; Line 2131
  0001e	8d 45 10	 lea	 eax, DWORD PTR _format$[ebp+4]
  00021	89 45 f8	 mov	 DWORD PTR _va$[ebp], eax
; Line 2133
  00024	8b 45 08	 mov	 eax, DWORD PTR _this$[ebp]
  00027	83 78 40 00	 cmp	 DWORD PTR [eax+64], 0
  0002b	74 26		 je	 SHORT $LN4@Print
; Line 2134
  0002d	8b f4		 mov	 esi, esp
  0002f	8b 45 f8	 mov	 eax, DWORD PTR _va$[ebp]
  00032	50		 push	 eax
  00033	8b 4d 0c	 mov	 ecx, DWORD PTR _format$[ebp]
  00036	51		 push	 ecx
  00037	8b 55 08	 mov	 edx, DWORD PTR _this$[ebp]
  0003a	8b 42 40	 mov	 eax, DWORD PTR [edx+64]
  0003d	50		 push	 eax
  0003e	ff 15 00 00 00
	00		 call	 DWORD PTR __imp__vfprintf
  00044	83 c4 0c	 add	 esp, 12			; 0000000cH
  00047	3b f4		 cmp	 esi, esp
  00049	e8 00 00 00 00	 call	 __RTC_CheckEsp
; Line 2136
  0004e	e9 bd 00 00 00	 jmp	 $LN3@Print
$LN4@Print:
; Line 2137
  00053	8b f4		 mov	 esi, esp
  00055	8b 45 f8	 mov	 eax, DWORD PTR _va$[ebp]
  00058	50		 push	 eax
  00059	8b 4d 0c	 mov	 ecx, DWORD PTR _format$[ebp]
  0005c	51		 push	 ecx
  0005d	ff 15 00 00 00
	00		 call	 DWORD PTR __imp___vscprintf
  00063	83 c4 08	 add	 esp, 8
  00066	3b f4		 cmp	 esi, esp
  00068	e8 00 00 00 00	 call	 __RTC_CheckEsp
  0006d	89 45 ec	 mov	 DWORD PTR _len$2[ebp], eax
; Line 2139
  00070	c7 45 f8 00 00
	00 00		 mov	 DWORD PTR _va$[ebp], 0
; Line 2140
  00077	83 7d ec 00	 cmp	 DWORD PTR _len$2[ebp], 0
  0007b	7d 01		 jge	 SHORT $LN2@Print
  0007d	cc		 int	 3
$LN2@Print:
; Line 2141
  0007e	8d 45 10	 lea	 eax, DWORD PTR _format$[ebp+4]
  00081	89 45 f8	 mov	 DWORD PTR _va$[ebp], eax
; Line 2142
  00084	8b 4d 08	 mov	 ecx, DWORD PTR _this$[ebp]
  00087	81 c1 d0 00 00
	00		 add	 ecx, 208		; 000000d0H
  0008d	e8 00 00 00 00	 call	 ?Size@?$DynArray@D$0BE@@tinyxml2@@QBEHXZ ; tinyxml2::DynArray<char,20>::Size
  00092	85 c0		 test	 eax, eax
  00094	7e 33		 jle	 SHORT $LN7@Print
  00096	8b 4d 08	 mov	 ecx, DWORD PTR _this$[ebp]
  00099	81 c1 d0 00 00
	00		 add	 ecx, 208		; 000000d0H
  0009f	e8 00 00 00 00	 call	 ?Size@?$DynArray@D$0BE@@tinyxml2@@QBEHXZ ; tinyxml2::DynArray<char,20>::Size
  000a4	83 e8 01	 sub	 eax, 1
  000a7	50		 push	 eax
  000a8	8b 4d 08	 mov	 ecx, DWORD PTR _this$[ebp]
  000ab	81 c1 d0 00 00
	00		 add	 ecx, 208		; 000000d0H
  000b1	e8 00 00 00 00	 call	 ??A?$DynArray@D$0BE@@tinyxml2@@QAEAADH@Z ; tinyxml2::DynArray<char,20>::operator[]
  000b6	0f be 00	 movsx	 eax, BYTE PTR [eax]
  000b9	85 c0		 test	 eax, eax
  000bb	75 0c		 jne	 SHORT $LN7@Print
  000bd	c7 85 18 ff ff
	ff 01 00 00 00	 mov	 DWORD PTR tv90[ebp], 1
  000c7	eb 0a		 jmp	 SHORT $LN8@Print
$LN7@Print:
  000c9	c7 85 18 ff ff
	ff 00 00 00 00	 mov	 DWORD PTR tv90[ebp], 0
$LN8@Print:
  000d3	83 bd 18 ff ff
	ff 00		 cmp	 DWORD PTR tv90[ebp], 0
  000da	75 01		 jne	 SHORT $LN1@Print
  000dc	cc		 int	 3
$LN1@Print:
; Line 2143
  000dd	8b 45 ec	 mov	 eax, DWORD PTR _len$2[ebp]
  000e0	50		 push	 eax
  000e1	8b 4d 08	 mov	 ecx, DWORD PTR _this$[ebp]
  000e4	81 c1 d0 00 00
	00		 add	 ecx, 208		; 000000d0H
  000ea	e8 00 00 00 00	 call	 ?PushArr@?$DynArray@D$0BE@@tinyxml2@@QAEPADH@Z ; tinyxml2::DynArray<char,20>::PushArr
  000ef	83 e8 01	 sub	 eax, 1
  000f2	89 45 e0	 mov	 DWORD PTR _p$1[ebp], eax
; Line 2144
  000f5	8b 45 f8	 mov	 eax, DWORD PTR _va$[ebp]
  000f8	50		 push	 eax
  000f9	8b 4d 0c	 mov	 ecx, DWORD PTR _format$[ebp]
  000fc	51		 push	 ecx
  000fd	8b 55 ec	 mov	 edx, DWORD PTR _len$2[ebp]
  00100	83 c2 01	 add	 edx, 1
  00103	52		 push	 edx
  00104	8b 45 e0	 mov	 eax, DWORD PTR _p$1[ebp]
  00107	50		 push	 eax
  00108	e8 00 00 00 00	 call	 ?TIXML_VSNPRINTF@@YAHPADIPBD0@Z ; TIXML_VSNPRINTF
  0010d	83 c4 10	 add	 esp, 16			; 00000010H
$LN3@Print:
; Line 2146
  00110	c7 45 f8 00 00
	00 00		 mov	 DWORD PTR _va$[ebp], 0
; Line 2147
  00117	5f		 pop	 edi
  00118	5e		 pop	 esi
  00119	5b		 pop	 ebx
  0011a	81 c4 e8 00 00
	00		 add	 esp, 232		; 000000e8H
  00120	3b ec		 cmp	 ebp, esp
  00122	e8 00 00 00 00	 call	 __RTC_CheckEsp
  00127	8b e5		 mov	 esp, ebp
  00129	5d		 pop	 ebp
  0012a	c3		 ret	 0
?Print@XMLPrinter@tinyxml2@@IAAXPBDZZ ENDP		; tinyxml2::XMLPrinter::Print
_TEXT	ENDS
; Function compile flags: /Odtp /RTCsu /ZI
;	COMDAT ?PrintSpace@XMLPrinter@tinyxml2@@MAEXH@Z
_TEXT	SEGMENT
_i$1 = -20						; size = 4
_this$ = -8						; size = 4
_depth$ = 8						; size = 4
?PrintSpace@XMLPrinter@tinyxml2@@MAEXH@Z PROC		; tinyxml2::XMLPrinter::PrintSpace, COMDAT
; _this$ = ecx
; File f:\cavestory\cavestory\cavestory\tinyxml2.cpp
; Line 2151
  00000	55		 push	 ebp
  00001	8b ec		 mov	 ebp, esp
  00003	81 ec d8 00 00
	00		 sub	 esp, 216		; 000000d8H
  00009	53		 push	 ebx
  0000a	56		 push	 esi
  0000b	57		 push	 edi
  0000c	51		 push	 ecx
  0000d	8d bd 28 ff ff
	ff		 lea	 edi, DWORD PTR [ebp-216]
  00013	b9 36 00 00 00	 mov	 ecx, 54			; 00000036H
  00018	b8 cc cc cc cc	 mov	 eax, -858993460		; ccccccccH
  0001d	f3 ab		 rep stosd
  0001f	59		 pop	 ecx
  00020	89 4d f8	 mov	 DWORD PTR _this$[ebp], ecx
; Line 2152
  00023	c7 45 ec 00 00
	00 00		 mov	 DWORD PTR _i$1[ebp], 0
  0002a	eb 09		 jmp	 SHORT $LN3@PrintSpace
$LN2@PrintSpace:
  0002c	8b 45 ec	 mov	 eax, DWORD PTR _i$1[ebp]
  0002f	83 c0 01	 add	 eax, 1
  00032	89 45 ec	 mov	 DWORD PTR _i$1[ebp], eax
$LN3@PrintSpace:
  00035	8b 45 ec	 mov	 eax, DWORD PTR _i$1[ebp]
  00038	3b 45 08	 cmp	 eax, DWORD PTR _depth$[ebp]
  0003b	7d 13		 jge	 SHORT $LN4@PrintSpace
; Line 2153
  0003d	68 00 00 00 00	 push	 OFFSET ??_C@_04PFOHOKJK@?5?5?5?5?$AA@
  00042	8b 45 f8	 mov	 eax, DWORD PTR _this$[ebp]
  00045	50		 push	 eax
  00046	e8 00 00 00 00	 call	 ?Print@XMLPrinter@tinyxml2@@IAAXPBDZZ ; tinyxml2::XMLPrinter::Print
  0004b	83 c4 08	 add	 esp, 8
; Line 2154
  0004e	eb dc		 jmp	 SHORT $LN2@PrintSpace
$LN4@PrintSpace:
; Line 2155
  00050	5f		 pop	 edi
  00051	5e		 pop	 esi
  00052	5b		 pop	 ebx
  00053	81 c4 d8 00 00
	00		 add	 esp, 216		; 000000d8H
  00059	3b ec		 cmp	 ebp, esp
  0005b	e8 00 00 00 00	 call	 __RTC_CheckEsp
  00060	8b e5		 mov	 esp, ebp
  00062	5d		 pop	 ebp
  00063	c2 04 00	 ret	 4
?PrintSpace@XMLPrinter@tinyxml2@@MAEXH@Z ENDP		; tinyxml2::XMLPrinter::PrintSpace
_TEXT	ENDS
; Function compile flags: /Odtp /RTCsu /ZI
;	COMDAT ?CompactMode@XMLPrinter@tinyxml2@@MAE_NABVXMLElement@2@@Z
_TEXT	SEGMENT
_this$ = -8						; size = 4
___formal$ = 8						; size = 4
?CompactMode@XMLPrinter@tinyxml2@@MAE_NABVXMLElement@2@@Z PROC ; tinyxml2::XMLPrinter::CompactMode, COMDAT
; _this$ = ecx
; File f:\cavestory\cavestory\cavestory\tinyxml2.h
; Line 2063
  00000	55		 push	 ebp
  00001	8b ec		 mov	 ebp, esp
  00003	81 ec cc 00 00
	00		 sub	 esp, 204		; 000000ccH
  00009	53		 push	 ebx
  0000a	56		 push	 esi
  0000b	57		 push	 edi
  0000c	51		 push	 ecx
  0000d	8d bd 34 ff ff
	ff		 lea	 edi, DWORD PTR [ebp-204]
  00013	b9 33 00 00 00	 mov	 ecx, 51			; 00000033H
  00018	b8 cc cc cc cc	 mov	 eax, -858993460		; ccccccccH
  0001d	f3 ab		 rep stosd
  0001f	59		 pop	 ecx
  00020	89 4d f8	 mov	 DWORD PTR _this$[ebp], ecx
  00023	8b 45 f8	 mov	 eax, DWORD PTR _this$[ebp]
  00026	8a 40 4d	 mov	 al, BYTE PTR [eax+77]
  00029	5f		 pop	 edi
  0002a	5e		 pop	 esi
  0002b	5b		 pop	 ebx
  0002c	8b e5		 mov	 esp, ebp
  0002e	5d		 pop	 ebp
  0002f	c2 04 00	 ret	 4
?CompactMode@XMLPrinter@tinyxml2@@MAE_NABVXMLElement@2@@Z ENDP ; tinyxml2::XMLPrinter::CompactMode
_TEXT	ENDS
; Function compile flags: /Odtp /RTCsu /ZI
;	COMDAT ?Visit@XMLPrinter@tinyxml2@@UAE_NABVXMLUnknown@2@@Z
_TEXT	SEGMENT
_this$ = -8						; size = 4
_unknown$ = 8						; size = 4
?Visit@XMLPrinter@tinyxml2@@UAE_NABVXMLUnknown@2@@Z PROC ; tinyxml2::XMLPrinter::Visit, COMDAT
; _this$ = ecx
; File f:\cavestory\cavestory\cavestory\tinyxml2.cpp
; Line 2459
  00000	55		 push	 ebp
  00001	8b ec		 mov	 ebp, esp
  00003	81 ec cc 00 00
	00		 sub	 esp, 204		; 000000ccH
  00009	53		 push	 ebx
  0000a	56		 push	 esi
  0000b	57		 push	 edi
  0000c	51		 push	 ecx
  0000d	8d bd 34 ff ff
	ff		 lea	 edi, DWORD PTR [ebp-204]
  00013	b9 33 00 00 00	 mov	 ecx, 51			; 00000033H
  00018	b8 cc cc cc cc	 mov	 eax, -858993460		; ccccccccH
  0001d	f3 ab		 rep stosd
  0001f	59		 pop	 ecx
  00020	89 4d f8	 mov	 DWORD PTR _this$[ebp], ecx
; Line 2460
  00023	8b 4d 08	 mov	 ecx, DWORD PTR _unknown$[ebp]
  00026	e8 00 00 00 00	 call	 ?Value@XMLNode@tinyxml2@@QBEPBDXZ ; tinyxml2::XMLNode::Value
  0002b	50		 push	 eax
  0002c	8b 4d f8	 mov	 ecx, DWORD PTR _this$[ebp]
  0002f	e8 00 00 00 00	 call	 ?PushUnknown@XMLPrinter@tinyxml2@@QAEXPBD@Z ; tinyxml2::XMLPrinter::PushUnknown
; Line 2461
  00034	b0 01		 mov	 al, 1
; Line 2462
  00036	5f		 pop	 edi
  00037	5e		 pop	 esi
  00038	5b		 pop	 ebx
  00039	81 c4 cc 00 00
	00		 add	 esp, 204		; 000000ccH
  0003f	3b ec		 cmp	 ebp, esp
  00041	e8 00 00 00 00	 call	 __RTC_CheckEsp
  00046	8b e5		 mov	 esp, ebp
  00048	5d		 pop	 ebp
  00049	c2 04 00	 ret	 4
?Visit@XMLPrinter@tinyxml2@@UAE_NABVXMLUnknown@2@@Z ENDP ; tinyxml2::XMLPrinter::Visit
_TEXT	ENDS
; Function compile flags: /Odtp /RTCsu /ZI
;	COMDAT ?Visit@XMLPrinter@tinyxml2@@UAE_NABVXMLDeclaration@2@@Z
_TEXT	SEGMENT
_this$ = -8						; size = 4
_declaration$ = 8					; size = 4
?Visit@XMLPrinter@tinyxml2@@UAE_NABVXMLDeclaration@2@@Z PROC ; tinyxml2::XMLPrinter::Visit, COMDAT
; _this$ = ecx
; File f:\cavestory\cavestory\cavestory\tinyxml2.cpp
; Line 2452
  00000	55		 push	 ebp
  00001	8b ec		 mov	 ebp, esp
  00003	81 ec cc 00 00
	00		 sub	 esp, 204		; 000000ccH
  00009	53		 push	 ebx
  0000a	56		 push	 esi
  0000b	57		 push	 edi
  0000c	51		 push	 ecx
  0000d	8d bd 34 ff ff
	ff		 lea	 edi, DWORD PTR [ebp-204]
  00013	b9 33 00 00 00	 mov	 ecx, 51			; 00000033H
  00018	b8 cc cc cc cc	 mov	 eax, -858993460		; ccccccccH
  0001d	f3 ab		 rep stosd
  0001f	59		 pop	 ecx
  00020	89 4d f8	 mov	 DWORD PTR _this$[ebp], ecx
; Line 2453
  00023	8b 4d 08	 mov	 ecx, DWORD PTR _declaration$[ebp]
  00026	e8 00 00 00 00	 call	 ?Value@XMLNode@tinyxml2@@QBEPBDXZ ; tinyxml2::XMLNode::Value
  0002b	50		 push	 eax
  0002c	8b 4d f8	 mov	 ecx, DWORD PTR _this$[ebp]
  0002f	e8 00 00 00 00	 call	 ?PushDeclaration@XMLPrinter@tinyxml2@@QAEXPBD@Z ; tinyxml2::XMLPrinter::PushDeclaration
; Line 2454
  00034	b0 01		 mov	 al, 1
; Line 2455
  00036	5f		 pop	 edi
  00037	5e		 pop	 esi
  00038	5b		 pop	 ebx
  00039	81 c4 cc 00 00
	00		 add	 esp, 204		; 000000ccH
  0003f	3b ec		 cmp	 ebp, esp
  00041	e8 00 00 00 00	 call	 __RTC_CheckEsp
  00046	8b e5		 mov	 esp, ebp
  00048	5d		 pop	 ebp
  00049	c2 04 00	 ret	 4
?Visit@XMLPrinter@tinyxml2@@UAE_NABVXMLDeclaration@2@@Z ENDP ; tinyxml2::XMLPrinter::Visit
_TEXT	ENDS
; Function compile flags: /Odtp /RTCsu /ZI
;	COMDAT ?Visit@XMLPrinter@tinyxml2@@UAE_NABVXMLComment@2@@Z
_TEXT	SEGMENT
_this$ = -8						; size = 4
_comment$ = 8						; size = 4
?Visit@XMLPrinter@tinyxml2@@UAE_NABVXMLComment@2@@Z PROC ; tinyxml2::XMLPrinter::Visit, COMDAT
; _this$ = ecx
; File f:\cavestory\cavestory\cavestory\tinyxml2.cpp
; Line 2446
  00000	55		 push	 ebp
  00001	8b ec		 mov	 ebp, esp
  00003	81 ec cc 00 00
	00		 sub	 esp, 204		; 000000ccH
  00009	53		 push	 ebx
  0000a	56		 push	 esi
  0000b	57		 push	 edi
  0000c	51		 push	 ecx
  0000d	8d bd 34 ff ff
	ff		 lea	 edi, DWORD PTR [ebp-204]
  00013	b9 33 00 00 00	 mov	 ecx, 51			; 00000033H
  00018	b8 cc cc cc cc	 mov	 eax, -858993460		; ccccccccH
  0001d	f3 ab		 rep stosd
  0001f	59		 pop	 ecx
  00020	89 4d f8	 mov	 DWORD PTR _this$[ebp], ecx
; Line 2447
  00023	8b 4d 08	 mov	 ecx, DWORD PTR _comment$[ebp]
  00026	e8 00 00 00 00	 call	 ?Value@XMLNode@tinyxml2@@QBEPBDXZ ; tinyxml2::XMLNode::Value
  0002b	50		 push	 eax
  0002c	8b 4d f8	 mov	 ecx, DWORD PTR _this$[ebp]
  0002f	e8 00 00 00 00	 call	 ?PushComment@XMLPrinter@tinyxml2@@QAEXPBD@Z ; tinyxml2::XMLPrinter::PushComment
; Line 2448
  00034	b0 01		 mov	 al, 1
; Line 2449
  00036	5f		 pop	 edi
  00037	5e		 pop	 esi
  00038	5b		 pop	 ebx
  00039	81 c4 cc 00 00
	00		 add	 esp, 204		; 000000ccH
  0003f	3b ec		 cmp	 ebp, esp
  00041	e8 00 00 00 00	 call	 __RTC_CheckEsp
  00046	8b e5		 mov	 esp, ebp
  00048	5d		 pop	 ebp
  00049	c2 04 00	 ret	 4
?Visit@XMLPrinter@tinyxml2@@UAE_NABVXMLComment@2@@Z ENDP ; tinyxml2::XMLPrinter::Visit
_TEXT	ENDS
; Function compile flags: /Odtp /RTCsu /ZI
;	COMDAT ?Visit@XMLPrinter@tinyxml2@@UAE_NABVXMLText@2@@Z
_TEXT	SEGMENT
_this$ = -8						; size = 4
_text$ = 8						; size = 4
?Visit@XMLPrinter@tinyxml2@@UAE_NABVXMLText@2@@Z PROC	; tinyxml2::XMLPrinter::Visit, COMDAT
; _this$ = ecx
; File f:\cavestory\cavestory\cavestory\tinyxml2.cpp
; Line 2439
  00000	55		 push	 ebp
  00001	8b ec		 mov	 ebp, esp
  00003	81 ec cc 00 00
	00		 sub	 esp, 204		; 000000ccH
  00009	53		 push	 ebx
  0000a	56		 push	 esi
  0000b	57		 push	 edi
  0000c	51		 push	 ecx
  0000d	8d bd 34 ff ff
	ff		 lea	 edi, DWORD PTR [ebp-204]
  00013	b9 33 00 00 00	 mov	 ecx, 51			; 00000033H
  00018	b8 cc cc cc cc	 mov	 eax, -858993460		; ccccccccH
  0001d	f3 ab		 rep stosd
  0001f	59		 pop	 ecx
  00020	89 4d f8	 mov	 DWORD PTR _this$[ebp], ecx
; Line 2440
  00023	8b 4d 08	 mov	 ecx, DWORD PTR _text$[ebp]
  00026	e8 00 00 00 00	 call	 ?CData@XMLText@tinyxml2@@QBE_NXZ ; tinyxml2::XMLText::CData
  0002b	0f b6 c0	 movzx	 eax, al
  0002e	50		 push	 eax
  0002f	8b 4d 08	 mov	 ecx, DWORD PTR _text$[ebp]
  00032	e8 00 00 00 00	 call	 ?Value@XMLNode@tinyxml2@@QBEPBDXZ ; tinyxml2::XMLNode::Value
  00037	50		 push	 eax
  00038	8b 4d f8	 mov	 ecx, DWORD PTR _this$[ebp]
  0003b	e8 00 00 00 00	 call	 ?PushText@XMLPrinter@tinyxml2@@QAEXPBD_N@Z ; tinyxml2::XMLPrinter::PushText
; Line 2441
  00040	b0 01		 mov	 al, 1
; Line 2442
  00042	5f		 pop	 edi
  00043	5e		 pop	 esi
  00044	5b		 pop	 ebx
  00045	81 c4 cc 00 00
	00		 add	 esp, 204		; 000000ccH
  0004b	3b ec		 cmp	 ebp, esp
  0004d	e8 00 00 00 00	 call	 __RTC_CheckEsp
  00052	8b e5		 mov	 esp, ebp
  00054	5d		 pop	 ebp
  00055	c2 04 00	 ret	 4
?Visit@XMLPrinter@tinyxml2@@UAE_NABVXMLText@2@@Z ENDP	; tinyxml2::XMLPrinter::Visit
_TEXT	ENDS
; Function compile flags: /Odtp /RTCsu /ZI
;	COMDAT ?VisitExit@XMLPrinter@tinyxml2@@UAE_NABVXMLElement@2@@Z
_TEXT	SEGMENT
_this$ = -8						; size = 4
_element$ = 8						; size = 4
?VisitExit@XMLPrinter@tinyxml2@@UAE_NABVXMLElement@2@@Z PROC ; tinyxml2::XMLPrinter::VisitExit, COMDAT
; _this$ = ecx
; File f:\cavestory\cavestory\cavestory\tinyxml2.cpp
; Line 2432
  00000	55		 push	 ebp
  00001	8b ec		 mov	 ebp, esp
  00003	81 ec cc 00 00
	00		 sub	 esp, 204		; 000000ccH
  00009	53		 push	 ebx
  0000a	56		 push	 esi
  0000b	57		 push	 edi
  0000c	51		 push	 ecx
  0000d	8d bd 34 ff ff
	ff		 lea	 edi, DWORD PTR [ebp-204]
  00013	b9 33 00 00 00	 mov	 ecx, 51			; 00000033H
  00018	b8 cc cc cc cc	 mov	 eax, -858993460		; ccccccccH
  0001d	f3 ab		 rep stosd
  0001f	59		 pop	 ecx
  00020	89 4d f8	 mov	 DWORD PTR _this$[ebp], ecx
; Line 2433
  00023	8b f4		 mov	 esi, esp
  00025	8b 45 08	 mov	 eax, DWORD PTR _element$[ebp]
  00028	50		 push	 eax
  00029	8b 4d f8	 mov	 ecx, DWORD PTR _this$[ebp]
  0002c	8b 11		 mov	 edx, DWORD PTR [ecx]
  0002e	8b 4d f8	 mov	 ecx, DWORD PTR _this$[ebp]
  00031	8b 42 28	 mov	 eax, DWORD PTR [edx+40]
  00034	ff d0		 call	 eax
  00036	3b f4		 cmp	 esi, esp
  00038	e8 00 00 00 00	 call	 __RTC_CheckEsp
  0003d	8b f4		 mov	 esi, esp
  0003f	0f b6 c8	 movzx	 ecx, al
  00042	51		 push	 ecx
  00043	8b 55 f8	 mov	 edx, DWORD PTR _this$[ebp]
  00046	8b 02		 mov	 eax, DWORD PTR [edx]
  00048	8b 4d f8	 mov	 ecx, DWORD PTR _this$[ebp]
  0004b	8b 50 24	 mov	 edx, DWORD PTR [eax+36]
  0004e	ff d2		 call	 edx
  00050	3b f4		 cmp	 esi, esp
  00052	e8 00 00 00 00	 call	 __RTC_CheckEsp
; Line 2434
  00057	b0 01		 mov	 al, 1
; Line 2435
  00059	5f		 pop	 edi
  0005a	5e		 pop	 esi
  0005b	5b		 pop	 ebx
  0005c	81 c4 cc 00 00
	00		 add	 esp, 204		; 000000ccH
  00062	3b ec		 cmp	 ebp, esp
  00064	e8 00 00 00 00	 call	 __RTC_CheckEsp
  00069	8b e5		 mov	 esp, ebp
  0006b	5d		 pop	 ebp
  0006c	c2 04 00	 ret	 4
?VisitExit@XMLPrinter@tinyxml2@@UAE_NABVXMLElement@2@@Z ENDP ; tinyxml2::XMLPrinter::VisitExit
_TEXT	ENDS
; Function compile flags: /Odtp /RTCsu /ZI
;	COMDAT ?VisitEnter@XMLPrinter@tinyxml2@@UAE_NABVXMLElement@2@PBVXMLAttribute@2@@Z
_TEXT	SEGMENT
tv78 = -232						; size = 4
tv89 = -229						; size = 1
_compactMode$ = -29					; size = 1
_parentElem$ = -20					; size = 4
_this$ = -8						; size = 4
_element$ = 8						; size = 4
_attribute$ = 12					; size = 4
?VisitEnter@XMLPrinter@tinyxml2@@UAE_NABVXMLElement@2@PBVXMLAttribute@2@@Z PROC ; tinyxml2::XMLPrinter::VisitEnter, COMDAT
; _this$ = ecx
; File f:\cavestory\cavestory\cavestory\tinyxml2.cpp
; Line 2416
  00000	55		 push	 ebp
  00001	8b ec		 mov	 ebp, esp
  00003	81 ec e8 00 00
	00		 sub	 esp, 232		; 000000e8H
  00009	53		 push	 ebx
  0000a	56		 push	 esi
  0000b	57		 push	 edi
  0000c	51		 push	 ecx
  0000d	8d bd 18 ff ff
	ff		 lea	 edi, DWORD PTR [ebp-232]
  00013	b9 3a 00 00 00	 mov	 ecx, 58			; 0000003aH
  00018	b8 cc cc cc cc	 mov	 eax, -858993460		; ccccccccH
  0001d	f3 ab		 rep stosd
  0001f	59		 pop	 ecx
  00020	89 4d f8	 mov	 DWORD PTR _this$[ebp], ecx
; Line 2417
  00023	c7 45 ec 00 00
	00 00		 mov	 DWORD PTR _parentElem$[ebp], 0
; Line 2418
  0002a	8b 4d 08	 mov	 ecx, DWORD PTR _element$[ebp]
  0002d	e8 00 00 00 00	 call	 ?Parent@XMLNode@tinyxml2@@QBEPBV12@XZ ; tinyxml2::XMLNode::Parent
  00032	85 c0		 test	 eax, eax
  00034	74 2c		 je	 SHORT $LN3@VisitEnter
; Line 2419
  00036	8b 4d 08	 mov	 ecx, DWORD PTR _element$[ebp]
  00039	e8 00 00 00 00	 call	 ?Parent@XMLNode@tinyxml2@@QBEPBV12@XZ ; tinyxml2::XMLNode::Parent
  0003e	89 85 18 ff ff
	ff		 mov	 DWORD PTR tv78[ebp], eax
  00044	8b 85 18 ff ff
	ff		 mov	 eax, DWORD PTR tv78[ebp]
  0004a	8b 10		 mov	 edx, DWORD PTR [eax]
  0004c	8b f4		 mov	 esi, esp
  0004e	8b 8d 18 ff ff
	ff		 mov	 ecx, DWORD PTR tv78[ebp]
  00054	8b 02		 mov	 eax, DWORD PTR [edx]
  00056	ff d0		 call	 eax
  00058	3b f4		 cmp	 esi, esp
  0005a	e8 00 00 00 00	 call	 __RTC_CheckEsp
  0005f	89 45 ec	 mov	 DWORD PTR _parentElem$[ebp], eax
$LN3@VisitEnter:
; Line 2421
  00062	83 7d ec 00	 cmp	 DWORD PTR _parentElem$[ebp], 0
  00066	74 22		 je	 SHORT $LN6@VisitEnter
  00068	8b f4		 mov	 esi, esp
  0006a	8b 45 ec	 mov	 eax, DWORD PTR _parentElem$[ebp]
  0006d	50		 push	 eax
  0006e	8b 4d f8	 mov	 ecx, DWORD PTR _this$[ebp]
  00071	8b 11		 mov	 edx, DWORD PTR [ecx]
  00073	8b 4d f8	 mov	 ecx, DWORD PTR _this$[ebp]
  00076	8b 42 28	 mov	 eax, DWORD PTR [edx+40]
  00079	ff d0		 call	 eax
  0007b	3b f4		 cmp	 esi, esp
  0007d	e8 00 00 00 00	 call	 __RTC_CheckEsp
  00082	88 85 1b ff ff
	ff		 mov	 BYTE PTR tv89[ebp], al
  00088	eb 0c		 jmp	 SHORT $LN7@VisitEnter
$LN6@VisitEnter:
  0008a	8b 4d f8	 mov	 ecx, DWORD PTR _this$[ebp]
  0008d	8a 51 4d	 mov	 dl, BYTE PTR [ecx+77]
  00090	88 95 1b ff ff
	ff		 mov	 BYTE PTR tv89[ebp], dl
$LN7@VisitEnter:
  00096	8a 85 1b ff ff
	ff		 mov	 al, BYTE PTR tv89[ebp]
  0009c	88 45 e3	 mov	 BYTE PTR _compactMode$[ebp], al
; Line 2422
  0009f	0f b6 45 e3	 movzx	 eax, BYTE PTR _compactMode$[ebp]
  000a3	50		 push	 eax
  000a4	8b 4d 08	 mov	 ecx, DWORD PTR _element$[ebp]
  000a7	e8 00 00 00 00	 call	 ?Name@XMLElement@tinyxml2@@QBEPBDXZ ; tinyxml2::XMLElement::Name
  000ac	50		 push	 eax
  000ad	8b 4d f8	 mov	 ecx, DWORD PTR _this$[ebp]
  000b0	e8 00 00 00 00	 call	 ?OpenElement@XMLPrinter@tinyxml2@@QAEXPBD_N@Z ; tinyxml2::XMLPrinter::OpenElement
$LN2@VisitEnter:
; Line 2423
  000b5	83 7d 0c 00	 cmp	 DWORD PTR _attribute$[ebp], 0
  000b9	74 27		 je	 SHORT $LN1@VisitEnter
; Line 2424
  000bb	8b 4d 0c	 mov	 ecx, DWORD PTR _attribute$[ebp]
  000be	e8 00 00 00 00	 call	 ?Value@XMLAttribute@tinyxml2@@QBEPBDXZ ; tinyxml2::XMLAttribute::Value
  000c3	50		 push	 eax
  000c4	8b 4d 0c	 mov	 ecx, DWORD PTR _attribute$[ebp]
  000c7	e8 00 00 00 00	 call	 ?Name@XMLAttribute@tinyxml2@@QBEPBDXZ ; tinyxml2::XMLAttribute::Name
  000cc	50		 push	 eax
  000cd	8b 4d f8	 mov	 ecx, DWORD PTR _this$[ebp]
  000d0	e8 00 00 00 00	 call	 ?PushAttribute@XMLPrinter@tinyxml2@@QAEXPBD0@Z ; tinyxml2::XMLPrinter::PushAttribute
; Line 2425
  000d5	8b 4d 0c	 mov	 ecx, DWORD PTR _attribute$[ebp]
  000d8	e8 00 00 00 00	 call	 ?Next@XMLAttribute@tinyxml2@@QBEPBV12@XZ ; tinyxml2::XMLAttribute::Next
  000dd	89 45 0c	 mov	 DWORD PTR _attribute$[ebp], eax
; Line 2426
  000e0	eb d3		 jmp	 SHORT $LN2@VisitEnter
$LN1@VisitEnter:
; Line 2427
  000e2	b0 01		 mov	 al, 1
; Line 2428
  000e4	5f		 pop	 edi
  000e5	5e		 pop	 esi
  000e6	5b		 pop	 ebx
  000e7	81 c4 e8 00 00
	00		 add	 esp, 232		; 000000e8H
  000ed	3b ec		 cmp	 ebp, esp
  000ef	e8 00 00 00 00	 call	 __RTC_CheckEsp
  000f4	8b e5		 mov	 esp, ebp
  000f6	5d		 pop	 ebp
  000f7	c2 08 00	 ret	 8
?VisitEnter@XMLPrinter@tinyxml2@@UAE_NABVXMLElement@2@PBVXMLAttribute@2@@Z ENDP ; tinyxml2::XMLPrinter::VisitEnter
_TEXT	ENDS
; Function compile flags: /Odtp /RTCsu /ZI
;	COMDAT ?VisitExit@XMLPrinter@tinyxml2@@UAE_NABVXMLDocument@2@@Z
_TEXT	SEGMENT
_this$ = -8						; size = 4
___formal$ = 8						; size = 4
?VisitExit@XMLPrinter@tinyxml2@@UAE_NABVXMLDocument@2@@Z PROC ; tinyxml2::XMLPrinter::VisitExit, COMDAT
; _this$ = ecx
; File f:\cavestory\cavestory\cavestory\tinyxml2.h
; Line 2026
  00000	55		 push	 ebp
  00001	8b ec		 mov	 ebp, esp
  00003	81 ec cc 00 00
	00		 sub	 esp, 204		; 000000ccH
  00009	53		 push	 ebx
  0000a	56		 push	 esi
  0000b	57		 push	 edi
  0000c	51		 push	 ecx
  0000d	8d bd 34 ff ff
	ff		 lea	 edi, DWORD PTR [ebp-204]
  00013	b9 33 00 00 00	 mov	 ecx, 51			; 00000033H
  00018	b8 cc cc cc cc	 mov	 eax, -858993460		; ccccccccH
  0001d	f3 ab		 rep stosd
  0001f	59		 pop	 ecx
  00020	89 4d f8	 mov	 DWORD PTR _this$[ebp], ecx
; Line 2027
  00023	b0 01		 mov	 al, 1
; Line 2028
  00025	5f		 pop	 edi
  00026	5e		 pop	 esi
  00027	5b		 pop	 ebx
  00028	8b e5		 mov	 esp, ebp
  0002a	5d		 pop	 ebp
  0002b	c2 04 00	 ret	 4
?VisitExit@XMLPrinter@tinyxml2@@UAE_NABVXMLDocument@2@@Z ENDP ; tinyxml2::XMLPrinter::VisitExit
_TEXT	ENDS
; Function compile flags: /Odtp /RTCsu /ZI
;	COMDAT ?VisitEnter@XMLPrinter@tinyxml2@@UAE_NABVXMLDocument@2@@Z
_TEXT	SEGMENT
_this$ = -8						; size = 4
_doc$ = 8						; size = 4
?VisitEnter@XMLPrinter@tinyxml2@@UAE_NABVXMLDocument@2@@Z PROC ; tinyxml2::XMLPrinter::VisitEnter, COMDAT
; _this$ = ecx
; File f:\cavestory\cavestory\cavestory\tinyxml2.cpp
; Line 2406
  00000	55		 push	 ebp
  00001	8b ec		 mov	 ebp, esp
  00003	81 ec cc 00 00
	00		 sub	 esp, 204		; 000000ccH
  00009	53		 push	 ebx
  0000a	56		 push	 esi
  0000b	57		 push	 edi
  0000c	51		 push	 ecx
  0000d	8d bd 34 ff ff
	ff		 lea	 edi, DWORD PTR [ebp-204]
  00013	b9 33 00 00 00	 mov	 ecx, 51			; 00000033H
  00018	b8 cc cc cc cc	 mov	 eax, -858993460		; ccccccccH
  0001d	f3 ab		 rep stosd
  0001f	59		 pop	 ecx
  00020	89 4d f8	 mov	 DWORD PTR _this$[ebp], ecx
; Line 2407
  00023	8b 4d 08	 mov	 ecx, DWORD PTR _doc$[ebp]
  00026	e8 00 00 00 00	 call	 ?ProcessEntities@XMLDocument@tinyxml2@@QBE_NXZ ; tinyxml2::XMLDocument::ProcessEntities
  0002b	8b 4d f8	 mov	 ecx, DWORD PTR _this$[ebp]
  0002e	88 41 4c	 mov	 BYTE PTR [ecx+76], al
; Line 2408
  00031	8b 4d 08	 mov	 ecx, DWORD PTR _doc$[ebp]
  00034	e8 00 00 00 00	 call	 ?HasBOM@XMLDocument@tinyxml2@@QBE_NXZ ; tinyxml2::XMLDocument::HasBOM
  00039	0f b6 c0	 movzx	 eax, al
  0003c	85 c0		 test	 eax, eax
  0003e	74 0c		 je	 SHORT $LN1@VisitEnter
; Line 2409
  00040	6a 00		 push	 0
  00042	6a 01		 push	 1
  00044	8b 4d f8	 mov	 ecx, DWORD PTR _this$[ebp]
  00047	e8 00 00 00 00	 call	 ?PushHeader@XMLPrinter@tinyxml2@@QAEX_N0@Z ; tinyxml2::XMLPrinter::PushHeader
$LN1@VisitEnter:
; Line 2411
  0004c	b0 01		 mov	 al, 1
; Line 2412
  0004e	5f		 pop	 edi
  0004f	5e		 pop	 esi
  00050	5b		 pop	 ebx
  00051	81 c4 cc 00 00
	00		 add	 esp, 204		; 000000ccH
  00057	3b ec		 cmp	 ebp, esp
  00059	e8 00 00 00 00	 call	 __RTC_CheckEsp
  0005e	8b e5		 mov	 esp, ebp
  00060	5d		 pop	 ebp
  00061	c2 04 00	 ret	 4
?VisitEnter@XMLPrinter@tinyxml2@@UAE_NABVXMLDocument@2@@Z ENDP ; tinyxml2::XMLPrinter::VisitEnter
_TEXT	ENDS
; Function compile flags: /Odtp /RTCsu /ZI
;	COMDAT ?PushUnknown@XMLPrinter@tinyxml2@@QAEXPBD@Z
_TEXT	SEGMENT
_this$ = -8						; size = 4
_value$ = 8						; size = 4
?PushUnknown@XMLPrinter@tinyxml2@@QAEXPBD@Z PROC	; tinyxml2::XMLPrinter::PushUnknown, COMDAT
; _this$ = ecx
; File f:\cavestory\cavestory\cavestory\tinyxml2.cpp
; Line 2394
  00000	55		 push	 ebp
  00001	8b ec		 mov	 ebp, esp
  00003	81 ec cc 00 00
	00		 sub	 esp, 204		; 000000ccH
  00009	53		 push	 ebx
  0000a	56		 push	 esi
  0000b	57		 push	 edi
  0000c	51		 push	 ecx
  0000d	8d bd 34 ff ff
	ff		 lea	 edi, DWORD PTR [ebp-204]
  00013	b9 33 00 00 00	 mov	 ecx, 51			; 00000033H
  00018	b8 cc cc cc cc	 mov	 eax, -858993460		; ccccccccH
  0001d	f3 ab		 rep stosd
  0001f	59		 pop	 ecx
  00020	89 4d f8	 mov	 DWORD PTR _this$[ebp], ecx
; Line 2395
  00023	8b 4d f8	 mov	 ecx, DWORD PTR _this$[ebp]
  00026	e8 00 00 00 00	 call	 ?SealElementIfJustOpened@XMLPrinter@tinyxml2@@IAEXXZ ; tinyxml2::XMLPrinter::SealElementIfJustOpened
; Line 2396
  0002b	8b 45 f8	 mov	 eax, DWORD PTR _this$[ebp]
  0002e	83 78 48 00	 cmp	 DWORD PTR [eax+72], 0
  00032	7d 44		 jge	 SHORT $LN1@PushUnknow
  00034	8b 45 f8	 mov	 eax, DWORD PTR _this$[ebp]
  00037	0f b6 48 3c	 movzx	 ecx, BYTE PTR [eax+60]
  0003b	85 c9		 test	 ecx, ecx
  0003d	75 39		 jne	 SHORT $LN1@PushUnknow
  0003f	8b 45 f8	 mov	 eax, DWORD PTR _this$[ebp]
  00042	0f b6 48 4d	 movzx	 ecx, BYTE PTR [eax+77]
  00046	85 c9		 test	 ecx, ecx
  00048	75 2e		 jne	 SHORT $LN1@PushUnknow
; Line 2397
  0004a	68 00 00 00 00	 push	 OFFSET ??_C@_01EEMJAFIK@?6?$AA@
  0004f	8b 45 f8	 mov	 eax, DWORD PTR _this$[ebp]
  00052	50		 push	 eax
  00053	e8 00 00 00 00	 call	 ?Print@XMLPrinter@tinyxml2@@IAAXPBDZZ ; tinyxml2::XMLPrinter::Print
  00058	83 c4 08	 add	 esp, 8
; Line 2398
  0005b	8b f4		 mov	 esi, esp
  0005d	8b 45 f8	 mov	 eax, DWORD PTR _this$[ebp]
  00060	8b 48 44	 mov	 ecx, DWORD PTR [eax+68]
  00063	51		 push	 ecx
  00064	8b 55 f8	 mov	 edx, DWORD PTR _this$[ebp]
  00067	8b 02		 mov	 eax, DWORD PTR [edx]
  00069	8b 4d f8	 mov	 ecx, DWORD PTR _this$[ebp]
  0006c	8b 50 2c	 mov	 edx, DWORD PTR [eax+44]
  0006f	ff d2		 call	 edx
  00071	3b f4		 cmp	 esi, esp
  00073	e8 00 00 00 00	 call	 __RTC_CheckEsp
$LN1@PushUnknow:
; Line 2400
  00078	8b 45 f8	 mov	 eax, DWORD PTR _this$[ebp]
  0007b	c6 40 3c 00	 mov	 BYTE PTR [eax+60], 0
; Line 2401
  0007f	8b 45 08	 mov	 eax, DWORD PTR _value$[ebp]
  00082	50		 push	 eax
  00083	68 00 00 00 00	 push	 OFFSET ??_C@_05EBLKANEG@?$DM?$CB?$CFs?$DO?$AA@
  00088	8b 4d f8	 mov	 ecx, DWORD PTR _this$[ebp]
  0008b	51		 push	 ecx
  0008c	e8 00 00 00 00	 call	 ?Print@XMLPrinter@tinyxml2@@IAAXPBDZZ ; tinyxml2::XMLPrinter::Print
  00091	83 c4 0c	 add	 esp, 12			; 0000000cH
; Line 2402
  00094	5f		 pop	 edi
  00095	5e		 pop	 esi
  00096	5b		 pop	 ebx
  00097	81 c4 cc 00 00
	00		 add	 esp, 204		; 000000ccH
  0009d	3b ec		 cmp	 ebp, esp
  0009f	e8 00 00 00 00	 call	 __RTC_CheckEsp
  000a4	8b e5		 mov	 esp, ebp
  000a6	5d		 pop	 ebp
  000a7	c2 04 00	 ret	 4
?PushUnknown@XMLPrinter@tinyxml2@@QAEXPBD@Z ENDP	; tinyxml2::XMLPrinter::PushUnknown
_TEXT	ENDS
; Function compile flags: /Odtp /RTCsu /ZI
;	COMDAT ?PushDeclaration@XMLPrinter@tinyxml2@@QAEXPBD@Z
_TEXT	SEGMENT
_this$ = -8						; size = 4
_value$ = 8						; size = 4
?PushDeclaration@XMLPrinter@tinyxml2@@QAEXPBD@Z PROC	; tinyxml2::XMLPrinter::PushDeclaration, COMDAT
; _this$ = ecx
; File f:\cavestory\cavestory\cavestory\tinyxml2.cpp
; Line 2382
  00000	55		 push	 ebp
  00001	8b ec		 mov	 ebp, esp
  00003	81 ec cc 00 00
	00		 sub	 esp, 204		; 000000ccH
  00009	53		 push	 ebx
  0000a	56		 push	 esi
  0000b	57		 push	 edi
  0000c	51		 push	 ecx
  0000d	8d bd 34 ff ff
	ff		 lea	 edi, DWORD PTR [ebp-204]
  00013	b9 33 00 00 00	 mov	 ecx, 51			; 00000033H
  00018	b8 cc cc cc cc	 mov	 eax, -858993460		; ccccccccH
  0001d	f3 ab		 rep stosd
  0001f	59		 pop	 ecx
  00020	89 4d f8	 mov	 DWORD PTR _this$[ebp], ecx
; Line 2383
  00023	8b 4d f8	 mov	 ecx, DWORD PTR _this$[ebp]
  00026	e8 00 00 00 00	 call	 ?SealElementIfJustOpened@XMLPrinter@tinyxml2@@IAEXXZ ; tinyxml2::XMLPrinter::SealElementIfJustOpened
; Line 2384
  0002b	8b 45 f8	 mov	 eax, DWORD PTR _this$[ebp]
  0002e	83 78 48 00	 cmp	 DWORD PTR [eax+72], 0
  00032	7d 44		 jge	 SHORT $LN1@PushDeclar
  00034	8b 45 f8	 mov	 eax, DWORD PTR _this$[ebp]
  00037	0f b6 48 3c	 movzx	 ecx, BYTE PTR [eax+60]
  0003b	85 c9		 test	 ecx, ecx
  0003d	75 39		 jne	 SHORT $LN1@PushDeclar
  0003f	8b 45 f8	 mov	 eax, DWORD PTR _this$[ebp]
  00042	0f b6 48 4d	 movzx	 ecx, BYTE PTR [eax+77]
  00046	85 c9		 test	 ecx, ecx
  00048	75 2e		 jne	 SHORT $LN1@PushDeclar
; Line 2385
  0004a	68 00 00 00 00	 push	 OFFSET ??_C@_01EEMJAFIK@?6?$AA@
  0004f	8b 45 f8	 mov	 eax, DWORD PTR _this$[ebp]
  00052	50		 push	 eax
  00053	e8 00 00 00 00	 call	 ?Print@XMLPrinter@tinyxml2@@IAAXPBDZZ ; tinyxml2::XMLPrinter::Print
  00058	83 c4 08	 add	 esp, 8
; Line 2386
  0005b	8b f4		 mov	 esi, esp
  0005d	8b 45 f8	 mov	 eax, DWORD PTR _this$[ebp]
  00060	8b 48 44	 mov	 ecx, DWORD PTR [eax+68]
  00063	51		 push	 ecx
  00064	8b 55 f8	 mov	 edx, DWORD PTR _this$[ebp]
  00067	8b 02		 mov	 eax, DWORD PTR [edx]
  00069	8b 4d f8	 mov	 ecx, DWORD PTR _this$[ebp]
  0006c	8b 50 2c	 mov	 edx, DWORD PTR [eax+44]
  0006f	ff d2		 call	 edx
  00071	3b f4		 cmp	 esi, esp
  00073	e8 00 00 00 00	 call	 __RTC_CheckEsp
$LN1@PushDeclar:
; Line 2388
  00078	8b 45 f8	 mov	 eax, DWORD PTR _this$[ebp]
  0007b	c6 40 3c 00	 mov	 BYTE PTR [eax+60], 0
; Line 2389
  0007f	8b 45 08	 mov	 eax, DWORD PTR _value$[ebp]
  00082	50		 push	 eax
  00083	68 00 00 00 00	 push	 OFFSET ??_C@_06OGCFEMAJ@?$DM?$DP?$CFs?$DP?$DO?$AA@
  00088	8b 4d f8	 mov	 ecx, DWORD PTR _this$[ebp]
  0008b	51		 push	 ecx
  0008c	e8 00 00 00 00	 call	 ?Print@XMLPrinter@tinyxml2@@IAAXPBDZZ ; tinyxml2::XMLPrinter::Print
  00091	83 c4 0c	 add	 esp, 12			; 0000000cH
; Line 2390
  00094	5f		 pop	 edi
  00095	5e		 pop	 esi
  00096	5b		 pop	 ebx
  00097	81 c4 cc 00 00
	00		 add	 esp, 204		; 000000ccH
  0009d	3b ec		 cmp	 ebp, esp
  0009f	e8 00 00 00 00	 call	 __RTC_CheckEsp
  000a4	8b e5		 mov	 esp, ebp
  000a6	5d		 pop	 ebp
  000a7	c2 04 00	 ret	 4
?PushDeclaration@XMLPrinter@tinyxml2@@QAEXPBD@Z ENDP	; tinyxml2::XMLPrinter::PushDeclaration
_TEXT	ENDS
; Function compile flags: /Odtp /RTCsu /ZI
;	COMDAT ?PushComment@XMLPrinter@tinyxml2@@QAEXPBD@Z
_TEXT	SEGMENT
_this$ = -8						; size = 4
_comment$ = 8						; size = 4
?PushComment@XMLPrinter@tinyxml2@@QAEXPBD@Z PROC	; tinyxml2::XMLPrinter::PushComment, COMDAT
; _this$ = ecx
; File f:\cavestory\cavestory\cavestory\tinyxml2.cpp
; Line 2370
  00000	55		 push	 ebp
  00001	8b ec		 mov	 ebp, esp
  00003	81 ec cc 00 00
	00		 sub	 esp, 204		; 000000ccH
  00009	53		 push	 ebx
  0000a	56		 push	 esi
  0000b	57		 push	 edi
  0000c	51		 push	 ecx
  0000d	8d bd 34 ff ff
	ff		 lea	 edi, DWORD PTR [ebp-204]
  00013	b9 33 00 00 00	 mov	 ecx, 51			; 00000033H
  00018	b8 cc cc cc cc	 mov	 eax, -858993460		; ccccccccH
  0001d	f3 ab		 rep stosd
  0001f	59		 pop	 ecx
  00020	89 4d f8	 mov	 DWORD PTR _this$[ebp], ecx
; Line 2371
  00023	8b 4d f8	 mov	 ecx, DWORD PTR _this$[ebp]
  00026	e8 00 00 00 00	 call	 ?SealElementIfJustOpened@XMLPrinter@tinyxml2@@IAEXXZ ; tinyxml2::XMLPrinter::SealElementIfJustOpened
; Line 2372
  0002b	8b 45 f8	 mov	 eax, DWORD PTR _this$[ebp]
  0002e	83 78 48 00	 cmp	 DWORD PTR [eax+72], 0
  00032	7d 44		 jge	 SHORT $LN1@PushCommen
  00034	8b 45 f8	 mov	 eax, DWORD PTR _this$[ebp]
  00037	0f b6 48 3c	 movzx	 ecx, BYTE PTR [eax+60]
  0003b	85 c9		 test	 ecx, ecx
  0003d	75 39		 jne	 SHORT $LN1@PushCommen
  0003f	8b 45 f8	 mov	 eax, DWORD PTR _this$[ebp]
  00042	0f b6 48 4d	 movzx	 ecx, BYTE PTR [eax+77]
  00046	85 c9		 test	 ecx, ecx
  00048	75 2e		 jne	 SHORT $LN1@PushCommen
; Line 2373
  0004a	68 00 00 00 00	 push	 OFFSET ??_C@_01EEMJAFIK@?6?$AA@
  0004f	8b 45 f8	 mov	 eax, DWORD PTR _this$[ebp]
  00052	50		 push	 eax
  00053	e8 00 00 00 00	 call	 ?Print@XMLPrinter@tinyxml2@@IAAXPBDZZ ; tinyxml2::XMLPrinter::Print
  00058	83 c4 08	 add	 esp, 8
; Line 2374
  0005b	8b f4		 mov	 esi, esp
  0005d	8b 45 f8	 mov	 eax, DWORD PTR _this$[ebp]
  00060	8b 48 44	 mov	 ecx, DWORD PTR [eax+68]
  00063	51		 push	 ecx
  00064	8b 55 f8	 mov	 edx, DWORD PTR _this$[ebp]
  00067	8b 02		 mov	 eax, DWORD PTR [edx]
  00069	8b 4d f8	 mov	 ecx, DWORD PTR _this$[ebp]
  0006c	8b 50 2c	 mov	 edx, DWORD PTR [eax+44]
  0006f	ff d2		 call	 edx
  00071	3b f4		 cmp	 esi, esp
  00073	e8 00 00 00 00	 call	 __RTC_CheckEsp
$LN1@PushCommen:
; Line 2376
  00078	8b 45 f8	 mov	 eax, DWORD PTR _this$[ebp]
  0007b	c6 40 3c 00	 mov	 BYTE PTR [eax+60], 0
; Line 2377
  0007f	8b 45 08	 mov	 eax, DWORD PTR _comment$[ebp]
  00082	50		 push	 eax
  00083	68 00 00 00 00	 push	 OFFSET ??_C@_09PNDCPLLD@?$DM?$CB?9?9?$CFs?9?9?$DO?$AA@
  00088	8b 4d f8	 mov	 ecx, DWORD PTR _this$[ebp]
  0008b	51		 push	 ecx
  0008c	e8 00 00 00 00	 call	 ?Print@XMLPrinter@tinyxml2@@IAAXPBDZZ ; tinyxml2::XMLPrinter::Print
  00091	83 c4 0c	 add	 esp, 12			; 0000000cH
; Line 2378
  00094	5f		 pop	 edi
  00095	5e		 pop	 esi
  00096	5b		 pop	 ebx
  00097	81 c4 cc 00 00
	00		 add	 esp, 204		; 000000ccH
  0009d	3b ec		 cmp	 ebp, esp
  0009f	e8 00 00 00 00	 call	 __RTC_CheckEsp
  000a4	8b e5		 mov	 esp, ebp
  000a6	5d		 pop	 ebp
  000a7	c2 04 00	 ret	 4
?PushComment@XMLPrinter@tinyxml2@@QAEXPBD@Z ENDP	; tinyxml2::XMLPrinter::PushComment
_TEXT	ENDS
; Function compile flags: /Odtp /RTCsu /ZI
;	COMDAT ?PushText@XMLPrinter@tinyxml2@@QAEXN@Z
_TEXT	SEGMENT
_buf$ = -220						; size = 200
_this$ = -12						; size = 4
__$ArrayPad$ = -4					; size = 4
_value$ = 8						; size = 8
?PushText@XMLPrinter@tinyxml2@@QAEXN@Z PROC		; tinyxml2::XMLPrinter::PushText, COMDAT
; _this$ = ecx
; File f:\cavestory\cavestory\cavestory\tinyxml2.cpp
; Line 2362
  00000	55		 push	 ebp
  00001	8b ec		 mov	 ebp, esp
  00003	81 ec a0 01 00
	00		 sub	 esp, 416		; 000001a0H
  00009	53		 push	 ebx
  0000a	56		 push	 esi
  0000b	57		 push	 edi
  0000c	51		 push	 ecx
  0000d	8d bd 60 fe ff
	ff		 lea	 edi, DWORD PTR [ebp-416]
  00013	b9 68 00 00 00	 mov	 ecx, 104		; 00000068H
  00018	b8 cc cc cc cc	 mov	 eax, -858993460		; ccccccccH
  0001d	f3 ab		 rep stosd
  0001f	59		 pop	 ecx
  00020	a1 00 00 00 00	 mov	 eax, DWORD PTR ___security_cookie
  00025	33 c5		 xor	 eax, ebp
  00027	89 45 fc	 mov	 DWORD PTR __$ArrayPad$[ebp], eax
  0002a	89 4d f4	 mov	 DWORD PTR _this$[ebp], ecx
; Line 2364
  0002d	68 c8 00 00 00	 push	 200			; 000000c8H
  00032	8d 85 24 ff ff
	ff		 lea	 eax, DWORD PTR _buf$[ebp]
  00038	50		 push	 eax
  00039	83 ec 08	 sub	 esp, 8
  0003c	f2 0f 10 45 08	 movsd	 xmm0, QWORD PTR _value$[ebp]
  00041	f2 0f 11 04 24	 movsd	 QWORD PTR [esp], xmm0
  00046	e8 00 00 00 00	 call	 ?ToStr@XMLUtil@tinyxml2@@SAXNPADH@Z ; tinyxml2::XMLUtil::ToStr
  0004b	83 c4 10	 add	 esp, 16			; 00000010H
; Line 2365
  0004e	6a 00		 push	 0
  00050	8d 85 24 ff ff
	ff		 lea	 eax, DWORD PTR _buf$[ebp]
  00056	50		 push	 eax
  00057	8b 4d f4	 mov	 ecx, DWORD PTR _this$[ebp]
  0005a	e8 00 00 00 00	 call	 ?PushText@XMLPrinter@tinyxml2@@QAEXPBD_N@Z ; tinyxml2::XMLPrinter::PushText
; Line 2366
  0005f	52		 push	 edx
  00060	8b cd		 mov	 ecx, ebp
  00062	50		 push	 eax
  00063	8d 15 00 00 00
	00		 lea	 edx, DWORD PTR $LN5@PushText
  00069	e8 00 00 00 00	 call	 @_RTC_CheckStackVars@8
  0006e	58		 pop	 eax
  0006f	5a		 pop	 edx
  00070	5f		 pop	 edi
  00071	5e		 pop	 esi
  00072	5b		 pop	 ebx
  00073	8b 4d fc	 mov	 ecx, DWORD PTR __$ArrayPad$[ebp]
  00076	33 cd		 xor	 ecx, ebp
  00078	e8 00 00 00 00	 call	 @__security_check_cookie@4
  0007d	81 c4 a0 01 00
	00		 add	 esp, 416		; 000001a0H
  00083	3b ec		 cmp	 ebp, esp
  00085	e8 00 00 00 00	 call	 __RTC_CheckEsp
  0008a	8b e5		 mov	 esp, ebp
  0008c	5d		 pop	 ebp
  0008d	c2 08 00	 ret	 8
$LN5@PushText:
  00090	01 00 00 00	 DD	 1
  00094	00 00 00 00	 DD	 $LN4@PushText
$LN4@PushText:
  00098	24 ff ff ff	 DD	 -220			; ffffff24H
  0009c	c8 00 00 00	 DD	 200			; 000000c8H
  000a0	00 00 00 00	 DD	 $LN3@PushText
$LN3@PushText:
  000a4	62		 DB	 98			; 00000062H
  000a5	75		 DB	 117			; 00000075H
  000a6	66		 DB	 102			; 00000066H
  000a7	00		 DB	 0
?PushText@XMLPrinter@tinyxml2@@QAEXN@Z ENDP		; tinyxml2::XMLPrinter::PushText
_TEXT	ENDS
; Function compile flags: /Odtp /RTCsu /ZI
;	COMDAT ?PushText@XMLPrinter@tinyxml2@@QAEXM@Z
_TEXT	SEGMENT
_buf$ = -220						; size = 200
_this$ = -12						; size = 4
__$ArrayPad$ = -4					; size = 4
_value$ = 8						; size = 4
?PushText@XMLPrinter@tinyxml2@@QAEXM@Z PROC		; tinyxml2::XMLPrinter::PushText, COMDAT
; _this$ = ecx
; File f:\cavestory\cavestory\cavestory\tinyxml2.cpp
; Line 2354
  00000	55		 push	 ebp
  00001	8b ec		 mov	 ebp, esp
  00003	81 ec a0 01 00
	00		 sub	 esp, 416		; 000001a0H
  00009	53		 push	 ebx
  0000a	56		 push	 esi
  0000b	57		 push	 edi
  0000c	51		 push	 ecx
  0000d	8d bd 60 fe ff
	ff		 lea	 edi, DWORD PTR [ebp-416]
  00013	b9 68 00 00 00	 mov	 ecx, 104		; 00000068H
  00018	b8 cc cc cc cc	 mov	 eax, -858993460		; ccccccccH
  0001d	f3 ab		 rep stosd
  0001f	59		 pop	 ecx
  00020	a1 00 00 00 00	 mov	 eax, DWORD PTR ___security_cookie
  00025	33 c5		 xor	 eax, ebp
  00027	89 45 fc	 mov	 DWORD PTR __$ArrayPad$[ebp], eax
  0002a	89 4d f4	 mov	 DWORD PTR _this$[ebp], ecx
; Line 2356
  0002d	68 c8 00 00 00	 push	 200			; 000000c8H
  00032	8d 85 24 ff ff
	ff		 lea	 eax, DWORD PTR _buf$[ebp]
  00038	50		 push	 eax
  00039	51		 push	 ecx
  0003a	f3 0f 10 45 08	 movss	 xmm0, DWORD PTR _value$[ebp]
  0003f	f3 0f 11 04 24	 movss	 DWORD PTR [esp], xmm0
  00044	e8 00 00 00 00	 call	 ?ToStr@XMLUtil@tinyxml2@@SAXMPADH@Z ; tinyxml2::XMLUtil::ToStr
  00049	83 c4 0c	 add	 esp, 12			; 0000000cH
; Line 2357
  0004c	6a 00		 push	 0
  0004e	8d 85 24 ff ff
	ff		 lea	 eax, DWORD PTR _buf$[ebp]
  00054	50		 push	 eax
  00055	8b 4d f4	 mov	 ecx, DWORD PTR _this$[ebp]
  00058	e8 00 00 00 00	 call	 ?PushText@XMLPrinter@tinyxml2@@QAEXPBD_N@Z ; tinyxml2::XMLPrinter::PushText
; Line 2358
  0005d	52		 push	 edx
  0005e	8b cd		 mov	 ecx, ebp
  00060	50		 push	 eax
  00061	8d 15 00 00 00
	00		 lea	 edx, DWORD PTR $LN5@PushText
  00067	e8 00 00 00 00	 call	 @_RTC_CheckStackVars@8
  0006c	58		 pop	 eax
  0006d	5a		 pop	 edx
  0006e	5f		 pop	 edi
  0006f	5e		 pop	 esi
  00070	5b		 pop	 ebx
  00071	8b 4d fc	 mov	 ecx, DWORD PTR __$ArrayPad$[ebp]
  00074	33 cd		 xor	 ecx, ebp
  00076	e8 00 00 00 00	 call	 @__security_check_cookie@4
  0007b	81 c4 a0 01 00
	00		 add	 esp, 416		; 000001a0H
  00081	3b ec		 cmp	 ebp, esp
  00083	e8 00 00 00 00	 call	 __RTC_CheckEsp
  00088	8b e5		 mov	 esp, ebp
  0008a	5d		 pop	 ebp
  0008b	c2 04 00	 ret	 4
  0008e	8b ff		 npad	 2
$LN5@PushText:
  00090	01 00 00 00	 DD	 1
  00094	00 00 00 00	 DD	 $LN4@PushText
$LN4@PushText:
  00098	24 ff ff ff	 DD	 -220			; ffffff24H
  0009c	c8 00 00 00	 DD	 200			; 000000c8H
  000a0	00 00 00 00	 DD	 $LN3@PushText
$LN3@PushText:
  000a4	62		 DB	 98			; 00000062H
  000a5	75		 DB	 117			; 00000075H
  000a6	66		 DB	 102			; 00000066H
  000a7	00		 DB	 0
?PushText@XMLPrinter@tinyxml2@@QAEXM@Z ENDP		; tinyxml2::XMLPrinter::PushText
_TEXT	ENDS
; Function compile flags: /Odtp /RTCsu /ZI
;	COMDAT ?PushText@XMLPrinter@tinyxml2@@QAEX_N@Z
_TEXT	SEGMENT
_buf$ = -220						; size = 200
_this$ = -12						; size = 4
__$ArrayPad$ = -4					; size = 4
_value$ = 8						; size = 1
?PushText@XMLPrinter@tinyxml2@@QAEX_N@Z PROC		; tinyxml2::XMLPrinter::PushText, COMDAT
; _this$ = ecx
; File f:\cavestory\cavestory\cavestory\tinyxml2.cpp
; Line 2346
  00000	55		 push	 ebp
  00001	8b ec		 mov	 ebp, esp
  00003	81 ec a0 01 00
	00		 sub	 esp, 416		; 000001a0H
  00009	53		 push	 ebx
  0000a	56		 push	 esi
  0000b	57		 push	 edi
  0000c	51		 push	 ecx
  0000d	8d bd 60 fe ff
	ff		 lea	 edi, DWORD PTR [ebp-416]
  00013	b9 68 00 00 00	 mov	 ecx, 104		; 00000068H
  00018	b8 cc cc cc cc	 mov	 eax, -858993460		; ccccccccH
  0001d	f3 ab		 rep stosd
  0001f	59		 pop	 ecx
  00020	a1 00 00 00 00	 mov	 eax, DWORD PTR ___security_cookie
  00025	33 c5		 xor	 eax, ebp
  00027	89 45 fc	 mov	 DWORD PTR __$ArrayPad$[ebp], eax
  0002a	89 4d f4	 mov	 DWORD PTR _this$[ebp], ecx
; Line 2348
  0002d	68 c8 00 00 00	 push	 200			; 000000c8H
  00032	8d 85 24 ff ff
	ff		 lea	 eax, DWORD PTR _buf$[ebp]
  00038	50		 push	 eax
  00039	0f b6 4d 08	 movzx	 ecx, BYTE PTR _value$[ebp]
  0003d	51		 push	 ecx
  0003e	e8 00 00 00 00	 call	 ?ToStr@XMLUtil@tinyxml2@@SAX_NPADH@Z ; tinyxml2::XMLUtil::ToStr
  00043	83 c4 0c	 add	 esp, 12			; 0000000cH
; Line 2349
  00046	6a 00		 push	 0
  00048	8d 85 24 ff ff
	ff		 lea	 eax, DWORD PTR _buf$[ebp]
  0004e	50		 push	 eax
  0004f	8b 4d f4	 mov	 ecx, DWORD PTR _this$[ebp]
  00052	e8 00 00 00 00	 call	 ?PushText@XMLPrinter@tinyxml2@@QAEXPBD_N@Z ; tinyxml2::XMLPrinter::PushText
; Line 2350
  00057	52		 push	 edx
  00058	8b cd		 mov	 ecx, ebp
  0005a	50		 push	 eax
  0005b	8d 15 00 00 00
	00		 lea	 edx, DWORD PTR $LN5@PushText
  00061	e8 00 00 00 00	 call	 @_RTC_CheckStackVars@8
  00066	58		 pop	 eax
  00067	5a		 pop	 edx
  00068	5f		 pop	 edi
  00069	5e		 pop	 esi
  0006a	5b		 pop	 ebx
  0006b	8b 4d fc	 mov	 ecx, DWORD PTR __$ArrayPad$[ebp]
  0006e	33 cd		 xor	 ecx, ebp
  00070	e8 00 00 00 00	 call	 @__security_check_cookie@4
  00075	81 c4 a0 01 00
	00		 add	 esp, 416		; 000001a0H
  0007b	3b ec		 cmp	 ebp, esp
  0007d	e8 00 00 00 00	 call	 __RTC_CheckEsp
  00082	8b e5		 mov	 esp, ebp
  00084	5d		 pop	 ebp
  00085	c2 04 00	 ret	 4
$LN5@PushText:
  00088	01 00 00 00	 DD	 1
  0008c	00 00 00 00	 DD	 $LN4@PushText
$LN4@PushText:
  00090	24 ff ff ff	 DD	 -220			; ffffff24H
  00094	c8 00 00 00	 DD	 200			; 000000c8H
  00098	00 00 00 00	 DD	 $LN3@PushText
$LN3@PushText:
  0009c	62		 DB	 98			; 00000062H
  0009d	75		 DB	 117			; 00000075H
  0009e	66		 DB	 102			; 00000066H
  0009f	00		 DB	 0
?PushText@XMLPrinter@tinyxml2@@QAEX_N@Z ENDP		; tinyxml2::XMLPrinter::PushText
_TEXT	ENDS
; Function compile flags: /Odtp /RTCsu /ZI
;	COMDAT ?PushText@XMLPrinter@tinyxml2@@QAEXI@Z
_TEXT	SEGMENT
_buf$ = -220						; size = 200
_this$ = -12						; size = 4
__$ArrayPad$ = -4					; size = 4
_value$ = 8						; size = 4
?PushText@XMLPrinter@tinyxml2@@QAEXI@Z PROC		; tinyxml2::XMLPrinter::PushText, COMDAT
; _this$ = ecx
; File f:\cavestory\cavestory\cavestory\tinyxml2.cpp
; Line 2338
  00000	55		 push	 ebp
  00001	8b ec		 mov	 ebp, esp
  00003	81 ec a0 01 00
	00		 sub	 esp, 416		; 000001a0H
  00009	53		 push	 ebx
  0000a	56		 push	 esi
  0000b	57		 push	 edi
  0000c	51		 push	 ecx
  0000d	8d bd 60 fe ff
	ff		 lea	 edi, DWORD PTR [ebp-416]
  00013	b9 68 00 00 00	 mov	 ecx, 104		; 00000068H
  00018	b8 cc cc cc cc	 mov	 eax, -858993460		; ccccccccH
  0001d	f3 ab		 rep stosd
  0001f	59		 pop	 ecx
  00020	a1 00 00 00 00	 mov	 eax, DWORD PTR ___security_cookie
  00025	33 c5		 xor	 eax, ebp
  00027	89 45 fc	 mov	 DWORD PTR __$ArrayPad$[ebp], eax
  0002a	89 4d f4	 mov	 DWORD PTR _this$[ebp], ecx
; Line 2340
  0002d	68 c8 00 00 00	 push	 200			; 000000c8H
  00032	8d 85 24 ff ff
	ff		 lea	 eax, DWORD PTR _buf$[ebp]
  00038	50		 push	 eax
  00039	8b 4d 08	 mov	 ecx, DWORD PTR _value$[ebp]
  0003c	51		 push	 ecx
  0003d	e8 00 00 00 00	 call	 ?ToStr@XMLUtil@tinyxml2@@SAXIPADH@Z ; tinyxml2::XMLUtil::ToStr
  00042	83 c4 0c	 add	 esp, 12			; 0000000cH
; Line 2341
  00045	6a 00		 push	 0
  00047	8d 85 24 ff ff
	ff		 lea	 eax, DWORD PTR _buf$[ebp]
  0004d	50		 push	 eax
  0004e	8b 4d f4	 mov	 ecx, DWORD PTR _this$[ebp]
  00051	e8 00 00 00 00	 call	 ?PushText@XMLPrinter@tinyxml2@@QAEXPBD_N@Z ; tinyxml2::XMLPrinter::PushText
; Line 2342
  00056	52		 push	 edx
  00057	8b cd		 mov	 ecx, ebp
  00059	50		 push	 eax
  0005a	8d 15 00 00 00
	00		 lea	 edx, DWORD PTR $LN5@PushText
  00060	e8 00 00 00 00	 call	 @_RTC_CheckStackVars@8
  00065	58		 pop	 eax
  00066	5a		 pop	 edx
  00067	5f		 pop	 edi
  00068	5e		 pop	 esi
  00069	5b		 pop	 ebx
  0006a	8b 4d fc	 mov	 ecx, DWORD PTR __$ArrayPad$[ebp]
  0006d	33 cd		 xor	 ecx, ebp
  0006f	e8 00 00 00 00	 call	 @__security_check_cookie@4
  00074	81 c4 a0 01 00
	00		 add	 esp, 416		; 000001a0H
  0007a	3b ec		 cmp	 ebp, esp
  0007c	e8 00 00 00 00	 call	 __RTC_CheckEsp
  00081	8b e5		 mov	 esp, ebp
  00083	5d		 pop	 ebp
  00084	c2 04 00	 ret	 4
  00087	90		 npad	 1
$LN5@PushText:
  00088	01 00 00 00	 DD	 1
  0008c	00 00 00 00	 DD	 $LN4@PushText
$LN4@PushText:
  00090	24 ff ff ff	 DD	 -220			; ffffff24H
  00094	c8 00 00 00	 DD	 200			; 000000c8H
  00098	00 00 00 00	 DD	 $LN3@PushText
$LN3@PushText:
  0009c	62		 DB	 98			; 00000062H
  0009d	75		 DB	 117			; 00000075H
  0009e	66		 DB	 102			; 00000066H
  0009f	00		 DB	 0
?PushText@XMLPrinter@tinyxml2@@QAEXI@Z ENDP		; tinyxml2::XMLPrinter::PushText
_TEXT	ENDS
; Function compile flags: /Odtp /RTCsu /ZI
;	COMDAT ?PushText@XMLPrinter@tinyxml2@@QAEXH@Z
_TEXT	SEGMENT
_buf$ = -220						; size = 200
_this$ = -12						; size = 4
__$ArrayPad$ = -4					; size = 4
_value$ = 8						; size = 4
?PushText@XMLPrinter@tinyxml2@@QAEXH@Z PROC		; tinyxml2::XMLPrinter::PushText, COMDAT
; _this$ = ecx
; File f:\cavestory\cavestory\cavestory\tinyxml2.cpp
; Line 2330
  00000	55		 push	 ebp
  00001	8b ec		 mov	 ebp, esp
  00003	81 ec a0 01 00
	00		 sub	 esp, 416		; 000001a0H
  00009	53		 push	 ebx
  0000a	56		 push	 esi
  0000b	57		 push	 edi
  0000c	51		 push	 ecx
  0000d	8d bd 60 fe ff
	ff		 lea	 edi, DWORD PTR [ebp-416]
  00013	b9 68 00 00 00	 mov	 ecx, 104		; 00000068H
  00018	b8 cc cc cc cc	 mov	 eax, -858993460		; ccccccccH
  0001d	f3 ab		 rep stosd
  0001f	59		 pop	 ecx
  00020	a1 00 00 00 00	 mov	 eax, DWORD PTR ___security_cookie
  00025	33 c5		 xor	 eax, ebp
  00027	89 45 fc	 mov	 DWORD PTR __$ArrayPad$[ebp], eax
  0002a	89 4d f4	 mov	 DWORD PTR _this$[ebp], ecx
; Line 2332
  0002d	68 c8 00 00 00	 push	 200			; 000000c8H
  00032	8d 85 24 ff ff
	ff		 lea	 eax, DWORD PTR _buf$[ebp]
  00038	50		 push	 eax
  00039	8b 4d 08	 mov	 ecx, DWORD PTR _value$[ebp]
  0003c	51		 push	 ecx
  0003d	e8 00 00 00 00	 call	 ?ToStr@XMLUtil@tinyxml2@@SAXHPADH@Z ; tinyxml2::XMLUtil::ToStr
  00042	83 c4 0c	 add	 esp, 12			; 0000000cH
; Line 2333
  00045	6a 00		 push	 0
  00047	8d 85 24 ff ff
	ff		 lea	 eax, DWORD PTR _buf$[ebp]
  0004d	50		 push	 eax
  0004e	8b 4d f4	 mov	 ecx, DWORD PTR _this$[ebp]
  00051	e8 00 00 00 00	 call	 ?PushText@XMLPrinter@tinyxml2@@QAEXPBD_N@Z ; tinyxml2::XMLPrinter::PushText
; Line 2334
  00056	52		 push	 edx
  00057	8b cd		 mov	 ecx, ebp
  00059	50		 push	 eax
  0005a	8d 15 00 00 00
	00		 lea	 edx, DWORD PTR $LN5@PushText
  00060	e8 00 00 00 00	 call	 @_RTC_CheckStackVars@8
  00065	58		 pop	 eax
  00066	5a		 pop	 edx
  00067	5f		 pop	 edi
  00068	5e		 pop	 esi
  00069	5b		 pop	 ebx
  0006a	8b 4d fc	 mov	 ecx, DWORD PTR __$ArrayPad$[ebp]
  0006d	33 cd		 xor	 ecx, ebp
  0006f	e8 00 00 00 00	 call	 @__security_check_cookie@4
  00074	81 c4 a0 01 00
	00		 add	 esp, 416		; 000001a0H
  0007a	3b ec		 cmp	 ebp, esp
  0007c	e8 00 00 00 00	 call	 __RTC_CheckEsp
  00081	8b e5		 mov	 esp, ebp
  00083	5d		 pop	 ebp
  00084	c2 04 00	 ret	 4
  00087	90		 npad	 1
$LN5@PushText:
  00088	01 00 00 00	 DD	 1
  0008c	00 00 00 00	 DD	 $LN4@PushText
$LN4@PushText:
  00090	24 ff ff ff	 DD	 -220			; ffffff24H
  00094	c8 00 00 00	 DD	 200			; 000000c8H
  00098	00 00 00 00	 DD	 $LN3@PushText
$LN3@PushText:
  0009c	62		 DB	 98			; 00000062H
  0009d	75		 DB	 117			; 00000075H
  0009e	66		 DB	 102			; 00000066H
  0009f	00		 DB	 0
?PushText@XMLPrinter@tinyxml2@@QAEXH@Z ENDP		; tinyxml2::XMLPrinter::PushText
_TEXT	ENDS
; Function compile flags: /Odtp /RTCsu /ZI
;	COMDAT ?PushText@XMLPrinter@tinyxml2@@QAEXPBD_N@Z
_TEXT	SEGMENT
_this$ = -8						; size = 4
_text$ = 8						; size = 4
_cdata$ = 12						; size = 1
?PushText@XMLPrinter@tinyxml2@@QAEXPBD_N@Z PROC		; tinyxml2::XMLPrinter::PushText, COMDAT
; _this$ = ecx
; File f:\cavestory\cavestory\cavestory\tinyxml2.cpp
; Line 2317
  00000	55		 push	 ebp
  00001	8b ec		 mov	 ebp, esp
  00003	81 ec cc 00 00
	00		 sub	 esp, 204		; 000000ccH
  00009	53		 push	 ebx
  0000a	56		 push	 esi
  0000b	57		 push	 edi
  0000c	51		 push	 ecx
  0000d	8d bd 34 ff ff
	ff		 lea	 edi, DWORD PTR [ebp-204]
  00013	b9 33 00 00 00	 mov	 ecx, 51			; 00000033H
  00018	b8 cc cc cc cc	 mov	 eax, -858993460		; ccccccccH
  0001d	f3 ab		 rep stosd
  0001f	59		 pop	 ecx
  00020	89 4d f8	 mov	 DWORD PTR _this$[ebp], ecx
; Line 2318
  00023	8b 45 f8	 mov	 eax, DWORD PTR _this$[ebp]
  00026	8b 48 44	 mov	 ecx, DWORD PTR [eax+68]
  00029	83 e9 01	 sub	 ecx, 1
  0002c	8b 55 f8	 mov	 edx, DWORD PTR _this$[ebp]
  0002f	89 4a 48	 mov	 DWORD PTR [edx+72], ecx
; Line 2320
  00032	8b 4d f8	 mov	 ecx, DWORD PTR _this$[ebp]
  00035	e8 00 00 00 00	 call	 ?SealElementIfJustOpened@XMLPrinter@tinyxml2@@IAEXXZ ; tinyxml2::XMLPrinter::SealElementIfJustOpened
; Line 2321
  0003a	0f b6 45 0c	 movzx	 eax, BYTE PTR _cdata$[ebp]
  0003e	85 c0		 test	 eax, eax
  00040	74 17		 je	 SHORT $LN2@PushText
; Line 2322
  00042	8b 45 08	 mov	 eax, DWORD PTR _text$[ebp]
  00045	50		 push	 eax
  00046	68 00 00 00 00	 push	 OFFSET ??_C@_0P@FBMMJGJN@?$DM?$CB?$FLCDATA?$FL?$CFs?$FN?$FN?$DO?$AA@
  0004b	8b 4d f8	 mov	 ecx, DWORD PTR _this$[ebp]
  0004e	51		 push	 ecx
  0004f	e8 00 00 00 00	 call	 ?Print@XMLPrinter@tinyxml2@@IAAXPBDZZ ; tinyxml2::XMLPrinter::Print
  00054	83 c4 0c	 add	 esp, 12			; 0000000cH
; Line 2324
  00057	eb 0e		 jmp	 SHORT $LN3@PushText
$LN2@PushText:
; Line 2325
  00059	6a 01		 push	 1
  0005b	8b 45 08	 mov	 eax, DWORD PTR _text$[ebp]
  0005e	50		 push	 eax
  0005f	8b 4d f8	 mov	 ecx, DWORD PTR _this$[ebp]
  00062	e8 00 00 00 00	 call	 ?PrintString@XMLPrinter@tinyxml2@@AAEXPBD_N@Z ; tinyxml2::XMLPrinter::PrintString
$LN3@PushText:
; Line 2327
  00067	5f		 pop	 edi
  00068	5e		 pop	 esi
  00069	5b		 pop	 ebx
  0006a	81 c4 cc 00 00
	00		 add	 esp, 204		; 000000ccH
  00070	3b ec		 cmp	 ebp, esp
  00072	e8 00 00 00 00	 call	 __RTC_CheckEsp
  00077	8b e5		 mov	 esp, ebp
  00079	5d		 pop	 ebp
  0007a	c2 08 00	 ret	 8
?PushText@XMLPrinter@tinyxml2@@QAEXPBD_N@Z ENDP		; tinyxml2::XMLPrinter::PushText
_TEXT	ENDS
; Function compile flags: /Odtp /RTCsu /ZI
;	COMDAT ?CloseElement@XMLPrinter@tinyxml2@@UAEX_N@Z
_TEXT	SEGMENT
_name$ = -20						; size = 4
_this$ = -8						; size = 4
_compactMode$ = 8					; size = 1
?CloseElement@XMLPrinter@tinyxml2@@UAEX_N@Z PROC	; tinyxml2::XMLPrinter::CloseElement, COMDAT
; _this$ = ecx
; File f:\cavestory\cavestory\cavestory\tinyxml2.cpp
; Line 2281
  00000	55		 push	 ebp
  00001	8b ec		 mov	 ebp, esp
  00003	81 ec d8 00 00
	00		 sub	 esp, 216		; 000000d8H
  00009	53		 push	 ebx
  0000a	56		 push	 esi
  0000b	57		 push	 edi
  0000c	51		 push	 ecx
  0000d	8d bd 28 ff ff
	ff		 lea	 edi, DWORD PTR [ebp-216]
  00013	b9 36 00 00 00	 mov	 ecx, 54			; 00000036H
  00018	b8 cc cc cc cc	 mov	 eax, -858993460		; ccccccccH
  0001d	f3 ab		 rep stosd
  0001f	59		 pop	 ecx
  00020	89 4d f8	 mov	 DWORD PTR _this$[ebp], ecx
; Line 2282
  00023	8b 45 f8	 mov	 eax, DWORD PTR _this$[ebp]
  00026	8b 48 44	 mov	 ecx, DWORD PTR [eax+68]
  00029	83 e9 01	 sub	 ecx, 1
  0002c	8b 55 f8	 mov	 edx, DWORD PTR _this$[ebp]
  0002f	89 4a 44	 mov	 DWORD PTR [edx+68], ecx
; Line 2283
  00032	8b 4d f8	 mov	 ecx, DWORD PTR _this$[ebp]
  00035	83 c1 08	 add	 ecx, 8
  00038	e8 00 00 00 00	 call	 ?Pop@?$DynArray@PBD$09@tinyxml2@@QAEPBDXZ ; tinyxml2::DynArray<char const *,10>::Pop
  0003d	89 45 ec	 mov	 DWORD PTR _name$[ebp], eax
; Line 2285
  00040	8b 45 f8	 mov	 eax, DWORD PTR _this$[ebp]
  00043	0f b6 48 04	 movzx	 ecx, BYTE PTR [eax+4]
  00047	85 c9		 test	 ecx, ecx
  00049	74 13		 je	 SHORT $LN5@CloseEleme
; Line 2286
  0004b	68 00 00 00 00	 push	 OFFSET ??_C@_02HCGKDMEN@?1?$DO?$AA@
  00050	8b 45 f8	 mov	 eax, DWORD PTR _this$[ebp]
  00053	50		 push	 eax
  00054	e8 00 00 00 00	 call	 ?Print@XMLPrinter@tinyxml2@@IAAXPBDZZ ; tinyxml2::XMLPrinter::Print
  00059	83 c4 08	 add	 esp, 8
; Line 2288
  0005c	eb 54		 jmp	 SHORT $LN4@CloseEleme
$LN5@CloseEleme:
; Line 2289
  0005e	8b 45 f8	 mov	 eax, DWORD PTR _this$[ebp]
  00061	83 78 48 00	 cmp	 DWORD PTR [eax+72], 0
  00065	7d 36		 jge	 SHORT $LN3@CloseEleme
  00067	0f b6 45 08	 movzx	 eax, BYTE PTR _compactMode$[ebp]
  0006b	85 c0		 test	 eax, eax
  0006d	75 2e		 jne	 SHORT $LN3@CloseEleme
; Line 2290
  0006f	68 00 00 00 00	 push	 OFFSET ??_C@_01EEMJAFIK@?6?$AA@
  00074	8b 45 f8	 mov	 eax, DWORD PTR _this$[ebp]
  00077	50		 push	 eax
  00078	e8 00 00 00 00	 call	 ?Print@XMLPrinter@tinyxml2@@IAAXPBDZZ ; tinyxml2::XMLPrinter::Print
  0007d	83 c4 08	 add	 esp, 8
; Line 2291
  00080	8b f4		 mov	 esi, esp
  00082	8b 45 f8	 mov	 eax, DWORD PTR _this$[ebp]
  00085	8b 48 44	 mov	 ecx, DWORD PTR [eax+68]
  00088	51		 push	 ecx
  00089	8b 55 f8	 mov	 edx, DWORD PTR _this$[ebp]
  0008c	8b 02		 mov	 eax, DWORD PTR [edx]
  0008e	8b 4d f8	 mov	 ecx, DWORD PTR _this$[ebp]
  00091	8b 50 2c	 mov	 edx, DWORD PTR [eax+44]
  00094	ff d2		 call	 edx
  00096	3b f4		 cmp	 esi, esp
  00098	e8 00 00 00 00	 call	 __RTC_CheckEsp
$LN3@CloseEleme:
; Line 2293
  0009d	8b 45 ec	 mov	 eax, DWORD PTR _name$[ebp]
  000a0	50		 push	 eax
  000a1	68 00 00 00 00	 push	 OFFSET ??_C@_05POIKLDCH@?$DM?1?$CFs?$DO?$AA@
  000a6	8b 4d f8	 mov	 ecx, DWORD PTR _this$[ebp]
  000a9	51		 push	 ecx
  000aa	e8 00 00 00 00	 call	 ?Print@XMLPrinter@tinyxml2@@IAAXPBDZZ ; tinyxml2::XMLPrinter::Print
  000af	83 c4 0c	 add	 esp, 12			; 0000000cH
$LN4@CloseEleme:
; Line 2296
  000b2	8b 45 f8	 mov	 eax, DWORD PTR _this$[ebp]
  000b5	8b 4d f8	 mov	 ecx, DWORD PTR _this$[ebp]
  000b8	8b 50 48	 mov	 edx, DWORD PTR [eax+72]
  000bb	3b 51 44	 cmp	 edx, DWORD PTR [ecx+68]
  000be	75 0a		 jne	 SHORT $LN2@CloseEleme
; Line 2297
  000c0	8b 45 f8	 mov	 eax, DWORD PTR _this$[ebp]
  000c3	c7 40 48 ff ff
	ff ff		 mov	 DWORD PTR [eax+72], -1
$LN2@CloseEleme:
; Line 2299
  000ca	8b 45 f8	 mov	 eax, DWORD PTR _this$[ebp]
  000cd	83 78 44 00	 cmp	 DWORD PTR [eax+68], 0
  000d1	75 19		 jne	 SHORT $LN1@CloseEleme
  000d3	0f b6 45 08	 movzx	 eax, BYTE PTR _compactMode$[ebp]
  000d7	85 c0		 test	 eax, eax
  000d9	75 11		 jne	 SHORT $LN1@CloseEleme
; Line 2300
  000db	68 00 00 00 00	 push	 OFFSET ??_C@_01EEMJAFIK@?6?$AA@
  000e0	8b 45 f8	 mov	 eax, DWORD PTR _this$[ebp]
  000e3	50		 push	 eax
  000e4	e8 00 00 00 00	 call	 ?Print@XMLPrinter@tinyxml2@@IAAXPBDZZ ; tinyxml2::XMLPrinter::Print
  000e9	83 c4 08	 add	 esp, 8
$LN1@CloseEleme:
; Line 2302
  000ec	8b 45 f8	 mov	 eax, DWORD PTR _this$[ebp]
  000ef	c6 40 04 00	 mov	 BYTE PTR [eax+4], 0
; Line 2303
  000f3	5f		 pop	 edi
  000f4	5e		 pop	 esi
  000f5	5b		 pop	 ebx
  000f6	81 c4 d8 00 00
	00		 add	 esp, 216		; 000000d8H
  000fc	3b ec		 cmp	 ebp, esp
  000fe	e8 00 00 00 00	 call	 __RTC_CheckEsp
  00103	8b e5		 mov	 esp, ebp
  00105	5d		 pop	 ebp
  00106	c2 04 00	 ret	 4
?CloseElement@XMLPrinter@tinyxml2@@UAEX_N@Z ENDP	; tinyxml2::XMLPrinter::CloseElement
_TEXT	ENDS
; Function compile flags: /Odtp /RTCsu /ZI
;	COMDAT ?PushAttribute@XMLPrinter@tinyxml2@@QAEXPBDN@Z
_TEXT	SEGMENT
_buf$ = -220						; size = 200
_this$ = -12						; size = 4
__$ArrayPad$ = -4					; size = 4
_name$ = 8						; size = 4
_v$ = 12						; size = 8
?PushAttribute@XMLPrinter@tinyxml2@@QAEXPBDN@Z PROC	; tinyxml2::XMLPrinter::PushAttribute, COMDAT
; _this$ = ecx
; File f:\cavestory\cavestory\cavestory\tinyxml2.cpp
; Line 2273
  00000	55		 push	 ebp
  00001	8b ec		 mov	 ebp, esp
  00003	81 ec a0 01 00
	00		 sub	 esp, 416		; 000001a0H
  00009	53		 push	 ebx
  0000a	56		 push	 esi
  0000b	57		 push	 edi
  0000c	51		 push	 ecx
  0000d	8d bd 60 fe ff
	ff		 lea	 edi, DWORD PTR [ebp-416]
  00013	b9 68 00 00 00	 mov	 ecx, 104		; 00000068H
  00018	b8 cc cc cc cc	 mov	 eax, -858993460		; ccccccccH
  0001d	f3 ab		 rep stosd
  0001f	59		 pop	 ecx
  00020	a1 00 00 00 00	 mov	 eax, DWORD PTR ___security_cookie
  00025	33 c5		 xor	 eax, ebp
  00027	89 45 fc	 mov	 DWORD PTR __$ArrayPad$[ebp], eax
  0002a	89 4d f4	 mov	 DWORD PTR _this$[ebp], ecx
; Line 2275
  0002d	68 c8 00 00 00	 push	 200			; 000000c8H
  00032	8d 85 24 ff ff
	ff		 lea	 eax, DWORD PTR _buf$[ebp]
  00038	50		 push	 eax
  00039	83 ec 08	 sub	 esp, 8
  0003c	f2 0f 10 45 0c	 movsd	 xmm0, QWORD PTR _v$[ebp]
  00041	f2 0f 11 04 24	 movsd	 QWORD PTR [esp], xmm0
  00046	e8 00 00 00 00	 call	 ?ToStr@XMLUtil@tinyxml2@@SAXNPADH@Z ; tinyxml2::XMLUtil::ToStr
  0004b	83 c4 10	 add	 esp, 16			; 00000010H
; Line 2276
  0004e	8d 85 24 ff ff
	ff		 lea	 eax, DWORD PTR _buf$[ebp]
  00054	50		 push	 eax
  00055	8b 4d 08	 mov	 ecx, DWORD PTR _name$[ebp]
  00058	51		 push	 ecx
  00059	8b 4d f4	 mov	 ecx, DWORD PTR _this$[ebp]
  0005c	e8 00 00 00 00	 call	 ?PushAttribute@XMLPrinter@tinyxml2@@QAEXPBD0@Z ; tinyxml2::XMLPrinter::PushAttribute
; Line 2277
  00061	52		 push	 edx
  00062	8b cd		 mov	 ecx, ebp
  00064	50		 push	 eax
  00065	8d 15 00 00 00
	00		 lea	 edx, DWORD PTR $LN5@PushAttrib
  0006b	e8 00 00 00 00	 call	 @_RTC_CheckStackVars@8
  00070	58		 pop	 eax
  00071	5a		 pop	 edx
  00072	5f		 pop	 edi
  00073	5e		 pop	 esi
  00074	5b		 pop	 ebx
  00075	8b 4d fc	 mov	 ecx, DWORD PTR __$ArrayPad$[ebp]
  00078	33 cd		 xor	 ecx, ebp
  0007a	e8 00 00 00 00	 call	 @__security_check_cookie@4
  0007f	81 c4 a0 01 00
	00		 add	 esp, 416		; 000001a0H
  00085	3b ec		 cmp	 ebp, esp
  00087	e8 00 00 00 00	 call	 __RTC_CheckEsp
  0008c	8b e5		 mov	 esp, ebp
  0008e	5d		 pop	 ebp
  0008f	c2 0c 00	 ret	 12			; 0000000cH
  00092	8b ff		 npad	 2
$LN5@PushAttrib:
  00094	01 00 00 00	 DD	 1
  00098	00 00 00 00	 DD	 $LN4@PushAttrib
$LN4@PushAttrib:
  0009c	24 ff ff ff	 DD	 -220			; ffffff24H
  000a0	c8 00 00 00	 DD	 200			; 000000c8H
  000a4	00 00 00 00	 DD	 $LN3@PushAttrib
$LN3@PushAttrib:
  000a8	62		 DB	 98			; 00000062H
  000a9	75		 DB	 117			; 00000075H
  000aa	66		 DB	 102			; 00000066H
  000ab	00		 DB	 0
?PushAttribute@XMLPrinter@tinyxml2@@QAEXPBDN@Z ENDP	; tinyxml2::XMLPrinter::PushAttribute
_TEXT	ENDS
; Function compile flags: /Odtp /RTCsu /ZI
;	COMDAT ?PushAttribute@XMLPrinter@tinyxml2@@QAEXPBD_N@Z
_TEXT	SEGMENT
_buf$ = -220						; size = 200
_this$ = -12						; size = 4
__$ArrayPad$ = -4					; size = 4
_name$ = 8						; size = 4
_v$ = 12						; size = 1
?PushAttribute@XMLPrinter@tinyxml2@@QAEXPBD_N@Z PROC	; tinyxml2::XMLPrinter::PushAttribute, COMDAT
; _this$ = ecx
; File f:\cavestory\cavestory\cavestory\tinyxml2.cpp
; Line 2265
  00000	55		 push	 ebp
  00001	8b ec		 mov	 ebp, esp
  00003	81 ec a0 01 00
	00		 sub	 esp, 416		; 000001a0H
  00009	53		 push	 ebx
  0000a	56		 push	 esi
  0000b	57		 push	 edi
  0000c	51		 push	 ecx
  0000d	8d bd 60 fe ff
	ff		 lea	 edi, DWORD PTR [ebp-416]
  00013	b9 68 00 00 00	 mov	 ecx, 104		; 00000068H
  00018	b8 cc cc cc cc	 mov	 eax, -858993460		; ccccccccH
  0001d	f3 ab		 rep stosd
  0001f	59		 pop	 ecx
  00020	a1 00 00 00 00	 mov	 eax, DWORD PTR ___security_cookie
  00025	33 c5		 xor	 eax, ebp
  00027	89 45 fc	 mov	 DWORD PTR __$ArrayPad$[ebp], eax
  0002a	89 4d f4	 mov	 DWORD PTR _this$[ebp], ecx
; Line 2267
  0002d	68 c8 00 00 00	 push	 200			; 000000c8H
  00032	8d 85 24 ff ff
	ff		 lea	 eax, DWORD PTR _buf$[ebp]
  00038	50		 push	 eax
  00039	0f b6 4d 0c	 movzx	 ecx, BYTE PTR _v$[ebp]
  0003d	51		 push	 ecx
  0003e	e8 00 00 00 00	 call	 ?ToStr@XMLUtil@tinyxml2@@SAX_NPADH@Z ; tinyxml2::XMLUtil::ToStr
  00043	83 c4 0c	 add	 esp, 12			; 0000000cH
; Line 2268
  00046	8d 85 24 ff ff
	ff		 lea	 eax, DWORD PTR _buf$[ebp]
  0004c	50		 push	 eax
  0004d	8b 4d 08	 mov	 ecx, DWORD PTR _name$[ebp]
  00050	51		 push	 ecx
  00051	8b 4d f4	 mov	 ecx, DWORD PTR _this$[ebp]
  00054	e8 00 00 00 00	 call	 ?PushAttribute@XMLPrinter@tinyxml2@@QAEXPBD0@Z ; tinyxml2::XMLPrinter::PushAttribute
; Line 2269
  00059	52		 push	 edx
  0005a	8b cd		 mov	 ecx, ebp
  0005c	50		 push	 eax
  0005d	8d 15 00 00 00
	00		 lea	 edx, DWORD PTR $LN5@PushAttrib
  00063	e8 00 00 00 00	 call	 @_RTC_CheckStackVars@8
  00068	58		 pop	 eax
  00069	5a		 pop	 edx
  0006a	5f		 pop	 edi
  0006b	5e		 pop	 esi
  0006c	5b		 pop	 ebx
  0006d	8b 4d fc	 mov	 ecx, DWORD PTR __$ArrayPad$[ebp]
  00070	33 cd		 xor	 ecx, ebp
  00072	e8 00 00 00 00	 call	 @__security_check_cookie@4
  00077	81 c4 a0 01 00
	00		 add	 esp, 416		; 000001a0H
  0007d	3b ec		 cmp	 ebp, esp
  0007f	e8 00 00 00 00	 call	 __RTC_CheckEsp
  00084	8b e5		 mov	 esp, ebp
  00086	5d		 pop	 ebp
  00087	c2 08 00	 ret	 8
  0008a	8b ff		 npad	 2
$LN5@PushAttrib:
  0008c	01 00 00 00	 DD	 1
  00090	00 00 00 00	 DD	 $LN4@PushAttrib
$LN4@PushAttrib:
  00094	24 ff ff ff	 DD	 -220			; ffffff24H
  00098	c8 00 00 00	 DD	 200			; 000000c8H
  0009c	00 00 00 00	 DD	 $LN3@PushAttrib
$LN3@PushAttrib:
  000a0	62		 DB	 98			; 00000062H
  000a1	75		 DB	 117			; 00000075H
  000a2	66		 DB	 102			; 00000066H
  000a3	00		 DB	 0
?PushAttribute@XMLPrinter@tinyxml2@@QAEXPBD_N@Z ENDP	; tinyxml2::XMLPrinter::PushAttribute
_TEXT	ENDS
; Function compile flags: /Odtp /RTCsu /ZI
;	COMDAT ?PushAttribute@XMLPrinter@tinyxml2@@QAEXPBDI@Z
_TEXT	SEGMENT
_buf$ = -220						; size = 200
_this$ = -12						; size = 4
__$ArrayPad$ = -4					; size = 4
_name$ = 8						; size = 4
_v$ = 12						; size = 4
?PushAttribute@XMLPrinter@tinyxml2@@QAEXPBDI@Z PROC	; tinyxml2::XMLPrinter::PushAttribute, COMDAT
; _this$ = ecx
; File f:\cavestory\cavestory\cavestory\tinyxml2.cpp
; Line 2257
  00000	55		 push	 ebp
  00001	8b ec		 mov	 ebp, esp
  00003	81 ec a0 01 00
	00		 sub	 esp, 416		; 000001a0H
  00009	53		 push	 ebx
  0000a	56		 push	 esi
  0000b	57		 push	 edi
  0000c	51		 push	 ecx
  0000d	8d bd 60 fe ff
	ff		 lea	 edi, DWORD PTR [ebp-416]
  00013	b9 68 00 00 00	 mov	 ecx, 104		; 00000068H
  00018	b8 cc cc cc cc	 mov	 eax, -858993460		; ccccccccH
  0001d	f3 ab		 rep stosd
  0001f	59		 pop	 ecx
  00020	a1 00 00 00 00	 mov	 eax, DWORD PTR ___security_cookie
  00025	33 c5		 xor	 eax, ebp
  00027	89 45 fc	 mov	 DWORD PTR __$ArrayPad$[ebp], eax
  0002a	89 4d f4	 mov	 DWORD PTR _this$[ebp], ecx
; Line 2259
  0002d	68 c8 00 00 00	 push	 200			; 000000c8H
  00032	8d 85 24 ff ff
	ff		 lea	 eax, DWORD PTR _buf$[ebp]
  00038	50		 push	 eax
  00039	8b 4d 0c	 mov	 ecx, DWORD PTR _v$[ebp]
  0003c	51		 push	 ecx
  0003d	e8 00 00 00 00	 call	 ?ToStr@XMLUtil@tinyxml2@@SAXIPADH@Z ; tinyxml2::XMLUtil::ToStr
  00042	83 c4 0c	 add	 esp, 12			; 0000000cH
; Line 2260
  00045	8d 85 24 ff ff
	ff		 lea	 eax, DWORD PTR _buf$[ebp]
  0004b	50		 push	 eax
  0004c	8b 4d 08	 mov	 ecx, DWORD PTR _name$[ebp]
  0004f	51		 push	 ecx
  00050	8b 4d f4	 mov	 ecx, DWORD PTR _this$[ebp]
  00053	e8 00 00 00 00	 call	 ?PushAttribute@XMLPrinter@tinyxml2@@QAEXPBD0@Z ; tinyxml2::XMLPrinter::PushAttribute
; Line 2261
  00058	52		 push	 edx
  00059	8b cd		 mov	 ecx, ebp
  0005b	50		 push	 eax
  0005c	8d 15 00 00 00
	00		 lea	 edx, DWORD PTR $LN5@PushAttrib
  00062	e8 00 00 00 00	 call	 @_RTC_CheckStackVars@8
  00067	58		 pop	 eax
  00068	5a		 pop	 edx
  00069	5f		 pop	 edi
  0006a	5e		 pop	 esi
  0006b	5b		 pop	 ebx
  0006c	8b 4d fc	 mov	 ecx, DWORD PTR __$ArrayPad$[ebp]
  0006f	33 cd		 xor	 ecx, ebp
  00071	e8 00 00 00 00	 call	 @__security_check_cookie@4
  00076	81 c4 a0 01 00
	00		 add	 esp, 416		; 000001a0H
  0007c	3b ec		 cmp	 ebp, esp
  0007e	e8 00 00 00 00	 call	 __RTC_CheckEsp
  00083	8b e5		 mov	 esp, ebp
  00085	5d		 pop	 ebp
  00086	c2 08 00	 ret	 8
  00089	8d 49 00	 npad	 3
$LN5@PushAttrib:
  0008c	01 00 00 00	 DD	 1
  00090	00 00 00 00	 DD	 $LN4@PushAttrib
$LN4@PushAttrib:
  00094	24 ff ff ff	 DD	 -220			; ffffff24H
  00098	c8 00 00 00	 DD	 200			; 000000c8H
  0009c	00 00 00 00	 DD	 $LN3@PushAttrib
$LN3@PushAttrib:
  000a0	62		 DB	 98			; 00000062H
  000a1	75		 DB	 117			; 00000075H
  000a2	66		 DB	 102			; 00000066H
  000a3	00		 DB	 0
?PushAttribute@XMLPrinter@tinyxml2@@QAEXPBDI@Z ENDP	; tinyxml2::XMLPrinter::PushAttribute
_TEXT	ENDS
; Function compile flags: /Odtp /RTCsu /ZI
;	COMDAT ?PushAttribute@XMLPrinter@tinyxml2@@QAEXPBDH@Z
_TEXT	SEGMENT
_buf$ = -220						; size = 200
_this$ = -12						; size = 4
__$ArrayPad$ = -4					; size = 4
_name$ = 8						; size = 4
_v$ = 12						; size = 4
?PushAttribute@XMLPrinter@tinyxml2@@QAEXPBDH@Z PROC	; tinyxml2::XMLPrinter::PushAttribute, COMDAT
; _this$ = ecx
; File f:\cavestory\cavestory\cavestory\tinyxml2.cpp
; Line 2249
  00000	55		 push	 ebp
  00001	8b ec		 mov	 ebp, esp
  00003	81 ec a0 01 00
	00		 sub	 esp, 416		; 000001a0H
  00009	53		 push	 ebx
  0000a	56		 push	 esi
  0000b	57		 push	 edi
  0000c	51		 push	 ecx
  0000d	8d bd 60 fe ff
	ff		 lea	 edi, DWORD PTR [ebp-416]
  00013	b9 68 00 00 00	 mov	 ecx, 104		; 00000068H
  00018	b8 cc cc cc cc	 mov	 eax, -858993460		; ccccccccH
  0001d	f3 ab		 rep stosd
  0001f	59		 pop	 ecx
  00020	a1 00 00 00 00	 mov	 eax, DWORD PTR ___security_cookie
  00025	33 c5		 xor	 eax, ebp
  00027	89 45 fc	 mov	 DWORD PTR __$ArrayPad$[ebp], eax
  0002a	89 4d f4	 mov	 DWORD PTR _this$[ebp], ecx
; Line 2251
  0002d	68 c8 00 00 00	 push	 200			; 000000c8H
  00032	8d 85 24 ff ff
	ff		 lea	 eax, DWORD PTR _buf$[ebp]
  00038	50		 push	 eax
  00039	8b 4d 0c	 mov	 ecx, DWORD PTR _v$[ebp]
  0003c	51		 push	 ecx
  0003d	e8 00 00 00 00	 call	 ?ToStr@XMLUtil@tinyxml2@@SAXHPADH@Z ; tinyxml2::XMLUtil::ToStr
  00042	83 c4 0c	 add	 esp, 12			; 0000000cH
; Line 2252
  00045	8d 85 24 ff ff
	ff		 lea	 eax, DWORD PTR _buf$[ebp]
  0004b	50		 push	 eax
  0004c	8b 4d 08	 mov	 ecx, DWORD PTR _name$[ebp]
  0004f	51		 push	 ecx
  00050	8b 4d f4	 mov	 ecx, DWORD PTR _this$[ebp]
  00053	e8 00 00 00 00	 call	 ?PushAttribute@XMLPrinter@tinyxml2@@QAEXPBD0@Z ; tinyxml2::XMLPrinter::PushAttribute
; Line 2253
  00058	52		 push	 edx
  00059	8b cd		 mov	 ecx, ebp
  0005b	50		 push	 eax
  0005c	8d 15 00 00 00
	00		 lea	 edx, DWORD PTR $LN5@PushAttrib
  00062	e8 00 00 00 00	 call	 @_RTC_CheckStackVars@8
  00067	58		 pop	 eax
  00068	5a		 pop	 edx
  00069	5f		 pop	 edi
  0006a	5e		 pop	 esi
  0006b	5b		 pop	 ebx
  0006c	8b 4d fc	 mov	 ecx, DWORD PTR __$ArrayPad$[ebp]
  0006f	33 cd		 xor	 ecx, ebp
  00071	e8 00 00 00 00	 call	 @__security_check_cookie@4
  00076	81 c4 a0 01 00
	00		 add	 esp, 416		; 000001a0H
  0007c	3b ec		 cmp	 ebp, esp
  0007e	e8 00 00 00 00	 call	 __RTC_CheckEsp
  00083	8b e5		 mov	 esp, ebp
  00085	5d		 pop	 ebp
  00086	c2 08 00	 ret	 8
  00089	8d 49 00	 npad	 3
$LN5@PushAttrib:
  0008c	01 00 00 00	 DD	 1
  00090	00 00 00 00	 DD	 $LN4@PushAttrib
$LN4@PushAttrib:
  00094	24 ff ff ff	 DD	 -220			; ffffff24H
  00098	c8 00 00 00	 DD	 200			; 000000c8H
  0009c	00 00 00 00	 DD	 $LN3@PushAttrib
$LN3@PushAttrib:
  000a0	62		 DB	 98			; 00000062H
  000a1	75		 DB	 117			; 00000075H
  000a2	66		 DB	 102			; 00000066H
  000a3	00		 DB	 0
?PushAttribute@XMLPrinter@tinyxml2@@QAEXPBDH@Z ENDP	; tinyxml2::XMLPrinter::PushAttribute
_TEXT	ENDS
; Function compile flags: /Odtp /RTCsu /ZI
;	COMDAT ?PushAttribute@XMLPrinter@tinyxml2@@QAEXPBD0@Z
_TEXT	SEGMENT
_this$ = -8						; size = 4
_name$ = 8						; size = 4
_value$ = 12						; size = 4
?PushAttribute@XMLPrinter@tinyxml2@@QAEXPBD0@Z PROC	; tinyxml2::XMLPrinter::PushAttribute, COMDAT
; _this$ = ecx
; File f:\cavestory\cavestory\cavestory\tinyxml2.cpp
; Line 2240
  00000	55		 push	 ebp
  00001	8b ec		 mov	 ebp, esp
  00003	81 ec cc 00 00
	00		 sub	 esp, 204		; 000000ccH
  00009	53		 push	 ebx
  0000a	56		 push	 esi
  0000b	57		 push	 edi
  0000c	51		 push	 ecx
  0000d	8d bd 34 ff ff
	ff		 lea	 edi, DWORD PTR [ebp-204]
  00013	b9 33 00 00 00	 mov	 ecx, 51			; 00000033H
  00018	b8 cc cc cc cc	 mov	 eax, -858993460		; ccccccccH
  0001d	f3 ab		 rep stosd
  0001f	59		 pop	 ecx
  00020	89 4d f8	 mov	 DWORD PTR _this$[ebp], ecx
; Line 2241
  00023	8b 45 f8	 mov	 eax, DWORD PTR _this$[ebp]
  00026	0f b6 48 04	 movzx	 ecx, BYTE PTR [eax+4]
  0002a	85 c9		 test	 ecx, ecx
  0002c	75 01		 jne	 SHORT $LN1@PushAttrib
  0002e	cc		 int	 3
$LN1@PushAttrib:
; Line 2242
  0002f	8b 45 08	 mov	 eax, DWORD PTR _name$[ebp]
  00032	50		 push	 eax
  00033	68 00 00 00 00	 push	 OFFSET ??_C@_05LCDLMEIP@?5?$CFs?$DN?$CC?$AA@
  00038	8b 4d f8	 mov	 ecx, DWORD PTR _this$[ebp]
  0003b	51		 push	 ecx
  0003c	e8 00 00 00 00	 call	 ?Print@XMLPrinter@tinyxml2@@IAAXPBDZZ ; tinyxml2::XMLPrinter::Print
  00041	83 c4 0c	 add	 esp, 12			; 0000000cH
; Line 2243
  00044	6a 00		 push	 0
  00046	8b 45 0c	 mov	 eax, DWORD PTR _value$[ebp]
  00049	50		 push	 eax
  0004a	8b 4d f8	 mov	 ecx, DWORD PTR _this$[ebp]
  0004d	e8 00 00 00 00	 call	 ?PrintString@XMLPrinter@tinyxml2@@AAEXPBD_N@Z ; tinyxml2::XMLPrinter::PrintString
; Line 2244
  00052	68 00 00 00 00	 push	 OFFSET ??_C@_01BJJEKLCA@?$CC?$AA@
  00057	8b 45 f8	 mov	 eax, DWORD PTR _this$[ebp]
  0005a	50		 push	 eax
  0005b	e8 00 00 00 00	 call	 ?Print@XMLPrinter@tinyxml2@@IAAXPBDZZ ; tinyxml2::XMLPrinter::Print
  00060	83 c4 08	 add	 esp, 8
; Line 2245
  00063	5f		 pop	 edi
  00064	5e		 pop	 esi
  00065	5b		 pop	 ebx
  00066	81 c4 cc 00 00
	00		 add	 esp, 204		; 000000ccH
  0006c	3b ec		 cmp	 ebp, esp
  0006e	e8 00 00 00 00	 call	 __RTC_CheckEsp
  00073	8b e5		 mov	 esp, ebp
  00075	5d		 pop	 ebp
  00076	c2 08 00	 ret	 8
?PushAttribute@XMLPrinter@tinyxml2@@QAEXPBD0@Z ENDP	; tinyxml2::XMLPrinter::PushAttribute
_TEXT	ENDS
; Function compile flags: /Odtp /RTCsu /ZI
;	COMDAT ?OpenElement@XMLPrinter@tinyxml2@@QAEXPBD_N@Z
_TEXT	SEGMENT
_this$ = -8						; size = 4
_name$ = 8						; size = 4
_compactMode$ = 12					; size = 1
?OpenElement@XMLPrinter@tinyxml2@@QAEXPBD_N@Z PROC	; tinyxml2::XMLPrinter::OpenElement, COMDAT
; _this$ = ecx
; File f:\cavestory\cavestory\cavestory\tinyxml2.cpp
; Line 2221
  00000	55		 push	 ebp
  00001	8b ec		 mov	 ebp, esp
  00003	81 ec cc 00 00
	00		 sub	 esp, 204		; 000000ccH
  00009	53		 push	 ebx
  0000a	56		 push	 esi
  0000b	57		 push	 edi
  0000c	51		 push	 ecx
  0000d	8d bd 34 ff ff
	ff		 lea	 edi, DWORD PTR [ebp-204]
  00013	b9 33 00 00 00	 mov	 ecx, 51			; 00000033H
  00018	b8 cc cc cc cc	 mov	 eax, -858993460		; ccccccccH
  0001d	f3 ab		 rep stosd
  0001f	59		 pop	 ecx
  00020	89 4d f8	 mov	 DWORD PTR _this$[ebp], ecx
; Line 2222
  00023	8b 4d f8	 mov	 ecx, DWORD PTR _this$[ebp]
  00026	e8 00 00 00 00	 call	 ?SealElementIfJustOpened@XMLPrinter@tinyxml2@@IAEXXZ ; tinyxml2::XMLPrinter::SealElementIfJustOpened
; Line 2223
  0002b	8b 45 08	 mov	 eax, DWORD PTR _name$[ebp]
  0002e	50		 push	 eax
  0002f	8b 4d f8	 mov	 ecx, DWORD PTR _this$[ebp]
  00032	83 c1 08	 add	 ecx, 8
  00035	e8 00 00 00 00	 call	 ?Push@?$DynArray@PBD$09@tinyxml2@@QAEXPBD@Z ; tinyxml2::DynArray<char const *,10>::Push
; Line 2225
  0003a	8b 45 f8	 mov	 eax, DWORD PTR _this$[ebp]
  0003d	83 78 48 00	 cmp	 DWORD PTR [eax+72], 0
  00041	7d 24		 jge	 SHORT $LN2@OpenElemen
  00043	8b 45 f8	 mov	 eax, DWORD PTR _this$[ebp]
  00046	0f b6 48 3c	 movzx	 ecx, BYTE PTR [eax+60]
  0004a	85 c9		 test	 ecx, ecx
  0004c	75 19		 jne	 SHORT $LN2@OpenElemen
  0004e	0f b6 45 0c	 movzx	 eax, BYTE PTR _compactMode$[ebp]
  00052	85 c0		 test	 eax, eax
  00054	75 11		 jne	 SHORT $LN2@OpenElemen
; Line 2226
  00056	68 00 00 00 00	 push	 OFFSET ??_C@_01EEMJAFIK@?6?$AA@
  0005b	8b 45 f8	 mov	 eax, DWORD PTR _this$[ebp]
  0005e	50		 push	 eax
  0005f	e8 00 00 00 00	 call	 ?Print@XMLPrinter@tinyxml2@@IAAXPBDZZ ; tinyxml2::XMLPrinter::Print
  00064	83 c4 08	 add	 esp, 8
$LN2@OpenElemen:
; Line 2228
  00067	0f b6 45 0c	 movzx	 eax, BYTE PTR _compactMode$[ebp]
  0006b	85 c0		 test	 eax, eax
  0006d	75 1d		 jne	 SHORT $LN1@OpenElemen
; Line 2229
  0006f	8b f4		 mov	 esi, esp
  00071	8b 45 f8	 mov	 eax, DWORD PTR _this$[ebp]
  00074	8b 48 44	 mov	 ecx, DWORD PTR [eax+68]
  00077	51		 push	 ecx
  00078	8b 55 f8	 mov	 edx, DWORD PTR _this$[ebp]
  0007b	8b 02		 mov	 eax, DWORD PTR [edx]
  0007d	8b 4d f8	 mov	 ecx, DWORD PTR _this$[ebp]
  00080	8b 50 2c	 mov	 edx, DWORD PTR [eax+44]
  00083	ff d2		 call	 edx
  00085	3b f4		 cmp	 esi, esp
  00087	e8 00 00 00 00	 call	 __RTC_CheckEsp
$LN1@OpenElemen:
; Line 2232
  0008c	8b 45 08	 mov	 eax, DWORD PTR _name$[ebp]
  0008f	50		 push	 eax
  00090	68 00 00 00 00	 push	 OFFSET ??_C@_03FONCMJME@?$DM?$CFs?$AA@
  00095	8b 4d f8	 mov	 ecx, DWORD PTR _this$[ebp]
  00098	51		 push	 ecx
  00099	e8 00 00 00 00	 call	 ?Print@XMLPrinter@tinyxml2@@IAAXPBDZZ ; tinyxml2::XMLPrinter::Print
  0009e	83 c4 0c	 add	 esp, 12			; 0000000cH
; Line 2233
  000a1	8b 45 f8	 mov	 eax, DWORD PTR _this$[ebp]
  000a4	c6 40 04 01	 mov	 BYTE PTR [eax+4], 1
; Line 2234
  000a8	8b 45 f8	 mov	 eax, DWORD PTR _this$[ebp]
  000ab	c6 40 3c 00	 mov	 BYTE PTR [eax+60], 0
; Line 2235
  000af	8b 45 f8	 mov	 eax, DWORD PTR _this$[ebp]
  000b2	8b 48 44	 mov	 ecx, DWORD PTR [eax+68]
  000b5	83 c1 01	 add	 ecx, 1
  000b8	8b 55 f8	 mov	 edx, DWORD PTR _this$[ebp]
  000bb	89 4a 44	 mov	 DWORD PTR [edx+68], ecx
; Line 2236
  000be	5f		 pop	 edi
  000bf	5e		 pop	 esi
  000c0	5b		 pop	 ebx
  000c1	81 c4 cc 00 00
	00		 add	 esp, 204		; 000000ccH
  000c7	3b ec		 cmp	 ebp, esp
  000c9	e8 00 00 00 00	 call	 __RTC_CheckEsp
  000ce	8b e5		 mov	 esp, ebp
  000d0	5d		 pop	 ebp
  000d1	c2 08 00	 ret	 8
?OpenElement@XMLPrinter@tinyxml2@@QAEXPBD_N@Z ENDP	; tinyxml2::XMLPrinter::OpenElement
_TEXT	ENDS
; Function compile flags: /Odtp /RTCsu /ZI
;	COMDAT ?PushHeader@XMLPrinter@tinyxml2@@QAEX_N0@Z
_TEXT	SEGMENT
_this$ = -8						; size = 4
_writeBOM$ = 8						; size = 1
_writeDec$ = 12						; size = 1
?PushHeader@XMLPrinter@tinyxml2@@QAEX_N0@Z PROC		; tinyxml2::XMLPrinter::PushHeader, COMDAT
; _this$ = ecx
; File f:\cavestory\cavestory\cavestory\tinyxml2.cpp
; Line 2209
  00000	55		 push	 ebp
  00001	8b ec		 mov	 ebp, esp
  00003	81 ec cc 00 00
	00		 sub	 esp, 204		; 000000ccH
  00009	53		 push	 ebx
  0000a	56		 push	 esi
  0000b	57		 push	 edi
  0000c	51		 push	 ecx
  0000d	8d bd 34 ff ff
	ff		 lea	 edi, DWORD PTR [ebp-204]
  00013	b9 33 00 00 00	 mov	 ecx, 51			; 00000033H
  00018	b8 cc cc cc cc	 mov	 eax, -858993460		; ccccccccH
  0001d	f3 ab		 rep stosd
  0001f	59		 pop	 ecx
  00020	89 4d f8	 mov	 DWORD PTR _this$[ebp], ecx
; Line 2210
  00023	0f b6 45 08	 movzx	 eax, BYTE PTR _writeBOM$[ebp]
  00027	85 c0		 test	 eax, eax
  00029	74 16		 je	 SHORT $LN2@PushHeader
; Line 2212
  0002b	68 00 00 00 00	 push	 OFFSET ?bom@?4??PushHeader@XMLPrinter@tinyxml2@@QAEX_N0@Z@4QBEB
  00030	68 00 00 00 00	 push	 OFFSET ??_C@_02DKCKIIND@?$CFs?$AA@
  00035	8b 45 f8	 mov	 eax, DWORD PTR _this$[ebp]
  00038	50		 push	 eax
  00039	e8 00 00 00 00	 call	 ?Print@XMLPrinter@tinyxml2@@IAAXPBDZZ ; tinyxml2::XMLPrinter::Print
  0003e	83 c4 0c	 add	 esp, 12			; 0000000cH
$LN2@PushHeader:
; Line 2214
  00041	0f b6 45 0c	 movzx	 eax, BYTE PTR _writeDec$[ebp]
  00045	85 c0		 test	 eax, eax
  00047	74 0d		 je	 SHORT $LN3@PushHeader
; Line 2215
  00049	68 00 00 00 00	 push	 OFFSET ??_C@_0BC@CIAMHNHO@xml?5version?$DN?$CC1?40?$CC?$AA@
  0004e	8b 4d f8	 mov	 ecx, DWORD PTR _this$[ebp]
  00051	e8 00 00 00 00	 call	 ?PushDeclaration@XMLPrinter@tinyxml2@@QAEXPBD@Z ; tinyxml2::XMLPrinter::PushDeclaration
$LN3@PushHeader:
; Line 2217
  00056	5f		 pop	 edi
  00057	5e		 pop	 esi
  00058	5b		 pop	 ebx
  00059	81 c4 cc 00 00
	00		 add	 esp, 204		; 000000ccH
  0005f	3b ec		 cmp	 ebp, esp
  00061	e8 00 00 00 00	 call	 __RTC_CheckEsp
  00066	8b e5		 mov	 esp, ebp
  00068	5d		 pop	 ebp
  00069	c2 08 00	 ret	 8
?PushHeader@XMLPrinter@tinyxml2@@QAEX_N0@Z ENDP		; tinyxml2::XMLPrinter::PushHeader
_TEXT	ENDS
; Function compile flags: /Odtp /RTCsu /ZI
;	COMDAT ??1XMLPrinter@tinyxml2@@UAE@XZ
_TEXT	SEGMENT
_this$ = -20						; size = 4
__$EHRec$ = -12						; size = 12
??1XMLPrinter@tinyxml2@@UAE@XZ PROC			; tinyxml2::XMLPrinter::~XMLPrinter, COMDAT
; _this$ = ecx
; File f:\cavestory\cavestory\cavestory\tinyxml2.h
; Line 1989
  00000	55		 push	 ebp
  00001	8b ec		 mov	 ebp, esp
  00003	6a ff		 push	 -1
  00005	68 00 00 00 00	 push	 __ehhandler$??1XMLPrinter@tinyxml2@@UAE@XZ
  0000a	64 a1 00 00 00
	00		 mov	 eax, DWORD PTR fs:0
  00010	50		 push	 eax
  00011	81 ec cc 00 00
	00		 sub	 esp, 204		; 000000ccH
  00017	53		 push	 ebx
  00018	56		 push	 esi
  00019	57		 push	 edi
  0001a	51		 push	 ecx
  0001b	8d bd 28 ff ff
	ff		 lea	 edi, DWORD PTR [ebp-216]
  00021	b9 33 00 00 00	 mov	 ecx, 51			; 00000033H
  00026	b8 cc cc cc cc	 mov	 eax, -858993460		; ccccccccH
  0002b	f3 ab		 rep stosd
  0002d	59		 pop	 ecx
  0002e	a1 00 00 00 00	 mov	 eax, DWORD PTR ___security_cookie
  00033	33 c5		 xor	 eax, ebp
  00035	50		 push	 eax
  00036	8d 45 f4	 lea	 eax, DWORD PTR __$EHRec$[ebp]
  00039	64 a3 00 00 00
	00		 mov	 DWORD PTR fs:0, eax
  0003f	89 4d ec	 mov	 DWORD PTR _this$[ebp], ecx
  00042	8b 45 ec	 mov	 eax, DWORD PTR _this$[ebp]
  00045	c7 00 00 00 00
	00		 mov	 DWORD PTR [eax], OFFSET ??_7XMLPrinter@tinyxml2@@6B@
  0004b	c7 45 fc 01 00
	00 00		 mov	 DWORD PTR __$EHRec$[ebp+8], 1
  00052	8b 4d ec	 mov	 ecx, DWORD PTR _this$[ebp]
  00055	81 c1 d0 00 00
	00		 add	 ecx, 208		; 000000d0H
  0005b	e8 00 00 00 00	 call	 ??1?$DynArray@D$0BE@@tinyxml2@@QAE@XZ ; tinyxml2::DynArray<char,20>::~DynArray<char,20>
  00060	c6 45 fc 00	 mov	 BYTE PTR __$EHRec$[ebp+8], 0
  00064	8b 4d ec	 mov	 ecx, DWORD PTR _this$[ebp]
  00067	83 c1 08	 add	 ecx, 8
  0006a	e8 00 00 00 00	 call	 ??1?$DynArray@PBD$09@tinyxml2@@QAE@XZ ; tinyxml2::DynArray<char const *,10>::~DynArray<char const *,10>
  0006f	c7 45 fc ff ff
	ff ff		 mov	 DWORD PTR __$EHRec$[ebp+8], -1
  00076	8b 4d ec	 mov	 ecx, DWORD PTR _this$[ebp]
  00079	e8 00 00 00 00	 call	 ??1XMLVisitor@tinyxml2@@UAE@XZ ; tinyxml2::XMLVisitor::~XMLVisitor
  0007e	8b 4d f4	 mov	 ecx, DWORD PTR __$EHRec$[ebp]
  00081	64 89 0d 00 00
	00 00		 mov	 DWORD PTR fs:0, ecx
  00088	59		 pop	 ecx
  00089	5f		 pop	 edi
  0008a	5e		 pop	 esi
  0008b	5b		 pop	 ebx
  0008c	81 c4 d8 00 00
	00		 add	 esp, 216		; 000000d8H
  00092	3b ec		 cmp	 ebp, esp
  00094	e8 00 00 00 00	 call	 __RTC_CheckEsp
  00099	8b e5		 mov	 esp, ebp
  0009b	5d		 pop	 ebp
  0009c	c3		 ret	 0
_TEXT	ENDS
;	COMDAT text$x
text$x	SEGMENT
__unwindfunclet$??1XMLPrinter@tinyxml2@@UAE@XZ$0:
  00000	8b 4d ec	 mov	 ecx, DWORD PTR _this$[ebp]
  00003	e9 00 00 00 00	 jmp	 ??1XMLVisitor@tinyxml2@@UAE@XZ ; tinyxml2::XMLVisitor::~XMLVisitor
__unwindfunclet$??1XMLPrinter@tinyxml2@@UAE@XZ$1:
  00008	8b 4d ec	 mov	 ecx, DWORD PTR _this$[ebp]
  0000b	83 c1 08	 add	 ecx, 8
  0000e	e9 00 00 00 00	 jmp	 ??1?$DynArray@PBD$09@tinyxml2@@QAE@XZ ; tinyxml2::DynArray<char const *,10>::~DynArray<char const *,10>
__ehhandler$??1XMLPrinter@tinyxml2@@UAE@XZ:
  00013	8b 54 24 08	 mov	 edx, DWORD PTR [esp+8]
  00017	8d 42 0c	 lea	 eax, DWORD PTR [edx+12]
  0001a	8b 8a 24 ff ff
	ff		 mov	 ecx, DWORD PTR [edx-220]
  00020	33 c8		 xor	 ecx, eax
  00022	e8 00 00 00 00	 call	 @__security_check_cookie@4
  00027	b8 00 00 00 00	 mov	 eax, OFFSET __ehfuncinfo$??1XMLPrinter@tinyxml2@@UAE@XZ
  0002c	e9 00 00 00 00	 jmp	 ___CxxFrameHandler3
text$x	ENDS
??1XMLPrinter@tinyxml2@@UAE@XZ ENDP			; tinyxml2::XMLPrinter::~XMLPrinter
; Function compile flags: /Odtp /RTCsu /ZI
;	COMDAT ??0XMLPrinter@tinyxml2@@QAE@PAU_iobuf@@_NH@Z
_TEXT	SEGMENT
tv146 = -256						; size = 4
_entityValue$2 = -53					; size = 1
_i$3 = -44						; size = 4
_i$4 = -32						; size = 4
_this$ = -20						; size = 4
__$EHRec$ = -12						; size = 12
_file$ = 8						; size = 4
_compact$ = 12						; size = 1
_depth$ = 16						; size = 4
??0XMLPrinter@tinyxml2@@QAE@PAU_iobuf@@_NH@Z PROC	; tinyxml2::XMLPrinter::XMLPrinter, COMDAT
; _this$ = ecx
; File f:\cavestory\cavestory\cavestory\tinyxml2.cpp
; Line 2111
  00000	55		 push	 ebp
  00001	8b ec		 mov	 ebp, esp
  00003	6a ff		 push	 -1
  00005	68 00 00 00 00	 push	 __ehhandler$??0XMLPrinter@tinyxml2@@QAE@PAU_iobuf@@_NH@Z
  0000a	64 a1 00 00 00
	00		 mov	 eax, DWORD PTR fs:0
  00010	50		 push	 eax
  00011	81 ec f4 00 00
	00		 sub	 esp, 244		; 000000f4H
  00017	53		 push	 ebx
  00018	56		 push	 esi
  00019	57		 push	 edi
  0001a	51		 push	 ecx
  0001b	8d bd 00 ff ff
	ff		 lea	 edi, DWORD PTR [ebp-256]
  00021	b9 3d 00 00 00	 mov	 ecx, 61			; 0000003dH
  00026	b8 cc cc cc cc	 mov	 eax, -858993460		; ccccccccH
  0002b	f3 ab		 rep stosd
  0002d	59		 pop	 ecx
  0002e	a1 00 00 00 00	 mov	 eax, DWORD PTR ___security_cookie
  00033	33 c5		 xor	 eax, ebp
  00035	50		 push	 eax
  00036	8d 45 f4	 lea	 eax, DWORD PTR __$EHRec$[ebp]
  00039	64 a3 00 00 00
	00		 mov	 DWORD PTR fs:0, eax
  0003f	89 4d ec	 mov	 DWORD PTR _this$[ebp], ecx
  00042	8b 4d ec	 mov	 ecx, DWORD PTR _this$[ebp]
  00045	e8 00 00 00 00	 call	 ??0XMLVisitor@tinyxml2@@QAE@XZ
  0004a	c7 45 fc 00 00
	00 00		 mov	 DWORD PTR __$EHRec$[ebp+8], 0
  00051	8b 45 ec	 mov	 eax, DWORD PTR _this$[ebp]
  00054	c7 00 00 00 00
	00		 mov	 DWORD PTR [eax], OFFSET ??_7XMLPrinter@tinyxml2@@6B@
  0005a	8b 45 ec	 mov	 eax, DWORD PTR _this$[ebp]
  0005d	c6 40 04 00	 mov	 BYTE PTR [eax+4], 0
  00061	8b 4d ec	 mov	 ecx, DWORD PTR _this$[ebp]
  00064	83 c1 08	 add	 ecx, 8
  00067	e8 00 00 00 00	 call	 ??0?$DynArray@PBD$09@tinyxml2@@QAE@XZ ; tinyxml2::DynArray<char const *,10>::DynArray<char const *,10>
  0006c	c6 45 fc 01	 mov	 BYTE PTR __$EHRec$[ebp+8], 1
  00070	8b 45 ec	 mov	 eax, DWORD PTR _this$[ebp]
  00073	c6 40 3c 01	 mov	 BYTE PTR [eax+60], 1
  00077	8b 45 ec	 mov	 eax, DWORD PTR _this$[ebp]
  0007a	8b 4d 08	 mov	 ecx, DWORD PTR _file$[ebp]
  0007d	89 48 40	 mov	 DWORD PTR [eax+64], ecx
  00080	8b 45 ec	 mov	 eax, DWORD PTR _this$[ebp]
  00083	8b 4d 10	 mov	 ecx, DWORD PTR _depth$[ebp]
  00086	89 48 44	 mov	 DWORD PTR [eax+68], ecx
  00089	8b 45 ec	 mov	 eax, DWORD PTR _this$[ebp]
  0008c	c7 40 48 ff ff
	ff ff		 mov	 DWORD PTR [eax+72], -1
  00093	8b 45 ec	 mov	 eax, DWORD PTR _this$[ebp]
  00096	c6 40 4c 01	 mov	 BYTE PTR [eax+76], 1
  0009a	8b 45 ec	 mov	 eax, DWORD PTR _this$[ebp]
  0009d	8a 4d 0c	 mov	 cl, BYTE PTR _compact$[ebp]
  000a0	88 48 4d	 mov	 BYTE PTR [eax+77], cl
  000a3	8b 4d ec	 mov	 ecx, DWORD PTR _this$[ebp]
  000a6	81 c1 d0 00 00
	00		 add	 ecx, 208		; 000000d0H
  000ac	e8 00 00 00 00	 call	 ??0?$DynArray@D$0BE@@tinyxml2@@QAE@XZ ; tinyxml2::DynArray<char,20>::DynArray<char,20>
  000b1	c6 45 fc 02	 mov	 BYTE PTR __$EHRec$[ebp+8], 2
; Line 2112
  000b5	c7 45 e0 00 00
	00 00		 mov	 DWORD PTR _i$4[ebp], 0
  000bc	eb 09		 jmp	 SHORT $LN7@XMLPrinter
$LN6@XMLPrinter:
  000be	8b 45 e0	 mov	 eax, DWORD PTR _i$4[ebp]
  000c1	83 c0 01	 add	 eax, 1
  000c4	89 45 e0	 mov	 DWORD PTR _i$4[ebp], eax
$LN7@XMLPrinter:
  000c7	83 7d e0 40	 cmp	 DWORD PTR _i$4[ebp], 64	; 00000040H
  000cb	7d 19		 jge	 SHORT $LN5@XMLPrinter
; Line 2113
  000cd	8b 45 ec	 mov	 eax, DWORD PTR _this$[ebp]
  000d0	03 45 e0	 add	 eax, DWORD PTR _i$4[ebp]
  000d3	c6 40 4e 00	 mov	 BYTE PTR [eax+78], 0
; Line 2114
  000d7	8b 45 ec	 mov	 eax, DWORD PTR _this$[ebp]
  000da	03 45 e0	 add	 eax, DWORD PTR _i$4[ebp]
  000dd	c6 80 8e 00 00
	00 00		 mov	 BYTE PTR [eax+142], 0
; Line 2115
  000e4	eb d8		 jmp	 SHORT $LN6@XMLPrinter
$LN5@XMLPrinter:
; Line 2116
  000e6	c7 45 d4 00 00
	00 00		 mov	 DWORD PTR _i$3[ebp], 0
  000ed	eb 09		 jmp	 SHORT $LN4@XMLPrinter
$LN3@XMLPrinter:
  000ef	8b 45 d4	 mov	 eax, DWORD PTR _i$3[ebp]
  000f2	83 c0 01	 add	 eax, 1
  000f5	89 45 d4	 mov	 DWORD PTR _i$3[ebp], eax
$LN4@XMLPrinter:
  000f8	83 7d d4 05	 cmp	 DWORD PTR _i$3[ebp], 5
  000fc	7d 4c		 jge	 SHORT $LN2@XMLPrinter
; Line 2117
  000fe	6b 45 d4 0c	 imul	 eax, DWORD PTR _i$3[ebp], 12
  00102	8a 88 08 00 00
	00		 mov	 cl, BYTE PTR _entities[eax+8]
  00108	88 4d cb	 mov	 BYTE PTR _entityValue$2[ebp], cl
; Line 2118
  0010b	0f be 45 cb	 movsx	 eax, BYTE PTR _entityValue$2[ebp]
  0010f	85 c0		 test	 eax, eax
  00111	7c 15		 jl	 SHORT $LN10@XMLPrinter
  00113	0f be 4d cb	 movsx	 ecx, BYTE PTR _entityValue$2[ebp]
  00117	83 f9 40	 cmp	 ecx, 64			; 00000040H
  0011a	7d 0c		 jge	 SHORT $LN10@XMLPrinter
  0011c	c7 85 00 ff ff
	ff 01 00 00 00	 mov	 DWORD PTR tv146[ebp], 1
  00126	eb 0a		 jmp	 SHORT $LN11@XMLPrinter
$LN10@XMLPrinter:
  00128	c7 85 00 ff ff
	ff 00 00 00 00	 mov	 DWORD PTR tv146[ebp], 0
$LN11@XMLPrinter:
  00132	83 bd 00 ff ff
	ff 00		 cmp	 DWORD PTR tv146[ebp], 0
  00139	75 01		 jne	 SHORT $LN1@XMLPrinter
  0013b	cc		 int	 3
$LN1@XMLPrinter:
; Line 2119
  0013c	0f b6 45 cb	 movzx	 eax, BYTE PTR _entityValue$2[ebp]
  00140	8b 4d ec	 mov	 ecx, DWORD PTR _this$[ebp]
  00143	c6 44 01 4e 01	 mov	 BYTE PTR [ecx+eax+78], 1
; Line 2120
  00148	eb a5		 jmp	 SHORT $LN3@XMLPrinter
$LN2@XMLPrinter:
; Line 2121
  0014a	b8 01 00 00 00	 mov	 eax, 1
  0014f	6b c8 26	 imul	 ecx, eax, 38
  00152	8b 55 ec	 mov	 edx, DWORD PTR _this$[ebp]
  00155	c6 84 0a 8e 00
	00 00 01	 mov	 BYTE PTR [edx+ecx+142], 1
; Line 2122
  0015d	b8 01 00 00 00	 mov	 eax, 1
  00162	6b c8 3c	 imul	 ecx, eax, 60
  00165	8b 55 ec	 mov	 edx, DWORD PTR _this$[ebp]
  00168	c6 84 0a 8e 00
	00 00 01	 mov	 BYTE PTR [edx+ecx+142], 1
; Line 2123
  00170	b8 01 00 00 00	 mov	 eax, 1
  00175	6b c8 3e	 imul	 ecx, eax, 62
  00178	8b 55 ec	 mov	 edx, DWORD PTR _this$[ebp]
  0017b	c6 84 0a 8e 00
	00 00 01	 mov	 BYTE PTR [edx+ecx+142], 1
; Line 2124
  00183	6a 00		 push	 0
  00185	8b 4d ec	 mov	 ecx, DWORD PTR _this$[ebp]
  00188	81 c1 d0 00 00
	00		 add	 ecx, 208		; 000000d0H
  0018e	e8 00 00 00 00	 call	 ?Push@?$DynArray@D$0BE@@tinyxml2@@QAEXD@Z ; tinyxml2::DynArray<char,20>::Push
; Line 2125
  00193	c7 45 fc ff ff
	ff ff		 mov	 DWORD PTR __$EHRec$[ebp+8], -1
  0019a	8b 45 ec	 mov	 eax, DWORD PTR _this$[ebp]
  0019d	8b 4d f4	 mov	 ecx, DWORD PTR __$EHRec$[ebp]
  001a0	64 89 0d 00 00
	00 00		 mov	 DWORD PTR fs:0, ecx
  001a7	59		 pop	 ecx
  001a8	5f		 pop	 edi
  001a9	5e		 pop	 esi
  001aa	5b		 pop	 ebx
  001ab	81 c4 00 01 00
	00		 add	 esp, 256		; 00000100H
  001b1	3b ec		 cmp	 ebp, esp
  001b3	e8 00 00 00 00	 call	 __RTC_CheckEsp
  001b8	8b e5		 mov	 esp, ebp
  001ba	5d		 pop	 ebp
  001bb	c2 0c 00	 ret	 12			; 0000000cH
_TEXT	ENDS
;	COMDAT text$x
text$x	SEGMENT
__unwindfunclet$??0XMLPrinter@tinyxml2@@QAE@PAU_iobuf@@_NH@Z$0:
  00000	8b 4d ec	 mov	 ecx, DWORD PTR _this$[ebp]
  00003	e9 00 00 00 00	 jmp	 ??1XMLVisitor@tinyxml2@@UAE@XZ ; tinyxml2::XMLVisitor::~XMLVisitor
__unwindfunclet$??0XMLPrinter@tinyxml2@@QAE@PAU_iobuf@@_NH@Z$1:
  00008	8b 4d ec	 mov	 ecx, DWORD PTR _this$[ebp]
  0000b	83 c1 08	 add	 ecx, 8
  0000e	e9 00 00 00 00	 jmp	 ??1?$DynArray@PBD$09@tinyxml2@@QAE@XZ ; tinyxml2::DynArray<char const *,10>::~DynArray<char const *,10>
__unwindfunclet$??0XMLPrinter@tinyxml2@@QAE@PAU_iobuf@@_NH@Z$2:
  00013	8b 4d ec	 mov	 ecx, DWORD PTR _this$[ebp]
  00016	81 c1 d0 00 00
	00		 add	 ecx, 208		; 000000d0H
  0001c	e9 00 00 00 00	 jmp	 ??1?$DynArray@D$0BE@@tinyxml2@@QAE@XZ ; tinyxml2::DynArray<char,20>::~DynArray<char,20>
__ehhandler$??0XMLPrinter@tinyxml2@@QAE@PAU_iobuf@@_NH@Z:
  00021	8b 54 24 08	 mov	 edx, DWORD PTR [esp+8]
  00025	8d 42 0c	 lea	 eax, DWORD PTR [edx+12]
  00028	8b 8a fc fe ff
	ff		 mov	 ecx, DWORD PTR [edx-260]
  0002e	33 c8		 xor	 ecx, eax
  00030	e8 00 00 00 00	 call	 @__security_check_cookie@4
  00035	b8 00 00 00 00	 mov	 eax, OFFSET __ehfuncinfo$??0XMLPrinter@tinyxml2@@QAE@PAU_iobuf@@_NH@Z
  0003a	e9 00 00 00 00	 jmp	 ___CxxFrameHandler3
text$x	ENDS
??0XMLPrinter@tinyxml2@@QAE@PAU_iobuf@@_NH@Z ENDP	; tinyxml2::XMLPrinter::XMLPrinter
; Function compile flags: /Odtp /RTCsu /ZI
;	COMDAT ??_GXMLDocument@tinyxml2@@UAEPAXI@Z
_TEXT	SEGMENT
_this$ = -8						; size = 4
___flags$ = 8						; size = 4
??_GXMLDocument@tinyxml2@@UAEPAXI@Z PROC		; tinyxml2::XMLDocument::`scalar deleting destructor', COMDAT
; _this$ = ecx
  00000	55		 push	 ebp
  00001	8b ec		 mov	 ebp, esp
  00003	81 ec cc 00 00
	00		 sub	 esp, 204		; 000000ccH
  00009	53		 push	 ebx
  0000a	56		 push	 esi
  0000b	57		 push	 edi
  0000c	51		 push	 ecx
  0000d	8d bd 34 ff ff
	ff		 lea	 edi, DWORD PTR [ebp-204]
  00013	b9 33 00 00 00	 mov	 ecx, 51			; 00000033H
  00018	b8 cc cc cc cc	 mov	 eax, -858993460		; ccccccccH
  0001d	f3 ab		 rep stosd
  0001f	59		 pop	 ecx
  00020	89 4d f8	 mov	 DWORD PTR _this$[ebp], ecx
  00023	8b 4d f8	 mov	 ecx, DWORD PTR _this$[ebp]
  00026	e8 00 00 00 00	 call	 ??1XMLDocument@tinyxml2@@UAE@XZ ; tinyxml2::XMLDocument::~XMLDocument
  0002b	8b 45 08	 mov	 eax, DWORD PTR ___flags$[ebp]
  0002e	83 e0 01	 and	 eax, 1
  00031	74 0c		 je	 SHORT $LN1@scalar
  00033	8b 45 f8	 mov	 eax, DWORD PTR _this$[ebp]
  00036	50		 push	 eax
  00037	e8 00 00 00 00	 call	 ??3@YAXPAX@Z		; operator delete
  0003c	83 c4 04	 add	 esp, 4
$LN1@scalar:
  0003f	8b 45 f8	 mov	 eax, DWORD PTR _this$[ebp]
  00042	5f		 pop	 edi
  00043	5e		 pop	 esi
  00044	5b		 pop	 ebx
  00045	81 c4 cc 00 00
	00		 add	 esp, 204		; 000000ccH
  0004b	3b ec		 cmp	 ebp, esp
  0004d	e8 00 00 00 00	 call	 __RTC_CheckEsp
  00052	8b e5		 mov	 esp, ebp
  00054	5d		 pop	 ebp
  00055	c2 04 00	 ret	 4
??_GXMLDocument@tinyxml2@@UAEPAXI@Z ENDP		; tinyxml2::XMLDocument::`scalar deleting destructor'
_TEXT	ENDS
; Function compile flags: /Odtp /RTCsu /ZI
;	COMDAT ?Parse@XMLDocument@tinyxml2@@AAEXXZ
_TEXT	SEGMENT
_p$ = -20						; size = 4
_this$ = -8						; size = 4
?Parse@XMLDocument@tinyxml2@@AAEXXZ PROC		; tinyxml2::XMLDocument::Parse, COMDAT
; _this$ = ecx
; File f:\cavestory\cavestory\cavestory\tinyxml2.cpp
; Line 2090
  00000	55		 push	 ebp
  00001	8b ec		 mov	 ebp, esp
  00003	81 ec d8 00 00
	00		 sub	 esp, 216		; 000000d8H
  00009	53		 push	 ebx
  0000a	56		 push	 esi
  0000b	57		 push	 edi
  0000c	51		 push	 ecx
  0000d	8d bd 28 ff ff
	ff		 lea	 edi, DWORD PTR [ebp-216]
  00013	b9 36 00 00 00	 mov	 ecx, 54			; 00000036H
  00018	b8 cc cc cc cc	 mov	 eax, -858993460		; ccccccccH
  0001d	f3 ab		 rep stosd
  0001f	59		 pop	 ecx
  00020	89 4d f8	 mov	 DWORD PTR _this$[ebp], ecx
; Line 2091
  00023	8b 4d f8	 mov	 ecx, DWORD PTR _this$[ebp]
  00026	e8 00 00 00 00	 call	 ?NoChildren@XMLNode@tinyxml2@@QBE_NXZ ; tinyxml2::XMLNode::NoChildren
  0002b	0f b6 c0	 movzx	 eax, al
  0002e	85 c0		 test	 eax, eax
  00030	75 01		 jne	 SHORT $LN3@Parse
  00032	cc		 int	 3
$LN3@Parse:
; Line 2092
  00033	8b 45 f8	 mov	 eax, DWORD PTR _this$[ebp]
  00036	83 78 40 00	 cmp	 DWORD PTR [eax+64], 0
  0003a	75 01		 jne	 SHORT $LN2@Parse
  0003c	cc		 int	 3
$LN2@Parse:
; Line 2093
  0003d	8b 45 f8	 mov	 eax, DWORD PTR _this$[ebp]
  00040	8b 48 40	 mov	 ecx, DWORD PTR [eax+64]
  00043	89 4d ec	 mov	 DWORD PTR _p$[ebp], ecx
; Line 2094
  00046	8b 45 ec	 mov	 eax, DWORD PTR _p$[ebp]
  00049	50		 push	 eax
  0004a	e8 00 00 00 00	 call	 ?SkipWhiteSpace@XMLUtil@tinyxml2@@SAPADPAD@Z ; tinyxml2::XMLUtil::SkipWhiteSpace
  0004f	83 c4 04	 add	 esp, 4
  00052	89 45 ec	 mov	 DWORD PTR _p$[ebp], eax
; Line 2095
  00055	8b 45 f8	 mov	 eax, DWORD PTR _this$[ebp]
  00058	83 c0 2c	 add	 eax, 44			; 0000002cH
  0005b	50		 push	 eax
  0005c	8b 4d ec	 mov	 ecx, DWORD PTR _p$[ebp]
  0005f	51		 push	 ecx
  00060	e8 00 00 00 00	 call	 ?ReadBOM@XMLUtil@tinyxml2@@SAPBDPBDPA_N@Z ; tinyxml2::XMLUtil::ReadBOM
  00065	83 c4 08	 add	 esp, 8
  00068	89 45 ec	 mov	 DWORD PTR _p$[ebp], eax
; Line 2096
  0006b	8b 45 ec	 mov	 eax, DWORD PTR _p$[ebp]
  0006e	0f be 08	 movsx	 ecx, BYTE PTR [eax]
  00071	85 c9		 test	 ecx, ecx
  00073	75 10		 jne	 SHORT $LN1@Parse
; Line 2097
  00075	6a 00		 push	 0
  00077	6a 00		 push	 0
  00079	6a 0f		 push	 15			; 0000000fH
  0007b	8b 4d f8	 mov	 ecx, DWORD PTR _this$[ebp]
  0007e	e8 00 00 00 00	 call	 ?SetError@XMLDocument@tinyxml2@@QAEXW4XMLError@2@PBD1@Z ; tinyxml2::XMLDocument::SetError
; Line 2098
  00083	eb 1c		 jmp	 SHORT $LN4@Parse
$LN1@Parse:
; Line 2100
  00085	8b f4		 mov	 esi, esp
  00087	6a 00		 push	 0
  00089	8b 45 ec	 mov	 eax, DWORD PTR _p$[ebp]
  0008c	50		 push	 eax
  0008d	8b 4d f8	 mov	 ecx, DWORD PTR _this$[ebp]
  00090	8b 11		 mov	 edx, DWORD PTR [ecx]
  00092	8b 4d f8	 mov	 ecx, DWORD PTR _this$[ebp]
  00095	8b 42 40	 mov	 eax, DWORD PTR [edx+64]
  00098	ff d0		 call	 eax
  0009a	3b f4		 cmp	 esi, esp
  0009c	e8 00 00 00 00	 call	 __RTC_CheckEsp
$LN4@Parse:
; Line 2101
  000a1	5f		 pop	 edi
  000a2	5e		 pop	 esi
  000a3	5b		 pop	 ebx
  000a4	81 c4 d8 00 00
	00		 add	 esp, 216		; 000000d8H
  000aa	3b ec		 cmp	 ebp, esp
  000ac	e8 00 00 00 00	 call	 __RTC_CheckEsp
  000b1	8b e5		 mov	 esp, ebp
  000b3	5d		 pop	 ebp
  000b4	c3		 ret	 0
?Parse@XMLDocument@tinyxml2@@AAEXXZ ENDP		; tinyxml2::XMLDocument::Parse
_TEXT	ENDS
; Function compile flags: /Odtp /RTCsu /ZI
;	COMDAT ??_G?$MemPoolT@$0CM@@tinyxml2@@UAEPAXI@Z
_TEXT	SEGMENT
_this$ = -8						; size = 4
___flags$ = 8						; size = 4
??_G?$MemPoolT@$0CM@@tinyxml2@@UAEPAXI@Z PROC		; tinyxml2::MemPoolT<44>::`scalar deleting destructor', COMDAT
; _this$ = ecx
  00000	55		 push	 ebp
  00001	8b ec		 mov	 ebp, esp
  00003	81 ec cc 00 00
	00		 sub	 esp, 204		; 000000ccH
  00009	53		 push	 ebx
  0000a	56		 push	 esi
  0000b	57		 push	 edi
  0000c	51		 push	 ecx
  0000d	8d bd 34 ff ff
	ff		 lea	 edi, DWORD PTR [ebp-204]
  00013	b9 33 00 00 00	 mov	 ecx, 51			; 00000033H
  00018	b8 cc cc cc cc	 mov	 eax, -858993460		; ccccccccH
  0001d	f3 ab		 rep stosd
  0001f	59		 pop	 ecx
  00020	89 4d f8	 mov	 DWORD PTR _this$[ebp], ecx
  00023	8b 4d f8	 mov	 ecx, DWORD PTR _this$[ebp]
  00026	e8 00 00 00 00	 call	 ??1?$MemPoolT@$0CM@@tinyxml2@@UAE@XZ ; tinyxml2::MemPoolT<44>::~MemPoolT<44>
  0002b	8b 45 08	 mov	 eax, DWORD PTR ___flags$[ebp]
  0002e	83 e0 01	 and	 eax, 1
  00031	74 0c		 je	 SHORT $LN1@scalar
  00033	8b 45 f8	 mov	 eax, DWORD PTR _this$[ebp]
  00036	50		 push	 eax
  00037	e8 00 00 00 00	 call	 ??3@YAXPAX@Z		; operator delete
  0003c	83 c4 04	 add	 esp, 4
$LN1@scalar:
  0003f	8b 45 f8	 mov	 eax, DWORD PTR _this$[ebp]
  00042	5f		 pop	 edi
  00043	5e		 pop	 esi
  00044	5b		 pop	 ebx
  00045	81 c4 cc 00 00
	00		 add	 esp, 204		; 000000ccH
  0004b	3b ec		 cmp	 ebp, esp
  0004d	e8 00 00 00 00	 call	 __RTC_CheckEsp
  00052	8b e5		 mov	 esp, ebp
  00054	5d		 pop	 ebp
  00055	c2 04 00	 ret	 4
??_G?$MemPoolT@$0CM@@tinyxml2@@UAEPAXI@Z ENDP		; tinyxml2::MemPoolT<44>::`scalar deleting destructor'
_TEXT	ENDS
; Function compile flags: /Odtp /RTCsu /ZI
;	COMDAT ?EnsureCapacity@?$DynArray@PAUBlock@?$MemPoolT@$0CM@@tinyxml2@@$09@tinyxml2@@AAEXH@Z
_TEXT	SEGMENT
$T1 = -248						; size = 4
$T2 = -236						; size = 4
_newMem$3 = -32						; size = 4
_newAllocated$4 = -20					; size = 4
_this$ = -8						; size = 4
_cap$ = 8						; size = 4
?EnsureCapacity@?$DynArray@PAUBlock@?$MemPoolT@$0CM@@tinyxml2@@$09@tinyxml2@@AAEXH@Z PROC ; tinyxml2::DynArray<tinyxml2::MemPoolT<44>::Block *,10>::EnsureCapacity, COMDAT
; _this$ = ecx
; File f:\cavestory\cavestory\cavestory\tinyxml2.h
; Line 271
  00000	55		 push	 ebp
  00001	8b ec		 mov	 ebp, esp
  00003	81 ec fc 00 00
	00		 sub	 esp, 252		; 000000fcH
  00009	53		 push	 ebx
  0000a	56		 push	 esi
  0000b	57		 push	 edi
  0000c	51		 push	 ecx
  0000d	8d bd 04 ff ff
	ff		 lea	 edi, DWORD PTR [ebp-252]
  00013	b9 3f 00 00 00	 mov	 ecx, 63			; 0000003fH
  00018	b8 cc cc cc cc	 mov	 eax, -858993460		; ccccccccH
  0001d	f3 ab		 rep stosd
  0001f	59		 pop	 ecx
  00020	89 4d f8	 mov	 DWORD PTR _this$[ebp], ecx
; Line 272
  00023	83 7d 08 00	 cmp	 DWORD PTR _cap$[ebp], 0
  00027	7f 01		 jg	 SHORT $LN4@EnsureCapa
  00029	cc		 int	 3
$LN4@EnsureCapa:
; Line 273
  0002a	8b 45 f8	 mov	 eax, DWORD PTR _this$[ebp]
  0002d	8b 4d 08	 mov	 ecx, DWORD PTR _cap$[ebp]
  00030	3b 48 2c	 cmp	 ecx, DWORD PTR [eax+44]
  00033	0f 8e 91 00 00
	00		 jle	 $LN5@EnsureCapa
; Line 274
  00039	81 7d 08 ff ff
	ff 3f		 cmp	 DWORD PTR _cap$[ebp], 1073741823 ; 3fffffffH
  00040	7e 01		 jle	 SHORT $LN2@EnsureCapa
  00042	cc		 int	 3
$LN2@EnsureCapa:
; Line 275
  00043	8b 45 08	 mov	 eax, DWORD PTR _cap$[ebp]
  00046	d1 e0		 shl	 eax, 1
  00048	89 45 ec	 mov	 DWORD PTR _newAllocated$4[ebp], eax
; Line 276
  0004b	33 c9		 xor	 ecx, ecx
  0004d	8b 45 ec	 mov	 eax, DWORD PTR _newAllocated$4[ebp]
  00050	ba 04 00 00 00	 mov	 edx, 4
  00055	f7 e2		 mul	 edx
  00057	0f 90 c1	 seto	 cl
  0005a	f7 d9		 neg	 ecx
  0005c	0b c8		 or	 ecx, eax
  0005e	51		 push	 ecx
  0005f	e8 00 00 00 00	 call	 ??_U@YAPAXI@Z		; operator new[]
  00064	83 c4 04	 add	 esp, 4
  00067	89 85 08 ff ff
	ff		 mov	 DWORD PTR $T1[ebp], eax
  0006d	8b 85 08 ff ff
	ff		 mov	 eax, DWORD PTR $T1[ebp]
  00073	89 45 e0	 mov	 DWORD PTR _newMem$3[ebp], eax
; Line 277
  00076	8b 45 f8	 mov	 eax, DWORD PTR _this$[ebp]
  00079	8b 48 30	 mov	 ecx, DWORD PTR [eax+48]
  0007c	c1 e1 02	 shl	 ecx, 2
  0007f	51		 push	 ecx
  00080	8b 55 f8	 mov	 edx, DWORD PTR _this$[ebp]
  00083	8b 02		 mov	 eax, DWORD PTR [edx]
  00085	50		 push	 eax
  00086	8b 4d e0	 mov	 ecx, DWORD PTR _newMem$3[ebp]
  00089	51		 push	 ecx
  0008a	e8 00 00 00 00	 call	 _memcpy
  0008f	83 c4 0c	 add	 esp, 12			; 0000000cH
; Line 278
  00092	8b 45 f8	 mov	 eax, DWORD PTR _this$[ebp]
  00095	83 c0 04	 add	 eax, 4
  00098	8b 4d f8	 mov	 ecx, DWORD PTR _this$[ebp]
  0009b	39 01		 cmp	 DWORD PTR [ecx], eax
  0009d	74 1a		 je	 SHORT $LN1@EnsureCapa
; Line 279
  0009f	8b 45 f8	 mov	 eax, DWORD PTR _this$[ebp]
  000a2	8b 08		 mov	 ecx, DWORD PTR [eax]
  000a4	89 8d 14 ff ff
	ff		 mov	 DWORD PTR $T2[ebp], ecx
  000aa	8b 95 14 ff ff
	ff		 mov	 edx, DWORD PTR $T2[ebp]
  000b0	52		 push	 edx
  000b1	e8 00 00 00 00	 call	 ??_V@YAXPAX@Z		; operator delete[]
  000b6	83 c4 04	 add	 esp, 4
$LN1@EnsureCapa:
; Line 281
  000b9	8b 45 f8	 mov	 eax, DWORD PTR _this$[ebp]
  000bc	8b 4d e0	 mov	 ecx, DWORD PTR _newMem$3[ebp]
  000bf	89 08		 mov	 DWORD PTR [eax], ecx
; Line 282
  000c1	8b 45 f8	 mov	 eax, DWORD PTR _this$[ebp]
  000c4	8b 4d ec	 mov	 ecx, DWORD PTR _newAllocated$4[ebp]
  000c7	89 48 2c	 mov	 DWORD PTR [eax+44], ecx
$LN5@EnsureCapa:
; Line 284
  000ca	5f		 pop	 edi
  000cb	5e		 pop	 esi
  000cc	5b		 pop	 ebx
  000cd	81 c4 fc 00 00
	00		 add	 esp, 252		; 000000fcH
  000d3	3b ec		 cmp	 ebp, esp
  000d5	e8 00 00 00 00	 call	 __RTC_CheckEsp
  000da	8b e5		 mov	 esp, ebp
  000dc	5d		 pop	 ebp
  000dd	c2 04 00	 ret	 4
?EnsureCapacity@?$DynArray@PAUBlock@?$MemPoolT@$0CM@@tinyxml2@@$09@tinyxml2@@AAEXH@Z ENDP ; tinyxml2::DynArray<tinyxml2::MemPoolT<44>::Block *,10>::EnsureCapacity
_TEXT	ENDS
; Function compile flags: /Odtp /RTCsu /ZI
;	COMDAT ?Empty@?$DynArray@PAUBlock@?$MemPoolT@$0CM@@tinyxml2@@$09@tinyxml2@@QBE_NXZ
_TEXT	SEGMENT
tv66 = -208						; size = 4
_this$ = -8						; size = 4
?Empty@?$DynArray@PAUBlock@?$MemPoolT@$0CM@@tinyxml2@@$09@tinyxml2@@QBE_NXZ PROC ; tinyxml2::DynArray<tinyxml2::MemPoolT<44>::Block *,10>::Empty, COMDAT
; _this$ = ecx
; File f:\cavestory\cavestory\cavestory\tinyxml2.h
; Line 228
  00000	55		 push	 ebp
  00001	8b ec		 mov	 ebp, esp
  00003	81 ec d0 00 00
	00		 sub	 esp, 208		; 000000d0H
  00009	53		 push	 ebx
  0000a	56		 push	 esi
  0000b	57		 push	 edi
  0000c	51		 push	 ecx
  0000d	8d bd 30 ff ff
	ff		 lea	 edi, DWORD PTR [ebp-208]
  00013	b9 34 00 00 00	 mov	 ecx, 52			; 00000034H
  00018	b8 cc cc cc cc	 mov	 eax, -858993460		; ccccccccH
  0001d	f3 ab		 rep stosd
  0001f	59		 pop	 ecx
  00020	89 4d f8	 mov	 DWORD PTR _this$[ebp], ecx
; Line 229
  00023	8b 45 f8	 mov	 eax, DWORD PTR _this$[ebp]
  00026	83 78 30 00	 cmp	 DWORD PTR [eax+48], 0
  0002a	75 0c		 jne	 SHORT $LN3@Empty
  0002c	c7 85 30 ff ff
	ff 01 00 00 00	 mov	 DWORD PTR tv66[ebp], 1
  00036	eb 0a		 jmp	 SHORT $LN4@Empty
$LN3@Empty:
  00038	c7 85 30 ff ff
	ff 00 00 00 00	 mov	 DWORD PTR tv66[ebp], 0
$LN4@Empty:
  00042	8a 85 30 ff ff
	ff		 mov	 al, BYTE PTR tv66[ebp]
; Line 230
  00048	5f		 pop	 edi
  00049	5e		 pop	 esi
  0004a	5b		 pop	 ebx
  0004b	8b e5		 mov	 esp, ebp
  0004d	5d		 pop	 ebp
  0004e	c3		 ret	 0
?Empty@?$DynArray@PAUBlock@?$MemPoolT@$0CM@@tinyxml2@@$09@tinyxml2@@QBE_NXZ ENDP ; tinyxml2::DynArray<tinyxml2::MemPoolT<44>::Block *,10>::Empty
_TEXT	ENDS
; Function compile flags: /Odtp /RTCsu /ZI
;	COMDAT ?Pop@?$DynArray@PAUBlock@?$MemPoolT@$0CM@@tinyxml2@@$09@tinyxml2@@QAEPAUBlock@?$MemPoolT@$0CM@@2@XZ
_TEXT	SEGMENT
tv71 = -208						; size = 4
_this$ = -8						; size = 4
?Pop@?$DynArray@PAUBlock@?$MemPoolT@$0CM@@tinyxml2@@$09@tinyxml2@@QAEPAUBlock@?$MemPoolT@$0CM@@2@XZ PROC ; tinyxml2::DynArray<tinyxml2::MemPoolT<44>::Block *,10>::Pop, COMDAT
; _this$ = ecx
